LX51 LINKER/LOCATER V4.66.1.0                                                           04/08/2019  16:56:50  PAGE 1


LX51 LINKER/LOCATER V4.66.1.0, INVOKED BY:
D:\KEIL4\C51\BIN\LX51.EXE ..\OBJ\stc_eeprom.obj, ..\OBJ\delay.obj, ..\OBJ\Main_Tik_Tok.obj, ..\OBJ\WS_Task_Manage.obj, .
>> .\OBJ\Main_Tik_Function.obj, ..\OBJ\Sub_Tik_Function.obj, ..\OBJ\Normal_Task.obj, ..\OBJ\ActivityFunctions.obj, ..\OB
>> J\Sound_Type.obj, ..\OBJ\main.obj, ..\OBJ\StcRomCrc16.obj, ..\OBJ\lcd.obj, ..\OBJ\w25x.obj, ..\OBJ\sht21.obj, ..\OBJ\
>> RX8010.obj, ..\OBJ\ds18b20.obj, ..\OBJ\key_datas.obj, ..\OBJ\Key_Multifun.obj, ..\OBJ\GUI.obj, ..\OBJ\uart_fun.obj TO
>>  ..\OBJ\VHB15A PRINT (.\VHB15A.map) CLASSES (XDATA (X:0X0-X:0X3FF), HDATA (X:0X0-X:0X3FF), CODE (C:0X0-C:0XEFFF), CON
>> ST (C:0X0-C:0XEFFF), ECODE (C:0X0-C:0XEFFF), HCONST (C:0X0-C:0XEFFF))


CPU MODE:     8051 MODE
MEMORY MODEL: LARGE


INPUT MODULES INCLUDED:
  ..\OBJ\stc_eeprom.obj (STC_EEPROM)
         COMMENT TYPE 0: C51 V9.52.0.0
  ..\OBJ\delay.obj (DELAY)
         COMMENT TYPE 0: C51 V9.52.0.0
  ..\OBJ\Main_Tik_Tok.obj (MAIN_TIK_TOK)
         COMMENT TYPE 0: C51 V9.52.0.0
  ..\OBJ\WS_Task_Manage.obj (WS_TASK_MANAGE)
         COMMENT TYPE 0: C51 V9.52.0.0
  ..\OBJ\Main_Tik_Function.obj (MAIN_TIK_FUNCTION)
         COMMENT TYPE 0: C51 V9.52.0.0
  ..\OBJ\Sub_Tik_Function.obj (SUB_TIK_FUNCTION)
         COMMENT TYPE 0: C51 V9.52.0.0
  ..\OBJ\Normal_Task.obj (NORMAL_TASK)
         COMMENT TYPE 0: C51 V9.52.0.0
  ..\OBJ\ActivityFunctions.obj (ACTIVITYFUNCTIONS)
         COMMENT TYPE 0: C51 V9.52.0.0
  ..\OBJ\Sound_Type.obj (SOUND_TYPE)
         COMMENT TYPE 0: C51 V9.52.0.0
  ..\OBJ\main.obj (MAIN)
         COMMENT TYPE 0: C51 V9.52.0.0
  ..\OBJ\StcRomCrc16.obj (STCROMCRC16)
         COMMENT TYPE 0: C51 V9.52.0.0
  ..\OBJ\lcd.obj (LCD)
         COMMENT TYPE 0: C51 V9.52.0.0
  ..\OBJ\w25x.obj (W25X)
         COMMENT TYPE 0: C51 V9.52.0.0
  ..\OBJ\sht21.obj (SHT21)
         COMMENT TYPE 0: C51 V9.52.0.0
  ..\OBJ\RX8010.obj (RX8010)
         COMMENT TYPE 0: C51 V9.52.0.0
  ..\OBJ\ds18b20.obj (DS18B20)
         COMMENT TYPE 0: C51 V9.52.0.0
  ..\OBJ\key_datas.obj (KEY_DATAS)
         COMMENT TYPE 0: C51 V9.52.0.0
  ..\OBJ\Key_Multifun.obj (KEY_MULTIFUN)
         COMMENT TYPE 0: C51 V9.52.0.0
  ..\OBJ\GUI.obj (GUI)
         COMMENT TYPE 0: C51 V9.52.0.0
  ..\OBJ\uart_fun.obj (UART_FUN)
         COMMENT TYPE 0: C51 V9.52.0.0
  D:\KEIL4\C51\LIB\C51L.LIB (?C_STARTUP)
         COMMENT TYPE 1: A51 / ASM51 Assembler
  D:\KEIL4\C51\LIB\C51L.LIB (?C?COPY)
         COMMENT TYPE 1: A51 / ASM51 Assembler
  D:\KEIL4\C51\LIB\C51L.LIB (?C?CLDPTR)
         COMMENT TYPE 1: A51 / ASM51 Assembler
  D:\KEIL4\C51\LIB\C51L.LIB (?C?CLDOPTR)
         COMMENT TYPE 1: A51 / ASM51 Assembler
  D:\KEIL4\C51\LIB\C51L.LIB (?C?CSTPTR)
         COMMENT TYPE 1: A51 / ASM51 Assembler
  D:\KEIL4\C51\LIB\C51L.LIB (?C?CSTOPTR)
         COMMENT TYPE 1: A51 / ASM51 Assembler
LX51 LINKER/LOCATER V4.66.1.0                                                         04/08/2019  16:56:50  PAGE 2


  D:\KEIL4\C51\LIB\C51L.LIB (?C?IMUL)
         COMMENT TYPE 1: A51 / ASM51 Assembler
  D:\KEIL4\C51\LIB\C51L.LIB (?C?UIDIV)
         COMMENT TYPE 1: A51 / ASM51 Assembler
  D:\KEIL4\C51\LIB\C51L.LIB (?C?SIDIV)
         COMMENT TYPE 1: A51 / ASM51 Assembler
  D:\KEIL4\C51\LIB\C51L.LIB (?C?IILDX)
         COMMENT TYPE 1: A51 / ASM51 Assembler
  D:\KEIL4\C51\LIB\C51L.LIB (?C?LADD)
         COMMENT TYPE 1: A51 / ASM51 Assembler
  D:\KEIL4\C51\LIB\C51L.LIB (?C?LSUB)
         COMMENT TYPE 1: A51 / ASM51 Assembler
  D:\KEIL4\C51\LIB\C51L.LIB (?C?LMUL)
         COMMENT TYPE 1: A51 / ASM51 Assembler
  D:\KEIL4\C51\LIB\C51L.LIB (?C?ULDIV)
         COMMENT TYPE 1: A51 / ASM51 Assembler
  D:\KEIL4\C51\LIB\C51L.LIB (?C?SLDIV)
         COMMENT TYPE 1: A51 / ASM51 Assembler
  D:\KEIL4\C51\LIB\C51L.LIB (?C?LAND)
         COMMENT TYPE 1: A51 / ASM51 Assembler
  D:\KEIL4\C51\LIB\C51L.LIB (?C?LOR)
         COMMENT TYPE 1: A51 / ASM51 Assembler
  D:\KEIL4\C51\LIB\C51L.LIB (?C?LNOT)
         COMMENT TYPE 1: A51 / ASM51 Assembler
  D:\KEIL4\C51\LIB\C51L.LIB (?C?SLCMP)
         COMMENT TYPE 1: A51 / ASM51 Assembler
  D:\KEIL4\C51\LIB\C51L.LIB (?C?ULCMP)
         COMMENT TYPE 1: A51 / ASM51 Assembler
  D:\KEIL4\C51\LIB\C51L.LIB (?C?ULSHR)
         COMMENT TYPE 1: A51 / ASM51 Assembler
  D:\KEIL4\C51\LIB\C51L.LIB (?C?LSHL)
         COMMENT TYPE 1: A51 / ASM51 Assembler
  D:\KEIL4\C51\LIB\C51L.LIB (?C?LLDXDATA)
         COMMENT TYPE 1: A51 / ASM51 Assembler
  D:\KEIL4\C51\LIB\C51L.LIB (?C?LLDXDATA0)
         COMMENT TYPE 1: A51 / ASM51 Assembler
  D:\KEIL4\C51\LIB\C51L.LIB (?C?LSTXDATA)
         COMMENT TYPE 1: A51 / ASM51 Assembler
  D:\KEIL4\C51\LIB\C51L.LIB (?C?LSTKXDATA)
         COMMENT TYPE 1: A51 / ASM51 Assembler
  D:\KEIL4\C51\LIB\C51L.LIB (?C?OFFXADD)
         COMMENT TYPE 1: A51 / ASM51 Assembler
  D:\KEIL4\C51\LIB\C51L.LIB (?C?PLDXDATA)
         COMMENT TYPE 1: A51 / ASM51 Assembler
  D:\KEIL4\C51\LIB\C51L.LIB (?C?PSTXDATA)
         COMMENT TYPE 1: A51 / ASM51 Assembler
  D:\KEIL4\C51\LIB\C51L.LIB (?C?PLDPTR)
         COMMENT TYPE 1: A51 / ASM51 Assembler
  D:\KEIL4\C51\LIB\C51L.LIB (?C?PLDOPTR)
         COMMENT TYPE 1: A51 / ASM51 Assembler
  D:\KEIL4\C51\LIB\C51L.LIB (?C?CCASE)
         COMMENT TYPE 1: A51 / ASM51 Assembler
  D:\KEIL4\C51\LIB\C51L.LIB (?C?ICALL)
         COMMENT TYPE 1: A51 / ASM51 Assembler
  D:\KEIL4\C51\LIB\C51L.LIB (ABS)
         COMMENT TYPE 1: A51 / ASM51 Assembler
  D:\KEIL4\C51\LIB\C51L.LIB (?C?STRCPY)
         COMMENT TYPE 1: A51 / ASM51 Assembler
  D:\KEIL4\C51\LIB\C51L.LIB (?C_INIT)
         COMMENT TYPE 1: A51 / ASM51 Assembler
  D:\KEIL4\C51\LIB\C51L.LIB (?C?PLDIDATA)
         COMMENT TYPE 1: A51 / ASM51 Assembler
  D:\KEIL4\C51\LIB\C51L.LIB (?C?PLDPDATA)
         COMMENT TYPE 1: A51 / ASM51 Assembler
  D:\KEIL4\C51\LIB\C51L.LIB (?C?PLDCODE)
LX51 LINKER/LOCATER V4.66.1.0                                                         04/08/2019  16:56:50  PAGE 3


         COMMENT TYPE 1: A51 / ASM51 Assembler


ACTIVE MEMORY CLASSES OF MODULE:  ..\OBJ\VHB15A (STC_EEPROM)

BASE        START       END         USED      MEMORY CLASS
==========================================================
X:000000H   X:000000H   X:0003FFH   000363H   XDATA
X:000000H   X:000000H   X:0003FFH             HDATA
C:000000H   C:000000H   C:00EFFFH   00C946H   CODE
C:000000H   C:000000H   C:00EFFFH             CONST
C:000000H   C:000000H   C:00EFFFH             ECODE
B00:0000H   C:000000H   C:00EFFFH             HCONST
I:000020H.0 I:000020H.0 I:00002FH.7 000000H.3 BIT
I:000000H   I:000000H   I:0000FFH   000001H   IDATA
I:000000H   I:000000H   I:00007FH   000018H   DATA


MEMORY MAP OF MODULE:  ..\OBJ\VHB15A (STC_EEPROM)


START     STOP      LENGTH    ALIGN  RELOC    MEMORY CLASS   SEGMENT NAME
=========================================================================

* * * * * * * * * * *   D A T A   M E M O R Y   * * * * * * * * * * * * *
000000H   000007H   000008H   ---    AT..     DATA           "REG BANK 0"
000008H   00000FH   000008H   ---    AT..     DATA           "REG BANK 1"
000010H   000017H   000008H   ---    AT..     DATA           "REG BANK 2"
000018H.0 00001FH.7 000008H.0 ---    ---      **GAP**
000020H.0 000020H.2 000000H.3 BIT    UNIT     BIT            _BIT_GROUP_
000020H.3 000020H   000000H.5 ---    ---      **GAP**
000021H   000021H   000001H   BYTE   UNIT     IDATA          ?STACK

* * * * * * * * * * *   C O D E   M E M O R Y   * * * * * * * * * * * * *
000000H   000002H   000003H   ---    OFFS..   CODE           ?CO??C_STARTUP?0
000003H   00000AH   000008H   BYTE   UNIT     CODE           ?L?COM0066
00000BH   00000DH   000003H   BYTE   OFFS..   CODE           ?ACTIVITYFUNCTIONS?0000B
00000EH   000012H   000005H   BYTE   UNIT     CODE           ?PR?_SDCMD?LCD
000013H   000015H   000003H   BYTE   OFFS..   CODE           ?ACTIVITYFUNCTIONS?00013
000016H   000021H   00000CH   BYTE   UNIT     CODE           ?PR?_ABS?ABS
000022H   000022H   000001H   ---    ---      **GAP**
000023H   000025H   000003H   BYTE   OFFS..   CODE           ?ACTIVITYFUNCTIONS?00023
000026H   0056B4H   00568FH   BYTE   UNIT     CODE           ?CO?LCD
0056B5H   005C79H   0005C5H   BYTE   UNIT     CODE           ?C?LIB_CODE
005C7AH   005FFBH   000382H   BYTE   UNIT     CODE           ?C_INITSEG
005FFCH   00628EH   000293H   BYTE   UNIT     CODE           ?CO?GUI
00628FH   00631AH   00008CH   BYTE   UNIT     CODE           ?C_C51STARTUP
00631BH   00635EH   000044H   BYTE   UNIT     CODE           ?C?LDIV
00635FH   006372H   000014H   BYTE   UNIT     CODE           ?PR?_STC_IAP_BYTE_READ?STC_EEPROM
006373H   00642DH   0000BBH   BYTE   UNIT     CODE           ?PR?MEM_FLASH_RECALL?ACTIVITYFUNCTIONS
00642EH   006606H   0001D9H   BYTE   UNIT     CODE           ?PR?_HMIENTERTOWORKSTATEFUNC?GUI
006607H   006630H   00002AH   BYTE   UNIT     CODE           ?L?COM0005
006631H   006641H   000011H   BYTE   UNIT     CODE           ?PR?_STC_IAP_BYTE_PROGRAM?STC_EEPROM
006642H   00664DH   00000CH   BYTE   UNIT     CODE           ?PR?IAP_DISABLE?STC_EEPROM
00664EH   00665AH   00000DH   BYTE   UNIT     CODE           ?L?COM006D
00665BH   00666AH   000010H   BYTE   UNIT     CODE           ?L?COM002F
00666BH   0066CBH   000061H   BYTE   UNIT     CODE           ?PR?SETTING_WRITE_TO_FLASH?ACTIVITYFUNCTIONS
0066CCH   0066E2H   000017H   BYTE   UNIT     CODE           ?L?COM0026
0066E3H   00679CH   0000BAH   BYTE   UNIT     CODE           ?PR?_LCD_SHOWSTRING?LCD
00679DH   0067ECH   000050H   BYTE   UNIT     CODE           ?PR?LCD_SHOW_VERION?LCD
0067EDH   0067F5H   000009H   BYTE   UNIT     CODE           ?L?COM0116
0067F6H   0067FCH   000007H   BYTE   UNIT     CODE           ?L?COM01A1
0067FDH   00680BH   00000FH   BYTE   UNIT     CODE           ?PR?_STC_IAP_SECTOR_ERASE?STC_EEPROM
00680CH   00681EH   000013H   BYTE   UNIT     CODE           ?L?COM00B8
00681FH   006837H   000019H   BYTE   UNIT     CODE           ?PR?_DELAY_US?DELAY
LX51 LINKER/LOCATER V4.66.1.0                                                         04/08/2019  16:56:50  PAGE 4


006838H   006A5CH   000225H   BYTE   UNIT     CODE           ?PR?GETTEMP_HPCHAMBERFUNC?ACTIVITYFUNCTIONS
006A5DH   006AA5H   000049H   BYTE   UNIT     CODE           ?PR?DS18B20_READBYTE?DS18B20
006AA6H   006AADH   000008H   BYTE   UNIT     CODE           ?L?COM00B7
006AAEH   006AFBH   00004EH   BYTE   UNIT     CODE           ?PR?_DS18B20_WRITEBYTE?DS18B20
006AFCH   006B55H   00005AH   BYTE   UNIT     CODE           ?PR?_SHT21_READ8BIT?SHT21
006B56H   006B5EH   000009H   BYTE   UNIT     CODE           ?L?COM00E3
006B5FH   006BCBH   00006DH   BYTE   UNIT     CODE           ?PR?_SHT21_WRITE8BIT?SHT21
006BCCH   006BD4H   000009H   BYTE   UNIT     CODE           ?PR?SCL_OUTPUT_LOW?SHT21
006BD5H   006BE3H   00000FH   BYTE   UNIT     CODE           ?PR?SCL_INPUT_HIGH?SHT21
006BE4H   006BEFH   00000CH   BYTE   UNIT     CODE           ?PR?SHT21_START?SHT21
006BF0H   006BF6H   000007H   BYTE   UNIT     CODE           ?PR?SDA_INPUT_HIGH?SHT21
006BF7H   006BFCH   000006H   BYTE   UNIT     CODE           ?PR?SHT21_WRITETEMP?SHT21
006BFDH   006C02H   000006H   BYTE   UNIT     CODE           ?PR?SHT21_WRITERH?SHT21
006C03H   006F41H   00033FH   BYTE   UNIT     CODE           ?PR?GETTEMPHUMIDITY_PATIENTFUNC?ACTIVITYFUNCTIONS
006F42H   006F47H   000006H   BYTE   UNIT     CODE           ?L?COM00CB
006F48H   006F4FH   000008H   BYTE   UNIT     CODE           ?L?COM0082
006F50H   006F5DH   00000EH   BYTE   UNIT     CODE           ?L?COM006B
006F5EH   006F6BH   00000EH   BYTE   UNIT     CODE           ?PR?SHT21_STOP?SHT21
006F6CH   006F74H   000009H   BYTE   UNIT     CODE           ?PR?SDA_OUTPUT_LOW?SHT21
006F75H   006F84H   000010H   BYTE   UNIT     CODE           ?L?COM00E1
006F85H   006F95H   000011H   BYTE   UNIT     CODE           ?PR?IC_STOP?RX8010
006F96H   006FA9H   000014H   BYTE   UNIT     CODE           ?L?COM0014
006FAAH   006FC1H   000018H   BYTE   UNIT     CODE           ?L?COM0067
006FC2H   006FC8H   000007H   BYTE   UNIT     CODE           ?L?COM0196
006FC9H   006FCFH   000007H   BYTE   UNIT     CODE           ?L?COM01F7
006FD0H   006FDBH   00000CH   BYTE   UNIT     CODE           ?L?COM011A
006FDCH   006FE2H   000007H   BYTE   UNIT     CODE           ?L?COM0161
006FE3H   006FE9H   000007H   BYTE   UNIT     CODE           ?L?COM01F9
006FEAH   006FF1H   000008H   BYTE   UNIT     CODE           ?L?COM018E
006FF2H   006FF9H   000008H   BYTE   UNIT     CODE           ?L?COM0194
006FFAH   007003H   00000AH   BYTE   UNIT     CODE           ?L?COM0124
007004H   007044H   000041H   BYTE   UNIT     CODE           ?PR?IC_READBYTE?RX8010
007045H   0070C0H   00007CH   BYTE   UNIT     CODE           ?PR?_READEEONE?RX8010
0070C1H   007116H   000056H   BYTE   UNIT     CODE           ?PR?_IC_WRITEBYTE?RX8010
007117H   00711DH   000007H   BYTE   UNIT     CODE           ?L?COM00D3
00711EH   007160H   000043H   BYTE   UNIT     CODE           ?PR?_WRITEEEONE?RX8010
007161H   00721CH   0000BCH   BYTE   UNIT     CODE           ?PR?RX8010_INITIALIZE?RX8010
00721DH   007226H   00000AH   BYTE   UNIT     CODE           ?L?COM00AF
007227H   00722DH   000007H   BYTE   UNIT     CODE           ?L?COM010C
00722EH   007234H   000007H   BYTE   UNIT     CODE           ?PR?SDA_DIR_OUTPUT?RX8010
007235H   007241H   00000DH   BYTE   UNIT     CODE           ?L?COM0069
007242H   007420H   0001DFH   BYTE   UNIT     CODE           ?PR?_REFRESHTEMPHUMIDYFUNC?ACTIVITYFUNCTIONS
007421H   00744DH   00002DH   BYTE   UNIT     CODE           ?L?COM0009
00744EH   007600H   0001B3H   BYTE   UNIT     CODE           ?PR?SERVICEMODE_TEMPHUMIDY_DISP?ACTIVITYFUNCTIONS
007601H   007628H   000028H   BYTE   UNIT     CODE           ?PR?_DISP_RH_17X40?LCD
007629H   0076DAH   0000B2H   BYTE   UNIT     CODE           ?PR?_DISP_MONO_GRAP?LCD
0076DBH   00770CH   000032H   BYTE   UNIT     CODE           ?L?COM0010
00770DH   007720H   000014H   BYTE   UNIT     CODE           ?L?COM0020
007721H   0077C5H   0000A5H   BYTE   UNIT     CODE           ?PR?_DRAW_RECTANGLE_REAL?LCD
0077C6H   0077DBH   000016H   BYTE   UNIT     CODE           ?L?COM0053
0077DCH   0077EDH   000012H   BYTE   UNIT     CODE           ?PR?_BIT_IS_ONE?ACTIVITYFUNCTIONS
0077EEH   007815H   000028H   BYTE   UNIT     CODE           ?PR?_DISP_TEMP_30X56?LCD
007816H   00781FH   00000AH   BYTE   UNIT     CODE           ?L?COM01A9
007820H   00782AH   00000BH   BYTE   UNIT     CODE           ?L?COM00AB
00782BH   007856H   00002CH   BYTE   UNIT     CODE           ?PR?_DISP_TIME_10X16?LCD
007857H   00795DH   000107H   BYTE   UNIT     CODE           ?PR?_DISPLAYTIME?GUI
00795EH   007969H   00000CH   BYTE   UNIT     CODE           ?L?COM0062
00796AH   007980H   000017H   BYTE   UNIT     CODE           ?L?COM004A
007981H   007B9DH   00021DH   BYTE   UNIT     CODE           ?PR?HMISETTIMEFUNC?GUI
007B9EH   007BA6H   000009H   BYTE   UNIT     CODE           ?L?COM0097
007BA7H   007BDEH   000038H   BYTE   UNIT     CODE           ?PR?REFRESHRTCTIMEFUNC?ACTIVITYFUNCTIONS
007BDFH   007BE7H   000009H   BYTE   UNIT     CODE           ?L?COM00A4
007BE8H   007C88H   0000A1H   BYTE   UNIT     CODE           ?PR?_REFRESHRUNTIMEFUNC?ACTIVITYFUNCTIONS
007C89H   007C96H   00000EH   BYTE   UNIT     CODE           ?L?COM0092
007C97H   007C9DH   000007H   BYTE   UNIT     CODE           ?L?COM013C
LX51 LINKER/LOCATER V4.66.1.0                                                         04/08/2019  16:56:50  PAGE 5


007C9EH   007CA8H   00000BH   BYTE   UNIT     CODE           ?L?COM00BE
007CA9H   007CB3H   00000BH   BYTE   UNIT     CODE           ?L?COM00BF
007CB4H   007E1BH   000168H   BYTE   UNIT     CODE           ?PR?DRAWWORKWINDOWS?LCD
007E1CH   007E37H   00001CH   BYTE   UNIT     CODE           ?PR?_DISP_RH14X24?LCD
007E38H   007E57H   000020H   BYTE   UNIT     CODE           ?L?COM001C
007E58H   007E77H   000020H   BYTE   UNIT     CODE           ?PR?_DISP_DHM?LCD
007E78H   007E7EH   000007H   BYTE   UNIT     CODE           ?L?COM01B4
007E7FH   007E8EH   000010H   BYTE   UNIT     CODE           ?L?COM0104
007E8FH   007EA8H   00001AH   BYTE   UNIT     CODE           ?L?COM002C
007EA9H   007ECBH   000023H   BYTE   UNIT     CODE           ?PR?_DISP_ICO_40X40?LCD
007ECCH   007EF3H   000028H   BYTE   UNIT     CODE           ?PR?_DISP_FNT10X24?LCD
007EF4H   007F22H   00002FH   BYTE   UNIT     CODE           ?L?COM0038
007F23H   007F56H   000034H   BYTE   UNIT     CODE           ?PR?_DISP_ICO_32X40?LCD
007F57H   007F60H   00000AH   BYTE   UNIT     CODE           ?L?COM00D4
007F61H   007F80H   000020H   BYTE   UNIT     CODE           ?PR?_DISP_ICO_52X64?LCD
007F81H   007FB9H   000039H   BYTE   UNIT     CODE           ?PR?_DISP_TEMP_38X64?LCD
007FBAH   007FBFH   000006H   BYTE   UNIT     CODE           ?L?COM019B
007FC0H   007FC7H   000008H   BYTE   UNIT     CODE           ?L?COM0112
007FC8H   007FCFH   000008H   BYTE   UNIT     CODE           ?L?COM0167
007FD0H   007FD7H   000008H   BYTE   UNIT     CODE           ?L?COM0168
007FD8H   007FDFH   000008H   BYTE   UNIT     CODE           ?L?COM01D3
007FE0H   007FE7H   000008H   BYTE   UNIT     CODE           ?L?COM01D5
007FE8H   007FEFH   000008H   BYTE   UNIT     CODE           ?L?COM01D6
007FF0H   007FF7H   000008H   BYTE   UNIT     CODE           ?L?COM01E4
007FF8H   008017H   000020H   BYTE   UNIT     CODE           ?PR?_DELAY_MS?DELAY
008018H   00802DH   000016H   BYTE   UNIT     CODE           ?PR?MAIN_TIK_TOK_INITIAL_FUN?MAIN_TIK_TOK
00802EH   008088H   00005BH   BYTE   UNIT     CODE           ?PR?MAIN?MAIN
008089H   00821EH   000196H   BYTE   UNIT     CODE           ?PR?MANAGETASK?NORMAL_TASK
00821FH   00822AH   00000CH   BYTE   UNIT     CODE           ?PR?_WS_SETTASKIFG?WS_TASK_MANAGE
00822BH   008317H   0000EDH   BYTE   UNIT     CODE           ?PR?INIT_PORT?ACTIVITYFUNCTIONS
008318H   0083F2H   0000DBH   BYTE   UNIT     CODE           ?PR?LCD_INITIAL?LCD
0083F3H   0083FDH   00000BH   BYTE   UNIT     CODE           ?L?COM0190
0083FEH   00842EH   000031H   BYTE   UNIT     CODE           ?PR?_SDDATA?LCD
00842FH   008464H   000036H   BYTE   UNIT     CODE           ?PR?_LCD_DRAWPOINT?LCD
008465H   008477H   000013H   BYTE   UNIT     CODE           ?PR?_LCD_CTRLWRITE_COLOR?LCD
008478H   008496H   00001FH   BYTE   UNIT     CODE           ?PR?_LCD_CTRLWRITE_ILI9328?LCD
008497H   008579H   0000E3H   BYTE   UNIT     CODE           ?PR?_DRAW_CIRCLE?LCD
00857AH   00859FH   000026H   BYTE   UNIT     CODE           ?L?COM0043
0085A0H   0085A4H   000005H   BYTE   UNIT     CODE           ?L?COM012A
0085A5H   0086CAH   000126H   BYTE   UNIT     CODE           ?PR?_DRAW_RECTANGLE?LCD
0086CBH   0086F1H   000027H   BYTE   UNIT     CODE           ?PR?_LCD_CRTLWRITE_AREA?LCD
0086F2H   0086F8H   000007H   BYTE   UNIT     CODE           ?L?COM013F
0086F9H   008703H   00000BH   BYTE   UNIT     CODE           ?L?COM00D7
008704H   008711H   00000EH   BYTE   UNIT     CODE           ?L?COM00F2
008712H   008719H   000008H   BYTE   UNIT     CODE           ?L?COM0127
00871AH   008726H   00000DH   BYTE   UNIT     CODE           ?L?COM00CE
008727H   008732H   00000CH   BYTE   UNIT     CODE           ?L?COM00F0
008733H   008745H   000013H   BYTE   UNIT     CODE           ?L?COM00C4
008746H   00874CH   000007H   BYTE   UNIT     CODE           ?L?COM0175
00874DH   008754H   000008H   BYTE   UNIT     CODE           ?L?COM0188
008755H   008761H   00000DH   BYTE   UNIT     CODE           ?L?COM00F9
008762H   00876DH   00000CH   BYTE   UNIT     CODE           ?L?COM0154
00876EH   0087D5H   000068H   BYTE   UNIT     CODE           ?PR?HMINON_INVASIVESELFUNC?GUI
0087D6H   0087DCH   000007H   BYTE   UNIT     CODE           ?L?COM01B9
0087DDH   0087F3H   000017H   BYTE   UNIT     CODE           ?L?COM008F
0087F4H   00881BH   000028H   BYTE   UNIT     CODE           ?PR?TIMER_T0_INT_MAIN?MAIN_TIK_TOK
00881CH   008820H   000005H   BYTE   UNIT     CODE           ?PR?MAIN_TIK_FUNCTIONS?MAIN_TIK_FUNCTION
008821H   008925H   000105H   BYTE   UNIT     CODE           ?PR?HEATERPLATEWIREDRIVEFBTASK?ACTIVITYFUNCTIONS
008926H   008933H   00000EH   BYTE   UNIT     CODE           ?PR?SUB_TIK_FUNCTIONS?SUB_TIK_FUNCTION
008934H   008946H   000013H   BYTE   UNIT     CODE           ?PR?HMISCREENSAVERMODE_TIK_CNT?GUI
008947H   008953H   00000DH   BYTE   UNIT     CODE           ?PR?KEY_UP_TIKFUNC?KEY_DATAS
008954H   008960H   00000DH   BYTE   UNIT     CODE           ?PR?KEY_DOWN_TIKFUNC?KEY_DATAS
008961H   00896DH   00000DH   BYTE   UNIT     CODE           ?PR?KEY_OK_TIKFUNC?KEY_DATAS
00896EH   00897AH   00000DH   BYTE   UNIT     CODE           ?PR?KEY_MUTE_TIKFUNC?KEY_DATAS
00897BH   008987H   00000DH   BYTE   UNIT     CODE           ?PR?HMIPOSTFUNC_TIK_CNT?GUI
LX51 LINKER/LOCATER V4.66.1.0                                                         04/08/2019  16:56:50  PAGE 6


008988H   008994H   00000DH   BYTE   UNIT     CODE           ?PR?HMINON_INVASIVESEL_TIK_CNT?GUI
008995H   0089ADH   000019H   BYTE   UNIT     CODE           ?PR?HMIFACTORYDEFAULT_TIK_CNT?GUI
0089AEH   0089DFH   000032H   BYTE   UNIT     CODE           ?PR?SOUND_TYPE_DRIVE?SOUND_TYPE
0089E0H   0089F3H   000014H   BYTE   UNIT     CODE           ?PR?_WS_DELTASKIFG?WS_TASK_MANAGE
0089F4H   008A78H   000085H   BYTE   UNIT     CODE           ?PR?KEYSCANTASK?NORMAL_TASK
008A79H   008B61H   0000E9H   BYTE   UNIT     CODE           ?PR?KEY_MULTIFUN?KEY_MULTIFUN
008B62H   008B67H   000006H   BYTE   UNIT     CODE           ?L?COM00D2
008B68H   008B7BH   000014H   BYTE   UNIT     CODE           ?L?COM008C
008B7CH   008B82H   000007H   BYTE   UNIT     CODE           ?L?COM0153
008B83H   008B8AH   000008H   BYTE   UNIT     CODE           ?L?COM0136
008B8BH   008B93H   000009H   BYTE   UNIT     CODE           ?L?COM011C
008B94H   008B9DH   00000AH   BYTE   UNIT     CODE           ?L?COM0103
008B9EH   008BE5H   000048H   BYTE   UNIT     CODE           ?PR?_SPI_READ_NBYTES?W25X
008BE6H   008EE1H   0002FCH   BYTE   UNIT     CODE           ?PR?HMISERVICEMODEFUNC?GUI
008EE2H   008EFDH   00001CH   BYTE   UNIT     CODE           ?L?COM0017
008EFEH   008F05H   000008H   BYTE   UNIT     CODE           ?L?COM00BD
008F06H   008F2EH   000029H   BYTE   UNIT     CODE           ?PR?_SPI_SEND_BYTE?W25X
008F2FH   008F6CH   00003EH   BYTE   UNIT     CODE           ?PR?_SPI_WRITE_NBYTES?W25X
008F6DH   008F7AH   00000EH   BYTE   UNIT     CODE           ?L?COM0059
008F7BH   008F98H   00001EH   BYTE   UNIT     CODE           ?PR?_SPI_ERASE_SECTOR?W25X
008F99H   008FA4H   00000CH   BYTE   UNIT     CODE           ?L?COM00E4
008FA5H   008FADH   000009H   BYTE   UNIT     CODE           ?PR?SPI_WRITE_ENABLE?W25X
008FAEH   008FB7H   00000AH   BYTE   UNIT     CODE           ?L?COM010A
008FB8H   008FC1H   00000AH   BYTE   UNIT     CODE           ?L?COM018B
008FC2H   008FCAH   000009H   BYTE   UNIT     CODE           ?L?COM019C
008FCBH   008FD3H   000009H   BYTE   UNIT     CODE           ?L?COM013A
008FD4H   008FE0H   00000DH   BYTE   UNIT     CODE           ?L?COM0146
008FE1H   008FEFH   00000FH   BYTE   UNIT     CODE           ?PR?HMISERVICEMODETASK?NORMAL_TASK
008FF0H   009018H   000029H   BYTE   UNIT     CODE           ?PR?_WS_TASKJUDGE?WS_TASK_MANAGE
009019H   009029H   000011H   BYTE   UNIT     CODE           ?L?COM00EA
00902AH   009038H   00000FH   BYTE   UNIT     CODE           ?PR?HMIPOSTTASK?NORMAL_TASK
009039H   0091D5H   00019DH   BYTE   UNIT     CODE           ?PR?HMIPOSTFUNC?GUI
0091D6H   0091EDH   000018H   BYTE   UNIT     CODE           ?L?COM006F
0091EEH   009238H   00004BH   BYTE   UNIT     CODE           ?L?COM0029
009239H   009240H   000008H   BYTE   UNIT     CODE           ?L?COM01D9
009241H   00950EH   0002CEH   BYTE   UNIT     CODE           ?PR?LOWTEMPDET1SFUNC?ACTIVITYFUNCTIONS
00950FH   00951CH   00000EH   BYTE   UNIT     CODE           ?L?COM0060
00951DH   009523H   000007H   BYTE   UNIT     CODE           ?L?COM01AE
009524H   00952BH   000008H   BYTE   UNIT     CODE           ?L?COM01D1
00952CH   009533H   000008H   BYTE   UNIT     CODE           ?L?COM01EE
009534H   00953BH   000008H   BYTE   UNIT     CODE           ?L?COM01EF
00953CH   009544H   000009H   BYTE   UNIT     CODE           ?L?COM01C9
009545H   009552H   00000EH   BYTE   UNIT     CODE           ?L?COM007B
009553H   009560H   00000EH   BYTE   UNIT     CODE           ?L?COM0086
009561H   0096B4H   000154H   BYTE   UNIT     CODE           ?PR?SAVEDATETOFLASHFUNC?ACTIVITYFUNCTIONS
0096B5H   0096C4H   000010H   BYTE   UNIT     CODE           ?L?COM00F4
0096C5H   0096CEH   00000AH   BYTE   UNIT     CODE           ?L?COM01AD
0096CFH   0096DDH   00000FH   BYTE   UNIT     CODE           ?L?COM0144
0096DEH   0096F0H   000013H   BYTE   UNIT     CODE           ?L?COM0119
0096F1H   009722H   000032H   BYTE   UNIT     CODE           ?L?COM0061
009723H   009729H   000007H   BYTE   UNIT     CODE           ?L?COM00B3
00972AH   009731H   000008H   BYTE   UNIT     CODE           ?L?COM0184
009732H   00973EH   00000DH   BYTE   UNIT     CODE           ?L?COM00B4
00973FH   00974DH   00000FH   BYTE   UNIT     CODE           ?PR?LOWTEMPDET1STASK?NORMAL_TASK
00974EH   009754H   000007H   BYTE   UNIT     CODE           ?L?COM005B
009755H   009764H   000010H   BYTE   UNIT     CODE           ?PR?HMIFACTORYDEFAULTSELTASK?NORMAL_TASK
009765H   009774H   000010H   BYTE   UNIT     CODE           ?PR?HMIRUNNINGTASK?NORMAL_TASK
009775H   009784H   000010H   BYTE   UNIT     CODE           ?PR?HMISETTEMPPATIENTTASK?NORMAL_TASK
009785H   009794H   000010H   BYTE   UNIT     CODE           ?PR?HMISETTEMPCHAMBERTASK?NORMAL_TASK
009795H   0097A4H   000010H   BYTE   UNIT     CODE           ?PR?HMISETINEXPTASK?NORMAL_TASK
0097A5H   0097B4H   000010H   BYTE   UNIT     CODE           ?PR?HMISCREENSAVERMODETASK?NORMAL_TASK
0097B5H   0097C3H   00000FH   BYTE   UNIT     CODE           ?PR?SAVEDATETOFLASHTASK?NORMAL_TASK
0097C4H   0097D5H   000012H   BYTE   UNIT     CODE           ?PR?_CLEAR_BIT?ACTIVITYFUNCTIONS
0097D6H   0097F0H   00001BH   BYTE   UNIT     CODE           ?L?COM0001
0097F1H   009800H   000010H   BYTE   UNIT     CODE           ?PR?HMINON_INVASIVESELTASK?NORMAL_TASK
LX51 LINKER/LOCATER V4.66.1.0                                                         04/08/2019  16:56:50  PAGE 7


009801H   009811H   000011H   BYTE   UNIT     CODE           ?PR?HMISETTIMETASK?NORMAL_TASK
009812H   009822H   000011H   BYTE   UNIT     CODE           ?PR?GETTEMP_HPCHAMBERTASK?NORMAL_TASK
009823H   009833H   000011H   BYTE   UNIT     CODE           ?PR?GETTEMPHUMIDITY_PATIENTTASK?NORMAL_TASK
009834H   009846H   000013H   BYTE   UNIT     CODE           ?PR?REFRESHTEMPHUMIDYTASK?NORMAL_TASK
009847H   009859H   000013H   BYTE   UNIT     CODE           ?PR?REFRESHRUNTIMETASK?NORMAL_TASK
00985AH   009878H   00001FH   BYTE   UNIT     CODE           ?PR?REFRESHRTCTIMETASK?NORMAL_TASK
009879H   009888H   000010H   BYTE   UNIT     CODE           ?PR?HEATERWIRECONTROLTASK?NORMAL_TASK
009889H   009EE1H   000659H   BYTE   UNIT     CODE           ?PR?HEATERPLATEWIRECONTROLFUNC?ACTIVITYFUNCTIONS
009EE2H   009F9CH   0000BBH   BYTE   UNIT     CODE           ?PR?_LCD_SHOWXNUM?LCD
009F9DH   009FA8H   00000CH   BYTE   UNIT     CODE           ?L?COM0023
009FA9H   009FB4H   00000CH   BYTE   UNIT     CODE           ?L?COM0076
009FB5H   009FD7H   000023H   BYTE   UNIT     CODE           ?L?COM0051
009FD8H   009FDFH   000008H   BYTE   UNIT     CODE           ?L?COM00BC
009FE0H   009FE6H   000007H   BYTE   UNIT     CODE           ?L?COM0163
009FE7H   009FEDH   000007H   BYTE   UNIT     CODE           ?L?COM010E
009FEEH   009FFDH   000010H   BYTE   UNIT     CODE           ?PR?LOWPOWERMODETASK?NORMAL_TASK
009FFEH   00A068H   00006BH   BYTE   UNIT     CODE           ?PR?LOWPOWERMODEFUNC?ACTIVITYFUNCTIONS
00A069H   00A070H   000008H   BYTE   UNIT     CODE           ?L?COM0178
00A071H   00A608H   000598H   BYTE   UNIT     CODE           ?PR?ALARMERRORFUNC?ACTIVITYFUNCTIONS
00A609H   00A612H   00000AH   BYTE   UNIT     CODE           ?L?COM009A
00A613H   00A67CH   00006AH   BYTE   UNIT     CODE           ?PR?_DISP_VHB80_PIC?LCD
00A67DH   00A68EH   000012H   BYTE   UNIT     CODE           ?PR?_DISP_JQK41X16?LCD
00A68FH   00A695H   000007H   BYTE   UNIT     CODE           ?L?COM00E8
00A696H   00A69CH   000007H   BYTE   UNIT     CODE           ?L?COM0156
00A69DH   00A6ACH   000010H   BYTE   UNIT     CODE           ?L?COM0094
00A6ADH   00A6BDH   000011H   BYTE   UNIT     CODE           ?PR?_SET_BIT?ACTIVITYFUNCTIONS
00A6BEH   00A6C4H   000007H   BYTE   UNIT     CODE           ?L?COM00F6
00A6C5H   00A6CBH   000007H   BYTE   UNIT     CODE           ?L?COM01AF
00A6CCH   00A6D2H   000007H   BYTE   UNIT     CODE           ?L?COM01B1
00A6D3H   00A6DAH   000008H   BYTE   UNIT     CODE           ?L?COM017A
00A6DBH   00A6E3H   000009H   BYTE   UNIT     CODE           ?L?COM0148
00A6E4H   00A6EAH   000007H   BYTE   UNIT     CODE           ?L?COM0100
00A6EBH   00A6F1H   000007H   BYTE   UNIT     CODE           ?L?COM0152
00A6F2H   00A6F9H   000008H   BYTE   UNIT     CODE           ?L?COM017B
00A6FAH   00A701H   000008H   BYTE   UNIT     CODE           ?L?COM01D0
00A702H   00A709H   000008H   BYTE   UNIT     CODE           ?L?COM01F0
00A70AH   00A711H   000008H   BYTE   UNIT     CODE           ?L?COM01F2
00A712H   00A71AH   000009H   BYTE   UNIT     CODE           ?L?COM01CA
00A71BH   00A723H   000009H   BYTE   UNIT     CODE           ?L?COM01CB
00A724H   00A72DH   00000AH   BYTE   UNIT     CODE           ?L?COM01B2
00A72EH   00A738H   00000BH   BYTE   UNIT     CODE           ?L?COM0193
00A739H   00A745H   00000DH   BYTE   UNIT     CODE           ?L?COM015F
00A746H   00A752H   00000DH   BYTE   UNIT     CODE           ?L?COM0160
00A753H   00A760H   00000EH   BYTE   UNIT     CODE           ?L?COM012E
00A761H   00A772H   000012H   BYTE   UNIT     CODE           ?PR?_DISP_HEAT_36X24?LCD
00A773H   00A779H   000007H   BYTE   UNIT     CODE           ?L?COM0101
00A77AH   00A78BH   000012H   BYTE   UNIT     CODE           ?PR?_DISP_VHB80_56X40?LCD
00A78CH   00A795H   00000AH   BYTE   UNIT     CODE           ?L?COM0099
00A796H   00A7ADH   000018H   BYTE   UNIT     CODE           ?PR?_DISP_CQK25X24?LCD
00A7AEH   00A7C5H   000018H   BYTE   UNIT     CODE           ?PR?_DISP_RTD28X24?LCD
00A7C6H   00A7D7H   000012H   BYTE   UNIT     CODE           ?PR?_DISP_YOUCHUANG?LCD
00A7D8H   00A7DEH   000007H   BYTE   UNIT     CODE           ?L?COM01A4
00A7DFH   00A7E5H   000007H   BYTE   UNIT     CODE           ?L?COM01DF
00A7E6H   00A7EDH   000008H   BYTE   UNIT     CODE           ?L?COM01F1
00A7EEH   00A7FDH   000010H   BYTE   UNIT     CODE           ?PR?HEATERWIREMODEDETTASK?NORMAL_TASK
00A7FEH   00A848H   00004BH   BYTE   UNIT     CODE           ?PR?HEATERWIREMODEDETFUNC?ACTIVITYFUNCTIONS
00A849H   00A859H   000011H   BYTE   UNIT     CODE           ?PR?ALARMERRORTASK?NORMAL_TASK
00A85AH   00A869H   000010H   BYTE   UNIT     CODE           ?PR?UARTRECTASK?NORMAL_TASK
00A86AH   00A95BH   0000F2H   BYTE   UNIT     CODE           ?PR?UART_RECDATA_FUNC?ACTIVITYFUNCTIONS
00A95CH   00A965H   00000AH   BYTE   UNIT     CODE           ?L?COM0130
00A966H   00A971H   00000CH   BYTE   UNIT     CODE           ?L?COM0180
00A972H   00A97EH   00000DH   BYTE   UNIT     CODE           ?PR?UART_RECBUF_CLEAR_FUN?ACTIVITYFUNCTIONS
00A97FH   00A98CH   00000EH   BYTE   UNIT     CODE           ?L?COM00C0
00A98DH   00AA40H   0000B4H   BYTE   UNIT     CODE           ?PR?SHT21_READDATA?SHT21
00AA41H   00AA4CH   00000CH   BYTE   UNIT     CODE           ?L?COM0131
LX51 LINKER/LOCATER V4.66.1.0                                                         04/08/2019  16:56:50  PAGE 8


00AA4DH   00AA59H   00000DH   BYTE   UNIT     CODE           ?L?COM015B
00AA5AH   00AA6EH   000015H   BYTE   UNIT     CODE           ?L?COM009D
00AA6FH   00AA8CH   00001EH   BYTE   UNIT     CODE           ?PR?EUSART_READ?UART_FUN
00AA8DH   00AAAAH   00001EH   BYTE   UNIT     CODE           ?PR?_EUSART_WRITE_STR?UART_FUN
00AAABH   00AAB0H   000006H   BYTE   UNIT     CODE           ?PR?_EUSART_WRITE?UART_FUN
00AAB1H   00AABAH   00000AH   BYTE   UNIT     CODE           ?PR?_SEND_CHAR_COM?UART_FUN
00AABBH   00AAF5H   00003BH   BYTE   UNIT     CODE           ?PR?_SHT2X_CHECKCRC?SHT21
00AAF6H   00AB08H   000013H   BYTE   UNIT     CODE           ?L?COM00D0
00AB09H   00AB57H   00004FH   BYTE   UNIT     CODE           ?PR?_DS18B20_CHECKCRC?DS18B20
00AB58H   00AB5FH   000008H   BYTE   UNIT     CODE           ?L?COM01D7
00AB60H   00AB68H   000009H   BYTE   UNIT     CODE           ?L?COM01BE
00AB69H   00AB79H   000011H   BYTE   UNIT     CODE           ?L?COM012D
00AB7AH   00AB83H   00000AH   BYTE   UNIT     CODE           ?L?COM01A2
00AB84H   00AB90H   00000DH   BYTE   UNIT     CODE           ?L?COM014D
00AB91H   00ABAFH   00001FH   BYTE   UNIT     CODE           ?PR?EUSART_RECEIVE_ISR?UART_FUN
00ABB0H   00ABD5H   000026H   BYTE   UNIT     CODE           ?PR?SERIAL?ACTIVITYFUNCTIONS
00ABD6H   00ABDDH   000008H   BYTE   UNIT     CODE           ?PR?EUSART_TRANSMIT_ISR?UART_FUN
00ABDEH   00ABFEH   000021H   BYTE   UNIT     CODE           ?PR?INTERRUPT_EXT1?ACTIVITYFUNCTIONS
00ABFFH   00AC1FH   000021H   BYTE   UNIT     CODE           ?PR?INTERRUPT_TIME0?ACTIVITYFUNCTIONS
00AC20H   00AC7CH   00005DH   BYTE   UNIT     CODE           ?PR?STORE_DATA?ACTIVITYFUNCTIONS
00AC7DH   00AC87H   00000BH   BYTE   UNIT     CODE           ?L?COM017C
00AC88H   00AD92H   00010BH   BYTE   UNIT     CODE           ?PR?GET_RUNCOUNT?ACTIVITYFUNCTIONS
00AD93H   00AD99H   000007H   BYTE   UNIT     CODE           ?L?COM01A6
00AD9AH   00ADA6H   00000DH   BYTE   UNIT     CODE           ?L?COM0162
00ADA7H   00AE07H   000061H   BYTE   UNIT     CODE           ?PR?MAIN_INIT?ACTIVITYFUNCTIONS
00AE08H   00AE17H   000010H   BYTE   UNIT     CODE           ?L?COM004D
00AE18H   00AE1FH   000008H   BYTE   UNIT     CODE           ?L?COM0176
00AE20H   00AE27H   000008H   BYTE   UNIT     CODE           ?L?COM0191
00AE28H   00AE31H   00000AH   BYTE   UNIT     CODE           ?L?COM0165
00AE32H   00AE3CH   00000BH   BYTE   UNIT     CODE           ?PR?ERR_BASE_HEATERWIRE_DISP_ENABLE?ACTIVITYFUNCTIONS
00AE3DH   00AF3BH   0000FFH   BYTE   UNIT     CODE           ?PR?HMISCREENSAVERMODEFUNC?GUI
00AF3CH   00AF43H   000008H   BYTE   UNIT     CODE           ?L?COM0182
00AF44H   00AF58H   000015H   BYTE   UNIT     CODE           ?L?COM0084
00AF59H   00AF60H   000008H   BYTE   UNIT     CODE           ?L?COM0134
00AF61H   00AF68H   000008H   BYTE   UNIT     CODE           ?L?COM0169
00AF69H   00AF81H   000019H   BYTE   UNIT     CODE           ?L?COM0078
00AF82H   00AFA4H   000023H   BYTE   UNIT     CODE           ?L?COM003B
00AFA5H   00AFD3H   00002FH   BYTE   UNIT     CODE           ?PR?_DISPLAY_SET_TEMP?GUI
00AFD4H   00AFDAH   000007H   BYTE   UNIT     CODE           ?L?COM0197
00AFDBH   00AFE7H   00000DH   BYTE   UNIT     CODE           ?L?COM0088
00AFE8H   00B004H   00001DH   BYTE   UNIT     CODE           ?PR?WRITE_DEFAULT_SETTING_TO_FLASH?ACTIVITYFUNCTIONS
00B005H   00B059H   000055H   BYTE   UNIT     CODE           ?PR?LOAD_SETTINGS_BEFORE_CHOICE?ACTIVITYFUNCTIONS
00B05AH   00B066H   00000DH   BYTE   UNIT     CODE           ?L?COM0158
00B067H   00B06DH   000007H   BYTE   UNIT     CODE           ?L?COM015D
00B06EH   00B074H   000007H   BYTE   UNIT     CODE           ?L?COM015E
00B075H   00B381H   00030DH   BYTE   UNIT     CODE           ?PR?HMIFACTORYDEFAULTFUNC?GUI
00B382H   00B3B1H   000030H   BYTE   UNIT     CODE           ?L?COM0034
00B3B2H   00B3C2H   000011H   BYTE   UNIT     CODE           ?L?COM005E
00B3C3H   00B3C9H   000007H   BYTE   UNIT     CODE           ?L?COM0155
00B3CAH   00B3DEH   000015H   BYTE   UNIT     CODE           ?L?COM00A1
00B3DFH   00B3F4H   000016H   BYTE   UNIT     CODE           ?L?COM00A9
00B3F5H   00B3FBH   000007H   BYTE   UNIT     CODE           ?L?COM013D
00B3FCH   00B402H   000007H   BYTE   UNIT     CODE           ?L?COM01A0
00B403H   00B40AH   000008H   BYTE   UNIT     CODE           ?L?COM0106
00B40BH   00B412H   000008H   BYTE   UNIT     CODE           ?L?COM0137
00B413H   00B41BH   000009H   BYTE   UNIT     CODE           ?L?COM01BC
00B41CH   00B426H   00000BH   BYTE   UNIT     CODE           ?L?COM011F
00B427H   00B432H   00000CH   BYTE   UNIT     CODE           ?L?COM0159
00B433H   00B43EH   00000CH   BYTE   UNIT     CODE           ?L?COM016D
00B43FH   00B44EH   000010H   BYTE   UNIT     CODE           ?L?COM0080
00B44FH   00B5DFH   000191H   BYTE   UNIT     CODE           ?PR?HMISETTEMPPATIENTFUNC?GUI
00B5E0H   00B5EDH   00000EH   BYTE   UNIT     CODE           ?L?COM00DD
00B5EEH   00B5F8H   00000BH   BYTE   UNIT     CODE           ?L?COM00BA
00B5F9H   00B728H   000130H   BYTE   UNIT     CODE           ?PR?HMISETTEMPCHAMBERFUNC?GUI
00B729H   00B735H   00000DH   BYTE   UNIT     CODE           ?PR?SOUND_SHORT?SOUND_TYPE
LX51 LINKER/LOCATER V4.66.1.0                                                         04/08/2019  16:56:50  PAGE 9


00B736H   00B73DH   000008H   BYTE   UNIT     CODE           ?L?COM00E6
00B73EH   00B745H   000008H   BYTE   UNIT     CODE           ?L?COM013B
00B746H   00B755H   000010H   BYTE   UNIT     CODE           ?L?COM00AD
00B756H   00B75CH   000007H   BYTE   UNIT     CODE           ?L?COM016A
00B75DH   00B763H   000007H   BYTE   UNIT     CODE           ?L?COM01A3
00B764H   00B76BH   000008H   BYTE   UNIT     CODE           ?L?COM016C
00B76CH   00B773H   000008H   BYTE   UNIT     CODE           ?L?COM01BB
00B774H   00B77BH   000008H   BYTE   UNIT     CODE           ?L?COM01DD
00B77CH   00B783H   000008H   BYTE   UNIT     CODE           ?L?COM01DE
00B784H   00B78DH   00000AH   BYTE   UNIT     CODE           ?L?COM0121
00B78EH   00B799H   00000CH   BYTE   UNIT     CODE           ?L?COM009B
00B79AH   00B7A0H   000007H   BYTE   UNIT     CODE           ?L?COM01E2
00B7A1H   00B7A8H   000008H   BYTE   UNIT     CODE           ?L?COM016B
00B7A9H   00B7B0H   000008H   BYTE   UNIT     CODE           ?L?COM01CE
00B7B1H   00B7B7H   000007H   BYTE   UNIT     CODE           ?L?COM01E0
00B7B8H   00B7BFH   000008H   BYTE   UNIT     CODE           ?L?COM01E1
00B7C0H   00B7C8H   000009H   BYTE   UNIT     CODE           ?L?COM01B8
00B7C9H   00B88CH   0000C4H   BYTE   UNIT     CODE           ?PR?CONTROLER_CALC?ACTIVITYFUNCTIONS
00B88DH   00B897H   00000BH   BYTE   UNIT     CODE           ?L?COM009F
00B898H   00B972H   0000DBH   BYTE   UNIT     CODE           ?PR?HEATPLATE_CONTROLER_CALC?ACTIVITYFUNCTIONS
00B973H   00B97BH   000009H   BYTE   UNIT     CODE           ?L?COM00C6
00B97CH   00BA68H   0000EDH   BYTE   UNIT     CODE           ?PR?HEATPLATETEMP_AIM_CONTROLER_CALC?ACTIVITYFUNCTIONS
00BA69H   00BA7DH   000015H   BYTE   UNIT     CODE           ?L?COM007E
00BA7EH   00BA84H   000007H   BYTE   UNIT     CODE           ?L?COM0133
00BA85H   00BA8BH   000007H   BYTE   UNIT     CODE           ?L?COM019E
00BA8CH   00BC7DH   0001F2H   BYTE   UNIT     CODE           ?PR?PATIENTTEMP_NONEHEATWIRE_ADJ?ACTIVITYFUNCTIONS
00BC7EH   00BC85H   000008H   BYTE   UNIT     CODE           ?L?COM0138
00BC86H   00BC97H   000012H   BYTE   UNIT     CODE           ?L?COM00DF
00BC98H   00BCADH   000016H   BYTE   UNIT     CODE           ?L?COM00C8
00BCAEH   00BCB5H   000008H   BYTE   UNIT     CODE           ?L?COM0118
00BCB6H   00BCBDH   000008H   BYTE   UNIT     CODE           ?L?COM0177
00BCBEH   00BCC6H   000009H   BYTE   UNIT     CODE           ?L?COM01AA
00BCC7H   00BCD0H   00000AH   BYTE   UNIT     CODE           ?L?COM00FA
00BCD1H   00BCDAH   00000AH   BYTE   UNIT     CODE           ?L?COM0135
00BCDBH   00BD03H   000029H   BYTE   UNIT     CODE           ?PR?_LCD_SHOWCHAR?LCD
00BD04H   00BDE3H   0000E0H   BYTE   UNIT     CODE           ?PR?_DISP_FNT8X16?LCD
00BDE4H   00BDEBH   000008H   BYTE   UNIT     CODE           ?L?COM010D
00BDECH   00BF33H   000148H   BYTE   UNIT     CODE           ?PR?_DISP_FNT12X24?LCD
00BF34H   00BF54H   000021H   BYTE   UNIT     CODE           ?L?COM0072
00BF55H   00BF5CH   000008H   BYTE   UNIT     CODE           ?L?COM0171
00BF5DH   00BF64H   000008H   BYTE   UNIT     CODE           ?L?COM0172
00BF65H   00BF6CH   000008H   BYTE   UNIT     CODE           ?L?COM0173
00BF6DH   00BF75H   000009H   BYTE   UNIT     CODE           ?L?COM01C4
00BF76H   00BF83H   00000EH   BYTE   UNIT     CODE           ?L?COM00E5
00BF84H   00BF96H   000013H   BYTE   UNIT     CODE           ?L?COM00EE
00BF97H   00BFAAH   000014H   BYTE   UNIT     CODE           ?L?COM0107
00BFABH   00BFB2H   000008H   BYTE   UNIT     CODE           ?L?COM0170
00BFB3H   00BFBAH   000008H   BYTE   UNIT     CODE           ?L?COM01E8
00BFBBH   00BFC2H   000008H   BYTE   UNIT     CODE           ?L?COM01EC
00BFC3H   00BFCAH   000008H   BYTE   UNIT     CODE           ?L?COM01ED
00BFCBH   00BFD3H   000009H   BYTE   UNIT     CODE           ?L?COM01C5
00BFD4H   00BFE0H   00000DH   BYTE   UNIT     CODE           ?L?COM015C
00BFE1H   00BFE7H   000007H   BYTE   UNIT     CODE           ?L?COM019A
00BFE8H   00BFFAH   000013H   BYTE   UNIT     CODE           ?L?COM010F
00BFFBH   00C02FH   000035H   BYTE   UNIT     CODE           ?PR?WIREINOUT_STATE_CONFIRM?ACTIVITYFUNCTIONS
00C030H   00C18AH   00015BH   BYTE   UNIT     CODE           ?PR?HMIRUNNINGFUNC?GUI
00C18BH   00C19AH   000010H   BYTE   UNIT     CODE           ?L?COM00EC
00C19BH   00C21CH   000082H   BYTE   UNIT     CODE           ?PR?_DISPLAY_IN_EXP_RATIO?GUI
00C21DH   00C2F1H   0000D5H   BYTE   UNIT     CODE           ?PR?HMISETINEXPFUNC?GUI
00C2F2H   00C2F9H   000008H   BYTE   UNIT     CODE           ?L?COM01DA
00C2FAH   00C31EH   000025H   BYTE   UNIT     CODE           ?PR?REFRESH_WORK_MODE?LCD
00C31FH   00C325H   000007H   BYTE   UNIT     CODE           ?L?COM019F
00C326H   00C32DH   000008H   BYTE   UNIT     CODE           ?L?COM01DC
00C32EH   00C336H   000009H   BYTE   UNIT     CODE           ?L?COM01C7
00C337H   00C343H   00000DH   BYTE   UNIT     CODE           ?L?COM0157
LX51 LINKER/LOCATER V4.66.1.0                                                         04/08/2019  16:56:50  PAGE 10


00C344H   00C350H   00000DH   BYTE   UNIT     CODE           ?PR?ENTERSETINEXP?GUI
00C351H   00C36AH   00001AH   BYTE   UNIT     CODE           ?PR?_DISP_WUCHUANG?LCD
00C36BH   00C375H   00000BH   BYTE   UNIT     CODE           ?PR?SOUND_ALARM_PAUSE_ENABLE?SOUND_TYPE
00C376H   00C38EH   000019H   BYTE   UNIT     CODE           ?PR?KEYMUTEPRESSSHORTACTION?KEY_DATAS
00C38FH   00C39BH   00000DH   BYTE   UNIT     CODE           ?PR?SOUND_ALARM_PAUSE_DISABLE?SOUND_TYPE
00C39CH   00C3D3H   000038H   BYTE   UNIT     CODE           ?PR?_LCD_POW?LCD
00C3D4H   00C3DDH   00000AH   BYTE   UNIT     CODE           ?PR?SPI_WRITE_DISABLE?W25X
00C3DEH   00C3E7H   00000AH   BYTE   UNIT     CODE           ?PR?SPI_INIT?W25X
00C3E8H   00C40AH   000023H   BYTE   UNIT     CODE           ?PR?SPI_GET_BYTE?W25X
00C40BH   00C411H   000007H   BYTE   UNIT     CODE           ?PR?SCL_DIR_OUTPUT?RX8010
00C412H   00C425H   000014H   BYTE   UNIT     CODE           ?PR?IC_START?RX8010
00C426H   00C437H   000012H   BYTE   UNIT     CODE           ?L?COM0117
00C438H   00C43EH   000007H   BYTE   UNIT     CODE           ?PR?SDA_DIR_INPUT?RX8010
00C43FH   00C49CH   00005EH   BYTE   UNIT     CODE           ?PR?_RX8010_SETTIME?RX8010
00C49DH   00C4A8H   00000CH   BYTE   UNIT     CODE           ?L?COM016F
00C4A9H   00C4AEH   000006H   BYTE   UNIT     CODE           ?L?COM0199
00C4AFH   00C4B8H   00000AH   BYTE   UNIT     CODE           ?L?COM0198
00C4B9H   00C512H   00005AH   BYTE   UNIT     CODE           ?PR?_RX8010_GETTIME?RX8010
00C513H   00C51AH   000008H   BYTE   UNIT     CODE           ?L?COM01BF
00C51BH   00C525H   00000BH   BYTE   UNIT     CODE           ?PR?ENTERSETTIME?GUI
00C526H   00C52CH   000007H   BYTE   UNIT     CODE           ?PR?KEYUPPRESSSHORTACTION?KEY_DATAS
00C52DH   00C533H   000007H   BYTE   UNIT     CODE           ?PR?KEYUPPRESSLONGFIRSTACTION?KEY_DATAS
00C534H   00C53AH   000007H   BYTE   UNIT     CODE           ?PR?KEYUPPRESSLONGREPEATACTION?KEY_DATAS
00C53BH   00C541H   000007H   BYTE   UNIT     CODE           ?PR?KEYDOWNPRESSSHORTACTION?KEY_DATAS
00C542H   00C548H   000007H   BYTE   UNIT     CODE           ?PR?KEYDOWNPRESSLONGFIRSTACTION?KEY_DATAS
00C549H   00C54FH   000007H   BYTE   UNIT     CODE           ?PR?KEYDOWNPRESSLONGREPEATACTION?KEY_DATAS
00C550H   00C556H   000007H   BYTE   UNIT     CODE           ?PR?KEYOKPRESSSHORTACTION?KEY_DATAS
00C557H   00C55DH   000007H   BYTE   UNIT     CODE           ?PR?KEYOKPRESSLONGFIRSTACTION?KEY_DATAS
00C55EH   00C564H   000007H   BYTE   UNIT     CODE           ?PR?KEYOKPRESSLONGREPEATACTION?KEY_DATAS
00C565H   00C56BH   000007H   BYTE   UNIT     CODE           ?PR?KEYMUTEPRESSLONGFIRSTACTION?KEY_DATAS
00C56CH   00C572H   000007H   BYTE   UNIT     CODE           ?PR?KEYMUTEPRESSLONGREPEATACTION?KEY_DATAS
00C573H   00C5E0H   00006EH   BYTE   UNIT     CODE           ?PR?DATE_IS_CORRECT?GUI
00C5E1H   00C5FDH   00001DH   BYTE   UNIT     CODE           ?PR?EUSART_INITIALIZE?UART_FUN
00C5FEH   00C62BH   00002EH   BYTE   UNIT     CODE           ?L?COM0047
00C62CH   00C648H   00001DH   BYTE   UNIT     CODE           ?L?COM008A
00C649H   00C65FH   000017H   BYTE   UNIT     CODE           ?L?COM00A2
00C660H   00C680H   000021H   BYTE   UNIT     CODE           ?L?COM00B9
00C681H   00C694H   000014H   BYTE   UNIT     CODE           ?L?COM00C2
00C695H   00C6ACH   000018H   BYTE   UNIT     CODE           ?L?COM00D5
00C6ADH   00C6BCH   000010H   BYTE   UNIT     CODE           ?L?COM00D8
00C6BDH   00C6C5H   000009H   BYTE   UNIT     CODE           ?L?COM00E7
00C6C6H   00C6D5H   000010H   BYTE   UNIT     CODE           ?L?COM00F7
00C6D6H   00C6E3H   00000EH   BYTE   UNIT     CODE           ?L?COM0110
00C6E4H   00C6F0H   00000DH   BYTE   UNIT     CODE           ?L?COM0114
00C6F1H   00C6FCH   00000CH   BYTE   UNIT     CODE           ?L?COM011D
00C6FDH   00C70EH   000012H   BYTE   UNIT     CODE           ?L?COM0126
00C70FH   00C719H   00000BH   BYTE   UNIT     CODE           ?L?COM0128
00C71AH   00C72BH   000012H   BYTE   UNIT     CODE           ?L?COM0129
00C72CH   00C73CH   000011H   BYTE   UNIT     CODE           ?L?COM012C
00C73DH   00C745H   000009H   BYTE   UNIT     CODE           ?L?COM0139
00C746H   00C74FH   00000AH   BYTE   UNIT     CODE           ?L?COM013E
00C750H   00C756H   000007H   BYTE   UNIT     CODE           ?L?COM0140
00C757H   00C765H   00000FH   BYTE   UNIT     CODE           ?L?COM0143
00C766H   00C774H   00000FH   BYTE   UNIT     CODE           ?L?COM0145
00C775H   00C77DH   000009H   BYTE   UNIT     CODE           ?L?COM0147
00C77EH   00C786H   000009H   BYTE   UNIT     CODE           ?L?COM014B
00C787H   00C794H   00000EH   BYTE   UNIT     CODE           ?L?COM014E
00C795H   00C79DH   000009H   BYTE   UNIT     CODE           ?L?COM014F
00C79EH   00C7A5H   000008H   BYTE   UNIT     CODE           ?L?COM0150
00C7A6H   00C7B3H   00000EH   BYTE   UNIT     CODE           ?L?COM0151
00C7B4H   00C7C0H   00000DH   BYTE   UNIT     CODE           ?L?COM015A
00C7C1H   00C7CDH   00000DH   BYTE   UNIT     CODE           ?L?COM0164
00C7CEH   00C7D9H   00000CH   BYTE   UNIT     CODE           ?L?COM016E
00C7DAH   00C7E5H   00000CH   BYTE   UNIT     CODE           ?L?COM0174
00C7E6H   00C7EDH   000008H   BYTE   UNIT     CODE           ?L?COM0179
LX51 LINKER/LOCATER V4.66.1.0                                                         04/08/2019  16:56:50  PAGE 11


00C7EEH   00C7F9H   00000CH   BYTE   UNIT     CODE           ?L?COM017D
00C7FAH   00C805H   00000CH   BYTE   UNIT     CODE           ?L?COM017E
00C806H   00C811H   00000CH   BYTE   UNIT     CODE           ?L?COM017F
00C812H   00C81CH   00000BH   BYTE   UNIT     CODE           ?L?COM0186
00C81DH   00C827H   00000BH   BYTE   UNIT     CODE           ?L?COM0187
00C828H   00C832H   00000BH   BYTE   UNIT     CODE           ?L?COM0189
00C833H   00C83CH   00000AH   BYTE   UNIT     CODE           ?L?COM018A
00C83DH   00C847H   00000BH   BYTE   UNIT     CODE           ?L?COM018C
00C848H   00C851H   00000AH   BYTE   UNIT     CODE           ?L?COM018D
00C852H   00C85AH   000009H   BYTE   UNIT     CODE           ?L?COM019D
00C85BH   00C861H   000007H   BYTE   UNIT     CODE           ?L?COM01AB
00C862H   00C86BH   00000AH   BYTE   UNIT     CODE           ?L?COM01AC
00C86CH   00C875H   00000AH   BYTE   UNIT     CODE           ?L?COM01B3
00C876H   00C87CH   000007H   BYTE   UNIT     CODE           ?L?COM01B5
00C87DH   00C885H   000009H   BYTE   UNIT     CODE           ?L?COM01B6
00C886H   00C88EH   000009H   BYTE   UNIT     CODE           ?L?COM01B7
00C88FH   00C897H   000009H   BYTE   UNIT     CODE           ?L?COM01BA
00C898H   00C8A0H   000009H   BYTE   UNIT     CODE           ?L?COM01C0
00C8A1H   00C8A9H   000009H   BYTE   UNIT     CODE           ?L?COM01C2
00C8AAH   00C8B2H   000009H   BYTE   UNIT     CODE           ?L?COM01C3
00C8B3H   00C8BBH   000009H   BYTE   UNIT     CODE           ?L?COM01C6
00C8BCH   00C8C4H   000009H   BYTE   UNIT     CODE           ?L?COM01C8
00C8C5H   00C8CDH   000009H   BYTE   UNIT     CODE           ?L?COM01CC
00C8CEH   00C8D6H   000009H   BYTE   UNIT     CODE           ?L?COM01CD
00C8D7H   00C8DEH   000008H   BYTE   UNIT     CODE           ?L?COM01CF
00C8DFH   00C8E6H   000008H   BYTE   UNIT     CODE           ?L?COM01D4
00C8E7H   00C8EEH   000008H   BYTE   UNIT     CODE           ?L?COM01D8
00C8EFH   00C8F6H   000008H   BYTE   UNIT     CODE           ?L?COM01E3
00C8F7H   00C8FEH   000008H   BYTE   UNIT     CODE           ?L?COM01E6
00C8FFH   00C906H   000008H   BYTE   UNIT     CODE           ?L?COM01E7
00C907H   00C90EH   000008H   BYTE   UNIT     CODE           ?L?COM01E9
00C90FH   00C916H   000008H   BYTE   UNIT     CODE           ?L?COM01EA
00C917H   00C91EH   000008H   BYTE   UNIT     CODE           ?L?COM01EB
00C91FH   00C926H   000008H   BYTE   UNIT     CODE           ?L?COM01F3
00C927H   00C92EH   000008H   BYTE   UNIT     CODE           ?L?COM01F4
00C92FH   00C936H   000008H   BYTE   UNIT     CODE           ?L?COM01F5
00C937H   00C93EH   000008H   BYTE   UNIT     CODE           ?L?COM01F6
00C93FH   00C946H   000008H   BYTE   UNIT     CODE           ?L?COM01F8

* * * * * * * * * * *  X D A T A   M E M O R Y  * * * * * * * * * * * * *
000000H   000112H   000113H   BYTE   UNIT     XDATA          ?XD?ACTIVITYFUNCTIONS
000113H   0001CCH   0000BAH   BYTE   UNIT     XDATA          _XDATA_GROUP_
0001CDH   000251H   000085H   BYTE   UNIT     XDATA          ?XD?WS_TASK_MANAGE
000252H   0002D5H   000084H   BYTE   UNIT     XDATA          ?XD?UART_FUN
0002D6H   00032EH   000059H   BYTE   UNIT     XDATA          ?XD?KEY_DATAS
00032FH   00034FH   000021H   BYTE   UNIT     XDATA          ?XD?GUI
000350H   000357H   000008H   BYTE   UNIT     XDATA          ?XD?NORMAL_TASK
000358H   00035AH   000003H   BYTE   UNIT     XDATA          ?XD?SOUND_TYPE
00035BH   00035CH   000002H   BYTE   UNIT     XDATA          ?XD?STC_EEPROM
00035DH   00035EH   000002H   BYTE   UNIT     XDATA          ?XD?MAIN_TIK_TOK
00035FH   000360H   000002H   BYTE   UNIT     XDATA          ?XD?DS18B20
000361H   000361H   000001H   BYTE   UNIT     XDATA          ?XD?LCD
000362H   000362H   000001H   BYTE   UNIT     XDATA          ?XD?KEY_MULTIFUN



OVERLAY MAP OF MODULE:   ..\OBJ\VHB15A (STC_EEPROM)


FUNCTION/MODULE                                BIT_GROUP   XDATA_GROUP
--> CALLED FUNCTION/MODULE                    START  STOP  START  STOP
======================================================================
INTERRUPT_EXT1/ACTIVITYFUNCTIONS              ----- -----  ----- -----

*** NEW ROOT ********************************
LX51 LINKER/LOCATER V4.66.1.0                                                         04/08/2019  16:56:50  PAGE 12



INTERRUPT_TIME0/ACTIVITYFUNCTIONS             ----- -----  ----- -----
  +--> TIMER_T0_INT_MAIN/MAIN_TIK_TOK

TIMER_T0_INT_MAIN/MAIN_TIK_TOK                ----- -----  ----- -----
  +--> MAIN_TIK_FUNCTIONS/MAIN_TIK_FUNCTION
  +--> SOUND_TYPE_DRIVE/SOUND_TYPE
  +--> SUB_TIK_FUNCTIONS/SUB_TIK_FUNCTION

MAIN_TIK_FUNCTIONS/MAIN_TIK_FUNCTION          ----- -----  ----- -----
  +--> _WS_SETTASKIFG/WS_TASK_MANAGE
  +--> HEATERPLATEWIREDRIVEFBTASK/ACTIVITYFUNCTIONS

_WS_SETTASKIFG/WS_TASK_MANAGE                 ----- -----  ----- -----

HEATERPLATEWIREDRIVEFBTASK/ACTIVITYFUNCT+     ----- -----  ----- -----
... IONS

SOUND_TYPE_DRIVE/SOUND_TYPE                   ----- -----  ----- -----

SUB_TIK_FUNCTIONS/SUB_TIK_FUNCTION            ----- -----  ----- -----
  +--> KEY_UP_TIKFUNC/KEY_DATAS
  +--> KEY_DOWN_TIKFUNC/KEY_DATAS
  +--> KEY_OK_TIKFUNC/KEY_DATAS
  +--> KEY_MUTE_TIKFUNC/KEY_DATAS
  +--> HMIPOSTFUNC_TIK_CNT/GUI
  +--> HMIFACTORYDEFAULT_TIK_CNT/GUI
  +--> HMINON_INVASIVESEL_TIK_CNT/GUI
  +--> HMISCREENSAVERMODE_TIK_CNT/GUI

KEY_UP_TIKFUNC/KEY_DATAS                      ----- -----  ----- -----

KEY_DOWN_TIKFUNC/KEY_DATAS                    ----- -----  ----- -----

KEY_OK_TIKFUNC/KEY_DATAS                      ----- -----  ----- -----

KEY_MUTE_TIKFUNC/KEY_DATAS                    ----- -----  ----- -----

HMIPOSTFUNC_TIK_CNT/GUI                       ----- -----  ----- -----

HMIFACTORYDEFAULT_TIK_CNT/GUI                 ----- -----  ----- -----

HMINON_INVASIVESEL_TIK_CNT/GUI                ----- -----  ----- -----

HMISCREENSAVERMODE_TIK_CNT/GUI                ----- -----  ----- -----

*** NEW ROOT ********************************

SERIAL/ACTIVITYFUNCTIONS                      ----- -----  ----- -----
  +--> EUSART_RECEIVE_ISR/UART_FUN
  +--> EUSART_TRANSMIT_ISR/UART_FUN

EUSART_RECEIVE_ISR/UART_FUN                   ----- -----  ----- -----

EUSART_TRANSMIT_ISR/UART_FUN                  ----- -----  ----- -----

*** NEW ROOT ********************************

?C_C51STARTUP                                 ----- -----  ----- -----
  +--> MAIN/MAIN
  +--> ?C_INITSEG

MAIN/MAIN                                     ----- -----  ----- -----
  +--> MAIN_TIK_TOK_INITIAL_FUN/MAIN_TIK_TOK
  +--> INIT_PORT/ACTIVITYFUNCTIONS
LX51 LINKER/LOCATER V4.66.1.0                                                         04/08/2019  16:56:50  PAGE 13


  +--> MAIN_INIT/ACTIVITYFUNCTIONS
  +--> _HMIENTERTOWORKSTATEFUNC/GUI
  +--> MANAGETASK/NORMAL_TASK
  +--> KEYSCANTASK/NORMAL_TASK
  +--> HMISERVICEMODETASK/NORMAL_TASK
  +--> HMIPOSTTASK/NORMAL_TASK
  +--> HMIFACTORYDEFAULTSELTASK/NORMAL_TASK
  +--> HMINON_INVASIVESELTASK/NORMAL_TASK
  +--> HMIRUNNINGTASK/NORMAL_TASK
  +--> HMISETTEMPPATIENTTASK/NORMAL_TASK
  +--> HMISETTEMPCHAMBERTASK/NORMAL_TASK
  +--> HMISETINEXPTASK/NORMAL_TASK
  +--> HMISETTIMETASK/NORMAL_TASK
  +--> HMISCREENSAVERMODETASK/NORMAL_TASK
  +--> GETTEMP_HPCHAMBERTASK/NORMAL_TASK
  +--> GETTEMPHUMIDITY_PATIENTTASK/NORMAL_TASK
  +--> REFRESHTEMPHUMIDYTASK/NORMAL_TASK
  +--> REFRESHRTCTIMETASK/NORMAL_TASK
  +--> REFRESHRUNTIMETASK/NORMAL_TASK
  +--> HEATERWIRECONTROLTASK/NORMAL_TASK
  +--> LOWPOWERMODETASK/NORMAL_TASK
  +--> HEATERWIREMODEDETTASK/NORMAL_TASK
  +--> ALARMERRORTASK/NORMAL_TASK
  +--> LOWTEMPDET1STASK/NORMAL_TASK
  +--> SAVEDATETOFLASHTASK/NORMAL_TASK
  +--> UARTRECTASK/NORMAL_TASK

MAIN_TIK_TOK_INITIAL_FUN/MAIN_TIK_TOK         ----- -----  ----- -----

INIT_PORT/ACTIVITYFUNCTIONS                   ----- -----  0113H 0114H
  +--> EUSART_INITIALIZE/UART_FUN
  +--> SPI_INIT/W25X
  +--> LCD_INITIAL/LCD
  +--> _DRAW_RECTANGLE_REAL/LCD
  +--> _DISP_FNT10X24/LCD
  +--> LCD_SHOW_VERION/LCD

EUSART_INITIALIZE/UART_FUN                    ----- -----  ----- -----

SPI_INIT/W25X                                 ----- -----  ----- -----
  +--> SPI_WRITE_DISABLE/W25X

SPI_WRITE_DISABLE/W25X                        ----- -----  ----- -----
  +--> _SPI_SEND_BYTE/W25X

_SPI_SEND_BYTE/W25X                           ----- -----  ----- -----

LCD_INITIAL/LCD                               ----- -----  ----- -----
  +--> _DELAY_MS/DELAY
  +--> _SDCMD/LCD
  +--> _SDDATA/LCD

_DELAY_MS/DELAY                               ----- -----  ----- -----

_SDCMD/LCD                                    ----- -----  ----- -----

_SDDATA/LCD                                   ----- -----  ----- -----

_DRAW_RECTANGLE_REAL/LCD                      ----- -----  019FH 01ABH
  +--> _LCD_CRTLWRITE_AREA/LCD
  +--> _LCD_CTRLWRITE_COLOR/LCD

_LCD_CRTLWRITE_AREA/LCD                       ----- -----  01C7H 01CCH
  +--> _SDCMD/LCD
  +--> _SDDATA/LCD
LX51 LINKER/LOCATER V4.66.1.0                                                         04/08/2019  16:56:50  PAGE 14



_LCD_CTRLWRITE_COLOR/LCD                      ----- -----  ----- -----
  +--> ?CO?LCD
  +--> _LCD_CTRLWRITE_ILI9328/LCD

?CO?LCD                                       ----- -----  ----- -----

_LCD_CTRLWRITE_ILI9328/LCD                    ----- -----  ----- -----

_DISP_FNT10X24/LCD                            ----- -----  0115H 0119H
  +--> ?CO?LCD
  +--> _DISP_MONO_GRAP/LCD

_DISP_MONO_GRAP/LCD                           ----- -----  01A4H 01B0H
  +--> _LCD_CRTLWRITE_AREA/LCD
  +--> _LCD_CTRLWRITE_COLOR/LCD

LCD_SHOW_VERION/LCD                           ----- -----  ----- -----
  +--> ?CO?LCD
  +--> _LCD_SHOWSTRING/LCD

_LCD_SHOWSTRING/LCD                           ----- -----  019AH 01AEH
  +--> _LCD_SHOWCHAR/LCD

_LCD_SHOWCHAR/LCD                             ----- -----  01AFH 01B6H
  +--> _DISP_FNT8X16/LCD
  +--> _DISP_FNT12X24/LCD

_DISP_FNT8X16/LCD                             ----- -----  01B7H 01C5H
  +--> _LCD_CRTLWRITE_AREA/LCD
  +--> ?CO?LCD
  +--> _LCD_DRAWPOINT/LCD
  +--> _LCD_CTRLWRITE_COLOR/LCD

_LCD_DRAWPOINT/LCD                            ----- -----  01C7H 01C8H
  +--> _SDCMD/LCD
  +--> _SDDATA/LCD
  +--> _LCD_CTRLWRITE_COLOR/LCD

_DISP_FNT12X24/LCD                            ----- -----  01B7H 01C6H
  +--> _LCD_CRTLWRITE_AREA/LCD
  +--> ?CO?LCD
  +--> _LCD_DRAWPOINT/LCD
  +--> _LCD_CTRLWRITE_COLOR/LCD

MAIN_INIT/ACTIVITYFUNCTIONS                   ----- -----  ----- -----
  +--> GET_RUNCOUNT/ACTIVITYFUNCTIONS

GET_RUNCOUNT/ACTIVITYFUNCTIONS                ----- -----  0113H 011BH
  +--> _SPI_READ_NBYTES/W25X
  +--> _DELAY_US/DELAY

_SPI_READ_NBYTES/W25X                         ----- -----  011CH 0124H
  +--> _SPI_SEND_BYTE/W25X
  +--> SPI_GET_BYTE/W25X

SPI_GET_BYTE/W25X                             20H.0 20H.0  ----- -----

_DELAY_US/DELAY                               ----- -----  ----- -----

_HMIENTERTOWORKSTATEFUNC/GUI                  ----- -----  014BH 0198H
  +--> _DRAW_RECTANGLE_REAL/LCD
  +--> MEM_FLASH_RECALL/ACTIVITYFUNCTIONS
  +--> _DRAW_RECTANGLE/LCD
  +--> ?CO?GUI
LX51 LINKER/LOCATER V4.66.1.0                                                         04/08/2019  16:56:50  PAGE 15


  +--> _LCD_SHOWSTRING/LCD
  +--> _DRAW_CIRCLE/LCD
  +--> _DISP_ICO_40X40/LCD
  +--> _DISP_WUCHUANG/LCD
  +--> _DISP_YOUCHUANG/LCD
  +--> DRAWWORKWINDOWS/LCD
  +--> _REFRESHRUNTIMEFUNC/ACTIVITYFUNCTIONS
  +--> _REFRESHTEMPHUMIDYFUNC/ACTIVITYFUNCTIONS
  +--> _DISP_ICO_32X40/LCD
  +--> _DISPLAY_SET_TEMP/GUI
  +--> ENTERSETTIME/GUI
  +--> ENTERSETINEXP/GUI

MEM_FLASH_RECALL/ACTIVITYFUNCTIONS            ----- -----  ----- -----
  +--> _STC_IAP_BYTE_READ/STC_EEPROM
  +--> WRITE_DEFAULT_SETTING_TO_FLASH/ACTIVITYFUNCTIONS

_STC_IAP_BYTE_READ/STC_EEPROM                 ----- -----  ----- -----
  +--> IAP_DISABLE/STC_EEPROM

IAP_DISABLE/STC_EEPROM                        ----- -----  ----- -----

WRITE_DEFAULT_SETTING_TO_FLASH/ACTIVITYF+     ----- -----  ----- -----
... UNCTIONS
  +--> SETTING_WRITE_TO_FLASH/ACTIVITYFUNCTIONS

SETTING_WRITE_TO_FLASH/ACTIVITYFUNCTIONS      ----- -----  ----- -----
  +--> _STC_IAP_SECTOR_ERASE/STC_EEPROM
  +--> _STC_IAP_BYTE_PROGRAM/STC_EEPROM

_STC_IAP_SECTOR_ERASE/STC_EEPROM              ----- -----  ----- -----
  +--> IAP_DISABLE/STC_EEPROM

_STC_IAP_BYTE_PROGRAM/STC_EEPROM              ----- -----  ----- -----
  +--> IAP_DISABLE/STC_EEPROM

_DRAW_RECTANGLE/LCD                           ----- -----  0199H 01A6H
  +--> _LCD_CRTLWRITE_AREA/LCD
  +--> _LCD_CTRLWRITE_COLOR/LCD

?CO?GUI                                       ----- -----  ----- -----

_DRAW_CIRCLE/LCD                              ----- -----  0199H 01A4H
  +--> _LCD_DRAWPOINT/LCD

_DISP_ICO_40X40/LCD                           ----- -----  0199H 019DH
  +--> ?CO?LCD
  +--> _DISP_MONO_GRAP/LCD

_DISP_WUCHUANG/LCD                            ----- -----  ----- -----
  +--> ?CO?LCD
  +--> _DISP_MONO_GRAP/LCD

_DISP_YOUCHUANG/LCD                           ----- -----  ----- -----
  +--> ?CO?LCD
  +--> _DISP_MONO_GRAP/LCD

DRAWWORKWINDOWS/LCD                           ----- -----  ----- -----
  +--> _DRAW_RECTANGLE_REAL/LCD
  +--> _DISP_WUCHUANG/LCD
  +--> _DISP_YOUCHUANG/LCD
  +--> _DRAW_RECTANGLE/LCD
  +--> REFRESH_WORK_MODE/LCD
  +--> _DISP_ICO_52X64/LCD
  +--> _DISP_ICO_40X40/LCD
LX51 LINKER/LOCATER V4.66.1.0                                                         04/08/2019  16:56:50  PAGE 16


  +--> _DISP_ICO_32X40/LCD
  +--> _DISP_RH14X24/LCD
  +--> _DISP_DHM/LCD
  +--> _DISP_TIME_10X16/LCD

REFRESH_WORK_MODE/LCD                         ----- -----  ----- -----
  +--> _DISP_WUCHUANG/LCD
  +--> _DISP_YOUCHUANG/LCD

_DISP_ICO_52X64/LCD                           ----- -----  0199H 019DH
  +--> ?CO?LCD
  +--> _DISP_MONO_GRAP/LCD

_DISP_ICO_32X40/LCD                           ----- -----  0199H 019DH
  +--> ?CO?LCD
  +--> _DISP_MONO_GRAP/LCD

_DISP_RH14X24/LCD                             ----- -----  0199H 019DH
  +--> ?CO?LCD
  +--> _DISP_MONO_GRAP/LCD

_DISP_DHM/LCD                                 ----- -----  0199H 019DH
  +--> ?CO?LCD
  +--> _DISP_MONO_GRAP/LCD

_DISP_TIME_10X16/LCD                          ----- -----  019AH 019EH
  +--> ?CO?LCD
  +--> _DISP_MONO_GRAP/LCD

_REFRESHRUNTIMEFUNC/ACTIVITYFUNCTIONS         ----- -----  0199H 0199H
  +--> _RX8010_GETTIME/RX8010
  +--> _DISP_TIME_10X16/LCD

_RX8010_GETTIME/RX8010                        ----- -----  019AH 01A3H
  +--> _READEEONE/RX8010

_READEEONE/RX8010                             ----- -----  01A4H 01A9H
  +--> IC_START/RX8010
  +--> _IC_WRITEBYTE/RX8010
  +--> IC_STOP/RX8010
  +--> IC_READBYTE/RX8010
  +--> SDA_DIR_OUTPUT/RX8010
  +--> _DELAY_US/DELAY

IC_START/RX8010                               ----- -----  ----- -----
  +--> SCL_DIR_OUTPUT/RX8010
  +--> SDA_DIR_OUTPUT/RX8010
  +--> _DELAY_US/DELAY

SCL_DIR_OUTPUT/RX8010                         ----- -----  ----- -----

SDA_DIR_OUTPUT/RX8010                         ----- -----  ----- -----

_IC_WRITEBYTE/RX8010                          ----- -----  01AAH 01ABH
  +--> SDA_DIR_OUTPUT/RX8010
  +--> _DELAY_US/DELAY
  +--> SDA_DIR_INPUT/RX8010

SDA_DIR_INPUT/RX8010                          ----- -----  ----- -----

IC_STOP/RX8010                                ----- -----  ----- -----
  +--> SDA_DIR_OUTPUT/RX8010
  +--> _DELAY_US/DELAY

IC_READBYTE/RX8010                            ----- -----  01AAH 01ABH
LX51 LINKER/LOCATER V4.66.1.0                                                         04/08/2019  16:56:50  PAGE 17


  +--> SDA_DIR_OUTPUT/RX8010
  +--> SDA_DIR_INPUT/RX8010
  +--> _DELAY_US/DELAY

_REFRESHTEMPHUMIDYFUNC/ACTIVITYFUNCTIONS      ----- -----  0199H 019EH
  +--> _BIT_IS_ONE/ACTIVITYFUNCTIONS
  +--> _DRAW_RECTANGLE_REAL/LCD
  +--> _DISP_TEMP_30X56/LCD
  +--> _DISP_RH_17X40/LCD

_BIT_IS_ONE/ACTIVITYFUNCTIONS                 ----- -----  ----- -----

_DISP_TEMP_30X56/LCD                          ----- -----  019FH 01A3H
  +--> ?CO?LCD
  +--> _DISP_MONO_GRAP/LCD

_DISP_RH_17X40/LCD                            ----- -----  019FH 01A3H
  +--> ?CO?LCD
  +--> _DISP_MONO_GRAP/LCD

_DISPLAY_SET_TEMP/GUI                         ----- -----  0199H 019AH
  +--> _DISP_TEMP_30X56/LCD
  +--> _DRAW_RECTANGLE_REAL/LCD

ENTERSETTIME/GUI                              ----- -----  ----- -----
  +--> _RX8010_GETTIME/RX8010

ENTERSETINEXP/GUI                             ----- -----  ----- -----
  +--> _DISPLAY_IN_EXP_RATIO/GUI

_DISPLAY_IN_EXP_RATIO/GUI                     ----- -----  0199H 0199H
  +--> ?CO?GUI
  +--> _LCD_SHOWSTRING/LCD

MANAGETASK/NORMAL_TASK                        ----- -----  ----- -----
  +--> _WS_TASKJUDGE/WS_TASK_MANAGE
  +--> _WS_DELTASKIFG/WS_TASK_MANAGE
  +--> _WS_SETTASKIFG/WS_TASK_MANAGE

_WS_TASKJUDGE/WS_TASK_MANAGE                  ----- -----  0113H 0113H

_WS_DELTASKIFG/WS_TASK_MANAGE                 ----- -----  ----- -----

KEYSCANTASK/NORMAL_TASK                       ----- -----  ----- -----
  +--> _WS_TASKJUDGE/WS_TASK_MANAGE
  +--> _WS_DELTASKIFG/WS_TASK_MANAGE
  +--> KEY_MULTIFUN/KEY_MULTIFUN

KEY_MULTIFUN/KEY_MULTIFUN                     ----- -----  0113H 0123H

HMISERVICEMODETASK/NORMAL_TASK                ----- -----  ----- -----
  +--> _WS_TASKJUDGE/WS_TASK_MANAGE
  +--> _WS_DELTASKIFG/WS_TASK_MANAGE
  +--> HMISERVICEMODEFUNC/GUI

HMISERVICEMODEFUNC/GUI                        ----- -----  ----- -----
  +--> _DRAW_RECTANGLE_REAL/LCD
  +--> ?CO?GUI
  +--> _LCD_SHOWSTRING/LCD
  +--> _SPI_ERASE_SECTOR/W25X
  +--> _DELAY_MS/DELAY
  +--> _SPI_WRITE_NBYTES/W25X
  +--> _SPI_READ_NBYTES/W25X
  +--> LCD_SHOW_VERION/LCD
  +--> _DISP_ICO_52X64/LCD
LX51 LINKER/LOCATER V4.66.1.0                                                         04/08/2019  16:56:50  PAGE 18


  +--> _DISP_ICO_32X40/LCD
  +--> _DISP_ICO_40X40/LCD
  +--> _DISP_RH14X24/LCD
  +--> _DISP_HEAT_36X24/LCD
  +--> SERVICEMODE_TEMPHUMIDY_DISP/ACTIVITYFUNCTIONS
  +--> _HMIENTERTOWORKSTATEFUNC/GUI

_SPI_ERASE_SECTOR/W25X                        ----- -----  0119H 011CH
  +--> SPI_WRITE_ENABLE/W25X
  +--> _SPI_SEND_BYTE/W25X

SPI_WRITE_ENABLE/W25X                         ----- -----  ----- -----
  +--> _SPI_SEND_BYTE/W25X

_SPI_WRITE_NBYTES/W25X                        ----- -----  011AH 0123H
  +--> SPI_WRITE_ENABLE/W25X
  +--> _SPI_SEND_BYTE/W25X

_DISP_HEAT_36X24/LCD                          ----- -----  ----- -----
  +--> ?CO?LCD
  +--> _DISP_MONO_GRAP/LCD

SERVICEMODE_TEMPHUMIDY_DISP/ACTIVITYFUNC+     ----- -----  0113H 0116H
... TIONS
  +--> _DISP_TEMP_30X56/LCD
  +--> _DRAW_RECTANGLE_REAL/LCD
  +--> _DISP_RH_17X40/LCD

HMIPOSTTASK/NORMAL_TASK                       ----- -----  ----- -----
  +--> _WS_TASKJUDGE/WS_TASK_MANAGE
  +--> _WS_DELTASKIFG/WS_TASK_MANAGE
  +--> HMIPOSTFUNC/GUI

HMIPOSTFUNC/GUI                               ----- -----  0113H 0113H
  +--> RX8010_INITIALIZE/RX8010
  +--> _DRAW_RECTANGLE_REAL/LCD
  +--> ?CO?GUI
  +--> _LCD_SHOWSTRING/LCD
  +--> _SPI_READ_NBYTES/W25X
  +--> _SPI_ERASE_SECTOR/W25X
  +--> _SPI_WRITE_NBYTES/W25X
  +--> _DELAY_MS/DELAY
  +--> _HMIENTERTOWORKSTATEFUNC/GUI

RX8010_INITIALIZE/RX8010                      ----- -----  0114H 011CH
  +--> _READEEONE/RX8010
  +--> _DELAY_MS/DELAY
  +--> _BIT_IS_ONE/ACTIVITYFUNCTIONS
  +--> _WRITEEEONE/RX8010

_WRITEEEONE/RX8010                            ----- -----  011DH 0122H
  +--> IC_START/RX8010
  +--> _IC_WRITEBYTE/RX8010
  +--> IC_STOP/RX8010
  +--> _DELAY_US/DELAY

HMIFACTORYDEFAULTSELTASK/NORMAL_TASK          ----- -----  ----- -----
  +--> _WS_TASKJUDGE/WS_TASK_MANAGE
  +--> _WS_DELTASKIFG/WS_TASK_MANAGE
  +--> HMIFACTORYDEFAULTFUNC/GUI

HMIFACTORYDEFAULTFUNC/GUI                     ----- -----  0113H 014AH
  +--> _DISP_ICO_40X40/LCD
  +--> SOUND_SHORT/SOUND_TYPE
  +--> LOAD_SETTINGS_BEFORE_CHOICE/ACTIVITYFUNCTIONS
LX51 LINKER/LOCATER V4.66.1.0                                                         04/08/2019  16:56:50  PAGE 19


  +--> _HMIENTERTOWORKSTATEFUNC/GUI
  +--> _DRAW_RECTANGLE/LCD
  +--> _DRAW_RECTANGLE_REAL/LCD
  +--> ?CO?GUI
  +--> _LCD_SHOWSTRING/LCD
  +--> _LCD_SHOWXNUM/LCD
  +--> _DRAW_CIRCLE/LCD

SOUND_SHORT/SOUND_TYPE                        ----- -----  ----- -----

LOAD_SETTINGS_BEFORE_CHOICE/ACTIVITYFUNC+     ----- -----  ----- -----
... TIONS
  +--> WRITE_DEFAULT_SETTING_TO_FLASH/ACTIVITYFUNCTIONS

_LCD_SHOWXNUM/LCD                             ----- -----  014BH 0159H
  +--> _LCD_POW/LCD
  +--> _LCD_SHOWCHAR/LCD

_LCD_POW/LCD                                  ----- -----  015AH 015FH

HMINON_INVASIVESELTASK/NORMAL_TASK            ----- -----  ----- -----
  +--> _WS_TASKJUDGE/WS_TASK_MANAGE
  +--> _WS_DELTASKIFG/WS_TASK_MANAGE
  +--> HMINON_INVASIVESELFUNC/GUI

HMINON_INVASIVESELFUNC/GUI                    ----- -----  ----- -----
  +--> _DRAW_RECTANGLE/LCD
  +--> _HMIENTERTOWORKSTATEFUNC/GUI
  +--> SETTING_WRITE_TO_FLASH/ACTIVITYFUNCTIONS

HMIRUNNINGTASK/NORMAL_TASK                    ----- -----  ----- -----
  +--> _WS_TASKJUDGE/WS_TASK_MANAGE
  +--> _WS_DELTASKIFG/WS_TASK_MANAGE
  +--> HMIRUNNINGFUNC/GUI

HMIRUNNINGFUNC/GUI                            ----- -----  ----- -----
  +--> _DISP_ICO_52X64/LCD
  +--> _DISPLAY_IN_EXP_RATIO/GUI
  +--> _REFRESHTEMPHUMIDYFUNC/ACTIVITYFUNCTIONS
  +--> SOUND_SHORT/SOUND_TYPE
  +--> SETTING_WRITE_TO_FLASH/ACTIVITYFUNCTIONS
  +--> REFRESH_WORK_MODE/LCD
  +--> _HMIENTERTOWORKSTATEFUNC/GUI
  +--> _DRAW_RECTANGLE_REAL/LCD
  +--> WIREINOUT_STATE_CONFIRM/ACTIVITYFUNCTIONS

WIREINOUT_STATE_CONFIRM/ACTIVITYFUNCTION+     ----- -----  ----- -----
... S

HMISETTEMPPATIENTTASK/NORMAL_TASK             ----- -----  ----- -----
  +--> _WS_TASKJUDGE/WS_TASK_MANAGE
  +--> _WS_DELTASKIFG/WS_TASK_MANAGE
  +--> HMISETTEMPPATIENTFUNC/GUI

HMISETTEMPPATIENTFUNC/GUI                     ----- -----  ----- -----
  +--> _DISP_ICO_32X40/LCD
  +--> _DISPLAY_SET_TEMP/GUI
  +--> _HMIENTERTOWORKSTATEFUNC/GUI
  +--> _REFRESHTEMPHUMIDYFUNC/ACTIVITYFUNCTIONS
  +--> SOUND_SHORT/SOUND_TYPE
  +--> SETTING_WRITE_TO_FLASH/ACTIVITYFUNCTIONS

HMISETTEMPCHAMBERTASK/NORMAL_TASK             ----- -----  ----- -----
  +--> _WS_TASKJUDGE/WS_TASK_MANAGE
  +--> _WS_DELTASKIFG/WS_TASK_MANAGE
LX51 LINKER/LOCATER V4.66.1.0                                                         04/08/2019  16:56:50  PAGE 20


  +--> HMISETTEMPCHAMBERFUNC/GUI

HMISETTEMPCHAMBERFUNC/GUI                     ----- -----  ----- -----
  +--> _DISP_ICO_32X40/LCD
  +--> _DISPLAY_SET_TEMP/GUI
  +--> SOUND_SHORT/SOUND_TYPE
  +--> _REFRESHTEMPHUMIDYFUNC/ACTIVITYFUNCTIONS
  +--> SETTING_WRITE_TO_FLASH/ACTIVITYFUNCTIONS

HMISETINEXPTASK/NORMAL_TASK                   ----- -----  ----- -----
  +--> _WS_TASKJUDGE/WS_TASK_MANAGE
  +--> _WS_DELTASKIFG/WS_TASK_MANAGE
  +--> HMISETINEXPFUNC/GUI

HMISETINEXPFUNC/GUI                           ----- -----  ----- -----
  +--> ?CO?GUI
  +--> _LCD_SHOWSTRING/LCD
  +--> _HMIENTERTOWORKSTATEFUNC/GUI
  +--> _DISPLAY_IN_EXP_RATIO/GUI
  +--> SOUND_SHORT/SOUND_TYPE
  +--> SETTING_WRITE_TO_FLASH/ACTIVITYFUNCTIONS

HMISETTIMETASK/NORMAL_TASK                    ----- -----  ----- -----
  +--> _WS_TASKJUDGE/WS_TASK_MANAGE
  +--> _WS_DELTASKIFG/WS_TASK_MANAGE
  +--> HMISETTIMEFUNC/GUI

HMISETTIMEFUNC/GUI                            ----- -----  ----- -----
  +--> _DISPLAYTIME/GUI
  +--> DATE_IS_CORRECT/GUI
  +--> SOUND_SHORT/SOUND_TYPE
  +--> _RX8010_SETTIME/RX8010

_DISPLAYTIME/GUI                              ----- -----  0113H 0118H
  +--> _DISP_TIME_10X16/LCD

DATE_IS_CORRECT/GUI                           20H.0 20H.0  ----- -----

_RX8010_SETTIME/RX8010                        ----- -----  0113H 011CH
  +--> _WRITEEEONE/RX8010

HMISCREENSAVERMODETASK/NORMAL_TASK            ----- -----  ----- -----
  +--> _WS_TASKJUDGE/WS_TASK_MANAGE
  +--> _WS_DELTASKIFG/WS_TASK_MANAGE
  +--> HMISCREENSAVERMODEFUNC/GUI

HMISCREENSAVERMODEFUNC/GUI                    ----- -----  0113H 0115H
  +--> _DRAW_RECTANGLE_REAL/LCD
  +--> _HMIENTERTOWORKSTATEFUNC/GUI
  +--> ERR_BASE_HEATERWIRE_DISP_ENABLE/ACTIVITYFUNCTIONS
  +--> _DISP_TEMP_38X64/LCD
  +--> _DISP_ICO_32X40/LCD

ERR_BASE_HEATERWIRE_DISP_ENABLE/ACTIVITY+     ----- -----  ----- -----
... FUNCTIONS

_DISP_TEMP_38X64/LCD                          ----- -----  0116H 011AH
  +--> ?CO?LCD
  +--> _DISP_MONO_GRAP/LCD

GETTEMP_HPCHAMBERTASK/NORMAL_TASK             ----- -----  ----- -----
  +--> _WS_TASKJUDGE/WS_TASK_MANAGE
  +--> _WS_DELTASKIFG/WS_TASK_MANAGE
  +--> GETTEMP_HPCHAMBERFUNC/ACTIVITYFUNCTIONS

LX51 LINKER/LOCATER V4.66.1.0                                                         04/08/2019  16:56:50  PAGE 21


GETTEMP_HPCHAMBERFUNC/ACTIVITYFUNCTIONS       20H.0 20H.0  0113H 0122H
  +--> _DELAY_US/DELAY
  +--> _DS18B20_WRITEBYTE/DS18B20
  +--> DS18B20_READBYTE/DS18B20
  +--> _DS18B20_CHECKCRC/DS18B20

_DS18B20_WRITEBYTE/DS18B20                    ----- -----  0123H 0124H
  +--> _DELAY_US/DELAY

DS18B20_READBYTE/DS18B20                      20H.1 20H.2  0123H 0123H
  +--> _DELAY_US/DELAY

_DS18B20_CHECKCRC/DS18B20                     ----- -----  0123H 0129H

GETTEMPHUMIDITY_PATIENTTASK/NORMAL_TASK       ----- -----  ----- -----
  +--> _WS_TASKJUDGE/WS_TASK_MANAGE
  +--> _WS_DELTASKIFG/WS_TASK_MANAGE
  +--> GETTEMPHUMIDITY_PATIENTFUNC/ACTIVITYFUNCTIONS

GETTEMPHUMIDITY_PATIENTFUNC/ACTIVITYFUNC+     20H.0 20H.0  0113H 0119H
... TIONS
  +--> SHT21_WRITETEMP/SHT21
  +--> SHT21_READDATA/SHT21
  +--> SHT21_WRITERH/SHT21

SHT21_WRITETEMP/SHT21                         ----- -----  ----- -----
  +--> SHT21_START/SHT21
  +--> _SHT21_WRITE8BIT/SHT21
  +--> SCL_INPUT_HIGH/SHT21

SHT21_START/SHT21                             ----- -----  ----- -----
  +--> SCL_INPUT_HIGH/SHT21
  +--> SDA_INPUT_HIGH/SHT21
  +--> _DELAY_US/DELAY
  +--> SDA_OUTPUT_LOW/SHT21
  +--> SCL_OUTPUT_LOW/SHT21

SCL_INPUT_HIGH/SHT21                          ----- -----  ----- -----

SDA_INPUT_HIGH/SHT21                          ----- -----  ----- -----

SDA_OUTPUT_LOW/SHT21                          ----- -----  ----- -----

SCL_OUTPUT_LOW/SHT21                          ----- -----  ----- -----

_SHT21_WRITE8BIT/SHT21                        ----- -----  011AH 011CH
  +--> SCL_OUTPUT_LOW/SHT21
  +--> SDA_INPUT_HIGH/SHT21
  +--> SDA_OUTPUT_LOW/SHT21
  +--> _DELAY_US/DELAY
  +--> SCL_INPUT_HIGH/SHT21

SHT21_READDATA/SHT21                          ----- -----  011AH 0122H
  +--> _SHT21_READ8BIT/SHT21
  +--> SHT21_STOP/SHT21
  +--> _SHT2X_CHECKCRC/SHT21

_SHT21_READ8BIT/SHT21                         ----- -----  0123H 0125H
  +--> SDA_INPUT_HIGH/SHT21
  +--> SCL_INPUT_HIGH/SHT21
  +--> _DELAY_US/DELAY
  +--> SCL_OUTPUT_LOW/SHT21
  +--> SDA_OUTPUT_LOW/SHT21

SHT21_STOP/SHT21                              ----- -----  ----- -----
LX51 LINKER/LOCATER V4.66.1.0                                                         04/08/2019  16:56:50  PAGE 22


  +--> SCL_OUTPUT_LOW/SHT21
  +--> SDA_OUTPUT_LOW/SHT21
  +--> SCL_INPUT_HIGH/SHT21
  +--> _DELAY_US/DELAY
  +--> SDA_INPUT_HIGH/SHT21

_SHT2X_CHECKCRC/SHT21                         ----- -----  0123H 0128H

SHT21_WRITERH/SHT21                           ----- -----  ----- -----
  +--> SHT21_START/SHT21
  +--> _SHT21_WRITE8BIT/SHT21
  +--> SCL_INPUT_HIGH/SHT21

REFRESHTEMPHUMIDYTASK/NORMAL_TASK             ----- -----  ----- -----
  +--> _WS_TASKJUDGE/WS_TASK_MANAGE
  +--> _WS_DELTASKIFG/WS_TASK_MANAGE
  +--> _REFRESHTEMPHUMIDYFUNC/ACTIVITYFUNCTIONS

REFRESHRTCTIMETASK/NORMAL_TASK                ----- -----  ----- -----
  +--> _WS_TASKJUDGE/WS_TASK_MANAGE
  +--> _WS_DELTASKIFG/WS_TASK_MANAGE
  +--> REFRESHRTCTIMEFUNC/ACTIVITYFUNCTIONS

REFRESHRTCTIMEFUNC/ACTIVITYFUNCTIONS          ----- -----  ----- -----
  +--> _RX8010_GETTIME/RX8010
  +--> _DISPLAYTIME/GUI

REFRESHRUNTIMETASK/NORMAL_TASK                ----- -----  ----- -----
  +--> _WS_TASKJUDGE/WS_TASK_MANAGE
  +--> _WS_DELTASKIFG/WS_TASK_MANAGE
  +--> _REFRESHRUNTIMEFUNC/ACTIVITYFUNCTIONS

HEATERWIRECONTROLTASK/NORMAL_TASK             ----- -----  ----- -----
  +--> _WS_TASKJUDGE/WS_TASK_MANAGE
  +--> _WS_DELTASKIFG/WS_TASK_MANAGE
  +--> HEATERPLATEWIRECONTROLFUNC/ACTIVITYFUNCTIONS

HEATERPLATEWIRECONTROLFUNC/ACTIVITYFUNCT+     ----- -----  0113H 0118H
... IONS
  +--> _LCD_SHOWXNUM/LCD
  +--> _ABS/ABS
  +--> CONTROLER_CALC/ACTIVITYFUNCTIONS
  +--> HEATPLATETEMP_AIM_CONTROLER_CALC/ACTIVITYFUNCTIONS
  +--> HEATPLATE_CONTROLER_CALC/ACTIVITYFUNCTIONS
  +--> PATIENTTEMP_NONEHEATWIRE_ADJ/ACTIVITYFUNCTIONS

_ABS/ABS                                      ----- -----  ----- -----

CONTROLER_CALC/ACTIVITYFUNCTIONS              ----- -----  ----- -----

HEATPLATETEMP_AIM_CONTROLER_CALC/ACTIVIT+     ----- -----  ----- -----
... YFUNCTIONS

HEATPLATE_CONTROLER_CALC/ACTIVITYFUNCTIO+     ----- -----  ----- -----
... NS

PATIENTTEMP_NONEHEATWIRE_ADJ/ACTIVITYFUN+     ----- -----  0119H 011CH
... CTIONS
  +--> HEATPLATE_CONTROLER_CALC/ACTIVITYFUNCTIONS
  +--> _LCD_SHOWXNUM/LCD
  +--> _ABS/ABS

LOWPOWERMODETASK/NORMAL_TASK                  ----- -----  ----- -----
  +--> _WS_TASKJUDGE/WS_TASK_MANAGE
  +--> _WS_DELTASKIFG/WS_TASK_MANAGE
LX51 LINKER/LOCATER V4.66.1.0                                                         04/08/2019  16:56:50  PAGE 23


  +--> LOWPOWERMODEFUNC/ACTIVITYFUNCTIONS

LOWPOWERMODEFUNC/ACTIVITYFUNCTIONS            ----- -----  ----- -----
  +--> _BIT_IS_ONE/ACTIVITYFUNCTIONS

HEATERWIREMODEDETTASK/NORMAL_TASK             ----- -----  ----- -----
  +--> _WS_TASKJUDGE/WS_TASK_MANAGE
  +--> _WS_DELTASKIFG/WS_TASK_MANAGE
  +--> HEATERWIREMODEDETFUNC/ACTIVITYFUNCTIONS

HEATERWIREMODEDETFUNC/ACTIVITYFUNCTIONS       ----- -----  ----- -----

ALARMERRORTASK/NORMAL_TASK                    ----- -----  ----- -----
  +--> _WS_TASKJUDGE/WS_TASK_MANAGE
  +--> _WS_DELTASKIFG/WS_TASK_MANAGE
  +--> ALARMERRORFUNC/ACTIVITYFUNCTIONS

ALARMERRORFUNC/ACTIVITYFUNCTIONS              ----- -----  0113H 0115H
  +--> _SET_BIT/ACTIVITYFUNCTIONS
  +--> _CLEAR_BIT/ACTIVITYFUNCTIONS
  +--> _BIT_IS_ONE/ACTIVITYFUNCTIONS
  +--> _DRAW_RECTANGLE_REAL/LCD
  +--> SOUND_ALARM_PAUSE_DISABLE/SOUND_TYPE
  +--> _DISP_VHB80_PIC/LCD
  +--> _DISP_CQK25X24/LCD
  +--> _DISP_RTD28X24/LCD
  +--> _DISP_HEAT_36X24/LCD

_SET_BIT/ACTIVITYFUNCTIONS                    ----- -----  ----- -----

_CLEAR_BIT/ACTIVITYFUNCTIONS                  ----- -----  ----- -----

SOUND_ALARM_PAUSE_DISABLE/SOUND_TYPE          ----- -----  ----- -----

_DISP_VHB80_PIC/LCD                           ----- -----  0116H 0116H
  +--> _DISP_VHB80_56X40/LCD
  +--> _DISP_HEAT_36X24/LCD
  +--> _DISP_CQK25X24/LCD
  +--> _DRAW_RECTANGLE_REAL/LCD
  +--> _DISP_RTD28X24/LCD
  +--> _DISP_JQK41X16/LCD

_DISP_VHB80_56X40/LCD                         ----- -----  ----- -----
  +--> ?CO?LCD
  +--> _DISP_MONO_GRAP/LCD

_DISP_CQK25X24/LCD                            ----- -----  ----- -----
  +--> ?CO?LCD
  +--> _DISP_MONO_GRAP/LCD

_DISP_RTD28X24/LCD                            ----- -----  ----- -----
  +--> ?CO?LCD
  +--> _DISP_MONO_GRAP/LCD

_DISP_JQK41X16/LCD                            ----- -----  ----- -----
  +--> ?CO?LCD
  +--> _DISP_MONO_GRAP/LCD

LOWTEMPDET1STASK/NORMAL_TASK                  ----- -----  ----- -----
  +--> _WS_TASKJUDGE/WS_TASK_MANAGE
  +--> _WS_DELTASKIFG/WS_TASK_MANAGE
  +--> LOWTEMPDET1SFUNC/ACTIVITYFUNCTIONS

LOWTEMPDET1SFUNC/ACTIVITYFUNCTIONS            ----- -----  0113H 0118H
  +--> _LCD_SHOWXNUM/LCD
LX51 LINKER/LOCATER V4.66.1.0                                                         04/08/2019  16:56:50  PAGE 24


  +--> _CLEAR_BIT/ACTIVITYFUNCTIONS
  +--> _SET_BIT/ACTIVITYFUNCTIONS

SAVEDATETOFLASHTASK/NORMAL_TASK               ----- -----  ----- -----
  +--> _WS_TASKJUDGE/WS_TASK_MANAGE
  +--> _WS_DELTASKIFG/WS_TASK_MANAGE
  +--> SAVEDATETOFLASHFUNC/ACTIVITYFUNCTIONS

SAVEDATETOFLASHFUNC/ACTIVITYFUNCTIONS         ----- -----  0113H 0118H
  +--> _RX8010_GETTIME/RX8010
  +--> _SPI_WRITE_NBYTES/W25X
  +--> STORE_DATA/ACTIVITYFUNCTIONS
  +--> _SPI_ERASE_SECTOR/W25X

STORE_DATA/ACTIVITYFUNCTIONS                  ----- -----  0119H 0119H
  +--> _SPI_WRITE_NBYTES/W25X

UARTRECTASK/NORMAL_TASK                       ----- -----  ----- -----
  +--> _WS_TASKJUDGE/WS_TASK_MANAGE
  +--> _WS_DELTASKIFG/WS_TASK_MANAGE
  +--> UART_RECDATA_FUNC/ACTIVITYFUNCTIONS

UART_RECDATA_FUNC/ACTIVITYFUNCTIONS           ----- -----  0113H 0116H
  +--> EUSART_READ/UART_FUN
  +--> UART_RECBUF_CLEAR_FUN/ACTIVITYFUNCTIONS
  +--> _SPI_READ_NBYTES/W25X
  +--> _EUSART_WRITE_STR/UART_FUN

EUSART_READ/UART_FUN                          ----- -----  ----- -----

UART_RECBUF_CLEAR_FUN/ACTIVITYFUNCTIONS       ----- -----  ----- -----

_EUSART_WRITE_STR/UART_FUN                    ----- -----  0117H 0119H
  +--> _EUSART_WRITE/UART_FUN

_EUSART_WRITE/UART_FUN                        ----- -----  ----- -----
  +--> _SEND_CHAR_COM/UART_FUN

_SEND_CHAR_COM/UART_FUN                       ----- -----  ----- -----

?C_INITSEG                                    ----- -----  ----- -----
  +--> KEYUPPRESSSHORTACTION/KEY_DATAS
  +--> KEYUPPRESSLONGFIRSTACTION/KEY_DATAS
  +--> KEYUPPRESSLONGREPEATACTION/KEY_DATAS
  +--> KEYDOWNPRESSSHORTACTION/KEY_DATAS
  +--> KEYDOWNPRESSLONGFIRSTACTION/KEY_DATAS
  +--> KEYDOWNPRESSLONGREPEATACTION/KEY_DATAS
  +--> KEYOKPRESSSHORTACTION/KEY_DATAS
  +--> KEYOKPRESSLONGFIRSTACTION/KEY_DATAS
  +--> KEYOKPRESSLONGREPEATACTION/KEY_DATAS
  +--> KEYMUTEPRESSSHORTACTION/KEY_DATAS
  +--> KEYMUTEPRESSLONGFIRSTACTION/KEY_DATAS
  +--> KEYMUTEPRESSLONGREPEATACTION/KEY_DATAS

KEYUPPRESSSHORTACTION/KEY_DATAS               ----- -----  ----- -----

KEYUPPRESSLONGFIRSTACTION/KEY_DATAS           ----- -----  ----- -----

KEYUPPRESSLONGREPEATACTION/KEY_DATAS          ----- -----  ----- -----

KEYDOWNPRESSSHORTACTION/KEY_DATAS             ----- -----  ----- -----

KEYDOWNPRESSLONGFIRSTACTION/KEY_DATAS         ----- -----  ----- -----

KEYDOWNPRESSLONGREPEATACTION/KEY_DATAS        ----- -----  ----- -----
LX51 LINKER/LOCATER V4.66.1.0                                                         04/08/2019  16:56:50  PAGE 25



KEYOKPRESSSHORTACTION/KEY_DATAS               ----- -----  ----- -----

KEYOKPRESSLONGFIRSTACTION/KEY_DATAS           ----- -----  ----- -----

KEYOKPRESSLONGREPEATACTION/KEY_DATAS          ----- -----  ----- -----

KEYMUTEPRESSSHORTACTION/KEY_DATAS             ----- -----  ----- -----
  +--> SOUND_ALARM_PAUSE_ENABLE/SOUND_TYPE
  +--> SOUND_ALARM_PAUSE_DISABLE/SOUND_TYPE

SOUND_ALARM_PAUSE_ENABLE/SOUND_TYPE           ----- -----  ----- -----

KEYMUTEPRESSLONGFIRSTACTION/KEY_DATAS         ----- -----  ----- -----

KEYMUTEPRESSLONGREPEATACTION/KEY_DATAS        ----- -----  ----- -----



PUBLIC SYMBOLS OF MODULE:  ..\OBJ\VHB15A (STC_EEPROM)


      VALUE       CLASS    TYPE      PUBLIC SYMBOL NAME
      =================================================
      02000199H   XDATA    BYTE      ?_DISP_DHM?BYTE
      02000115H   XDATA    BYTE      ?_DISP_FNT10X24?BYTE
      020001B7H   XDATA    BYTE      ?_DISP_FNT12X24?BYTE
      020001B7H   XDATA    BYTE      ?_DISP_FNT8X16?BYTE
      02000199H   XDATA    BYTE      ?_DISP_ICO_32X40?BYTE
      02000199H   XDATA    BYTE      ?_DISP_ICO_40X40?BYTE
      02000199H   XDATA    BYTE      ?_DISP_ICO_52X64?BYTE
      02000199H   XDATA    BYTE      ?_DISP_RH14X24?BYTE
      0200019FH   XDATA    BYTE      ?_DISP_RH_17X40?BYTE
      0200019FH   XDATA    BYTE      ?_DISP_TEMP_30X56?BYTE
      02000116H   XDATA    BYTE      ?_DISP_TEMP_38X64?BYTE
      0200019AH   XDATA    BYTE      ?_DISP_TIME_10X16?BYTE
      02000199H   XDATA    BYTE      ?_Draw_Circle?BYTE
      02000199H   XDATA    BYTE      ?_Draw_Rectangle?BYTE
      0200019FH   XDATA    BYTE      ?_Draw_Rectangle_Real?BYTE
      02000123H   XDATA    BYTE      ?_DS18B20_CheckCrc?BYTE
      020001C7H   XDATA    BYTE      ?_LCD_CrtlWrite_Area?BYTE
      020001AFH   XDATA    BYTE      ?_LCD_ShowChar?BYTE
      0200019AH   XDATA    BYTE      ?_LCD_ShowString?BYTE
      0200014BH   XDATA    BYTE      ?_LCD_ShowxNum?BYTE
      0200011CH   XDATA    BYTE      ?_SPI_Read_nBytes?BYTE
      0200011AH   XDATA    BYTE      ?_SPI_Write_nBytes?BYTE
      01005B47H   CODE     ---       ?C?CCASE
      010057C4H   CODE     ---       ?C?CLDOPTR
      010057ABH   CODE     ---       ?C?CLDPTR
      00000000H   NUMBER   ---       ?C?CODESEG
      01005785H   CODE     ---       ?C?COPY
      01005803H   CODE     ---       ?C?CSTOPTR
      010057F1H   CODE     ---       ?C?CSTPTR
      01005B6DH   CODE     ---       ?C?ICALL
      01005B71H   CODE     ---       ?C?ICALL2
      010058C2H   CODE     ---       ?C?IILDX
      01005825H   CODE     ---       ?C?IMUL
      010058D8H   CODE     ---       ?C?LADD
      01005A10H   CODE     ---       ?C?LAND
      01005A84H   CODE     ---       ?C?LLDXDATA
      01005A90H   CODE     ---       ?C?LLDXDATA0
      010058F3H   CODE     ---       ?C?LMUL
      01005A2AH   CODE     ---       ?C?LNOT
      01005A1DH   CODE     ---       ?C?LOR
      01005A71H   CODE     ---       ?C?LSHL
LX51 LINKER/LOCATER V4.66.1.0                                                         04/08/2019  16:56:50  PAGE 26


      01005AA8H   CODE     ---       ?C?LSTKXDATA
      01005A9CH   CODE     ---       ?C?LSTXDATA
      010058E5H   CODE     ---       ?C?LSUB
      01005AD9H   CODE     ---       ?C?OFFXADD
      01005C6EH   CODE     ---       ?C?PLDCODE
      01005C5CH   CODE     ---       ?C?PLDIDATA
      01005B17H   CODE     ---       ?C?PLDOPTR
      01005C65H   CODE     ---       ?C?PLDPDATA
      01005AF7H   CODE     ---       ?C?PLDPTR
      01005AE5H   CODE     ---       ?C?PLDXDATA
      01005AEEH   CODE     ---       ?C?PSTXDATA
      0100588CH   CODE     ---       ?C?SIDIV
      01005A37H   CODE     ---       ?C?SLCMP
      0100631BH   CODE     ---       ?C?SLDIV
      01005C3FH   CODE     ---       ?C?STRCPY
      01005837H   CODE     ---       ?C?UIDIV
      01005A4DH   CODE     ---       ?C?ULCMP
      0100597EH   CODE     ---       ?C?ULDIV
      01005A5EH   CODE     ---       ?C?ULSHR
      00000000H   NUMBER   ---       ?C?XDATASEG
      010062D6H   CODE     ---       ?C_START
      01000000H   CODE     ---       ?C_STARTUP
      02000113H   XDATA    BYTE      ?Key_Multifun?BYTE
      01000016H   CODE     ---       _ABS
      010077DCH   CODE     ---       _Bit_is_one
      01007FF8H   CODE     ---       _delay_ms
      0100682BH   CODE     ---       _delay_us
      0100A79CH   CODE     ---       _DISP_CQK25X24
      01007E5CH   CODE     ---       _DISP_DHM
      01007ECCH   CODE     ---       _DISP_FNT10X24
      0100BDECH   CODE     ---       _DISP_FNT12X24
      0100BD04H   CODE     ---       _DISP_FNT8X16
      0100A761H   CODE     ---       _DISP_HEAT_36X24
      01007F3BH   CODE     ---       _DISP_ICO_32X40
      01007EB0H   CODE     ---       _DISP_ICO_40X40
      01007F61H   CODE     ---       _DISP_ICO_52X64
      0100A67DH   CODE     ---       _DISP_JQK41X16
      01007E1CH   CODE     ---       _DISP_RH14X24
      01007607H   CODE     ---       _DISP_RH_17X40
      0100A7B4H   CODE     ---       _DISP_RTD28X24
      010077F4H   CODE     ---       _DISP_TEMP_30X56
      01007F8EH   CODE     ---       _DISP_TEMP_38X64
      0100782FH   CODE     ---       _DISP_TIME_10X16
      0100A77AH   CODE     ---       _DISP_VHB80_56X40
      0100A616H   CODE     ---       _DISP_VHB80_PIC
      0100C357H   CODE     ---       _Disp_WuChuang
      0100A7C6H   CODE     ---       _Disp_YouChuang
      01007857H   CODE     ---       _DisPlayTime
      0100849FH   CODE     ---       _Draw_Circle
      010085AEH   CODE     ---       _Draw_Rectangle
      0100772EH   CODE     ---       _Draw_Rectangle_Real
      0100AB09H   CODE     ---       _DS18B20_CheckCrc
      01006ACEH   CODE     ---       _DS18B20_WriteByte
      0100AAABH   CODE     ---       _EUSART_Write
      0100AA8DH   CODE     ---       _EUSART_Write_Str
      01006432H   CODE     ---       _HmiEnterToWorkStateFunc
      010086CBH   CODE     ---       _LCD_CrtlWrite_Area
      01008465H   CODE     ---       _LCD_CtrlWrite_Color
      01008478H   CODE     ---       _LCD_CtrlWrite_ILI9328
      0100BCDBH   CODE     ---       _LCD_ShowChar
      010066EDH   CODE     ---       _LCD_ShowString
      01009EE8H   CODE     ---       _LCD_ShowxNum
      01007045H   CODE     ---       _readEEone
      01007BE8H   CODE     ---       _RefreshRunTimeFunc
      01007242H   CODE     ---       _RefreshTempHumidyFunc
LX51 LINKER/LOCATER V4.66.1.0                                                         04/08/2019  16:56:50  PAGE 27


      0100C4B9H   CODE     ---       _RX8010_GetTime
      0100C43FH   CODE     ---       _RX8010_SetTime
      01008F7BH   CODE     ---       _SPI_Erase_Sector
      01008B9EH   CODE     ---       _SPI_Read_nBytes
      01008F11H   CODE     ---       _SPI_Send_Byte
      01008F2FH   CODE     ---       _SPI_Write_nBytes
      01006631H   CODE     ---       _STC_IAP_Byte_Program
      0100635FH   CODE     ---       _STC_IAP_Byte_Read
      010067FDH   CODE     ---       _STC_IAP_Sector_Erase
      010089E5H   CODE     ---       _WS_DelTaskIfg
      0100821FH   CODE     ---       _WS_SetTaskIfg
      01008FF0H   CODE     ---       _WS_TaskJudge
*SFR* 000000E0H   DATA     BYTE      ACC
      0100A071H   CODE     ---       AlarmErrorFunc
      0100A849H   CODE     ---       AlarmErrorTask
      02000097H   XDATA    BYTE      AlarmInfoIndex
      02000096H   XDATA    BYTE      AlarmSoundPauseStatus
      0100432FH   CODE     ---       asc2_1608
      0100491FH   CODE     ---       asc2_2412
*SFR* 0000008EH   DATA     BYTE      AUXR
      02000361H   XDATA    BYTE      Back_Color
      0100341EH   CODE     ---       CQK25X24
      02000068H   XDATA    LONG      CQK_Temp
      02000079H   XDATA    BYTE      CQK_Temp_Reach_Set_Cnt
      0200003DH   XDATA    ---       data_flash
      02000046H   XDATA    BYTE      defalut_mode
      01003086H   CODE     ---       DHM14X16
      0200007AH   XDATA    WORD      Diplay_RTtemp
      0200033CH   XDATA    BYTE      Display_Temp_Kind
      01007CB4H   CODE     ---       DrawWorkWindows
      01006A5DH   CODE     ---       DS18B20_ReadByte
*SFR* 000000A8H.7 DATA     BIT       EA
      0100AE32H   CODE     ---       Err_Base_HeaterWire_DISP_Enable
      02000081H   XDATA    BYTE      ERR_Kind
*SFR* 000000A8H.1 DATA     BIT       ET0
      0100C5E1H   CODE     ---       EUSART_Initialize
      0100AA6FH   CODE     ---       EUSART_Read
      0100AB91H   CODE     ---       EUSART_Receive_ISR
      0100ABD6H   CODE     ---       EUSART_Transmit_ISR
      02000252H   XDATA    BYTE      eusartRxCount
*SFR* 000000A8H.2 DATA     BIT       EX1
      0100358DH   CODE     ---       FNT10X24
      01006838H   CODE     ---       GetTemp_HpChamberFunc
      01009812H   CODE     ---       GetTemp_HpChamberTask
      01006C03H   CODE     ---       GetTempHumidity_PatientFunc
      01009823H   CODE     ---       GetTempHumidity_PatientTask
      010009CAH   CODE     ---       gImage_FANEM
      010029B4H   CODE     ---       gImage_LAN_SEL_EN
      01002C06H   CODE     ---       gImage_LAN_SEL_ES
      01002D1AH   CODE     ---       gImage_LAN_SEL_FR
      01002AAAH   CODE     ---       gImage_LAN_SEL_PT
      0100082FH   CODE     ---       gImage_LOGO1
      0100088FH   CODE     ---       gImage_LOGO2
      010008FBH   CODE     ---       gImage_LOGO3
      01000961H   CODE     ---       gImage_LOGO4
      0100099AH   CODE     ---       gImage_LOGO5
      010033B2H   CODE     ---       HEAT36X32
      0200007EH   XDATA    BYTE      HeaterPlate_State
      01009889H   CODE     ---       HeaterPlateWireControlFunc
      01008821H   CODE     ---       HeaterPlateWireDriveFbTask
      01009879H   CODE     ---       HeaterWireControlTask
      0100A7FEH   CODE     ---       HeaterWireModeDetFunc
      0100A7EEH   CODE     ---       HeaterWireModeDetTask
      01008995H   CODE     ---       HmiFactoryDefault_Tik_Cnt
      0100B075H   CODE     ---       HmiFactoryDefaultFunc
LX51 LINKER/LOCATER V4.66.1.0                                                         04/08/2019  16:56:50  PAGE 28


      01009755H   CODE     ---       HmiFactoryDefaultSelTask
      01008988H   CODE     ---       HmiNon_InvasiveSel_Tik_Cnt
      0100876EH   CODE     ---       HmiNon_InvasiveSelFunc
      010097F1H   CODE     ---       HmiNon_InvasiveSelTask
      01009039H   CODE     ---       HmiPostFunc
      0100897BH   CODE     ---       HmiPostFunc_Tik_Cnt
      0100902AH   CODE     ---       HmiPostTask
      0100C030H   CODE     ---       HmiRunningFunc
      01009765H   CODE     ---       HmiRunningTask
      01008934H   CODE     ---       HmiScreenSaverMode_Tik_Cnt
      0100AE3DH   CODE     ---       HmiScreenSaverModeFunc
      010097A5H   CODE     ---       HmiScreenSaverModeTask
      01008BE6H   CODE     ---       HmiServiceModeFunc
      01008FE1H   CODE     ---       HmiServiceModeTask
      0100C21DH   CODE     ---       HmiSetInExpFunc
      01009795H   CODE     ---       HmiSetInExpTask
      0100B5F9H   CODE     ---       HmiSetTempChamberFunc
      01009785H   CODE     ---       HmiSetTempChamberTask
      0100B44FH   CODE     ---       HmiSetTempPatientFunc
      01009775H   CODE     ---       HmiSetTempPatientTask
      01007981H   CODE     ---       HmiSetTimeFunc
      01009801H   CODE     ---       HmiSetTimeTask
      0200007FH   XDATA    WORD      HP_CNT_Int
      02000083H   XDATA    WORD      HP_CNT_Int_End_Rem
*SFR* 000000C3H   DATA     BYTE      IAP_ADDRH
*SFR* 000000C4H   DATA     BYTE      IAP_ADDRL
*SFR* 000000C5H   DATA     BYTE      IAP_CMD
*SFR* 000000C7H   DATA     BYTE      IAP_CONTR
*SFR* 000000C2H   DATA     BYTE      IAP_DATA
*SFR* 000000C6H   DATA     BYTE      IAP_TRIG
      0100284CH   CODE     ---       ICO24X24
      01001CE4H   CODE     ---       ICO32X40
      01002144H   CODE     ---       ICO40X40
      01002E46H   CODE     ---       ICO48X48
*SFR* 000000A8H   DATA     BYTE      IE
      0200005EH   XDATA    BYTE      In_Exp_Ratio
      0100822BH   CODE     ---       Init_port
*SFR* 00000088H.2 DATA     BIT       IT1
      02000066H   XDATA    INT       JEP_Temp
      010034BDH   CODE     ---       JQK41X16
      020002FBH   XDATA    ---       Key_Down
      020002EDH   XDATA    ---       Key_Down_Element
      020002ECH   XDATA    BYTE      Key_Down_Tik
      01008954H   CODE     ---       Key_Down_TikFunc
      01008A7FH   CODE     ---       Key_Multifun
      02000327H   XDATA    ---       Key_Mute
      02000319H   XDATA    ---       Key_Mute_Element
      02000318H   XDATA    BYTE      Key_Mute_Tik
      0100896EH   CODE     ---       Key_Mute_TikFunc
      02000311H   XDATA    ---       Key_OK
      02000303H   XDATA    ---       Key_OK_Element
      02000302H   XDATA    BYTE      Key_OK_Tik
      01008961H   CODE     ---       Key_OK_TikFunc
      0200032EH   XDATA    BYTE      Key_State_Present
      020002E5H   XDATA    ---       Key_UP
      020002D7H   XDATA    ---       Key_UP_Element
      020002D6H   XDATA    BYTE      Key_UP_Tik
      01008947H   CODE     ---       Key_UP_TikFunc
      010089F4H   CODE     ---       KeyScanTask
      02000357H   XDATA    BYTE      KeyToFuncVal
      01008318H   CODE     ---       LCD_Initial
      0100679DH   CODE     ---       LCD_Show_Verion
      0100B005H   CODE     ---       Load_Settings_Before_Choice
      01009FFEH   CODE     ---       LowPowerModeFunc
      01009FEEH   CODE     ---       LowPowerModeTask
LX51 LINKER/LOCATER V4.66.1.0                                                         04/08/2019  16:56:50  PAGE 29


      01009241H   CODE     ---       LowTempDet1SFunc
      0100973FH   CODE     ---       LowTempDet1STask
      0100802EH   CODE     ---       main
      0100ADA7H   CODE     ---       Main_Init
      0100881CH   CODE     ---       Main_Tik_FunctionS
      01008018H   CODE     ---       Main_Tik_Tok_Initial_Fun
      01008089H   CODE     ---       ManageTask
      01006373H   CODE     ---       Mem_Flash_Recall
      02000060H   XDATA    WORD      Micro_Temp_In
      02000062H   XDATA    WORD      Micro_Temp_Out
      0200005FH   XDATA    BYTE      Micro_Temp_Val
      02000098H   XDATA    BYTE      No_HeatSensor_Times
      010019C4H   CODE     ---       NUM10X16
      01001672H   CODE     ---       NUM17X40
      01000E3EH   CODE     ---       NUM30X56
      0100374FH   CODE     ---       NUM38X64
      01001A8CH   CODE     ---       Num8X16
      01001B7CH   CODE     ---       Num8X24
*SFR* 00000080H   DATA     BYTE      P0
*SFR* 00000090H   DATA     BIT       P10
*SFR* 00000090H.1 DATA     BIT       P11
*SFR* 00000090H.2 DATA     BIT       P12
*SFR* 00000090H.3 DATA     BIT       P13
*SFR* 00000090H.4 DATA     BIT       P14
*SFR* 00000090H.5 DATA     BIT       P15
*SFR* 00000090H.6 DATA     BIT       P16
*SFR* 00000090H.7 DATA     BIT       P17
*SFR* 00000092H   DATA     BYTE      P1M0
*SFR* 00000091H   DATA     BYTE      P1M1
*SFR* 000000A0H   DATA     BIT       P20
*SFR* 000000A0H.1 DATA     BIT       P21
*SFR* 000000A0H.2 DATA     BIT       P22
*SFR* 000000A0H.3 DATA     BIT       P23
*SFR* 000000A0H.5 DATA     BIT       P25
*SFR* 000000A0H.6 DATA     BIT       P26
*SFR* 000000A0H.7 DATA     BIT       P27
*SFR* 00000096H   DATA     BYTE      P2M0
*SFR* 00000095H   DATA     BYTE      P2M1
*SFR* 000000B0H.2 DATA     BIT       P32
*SFR* 000000B0H.4 DATA     BIT       P34
*SFR* 000000B0H.5 DATA     BIT       P35
*SFR* 000000B0H.6 DATA     BIT       P36
*SFR* 000000B0H.7 DATA     BIT       P37
*SFR* 000000B2H   DATA     BYTE      P3M0
*SFR* 000000B1H   DATA     BYTE      P3M1
*SFR* 000000C0H   DATA     BIT       P40
*SFR* 000000C0H.1 DATA     BIT       P41
*SFR* 000000C0H.2 DATA     BIT       P42
*SFR* 000000C0H.3 DATA     BIT       P43
*SFR* 000000C0H.4 DATA     BIT       P44
*SFR* 000000C0H.5 DATA     BIT       P45
*SFR* 000000C0H.6 DATA     BIT       P46
*SFR* 000000B4H   DATA     BYTE      P4M0
*SFR* 000000B3H   DATA     BYTE      P4M1
*SFR* 000000BBH   DATA     BYTE      P4SW
*SFR* 00000087H   DATA     BYTE      PCON
      01000305H   CODE     ---       PIC_WuChuang
      0100003FH   CODE     ---       PIC_YouChuang
      0200035FH   XDATA    BYTE      Read_18B20_Value
      02000360H   XDATA    BYTE      Read_18B20_Value2
      0100C2FAH   CODE     ---       Refresh_Work_Mode
      01007BA7H   CODE     ---       RefreshRTCTimeFunc
      0100985AH   CODE     ---       RefreshRTCTimeTask
      01009847H   CODE     ---       RefreshRunTimeTask
      01009834H   CODE     ---       RefreshTempHumidyTask
LX51 LINKER/LOCATER V4.66.1.0                                                         04/08/2019  16:56:50  PAGE 30


      0100350FH   CODE     ---       RH14X24
*SFR* 00000098H   DATA     BIT       RI
      02000064H   XDATA    INT       RT_Temp
      02000078H   XDATA    BYTE      RT_Temp_Reach_Set_Cnt
      01003469H   CODE     ---       RTD28X24
      01007161H   CODE     ---       RX8010_Initialize
      02000085H   XDATA    ---       SaveData
      01009561H   CODE     ---       SaveDateToFlashFunc
      010097B5H   CODE     ---       SaveDateToFlashTask
*SFR* 00000099H   DATA     BYTE      SBUF
*SFR* 00000098H   DATA     BYTE      SCON
      0100744EH   CODE     ---       ServiceMode_TempHumidy_Disp
      02000072H   XDATA    WORD      Set_CQK_Temp
      02000074H   XDATA    WORD      Set_CQK_WCTemp
      02000076H   XDATA    WORD      Set_CQK_YCTemp
      0200006CH   XDATA    INT       Set_RT_Temp
      0200006EH   XDATA    WORD      Set_RT_WCTemp
      02000070H   XDATA    WORD      Set_RT_YCTemp
      0100666FH   CODE     ---       Setting_write_to_flash
      010005DFH   CODE     ---       Shangbiao8
      02000047H   XDATA    ---       show_str
      0100A98DH   CODE     ---       SHT21_ReadData
      01006BFDH   CODE     ---       SHT21_WriteRH
      01006BF7H   CODE     ---       SHT21_WriteTemp
      0100C394H   CODE     ---       Sound_Alarm_Pause_Disable
      0100C36BH   CODE     ---       Sound_Alarm_Pause_Enable
      0100B729H   CODE     ---       Sound_Short
      010089AEH   CODE     ---       Sound_Type_Drive
      0100C3E8H   CODE     ---       SPI_Get_Byte
      0100C3DEH   CODE     ---       SPI_init
      0100C3D4H   CODE     ---       SPI_Write_Disable
      01008FA5H   CODE     ---       SPI_Write_Enable
      02000362H   XDATA    BYTE      step_step_times
      01008926H   CODE     ---       Sub_Tik_FunctionS
      02000095H   XDATA    BYTE      Test_Mode_Dis_Jrp_Ctl
*SFR* 00000088H.5 DATA     BIT       TF0
*SFR* 0000008CH   DATA     BYTE      TH0
*SFR* 0000008DH   DATA     BYTE      TH1
*SFR* 00000098H.1 DATA     BIT       TI
      010087F4H   CODE     ---       Timer_T0_INT_Main
*SFR* 0000008AH   DATA     BYTE      TL0
*SFR* 00000089H   DATA     BYTE      TMOD
*SFR* 00000088H.4 DATA     BIT       TR0
*SFR* 00000088H.6 DATA     BIT       TR1
      0100A86AH   CODE     ---       UART_RecData_Func
      0100A85AH   CODE     ---       UartRecTask
      0100329AH   CODE     ---       VHB8056X40
*SFR* 000000C1H   DATA     BYTE      WDT_CONTR
      02000082H   XDATA    BYTE      Wire_Mode_Mismatch
      0200007CH   XDATA    BYTE      WireIn_State
      0100BFFBH   CODE     ---       WireInOut_State_Confirm
      0200007DH   XDATA    BYTE      WireOut_State
      02000045H   XDATA    BYTE      Work_Mode
      02000356H   XDATA    BYTE      Work_State
      02000099H   XDATA    WORD      Working_Normal
      020001CDH   XDATA    DWORD     WS_TaskIfg
      020001D1H   XDATA    ---       WS_TaskMap
      02000251H   XDATA    BYTE      WS_TaskState



SYMBOL TABLE OF MODULE:  ..\OBJ\VHB15A (STC_EEPROM)

      VALUE       REP       CLASS    TYPE      SYMBOL NAME
      ====================================================
LX51 LINKER/LOCATER V4.66.1.0                                                         04/08/2019  16:56:50  PAGE 31


      ---         MODULE    ---      ---       STC_EEPROM
      010067FDH   PUBLIC    CODE     ---       _STC_IAP_Sector_Erase
      01006631H   PUBLIC    CODE     ---       _STC_IAP_Byte_Program
      0100635FH   PUBLIC    CODE     ---       _STC_IAP_Byte_Read
      000000C2H   SFRSYM    DATA     BYTE      IAP_DATA
      000000C3H   SFRSYM    DATA     BYTE      IAP_ADDRH
      000000C4H   SFRSYM    DATA     BYTE      IAP_ADDRL
      000000C5H   SFRSYM    DATA     BYTE      IAP_CMD
      000000C6H   SFRSYM    DATA     BYTE      IAP_TRIG
      000000C7H   SFRSYM    DATA     BYTE      IAP_CONTR
      0200035BH   SYMBOL    XDATA    ---       my_unTemp16
      01006642H   SYMBOL    CODE     ---       IAP_Disable

      0100635FH   BLOCK     CODE     ---       LVL=0
      0100635FH   LINE      ---      ---       #28
      0100635FH   LINE      ---      ---       #29
      0100635FH   LINE      ---      ---       #30
      01006362H   LINE      ---      ---       #31
      01006365H   LINE      ---      ---       #32
      01006368H   LINE      ---      ---       #34
      0100636BH   LINE      ---      ---       #38
      0100636DH   LINE      ---      ---       #40
      0100636EH   LINE      ---      ---       #42
      01006370H   LINE      ---      ---       #44
      01006372H   LINE      ---      ---       #45
      00000006H   SYMBOL    DATA     WORD      add
      ---         BLOCKEND  ---      ---       LVL=0

      01006631H   BLOCK     CODE     ---       LVL=0
      01006631H   LINE      ---      ---       #47
      01006631H   LINE      ---      ---       #48
      01006631H   LINE      ---      ---       #49
      01006634H   LINE      ---      ---       #50
      01006637H   LINE      ---      ---       #52
      0100663AH   LINE      ---      ---       #56
      0100663FH   LINE      ---      ---       #58
      01006641H   LINE      ---      ---       #60
      00000006H   SYMBOL    DATA     WORD      add
      00000005H   SYMBOL    DATA     BYTE      ch
      ---         BLOCKEND  ---      ---       LVL=0

      010067FDH   BLOCK     CODE     ---       LVL=0
      010067FDH   LINE      ---      ---       #65
      010067FDH   LINE      ---      ---       #66
      010067FDH   LINE      ---      ---       #67
      01006800H   LINE      ---      ---       #68
      01006803H   LINE      ---      ---       #70
      01006805H   LINE      ---      ---       #74
      01006808H   LINE      ---      ---       #76
      01006809H   LINE      ---      ---       #78
      00000006H   SYMBOL    DATA     WORD      add
      ---         BLOCKEND  ---      ---       LVL=0

      01006642H   BLOCK     CODE     ---       LVL=0
      01006642H   LINE      ---      ---       #81
      01006642H   LINE      ---      ---       #82
      01006642H   LINE      ---      ---       #83
      01006645H   LINE      ---      ---       #84
      01006647H   LINE      ---      ---       #85
      01006649H   LINE      ---      ---       #86
      0100664BH   LINE      ---      ---       #87
      0100664DH   LINE      ---      ---       #88
      ---         BLOCKEND  ---      ---       LVL=0

      ---         MODULE    ---      ---       DELAY
LX51 LINKER/LOCATER V4.66.1.0                                                         04/08/2019  16:56:50  PAGE 32


      01007FF8H   PUBLIC    CODE     ---       _delay_ms
      0100682BH   PUBLIC    CODE     ---       _delay_us

      0100681FH   BLOCK     CODE     ---       LVL=0
      0100682BH   LINE      ---      ---       #4
      0100682BH   LINE      ---      ---       #5
      0100682BH   LINE      ---      ---       #6
      01006834H   LINE      ---      ---       #7
      01006834H   LINE      ---      ---       #8
      01006835H   LINE      ---      ---       #9
      01006837H   LINE      ---      ---       #10
      00000006H   SYMBOL    DATA     WORD      t
      ---         BLOCKEND  ---      ---       LVL=0

      01007FF8H   BLOCK     CODE     ---       LVL=0
      01007FF8H   LINE      ---      ---       #13
      01007FF8H   LINE      ---      ---       #14
      00000006H   SYMBOL    DATA     WORD      t
      01007FF8H   BLOCK     CODE     NEAR LAB  LVL=1
      01007FF8H   LINE      ---      ---       #16
      01008002H   LINE      ---      ---       #17
      01008002H   LINE      ---      ---       #18
      01008006H   LINE      ---      ---       #19
      01008014H   LINE      ---      ---       #20
      01008014H   LINE      ---      ---       #21
      01008015H   LINE      ---      ---       #22
      01008017H   LINE      ---      ---       #23
      01008017H   LINE      ---      ---       #24
      00000004H   SYMBOL    DATA     WORD      i
      ---         BLOCKEND  CODE     ---       LVL=1
      ---         BLOCKEND  CODE     ---       LVL=0

      ---         MODULE    ---      ---       MAIN_TIK_TOK
      010087F4H   PUBLIC    CODE     ---       Timer_T0_INT_Main
      01008018H   PUBLIC    CODE     ---       Main_Tik_Tok_Initial_Fun
      0000008EH   SFRSYM    DATA     BYTE      AUXR
      00000089H   SFRSYM    DATA     BYTE      TMOD
      0000008AH   SFRSYM    DATA     BYTE      TL0
      0000008CH   SFRSYM    DATA     BYTE      TH0
      000000A8H.1 SFRSYM    DATA     BIT       ET0
      00000088H.5 SFRSYM    DATA     BIT       TF0
      00000088H.4 SFRSYM    DATA     BIT       TR0
      0200035DH   SYMBOL    XDATA    WORD      Sub_1_TikCount

      01008018H   BLOCK     CODE     ---       LVL=0
      01008018H   LINE      ---      ---       #19
      01008018H   LINE      ---      ---       #20
      01008018H   LINE      ---      ---       #21
      0100801BH   LINE      ---      ---       #22
      0100801EH   LINE      ---      ---       #23
      01008021H   LINE      ---      ---       #24
      01008024H   LINE      ---      ---       #25
      01008027H   LINE      ---      ---       #26
      01008029H   LINE      ---      ---       #27
      0100802BH   LINE      ---      ---       #28
      0100802DH   LINE      ---      ---       #29
      ---         BLOCKEND  ---      ---       LVL=0

      010087F4H   BLOCK     CODE     ---       LVL=0
      010087F4H   LINE      ---      ---       #33
      010087F4H   LINE      ---      ---       #34
      010087F4H   LINE      ---      ---       #35
      010087F7H   LINE      ---      ---       #36
      010087FAH   LINE      ---      ---       #38
      010087FDH   LINE      ---      ---       #39
LX51 LINKER/LOCATER V4.66.1.0                                                         04/08/2019  16:56:50  PAGE 33


      01008800H   LINE      ---      ---       #40
      01008806H   LINE      ---      ---       #41
      01008815H   LINE      ---      ---       #42
      01008815H   LINE      ---      ---       #43
      01008819H   LINE      ---      ---       #44
      0100881BH   LINE      ---      ---       #45
      0100881BH   LINE      ---      ---       #46
      ---         BLOCKEND  ---      ---       LVL=0

      ---         MODULE    ---      ---       WS_TASK_MANAGE
      02000251H   PUBLIC    XDATA    BYTE      WS_TaskState
      020001D1H   PUBLIC    XDATA    ---       WS_TaskMap
      020001CDH   PUBLIC    XDATA    DWORD     WS_TaskIfg
      01008FF0H   PUBLIC    CODE     ---       _WS_TaskJudge
      010089E5H   PUBLIC    CODE     ---       _WS_DelTaskIfg
      0100821FH   PUBLIC    CODE     ---       _WS_SetTaskIfg

      0100821FH   BLOCK     CODE     ---       LVL=0
      0100821FH   LINE      ---      ---       #48
      0100821FH   LINE      ---      ---       #49
      0100821FH   LINE      ---      ---       #50
      00000007H   SYMBOL    DATA     BYTE      Setprio
      ---         BLOCKEND  ---      ---       LVL=0

      010089E0H   BLOCK     CODE     ---       LVL=0
      010089E5H   LINE      ---      ---       #54
      010089E5H   LINE      ---      ---       #55
      010089E5H   LINE      ---      ---       #56
      00000007H   SYMBOL    DATA     BYTE      DelPrio
      ---         BLOCKEND  ---      ---       LVL=0

      01008FF0H   BLOCK     CODE     ---       LVL=0
      01008FF0H   LINE      ---      ---       #60
      01008FF0H   LINE      ---      ---       #61
      00000007H   SYMBOL    DATA     BYTE      AllPrio
      01008FF0H   BLOCK     CODE     NEAR LAB  LVL=1
      01008FF0H   LINE      ---      ---       #62
      01008FF5H   LINE      ---      ---       #63
      01009006H   LINE      ---      ---       #64
      01009006H   LINE      ---      ---       #65
      0100900CH   LINE      ---      ---       #66
      0100900EH   LINE      ---      ---       #68
      0100900EH   LINE      ---      ---       #69
      01009013H   LINE      ---      ---       #70
      01009013H   LINE      ---      ---       #71
      01009018H   LINE      ---      ---       #72
      02000113H   SYMBOL    XDATA    BYTE      res
      ---         BLOCKEND  CODE     ---       LVL=1
      ---         BLOCKEND  CODE     ---       LVL=0

      ---         MODULE    ---      ---       MAIN_TIK_FUNCTION
      0100881CH   PUBLIC    CODE     ---       Main_Tik_FunctionS

      0100881CH   BLOCK     CODE     ---       LVL=0
      0100881CH   LINE      ---      ---       #6
      0100881CH   LINE      ---      ---       #7
      0100881CH   LINE      ---      ---       #8
      ---         BLOCKEND  ---      ---       LVL=0

      ---         MODULE    ---      ---       SUB_TIK_FUNCTION
      01008926H   PUBLIC    CODE     ---       Sub_Tik_FunctionS

      01008926H   BLOCK     CODE     ---       LVL=0
      01008926H   LINE      ---      ---       #8
      01008926H   LINE      ---      ---       #9
LX51 LINKER/LOCATER V4.66.1.0                                                         04/08/2019  16:56:50  PAGE 34


      01008926H   LINE      ---      ---       #10
      01008928H   LINE      ---      ---       #11
      0100892AH   LINE      ---      ---       #12
      0100892CH   LINE      ---      ---       #13
      0100892EH   LINE      ---      ---       #15
      01008930H   LINE      ---      ---       #16
      01008932H   LINE      ---      ---       #17
      ---         BLOCKEND  ---      ---       LVL=0

      ---         MODULE    ---      ---       NORMAL_TASK
      02000357H   PUBLIC    XDATA    BYTE      KeyToFuncVal
      02000356H   PUBLIC    XDATA    BYTE      Work_State
      0100A85AH   PUBLIC    CODE     ---       UartRecTask
      010097B5H   PUBLIC    CODE     ---       SaveDateToFlashTask
      0100973FH   PUBLIC    CODE     ---       LowTempDet1STask
      0100A849H   PUBLIC    CODE     ---       AlarmErrorTask
      0100A7EEH   PUBLIC    CODE     ---       HeaterWireModeDetTask
      01009FEEH   PUBLIC    CODE     ---       LowPowerModeTask
      01009879H   PUBLIC    CODE     ---       HeaterWireControlTask
      0100985AH   PUBLIC    CODE     ---       RefreshRTCTimeTask
      01009847H   PUBLIC    CODE     ---       RefreshRunTimeTask
      01009834H   PUBLIC    CODE     ---       RefreshTempHumidyTask
      01009823H   PUBLIC    CODE     ---       GetTempHumidity_PatientTask
      01009812H   PUBLIC    CODE     ---       GetTemp_HpChamberTask
      010097A5H   PUBLIC    CODE     ---       HmiScreenSaverModeTask
      01009801H   PUBLIC    CODE     ---       HmiSetTimeTask
      01009795H   PUBLIC    CODE     ---       HmiSetInExpTask
      01009785H   PUBLIC    CODE     ---       HmiSetTempChamberTask
      01009775H   PUBLIC    CODE     ---       HmiSetTempPatientTask
      01009765H   PUBLIC    CODE     ---       HmiRunningTask
      010097F1H   PUBLIC    CODE     ---       HmiNon_InvasiveSelTask
      01009755H   PUBLIC    CODE     ---       HmiFactoryDefaultSelTask
      0100902AH   PUBLIC    CODE     ---       HmiPostTask
      01008FE1H   PUBLIC    CODE     ---       HmiServiceModeTask
      010089F4H   PUBLIC    CODE     ---       KeyScanTask
      01008089H   PUBLIC    CODE     ---       ManageTask
      000000A0H   SFRSYM    DATA     BIT       P20
      000000A0H.1 SFRSYM    DATA     BIT       P21
      000000A0H.2 SFRSYM    DATA     BIT       P22
      000000A0H.3 SFRSYM    DATA     BIT       P23

      01008089H   BLOCK     CODE     ---       LVL=0
      01008089H   LINE      ---      ---       #12
      01008089H   LINE      ---      ---       #13
      01008089H   BLOCK     CODE     NEAR LAB  LVL=1
      01008089H   LINE      ---      ---       #18
      01008094H   LINE      ---      ---       #20
      01008094H   LINE      ---      ---       #21
      01008097H   LINE      ---      ---       #22
      01008097H   LINE      ---      ---       #24
      0100809BH   LINE      ---      ---       #25
      0100809FH   LINE      ---      ---       #27
      010080AAH   LINE      ---      ---       #28
      010080AAH   LINE      ---      ---       #29
      010080ADH   LINE      ---      ---       #30
      010080ADH   LINE      ---      ---       #31
      010080B1H   LINE      ---      ---       #32
      010080B5H   LINE      ---      ---       #33
      010080B5H   LINE      ---      ---       #35
      010080BBH   LINE      ---      ---       #36
      010080CEH   LINE      ---      ---       #37
      010080CEH   LINE      ---      ---       #38
      010080D4H   LINE      ---      ---       #41
      010080D4H   LINE      ---      ---       #42
      010080D6H   LINE      ---      ---       #43
LX51 LINKER/LOCATER V4.66.1.0                                                         04/08/2019  16:56:50  PAGE 35


      010080D8H   LINE      ---      ---       #44
      010080DFH   LINE      ---      ---       #45
      010080DFH   LINE      ---      ---       #46
      010080E1H   LINE      ---      ---       #47
      010080E3H   LINE      ---      ---       #48
      010080EAH   LINE      ---      ---       #49
      010080EAH   LINE      ---      ---       #50
      010080ECH   LINE      ---      ---       #51
      010080EEH   LINE      ---      ---       #52
      010080F5H   LINE      ---      ---       #53
      010080F5H   LINE      ---      ---       #54
      010080F7H   LINE      ---      ---       #55
      010080F9H   LINE      ---      ---       #56
      01008100H   LINE      ---      ---       #57
      01008100H   LINE      ---      ---       #58
      01008102H   LINE      ---      ---       #59
      01008104H   LINE      ---      ---       #60
      0100810BH   LINE      ---      ---       #61
      0100810BH   LINE      ---      ---       #62
      0100810DH   LINE      ---      ---       #63
      0100810FH   LINE      ---      ---       #64
      01008116H   LINE      ---      ---       #65
      01008116H   LINE      ---      ---       #66
      01008118H   LINE      ---      ---       #67
      0100811AH   LINE      ---      ---       #68
      01008121H   LINE      ---      ---       #69
      01008121H   LINE      ---      ---       #70
      01008123H   LINE      ---      ---       #71
      01008125H   LINE      ---      ---       #72
      0100812CH   LINE      ---      ---       #73
      0100812CH   LINE      ---      ---       #74
      01008130H   LINE      ---      ---       #75
      01008130H   LINE      ---      ---       #77
      01008130H   LINE      ---      ---       #79
      01008130H   LINE      ---      ---       #81
      0100814AH   LINE      ---      ---       #86
      0100814AH   LINE      ---      ---       #87
      0100814EH   LINE      ---      ---       #88
      0100814EH   LINE      ---      ---       #91
      0100816AH   LINE      ---      ---       #96
      0100816AH   LINE      ---      ---       #97
      01008174H   LINE      ---      ---       #99
      01008174H   LINE      ---      ---       #100
      01008178H   LINE      ---      ---       #101
      01008178H   LINE      ---      ---       #102
      01008178H   LINE      ---      ---       #103
      01008178H   LINE      ---      ---       #106
      0100817EH   LINE      ---      ---       #107
      0100818FH   LINE      ---      ---       #108
      0100818FH   LINE      ---      ---       #109
      010081A0H   LINE      ---      ---       #113
      010081A0H   LINE      ---      ---       #114
      010081AAH   LINE      ---      ---       #116
      010081AAH   LINE      ---      ---       #117
      010081AEH   LINE      ---      ---       #118
      010081AEH   LINE      ---      ---       #119
      010081AEH   LINE      ---      ---       #121
      010081C8H   LINE      ---      ---       #126
      010081C8H   LINE      ---      ---       #127
      010081CCH   LINE      ---      ---       #128
      010081CCH   LINE      ---      ---       #129
      010081CCH   LINE      ---      ---       #132
      010081D2H   LINE      ---      ---       #133
      010081E3H   LINE      ---      ---       #134
      010081E3H   LINE      ---      ---       #135
LX51 LINKER/LOCATER V4.66.1.0                                                         04/08/2019  16:56:50  PAGE 36


      010081E7H   LINE      ---      ---       #136
      01008206H   LINE      ---      ---       #142
      01008206H   LINE      ---      ---       #143
      0100820AH   LINE      ---      ---       #144
      0100820EH   LINE      ---      ---       #145
      01008212H   LINE      ---      ---       #146
      01008216H   LINE      ---      ---       #147
      0100821AH   LINE      ---      ---       #148
      0100821EH   LINE      ---      ---       #149
      0100821EH   LINE      ---      ---       #150
      0100821EH   LINE      ---      ---       #151
      0100821EH   LINE      ---      ---       #152
      0100821EH   LINE      ---      ---       #153
      0100821EH   LINE      ---      ---       #154
      02000350H   SYMBOL    XDATA    INT       Manage_Tik_100mS_Cnt
      02000352H   SYMBOL    XDATA    INT       Manage_Tik_250mS_Cnt
      02000354H   SYMBOL    XDATA    INT       Manage_Tik_1000mS_Cnt
      ---         BLOCKEND  CODE     ---       LVL=1
      ---         BLOCKEND  CODE     ---       LVL=0

      010089F4H   BLOCK     CODE     ---       LVL=0
      010089F4H   LINE      ---      ---       #157
      010089F4H   LINE      ---      ---       #158
      010089F4H   BLOCK     CODE     NEAR LAB  LVL=1
      010089F4H   LINE      ---      ---       #160
      010089FEH   LINE      ---      ---       #162
      010089FEH   LINE      ---      ---       #163
      01008A00H   LINE      ---      ---       #164
      01008A00H   LINE      ---      ---       #165
      01008A04H   LINE      ---      ---       #166
      01008A09H   LINE      ---      ---       #167
      01008A09H   LINE      ---      ---       #168
      01008A0BH   LINE      ---      ---       #169
      01008A0DH   LINE      ---      ---       #171
      01008A0DH   LINE      ---      ---       #172
      01008A10H   LINE      ---      ---       #173
      01008A10H   LINE      ---      ---       #174
      01008A1EH   LINE      ---      ---       #176
      01008A22H   LINE      ---      ---       #177
      01008A27H   LINE      ---      ---       #178
      01008A27H   LINE      ---      ---       #179
      01008A29H   LINE      ---      ---       #180
      01008A2BH   LINE      ---      ---       #182
      01008A2BH   LINE      ---      ---       #183
      01008A2EH   LINE      ---      ---       #184
      01008A2EH   LINE      ---      ---       #186
      01008A3CH   LINE      ---      ---       #188
      01008A40H   LINE      ---      ---       #189
      01008A45H   LINE      ---      ---       #190
      01008A45H   LINE      ---      ---       #191
      01008A47H   LINE      ---      ---       #192
      01008A49H   LINE      ---      ---       #194
      01008A49H   LINE      ---      ---       #195
      01008A4CH   LINE      ---      ---       #196
      01008A4CH   LINE      ---      ---       #198
      01008A5AH   LINE      ---      ---       #200
      01008A5EH   LINE      ---      ---       #201
      01008A63H   LINE      ---      ---       #202
      01008A63H   LINE      ---      ---       #203
      01008A65H   LINE      ---      ---       #204
      01008A67H   LINE      ---      ---       #206
      01008A67H   LINE      ---      ---       #207
      01008A6AH   LINE      ---      ---       #208
      01008A6AH   LINE      ---      ---       #210
      01008A78H   LINE      ---      ---       #211
LX51 LINKER/LOCATER V4.66.1.0                                                         04/08/2019  16:56:50  PAGE 37


      01008A78H   LINE      ---      ---       #212
      01008A78H   LINE      ---      ---       #213
      00000007H   SYMBOL    DATA     BYTE      bit_status
      ---         BLOCKEND  CODE     ---       LVL=1
      ---         BLOCKEND  CODE     ---       LVL=0

      01008FE1H   BLOCK     CODE     ---       LVL=0
      01008FE1H   LINE      ---      ---       #215
      01008FE1H   LINE      ---      ---       #216
      01008FE1H   LINE      ---      ---       #217
      01008FEBH   LINE      ---      ---       #219
      01008FEBH   LINE      ---      ---       #220
      01008FEDH   LINE      ---      ---       #221
      01008FEDH   LINE      ---      ---       #222
      01008FEFH   LINE      ---      ---       #223
      01008FEFH   LINE      ---      ---       #224
      01008FEFH   LINE      ---      ---       #225
      ---         BLOCKEND  ---      ---       LVL=0

      0100902AH   BLOCK     CODE     ---       LVL=0
      0100902AH   LINE      ---      ---       #227
      0100902AH   LINE      ---      ---       #228
      0100902AH   LINE      ---      ---       #229
      01009033H   LINE      ---      ---       #231
      01009033H   LINE      ---      ---       #232
      01009036H   LINE      ---      ---       #233
      01009036H   LINE      ---      ---       #234
      01009038H   LINE      ---      ---       #235
      01009038H   LINE      ---      ---       #236
      01009038H   LINE      ---      ---       #237
      ---         BLOCKEND  ---      ---       LVL=0

      01009755H   BLOCK     CODE     ---       LVL=0
      01009755H   LINE      ---      ---       #239
      01009755H   LINE      ---      ---       #240
      01009755H   LINE      ---      ---       #241
      0100975EH   LINE      ---      ---       #243
      0100975EH   LINE      ---      ---       #244
      01009761H   LINE      ---      ---       #245
      01009761H   LINE      ---      ---       #246
      01009764H   LINE      ---      ---       #248
      01009764H   LINE      ---      ---       #249
      01009764H   LINE      ---      ---       #250
      ---         BLOCKEND  ---      ---       LVL=0

      010097F1H   BLOCK     CODE     ---       LVL=0
      010097F1H   LINE      ---      ---       #252
      010097F1H   LINE      ---      ---       #253
      010097F1H   LINE      ---      ---       #254
      010097FAH   LINE      ---      ---       #256
      010097FAH   LINE      ---      ---       #257
      010097FDH   LINE      ---      ---       #258
      010097FDH   LINE      ---      ---       #259
      01009800H   LINE      ---      ---       #260
      01009800H   LINE      ---      ---       #261
      01009800H   LINE      ---      ---       #262
      ---         BLOCKEND  ---      ---       LVL=0

      01009765H   BLOCK     CODE     ---       LVL=0
      01009765H   LINE      ---      ---       #264
      01009765H   LINE      ---      ---       #265
      01009765H   LINE      ---      ---       #266
      0100976EH   LINE      ---      ---       #268
      0100976EH   LINE      ---      ---       #269
      01009771H   LINE      ---      ---       #270
LX51 LINKER/LOCATER V4.66.1.0                                                         04/08/2019  16:56:50  PAGE 38


      01009771H   LINE      ---      ---       #271
      01009774H   LINE      ---      ---       #272
      01009774H   LINE      ---      ---       #273
      01009774H   LINE      ---      ---       #274
      ---         BLOCKEND  ---      ---       LVL=0

      01009775H   BLOCK     CODE     ---       LVL=0
      01009775H   LINE      ---      ---       #276
      01009775H   LINE      ---      ---       #277
      01009775H   LINE      ---      ---       #278
      0100977EH   LINE      ---      ---       #280
      0100977EH   LINE      ---      ---       #281
      01009781H   LINE      ---      ---       #282
      01009781H   LINE      ---      ---       #283
      01009784H   LINE      ---      ---       #284
      01009784H   LINE      ---      ---       #285
      01009784H   LINE      ---      ---       #286
      ---         BLOCKEND  ---      ---       LVL=0

      01009785H   BLOCK     CODE     ---       LVL=0
      01009785H   LINE      ---      ---       #288
      01009785H   LINE      ---      ---       #289
      01009785H   LINE      ---      ---       #290
      0100978EH   LINE      ---      ---       #292
      0100978EH   LINE      ---      ---       #293
      01009791H   LINE      ---      ---       #294
      01009791H   LINE      ---      ---       #295
      01009794H   LINE      ---      ---       #296
      01009794H   LINE      ---      ---       #297
      01009794H   LINE      ---      ---       #298
      ---         BLOCKEND  ---      ---       LVL=0

      01009795H   BLOCK     CODE     ---       LVL=0
      01009795H   LINE      ---      ---       #300
      01009795H   LINE      ---      ---       #301
      01009795H   LINE      ---      ---       #302
      0100979EH   LINE      ---      ---       #304
      0100979EH   LINE      ---      ---       #305
      010097A1H   LINE      ---      ---       #306
      010097A1H   LINE      ---      ---       #307
      010097A4H   LINE      ---      ---       #308
      010097A4H   LINE      ---      ---       #309
      010097A4H   LINE      ---      ---       #310
      ---         BLOCKEND  ---      ---       LVL=0

      01009801H   BLOCK     CODE     ---       LVL=0
      01009801H   LINE      ---      ---       #312
      01009801H   LINE      ---      ---       #313
      01009801H   LINE      ---      ---       #314
      0100980BH   LINE      ---      ---       #316
      0100980BH   LINE      ---      ---       #317
      0100980EH   LINE      ---      ---       #318
      0100980EH   LINE      ---      ---       #319
      01009811H   LINE      ---      ---       #320
      01009811H   LINE      ---      ---       #321
      01009811H   LINE      ---      ---       #322
      ---         BLOCKEND  ---      ---       LVL=0

      010097A5H   BLOCK     CODE     ---       LVL=0
      010097A5H   LINE      ---      ---       #324
      010097A5H   LINE      ---      ---       #325
      010097A5H   LINE      ---      ---       #326
      010097AEH   LINE      ---      ---       #328
      010097AEH   LINE      ---      ---       #329
      010097B1H   LINE      ---      ---       #330
LX51 LINKER/LOCATER V4.66.1.0                                                         04/08/2019  16:56:50  PAGE 39


      010097B1H   LINE      ---      ---       #331
      010097B4H   LINE      ---      ---       #332
      010097B4H   LINE      ---      ---       #333
      010097B4H   LINE      ---      ---       #334
      ---         BLOCKEND  ---      ---       LVL=0

      01009812H   BLOCK     CODE     ---       LVL=0
      01009812H   LINE      ---      ---       #336
      01009812H   LINE      ---      ---       #337
      01009812H   LINE      ---      ---       #338
      0100981CH   LINE      ---      ---       #340
      0100981CH   LINE      ---      ---       #341
      0100981FH   LINE      ---      ---       #342
      0100981FH   LINE      ---      ---       #343
      01009822H   LINE      ---      ---       #344
      01009822H   LINE      ---      ---       #345
      01009822H   LINE      ---      ---       #346
      ---         BLOCKEND  ---      ---       LVL=0

      01009823H   BLOCK     CODE     ---       LVL=0
      01009823H   LINE      ---      ---       #348
      01009823H   LINE      ---      ---       #349
      01009823H   LINE      ---      ---       #350
      0100982DH   LINE      ---      ---       #352
      0100982DH   LINE      ---      ---       #353
      01009830H   LINE      ---      ---       #354
      01009830H   LINE      ---      ---       #355
      01009833H   LINE      ---      ---       #356
      01009833H   LINE      ---      ---       #357
      01009833H   LINE      ---      ---       #358
      ---         BLOCKEND  ---      ---       LVL=0

      01009834H   BLOCK     CODE     ---       LVL=0
      01009834H   LINE      ---      ---       #360
      01009834H   LINE      ---      ---       #361
      01009834H   LINE      ---      ---       #362
      0100983EH   LINE      ---      ---       #364
      0100983EH   LINE      ---      ---       #365
      01009841H   LINE      ---      ---       #366
      01009841H   LINE      ---      ---       #367
      01009846H   LINE      ---      ---       #368
      01009846H   LINE      ---      ---       #369
      01009846H   LINE      ---      ---       #370
      ---         BLOCKEND  ---      ---       LVL=0

      01009847H   BLOCK     CODE     ---       LVL=0
      01009847H   LINE      ---      ---       #372
      01009847H   LINE      ---      ---       #373
      01009847H   LINE      ---      ---       #374
      01009851H   LINE      ---      ---       #376
      01009851H   LINE      ---      ---       #377
      01009854H   LINE      ---      ---       #378
      01009854H   LINE      ---      ---       #379
      01009859H   LINE      ---      ---       #380
      01009859H   LINE      ---      ---       #381
      01009859H   LINE      ---      ---       #382
      ---         BLOCKEND  ---      ---       LVL=0

      0100985AH   BLOCK     CODE     ---       LVL=0
      0100985AH   LINE      ---      ---       #384
      0100985AH   LINE      ---      ---       #385
      0100985AH   LINE      ---      ---       #386
      01009864H   LINE      ---      ---       #388
      01009864H   LINE      ---      ---       #389
      01009867H   LINE      ---      ---       #390
LX51 LINKER/LOCATER V4.66.1.0                                                         04/08/2019  16:56:50  PAGE 40


      01009867H   LINE      ---      ---       #391
      01009875H   LINE      ---      ---       #393
      01009875H   LINE      ---      ---       #394
      01009878H   LINE      ---      ---       #395
      01009878H   LINE      ---      ---       #397
      01009878H   LINE      ---      ---       #398
      01009878H   LINE      ---      ---       #399
      ---         BLOCKEND  ---      ---       LVL=0

      01009879H   BLOCK     CODE     ---       LVL=0
      01009879H   LINE      ---      ---       #401
      01009879H   LINE      ---      ---       #402
      01009879H   LINE      ---      ---       #403
      01009883H   LINE      ---      ---       #405
      01009883H   LINE      ---      ---       #406
      01009886H   LINE      ---      ---       #407
      01009886H   LINE      ---      ---       #408
      01009888H   LINE      ---      ---       #409
      01009888H   LINE      ---      ---       #410
      01009888H   LINE      ---      ---       #411
      ---         BLOCKEND  ---      ---       LVL=0

      01009FEEH   BLOCK     CODE     ---       LVL=0
      01009FEEH   LINE      ---      ---       #413
      01009FEEH   LINE      ---      ---       #414
      01009FEEH   LINE      ---      ---       #415
      01009FF8H   LINE      ---      ---       #417
      01009FF8H   LINE      ---      ---       #418
      01009FFBH   LINE      ---      ---       #419
      01009FFBH   LINE      ---      ---       #420
      01009FFDH   LINE      ---      ---       #421
      01009FFDH   LINE      ---      ---       #422
      01009FFDH   LINE      ---      ---       #423
      ---         BLOCKEND  ---      ---       LVL=0

      0100A7EEH   BLOCK     CODE     ---       LVL=0
      0100A7EEH   LINE      ---      ---       #425
      0100A7EEH   LINE      ---      ---       #426
      0100A7EEH   LINE      ---      ---       #427
      0100A7F8H   LINE      ---      ---       #429
      0100A7F8H   LINE      ---      ---       #430
      0100A7FBH   LINE      ---      ---       #431
      0100A7FBH   LINE      ---      ---       #432
      0100A7FDH   LINE      ---      ---       #433
      0100A7FDH   LINE      ---      ---       #434
      0100A7FDH   LINE      ---      ---       #435
      ---         BLOCKEND  ---      ---       LVL=0

      0100A849H   BLOCK     CODE     ---       LVL=0
      0100A849H   LINE      ---      ---       #437
      0100A849H   LINE      ---      ---       #438
      0100A849H   LINE      ---      ---       #439
      0100A853H   LINE      ---      ---       #441
      0100A853H   LINE      ---      ---       #442
      0100A856H   LINE      ---      ---       #443
      0100A856H   LINE      ---      ---       #444
      0100A859H   LINE      ---      ---       #445
      0100A859H   LINE      ---      ---       #446
      0100A859H   LINE      ---      ---       #447
      ---         BLOCKEND  ---      ---       LVL=0

      0100973FH   BLOCK     CODE     ---       LVL=0
      0100973FH   LINE      ---      ---       #449
      0100973FH   LINE      ---      ---       #450
      0100973FH   LINE      ---      ---       #451
LX51 LINKER/LOCATER V4.66.1.0                                                         04/08/2019  16:56:50  PAGE 41


      01009748H   LINE      ---      ---       #453
      01009748H   LINE      ---      ---       #454
      0100974BH   LINE      ---      ---       #455
      0100974BH   LINE      ---      ---       #456
      0100974DH   LINE      ---      ---       #457
      0100974DH   LINE      ---      ---       #458
      0100974DH   LINE      ---      ---       #459
      ---         BLOCKEND  ---      ---       LVL=0

      010097B5H   BLOCK     CODE     ---       LVL=0
      010097B5H   LINE      ---      ---       #461
      010097B5H   LINE      ---      ---       #462
      010097B5H   LINE      ---      ---       #463
      010097BEH   LINE      ---      ---       #465
      010097BEH   LINE      ---      ---       #466
      010097C1H   LINE      ---      ---       #467
      010097C1H   LINE      ---      ---       #468
      010097C3H   LINE      ---      ---       #469
      010097C3H   LINE      ---      ---       #470
      010097C3H   LINE      ---      ---       #471
      ---         BLOCKEND  ---      ---       LVL=0

      0100A85AH   BLOCK     CODE     ---       LVL=0
      0100A85AH   LINE      ---      ---       #473
      0100A85AH   LINE      ---      ---       #474
      0100A85AH   LINE      ---      ---       #475
      0100A864H   LINE      ---      ---       #477
      0100A864H   LINE      ---      ---       #478
      0100A867H   LINE      ---      ---       #479
      0100A869H   LINE      ---      ---       #480
      0100A869H   LINE      ---      ---       #481
      ---         BLOCKEND  ---      ---       LVL=0

      ---         MODULE    ---      ---       ACTIVITYFUNCTIONS
      02000099H   PUBLIC    XDATA    WORD      Working_Normal
      02000098H   PUBLIC    XDATA    BYTE      No_HeatSensor_Times
      02000097H   PUBLIC    XDATA    BYTE      AlarmInfoIndex
      02000096H   PUBLIC    XDATA    BYTE      AlarmSoundPauseStatus
      02000095H   PUBLIC    XDATA    BYTE      Test_Mode_Dis_Jrp_Ctl
      02000085H   PUBLIC    XDATA    ---       SaveData
      02000083H   PUBLIC    XDATA    WORD      HP_CNT_Int_End_Rem
      02000082H   PUBLIC    XDATA    BYTE      Wire_Mode_Mismatch
      02000081H   PUBLIC    XDATA    BYTE      ERR_Kind
      0200007FH   PUBLIC    XDATA    WORD      HP_CNT_Int
      0200007EH   PUBLIC    XDATA    BYTE      HeaterPlate_State
      0200007DH   PUBLIC    XDATA    BYTE      WireOut_State
      0200007CH   PUBLIC    XDATA    BYTE      WireIn_State
      0200007AH   PUBLIC    XDATA    WORD      Diplay_RTtemp
      02000079H   PUBLIC    XDATA    BYTE      CQK_Temp_Reach_Set_Cnt
      02000078H   PUBLIC    XDATA    BYTE      RT_Temp_Reach_Set_Cnt
      02000076H   PUBLIC    XDATA    WORD      Set_CQK_YCTemp
      02000074H   PUBLIC    XDATA    WORD      Set_CQK_WCTemp
      02000072H   PUBLIC    XDATA    WORD      Set_CQK_Temp
      02000070H   PUBLIC    XDATA    WORD      Set_RT_YCTemp
      0200006EH   PUBLIC    XDATA    WORD      Set_RT_WCTemp
      0200006CH   PUBLIC    XDATA    INT       Set_RT_Temp
      02000068H   PUBLIC    XDATA    LONG      CQK_Temp
      02000066H   PUBLIC    XDATA    INT       JEP_Temp
      02000064H   PUBLIC    XDATA    INT       RT_Temp
      02000062H   PUBLIC    XDATA    WORD      Micro_Temp_Out
      02000060H   PUBLIC    XDATA    WORD      Micro_Temp_In
      0200005FH   PUBLIC    XDATA    BYTE      Micro_Temp_Val
      0200005EH   PUBLIC    XDATA    BYTE      In_Exp_Ratio
      02000047H   PUBLIC    XDATA    ---       show_str
      02000046H   PUBLIC    XDATA    BYTE      defalut_mode
LX51 LINKER/LOCATER V4.66.1.0                                                         04/08/2019  16:56:50  PAGE 42


      02000045H   PUBLIC    XDATA    BYTE      Work_Mode
      0200003DH   PUBLIC    XDATA    ---       data_flash
      01008821H   PUBLIC    CODE     ---       HeaterPlateWireDriveFbTask
      0100BFFBH   PUBLIC    CODE     ---       WireInOut_State_Confirm
      01009FFEH   PUBLIC    CODE     ---       LowPowerModeFunc
      0100B005H   PUBLIC    CODE     ---       Load_Settings_Before_Choice
      01006373H   PUBLIC    CODE     ---       Mem_Flash_Recall
      0100666FH   PUBLIC    CODE     ---       Setting_write_to_flash
      0100744EH   PUBLIC    CODE     ---       ServiceMode_TempHumidy_Disp
      0100ADA7H   PUBLIC    CODE     ---       Main_Init
      0100822BH   PUBLIC    CODE     ---       Init_port
      01009561H   PUBLIC    CODE     ---       SaveDateToFlashFunc
      01009241H   PUBLIC    CODE     ---       LowTempDet1SFunc
      0100A071H   PUBLIC    CODE     ---       AlarmErrorFunc
      0100AE32H   PUBLIC    CODE     ---       Err_Base_HeaterWire_DISP_Enable
      01009889H   PUBLIC    CODE     ---       HeaterPlateWireControlFunc
      01006838H   PUBLIC    CODE     ---       GetTemp_HpChamberFunc
      01006C03H   PUBLIC    CODE     ---       GetTempHumidity_PatientFunc
      01007BA7H   PUBLIC    CODE     ---       RefreshRTCTimeFunc
      01007BE8H   PUBLIC    CODE     ---       _RefreshRunTimeFunc
      01007242H   PUBLIC    CODE     ---       _RefreshTempHumidyFunc
      0100A7FEH   PUBLIC    CODE     ---       HeaterWireModeDetFunc
      0100A86AH   PUBLIC    CODE     ---       UART_RecData_Func
      010077DCH   PUBLIC    CODE     ---       _Bit_is_one
      000000B4H   SFRSYM    DATA     BYTE      P4M0
      000000B3H   SFRSYM    DATA     BYTE      P4M1
      000000BBH   SFRSYM    DATA     BYTE      P4SW
      000000C1H   SFRSYM    DATA     BYTE      WDT_CONTR
      000000A8H.7 SFRSYM    DATA     BIT       EA
      000000A8H.2 SFRSYM    DATA     BIT       EX1
      000000A8H.1 SFRSYM    DATA     BIT       ET0
      00000092H   SFRSYM    DATA     BYTE      P1M0
      00000091H   SFRSYM    DATA     BYTE      P1M1
      00000090H   SFRSYM    DATA     BIT       P10
      00000090H.2 SFRSYM    DATA     BIT       P12
      00000090H.3 SFRSYM    DATA     BIT       P13
      00000090H.7 SFRSYM    DATA     BIT       P17
      000000A0H   SFRSYM    DATA     BIT       P20
      000000A0H.1 SFRSYM    DATA     BIT       P21
      000000A0H.2 SFRSYM    DATA     BIT       P22
      000000A0H.7 SFRSYM    DATA     BIT       P27
      00000096H   SFRSYM    DATA     BYTE      P2M0
      00000095H   SFRSYM    DATA     BYTE      P2M1
      000000B0H.2 SFRSYM    DATA     BIT       P32
      000000B0H.4 SFRSYM    DATA     BIT       P34
      000000B0H.5 SFRSYM    DATA     BIT       P35
      000000B0H.6 SFRSYM    DATA     BIT       P36
      000000B0H.7 SFRSYM    DATA     BIT       P37
      000000B2H   SFRSYM    DATA     BYTE      P3M0
      000000B1H   SFRSYM    DATA     BYTE      P3M1
      000000C0H   SFRSYM    DATA     BIT       P40
      000000C0H.3 SFRSYM    DATA     BIT       P43
      00000098H.1 SFRSYM    DATA     BIT       TI
      00000098H   SFRSYM    DATA     BIT       RI
      00000088H.4 SFRSYM    DATA     BIT       TR0
      00000088H.2 SFRSYM    DATA     BIT       IT1
      0100ABDEH   SYMBOL    CODE     ---       Interrupt_EXT1
      0100ABFFH   SYMBOL    CODE     ---       Interrupt_Time0
      0100ABB0H   SYMBOL    CODE     ---       Serial
      0200009BH   SYMBOL    XDATA    BYTE      Wire_Mode_Sel
      0200009CH   SYMBOL    XDATA    BYTE      JRP_Sensor_Err
      0200009DH   SYMBOL    XDATA    BYTE      CQK_Sensor_Err
      0200009EH   SYMBOL    XDATA    BYTE      RTD_Sensor_Err
      0200009FH   SYMBOL    XDATA    BYTE      SHIDU_Sensor_Err
      020000A0H   SYMBOL    XDATA    BYTE      HiTemp_Count
LX51 LINKER/LOCATER V4.66.1.0                                                         04/08/2019  16:56:50  PAGE 43


      020000A1H   SYMBOL    XDATA    BYTE      LoTemp_Count
      020000A2H   SYMBOL    XDATA    BYTE      LoTemp_CQK_Count
      020000A3H   SYMBOL    XDATA    BYTE      LoHumity_Count
      020000A4H   SYMBOL    XDATA    WORD      No_CQKSensor_Times
      020000A6H   SYMBOL    XDATA    WORD      CQKSensor_Hithen800_Times
      020000A8H   SYMBOL    XDATA    WORD      JRP_Sensor_Temp_No_Change_Times
      020000AAH   SYMBOL    XDATA    WORD      CQK_Sensor_Temp_No_Change_Times
      020000ACH   SYMBOL    XDATA    BYTE      ERR_RT_Temp_Times
      020000ADH   SYMBOL    XDATA    BYTE      No_ReadData_SHIDU_Times
      020000AEH   SYMBOL    XDATA    WORD      RT_Temp_Not_Updated_10mS
      020000B0H   SYMBOL    XDATA    BYTE      No_ReadData_Temp_Times
      020000B1H   SYMBOL    XDATA    WORD      Nochange_Times
      020000B3H   SYMBOL    XDATA    BYTE      Work_Day
      020000B4H   SYMBOL    XDATA    BYTE      Work_Hour
      020000B5H   SYMBOL    XDATA    BYTE      Work_Min
      020000B6H   SYMBOL    XDATA    BYTE      Work_Sec
      020000B7H   SYMBOL    XDATA    WORD      Run_Count
      020000B9H   SYMBOL    XDATA    BYTE      Rec_Count
      020000BAH   SYMBOL    XDATA    WORD      Tick_20ms
      020000BCH   SYMBOL    XDATA    WORD      RT_SHIDU
      020000BEH   SYMBOL    XDATA    WORD      CONTROL_RT_SHIDU
      020000C0H   SYMBOL    XDATA    WORD      Aim_SHIDU
      020000C2H   SYMBOL    XDATA    INT       JEP_Temp_Aim
      020000C4H   SYMBOL    XDATA    WORD      Wire_Warm_Up_Sec
      020000C6H   SYMBOL    XDATA    WORD      Plate_Warm_Up_Sec
      020000C8H   SYMBOL    XDATA    WORD      Humidity_No_Change_Sec
      020000CAH   SYMBOL    XDATA    WORD      Low_Power_Mode_Flag
      020000CCH   SYMBOL    XDATA    BYTE      Micro_Adj_Mode_Test
      020000CDH   SYMBOL    XDATA    ---       Controler_temp
      020000D7H   SYMBOL    XDATA    ---       Controler_temp2
      020000E1H   SYMBOL    XDATA    ---       Controler_temp3
      020000EBH   SYMBOL    XDATA    ---       NowTime
      0100AC20H   SYMBOL    CODE     ---       Store_Data
      0100AC88H   SYMBOL    CODE     ---       Get_RunCount
      0100AFE8H   SYMBOL    CODE     ---       Write_Default_Setting_to_flash
      0100BA8CH   SYMBOL    CODE     ---       PatientTemp_NoneHeatWire_Adj
      0100B7C9H   SYMBOL    CODE     ---       Controler_Calc
      0100B97CH   SYMBOL    CODE     ---       HeatPlateTemp_Aim_Controler_Calc
      0100B898H   SYMBOL    CODE     ---       HeatPlate_Controler_Calc
      010097C4H   SYMBOL    CODE     ---       _Clear_bit
      0100A6ADH   SYMBOL    CODE     ---       _Set_bit
      020000F2H   SYMBOL    XDATA    BYTE      UART_RecState
      020000F3H   SYMBOL    XDATA    ---       UART_Rec_Buf
      0100A972H   SYMBOL    CODE     ---       UART_RecBuf_Clear_Fun
      02000107H   SYMBOL    XDATA    INT       Temp1_Int
      02000109H   SYMBOL    XDATA    INT       Temp2_Int
      0200010BH   SYMBOL    XDATA    WORD      NoneWire_Heat_Sec
      0200010DH   SYMBOL    XDATA    INT       Set_CQK_Temp_Comp
      0200010FH   SYMBOL    XDATA    BYTE      Wire_Mode_Sel_Rem
      02000110H   SYMBOL    XDATA    BYTE      Disp_ERR_VHB80_Code
      02000111H   SYMBOL    XDATA    WORD      NoneWire_Warm_Up_Sec

      010097C4H   BLOCK     CODE     ---       LVL=0
      010097C4H   LINE      ---      ---       #182
      010097C4H   LINE      ---      ---       #183
      00000001H   SYMBOL    DATA     ---       Value
      00000004H   SYMBOL    DATA     INT       bit_num
      010097C4H   BLOCK     CODE     NEAR LAB  LVL=1
      010097C4H   LINE      ---      ---       #184
      010097C4H   LINE      ---      ---       #185
      00000001H   SYMBOL    DATA     ---       pV
      ---         BLOCKEND  CODE     ---       LVL=1
      ---         BLOCKEND  CODE     ---       LVL=0

      0100A6ADH   BLOCK     CODE     ---       LVL=0
LX51 LINKER/LOCATER V4.66.1.0                                                         04/08/2019  16:56:50  PAGE 44


      0100A6ADH   LINE      ---      ---       #187
      0100A6ADH   LINE      ---      ---       #188
      00000001H   SYMBOL    DATA     ---       Value
      00000004H   SYMBOL    DATA     INT       bit_num
      0100A6ADH   BLOCK     CODE     NEAR LAB  LVL=1
      0100A6ADH   LINE      ---      ---       #189
      0100A6ADH   LINE      ---      ---       #190
      00000001H   SYMBOL    DATA     ---       pV
      ---         BLOCKEND  CODE     ---       LVL=1
      ---         BLOCKEND  CODE     ---       LVL=0

      010077DCH   BLOCK     CODE     ---       LVL=0
      010077DCH   LINE      ---      ---       #193
      010077DCH   LINE      ---      ---       #194
      010077DCH   LINE      ---      ---       #195
      010077EDH   LINE      ---      ---       #196
      00000007H   SYMBOL    DATA     BYTE      Value
      00000004H   SYMBOL    DATA     INT       bit_num
      ---         BLOCKEND  ---      ---       LVL=0

      0100ABDEH   BLOCK     CODE     ---       LVL=0
      0100ABEBH   LINE      ---      ---       #200
      0100ABEBH   LINE      ---      ---       #202
      0100ABF1H   LINE      ---      ---       #203
      ---         BLOCKEND  ---      ---       LVL=0

      0100ABFFH   BLOCK     CODE     ---       LVL=0
      0100AC0CH   LINE      ---      ---       #205
      0100AC0CH   LINE      ---      ---       #207
      0100AC0FH   LINE      ---      ---       #208
      0100AC15H   LINE      ---      ---       #209
      ---         BLOCKEND  ---      ---       LVL=0

      0100ABB0H   BLOCK     CODE     ---       LVL=0
      0100ABBDH   LINE      ---      ---       #211
      0100ABBDH   LINE      ---      ---       #213
      0100ABC0H   LINE      ---      ---       #214
      0100ABC0H   LINE      ---      ---       #215
      0100ABC2H   LINE      ---      ---       #217
      0100ABC4H   LINE      ---      ---       #218
      0100ABC4H   LINE      ---      ---       #220
      0100ABC7H   LINE      ---      ---       #221
      0100ABC7H   LINE      ---      ---       #222
      0100ABC9H   LINE      ---      ---       #223
      0100ABCBH   LINE      ---      ---       #224
      0100ABCBH   LINE      ---      ---       #225
      ---         BLOCKEND  ---      ---       LVL=0

      0100A972H   BLOCK     CODE     ---       LVL=0
      0100A972H   LINE      ---      ---       #242
      0100A972H   LINE      ---      ---       #243
      0100A972H   BLOCK     CODE     NEAR LAB  LVL=1
      0100A972H   LINE      ---      ---       #246
      0100A974H   LINE      ---      ---       #247
      0100A974H   LINE      ---      ---       #248
      0100A97EH   LINE      ---      ---       #249
      0100A97EH   LINE      ---      ---       #250
      00000006H   SYMBOL    DATA     INT       i
      ---         BLOCKEND  CODE     ---       LVL=1
      ---         BLOCKEND  CODE     ---       LVL=0

      0100A86AH   BLOCK     CODE     ---       LVL=0
      0100A86AH   LINE      ---      ---       #254
      0100A86AH   LINE      ---      ---       #255
      0100A86AH   BLOCK     CODE     NEAR LAB  LVL=1
LX51 LINKER/LOCATER V4.66.1.0                                                         04/08/2019  16:56:50  PAGE 45


      0100A86AH   LINE      ---      ---       #263
      0100A872H   LINE      ---      ---       #264
      0100A872H   LINE      ---      ---       #265
      0100A877H   LINE      ---      ---       #267
      0100A87EH   LINE      ---      ---       #268
      0100A87EH   LINE      ---      ---       #269
      0100A884H   LINE      ---      ---       #270
      0100A88BH   LINE      ---      ---       #271
      0100A88BH   LINE      ---      ---       #272
      0100A88DH   LINE      ---      ---       #273
      0100A88FH   LINE      ---      ---       #274
      0100A894H   LINE      ---      ---       #275
      0100A89AH   LINE      ---      ---       #277
      0100A89CH   LINE      ---      ---       #278
      0100A8A1H   LINE      ---      ---       #279
      0100A8A1H   LINE      ---      ---       #280
      0100A8A8H   LINE      ---      ---       #281
      0100A8AEH   LINE      ---      ---       #282
      0100A8AEH   LINE      ---      ---       #284
      0100A8BAH   LINE      ---      ---       #285
      0100A8BAH   LINE      ---      ---       #287
      0100A8C0H   LINE      ---      ---       #288
      0100A8C2H   LINE      ---      ---       #289
      0100A8C7H   LINE      ---      ---       #290
      0100A8C9H   LINE      ---      ---       #292
      0100A8C9H   LINE      ---      ---       #293
      0100A8CFH   LINE      ---      ---       #294
      0100A8D1H   LINE      ---      ---       #295
      0100A8D1H   LINE      ---      ---       #296
      0100A8E9H   LINE      ---      ---       #297
      0100A8F0H   LINE      ---      ---       #298
      0100A8F0H   LINE      ---      ---       #299
      0100A8F0H   LINE      ---      ---       #300
      0100A8F0H   LINE      ---      ---       #301
      0100A8F7H   LINE      ---      ---       #302
      0100A8F7H   LINE      ---      ---       #303
      0100A8FEH   LINE      ---      ---       #305
      0100A904H   LINE      ---      ---       #306
      0100A904H   LINE      ---      ---       #307
      0100A90AH   LINE      ---      ---       #308
      0100A90AH   LINE      ---      ---       #309
      0100A90AH   LINE      ---      ---       #311
      0100A90AH   LINE      ---      ---       #313
      0100A90AH   LINE      ---      ---       #315
      0100A914H   LINE      ---      ---       #316
      0100A914H   LINE      ---      ---       #317
      0100A915H   LINE      ---      ---       #319
      0100A94FH   LINE      ---      ---       #323
      0100A959H   LINE      ---      ---       #324
      0100A959H   LINE      ---      ---       #325
      0100A959H   LINE      ---      ---       #326
      0100A95BH   LINE      ---      ---       #327
      02000000H   SYMBOL    XDATA    BYTE      UART_Rec_Cnt
      00000007H   SYMBOL    DATA     BYTE      i
      00000005H   SYMBOL    DATA     BYTE      uart_data
      02000113H   SYMBOL    XDATA    DWORD     Adress
      ---         BLOCKEND  CODE     ---       LVL=1
      ---         BLOCKEND  CODE     ---       LVL=0

      0100A7FEH   BLOCK     CODE     ---       LVL=0
      0100A7FEH   LINE      ---      ---       #329
      0100A7FEH   LINE      ---      ---       #330
      0100A7FEH   LINE      ---      ---       #331
      0100A805H   LINE      ---      ---       #332
      0100A805H   LINE      ---      ---       #333
LX51 LINKER/LOCATER V4.66.1.0                                                         04/08/2019  16:56:50  PAGE 46


      0100A80FH   LINE      ---      ---       #334
      0100A80FH   LINE      ---      ---       #335
      0100A80FH   LINE      ---      ---       #336
      0100A811H   LINE      ---      ---       #342
      0100A815H   LINE      ---      ---       #343
      0100A815H   LINE      ---      ---       #344
      0100A822H   LINE      ---      ---       #345
      0100A822H   LINE      ---      ---       #346
      0100A822H   LINE      ---      ---       #347
      0100A824H   LINE      ---      ---       #349
      0100A824H   LINE      ---      ---       #350
      0100A824H   LINE      ---      ---       #351
      0100A824H   LINE      ---      ---       #352
      0100A826H   LINE      ---      ---       #353
      0100A82DH   LINE      ---      ---       #354
      0100A82DH   LINE      ---      ---       #355
      0100A83CH   LINE      ---      ---       #356
      0100A83CH   LINE      ---      ---       #357
      0100A842H   LINE      ---      ---       #358
      0100A843H   LINE      ---      ---       #360
      0100A843H   LINE      ---      ---       #361
      0100A848H   LINE      ---      ---       #362
      0100A848H   LINE      ---      ---       #363
      0100A848H   LINE      ---      ---       #365
      0100A848H   LINE      ---      ---       #367
      0100A848H   LINE      ---      ---       #368
      ---         BLOCKEND  ---      ---       LVL=0

      01007242H   BLOCK     CODE     ---       LVL=0
      01007242H   LINE      ---      ---       #370
      01007242H   LINE      ---      ---       #371
      00000007H   SYMBOL    DATA     BYTE      Refresh_En
      01007242H   BLOCK     CODE     NEAR LAB  LVL=1
      01007242H   LINE      ---      ---       #375
      01007249H   LINE      ---      ---       #379
      0100724FH   LINE      ---      ---       #380
      01007255H   LINE      ---      ---       #381
      01007255H   LINE      ---      ---       #382
      01007257H   LINE      ---      ---       #383
      01007257H   LINE      ---      ---       #385
      0100725FH   LINE      ---      ---       #387
      0100725FH   LINE      ---      ---       #388
      01007261H   LINE      ---      ---       #389
      01007261H   LINE      ---      ---       #392
      01007264H   LINE      ---      ---       #393
      01007266H   LINE      ---      ---       #396
      01007269H   LINE      ---      ---       #397
      01007269H   LINE      ---      ---       #398
      01007271H   LINE      ---      ---       #399
      01007271H   LINE      ---      ---       #401
      01007280H   LINE      ---      ---       #404
      01007280H   LINE      ---      ---       #405
      0100728AH   LINE      ---      ---       #408
      0100728AH   LINE      ---      ---       #409
      0100728DH   LINE      ---      ---       #410
      0100728DH   LINE      ---      ---       #411
      0100728FH   LINE      ---      ---       #413
      010072A8H   LINE      ---      ---       #414
      010072A8H   LINE      ---      ---       #415
      010072AEH   LINE      ---      ---       #418
      010072AEH   LINE      ---      ---       #419
      010072B7H   LINE      ---      ---       #420
      010072B7H   LINE      ---      ---       #421
      010072B9H   LINE      ---      ---       #423
      010072B9H   LINE      ---      ---       #424
LX51 LINKER/LOCATER V4.66.1.0                                                         04/08/2019  16:56:50  PAGE 47


      010072BFH   LINE      ---      ---       #425
      010072BFH   LINE      ---      ---       #426
      010072C2H   LINE      ---      ---       #427
      010072C2H   LINE      ---      ---       #428
      010072C2H   LINE      ---      ---       #430
      010072D0H   LINE      ---      ---       #431
      010072D0H   LINE      ---      ---       #432
      010072D8H   LINE      ---      ---       #433
      010072D8H   LINE      ---      ---       #434
      010072DEH   LINE      ---      ---       #435
      010072E3H   LINE      ---      ---       #436
      010072E5H   LINE      ---      ---       #437
      010072E8H   LINE      ---      ---       #438
      010072E8H   LINE      ---      ---       #439
      010072F7H   LINE      ---      ---       #440
      010072FCH   LINE      ---      ---       #441
      010072FCH   LINE      ---      ---       #443
      010072FCH   LINE      ---      ---       #445
      010072FCH   LINE      ---      ---       #447
      010072FFH   LINE      ---      ---       #448
      010072FFH   LINE      ---      ---       #449
      01007334H   LINE      ---      ---       #454
      01007336H   LINE      ---      ---       #455
      01007343H   LINE      ---      ---       #456
      01007343H   LINE      ---      ---       #457
      0100735CH   LINE      ---      ---       #460
      01007364H   LINE      ---      ---       #461
      01007366H   LINE      ---      ---       #463
      01007366H   LINE      ---      ---       #464
      01007385H   LINE      ---      ---       #467
      01007397H   LINE      ---      ---       #468
      01007397H   LINE      ---      ---       #469
      01007397H   LINE      ---      ---       #472
      010073A0H   LINE      ---      ---       #474
      010073A0H   LINE      ---      ---       #475
      010073A6H   LINE      ---      ---       #478
      010073A6H   LINE      ---      ---       #479
      010073AFH   LINE      ---      ---       #480
      010073AFH   LINE      ---      ---       #481
      010073B1H   LINE      ---      ---       #483
      010073B1H   LINE      ---      ---       #484
      010073B7H   LINE      ---      ---       #485
      010073B7H   LINE      ---      ---       #486
      010073BAH   LINE      ---      ---       #487
      010073BAH   LINE      ---      ---       #488
      010073BAH   LINE      ---      ---       #490
      010073C6H   LINE      ---      ---       #491
      010073C6H   LINE      ---      ---       #492
      010073CCH   LINE      ---      ---       #493
      010073CCH   LINE      ---      ---       #494
      010073FDH   LINE      ---      ---       #497
      010073FDH   LINE      ---      ---       #499
      010073FDH   LINE      ---      ---       #500
      01007420H   LINE      ---      ---       #502
      01007420H   LINE      ---      ---       #503
      01007420H   LINE      ---      ---       #504
      02000001H   SYMBOL    XDATA    BYTE      Refresh_WenDu_Cnt
      02000002H   SYMBOL    XDATA    BYTE      Alarm_WenDu_Cnt
      02000199H   SYMBOL    XDATA    WORD      Disp
      0200019BH   SYMBOL    XDATA    WORD      color
      0200019DH   SYMBOL    XDATA    WORD      Temp_Dis_En
      00000003H   SYMBOL    DATA     BYTE      Disp_Err
      ---         BLOCKEND  CODE     ---       LVL=1
      ---         BLOCKEND  CODE     ---       LVL=0

LX51 LINKER/LOCATER V4.66.1.0                                                         04/08/2019  16:56:50  PAGE 48


      01007BE8H   BLOCK     CODE     ---       LVL=0
      01007BE8H   LINE      ---      ---       #507
      01007BEDH   LINE      ---      ---       #509
      02000199H   SYMBOL    XDATA    BYTE      Refresh_En
      01007BEDH   BLOCK     CODE     NEAR LAB  LVL=1
      01007BEDH   LINE      ---      ---       #510
      01007BEFH   LINE      ---      ---       #514
      01007BF3H   LINE      ---      ---       #517
      01007BFAH   LINE      ---      ---       #518
      01007BFAH   LINE      ---      ---       #519
      01007BFCH   LINE      ---      ---       #520
      01007C05H   LINE      ---      ---       #521
      01007C05H   LINE      ---      ---       #522
      01007C05H   LINE      ---      ---       #523
      01007C07H   LINE      ---      ---       #525
      01007C07H   LINE      ---      ---       #526
      01007C0CH   LINE      ---      ---       #527
      01007C0EH   LINE      ---      ---       #528
      01007C17H   LINE      ---      ---       #529
      01007C17H   LINE      ---      ---       #530
      01007C17H   LINE      ---      ---       #531
      01007C19H   LINE      ---      ---       #533
      01007C19H   LINE      ---      ---       #534
      01007C1EH   LINE      ---      ---       #535
      01007C27H   LINE      ---      ---       #536
      01007C27H   LINE      ---      ---       #537
      01007C27H   LINE      ---      ---       #538
      01007C29H   LINE      ---      ---       #539
      01007C29H   LINE      ---      ---       #540
      01007C2EH   LINE      ---      ---       #541
      01007C37H   LINE      ---      ---       #542
      01007C37H   LINE      ---      ---       #543
      01007C3AH   LINE      ---      ---       #544
      01007C3AH   LINE      ---      ---       #545
      01007C3AH   LINE      ---      ---       #546
      01007C3AH   LINE      ---      ---       #547
      01007C3AH   LINE      ---      ---       #548
      01007C3AH   LINE      ---      ---       #550
      01007C44H   LINE      ---      ---       #551
      01007C44H   LINE      ---      ---       #553
      01007C49H   LINE      ---      ---       #554
      01007C49H   LINE      ---      ---       #555
      01007C4CH   LINE      ---      ---       #556
      01007C57H   LINE      ---      ---       #557
      01007C60H   LINE      ---      ---       #558
      01007C6BH   LINE      ---      ---       #559
      01007C74H   LINE      ---      ---       #560
      01007C7FH   LINE      ---      ---       #561
      01007C88H   LINE      ---      ---       #562
      01007C88H   LINE      ---      ---       #563
      01007C88H   LINE      ---      ---       #564
      00000007H   SYMBOL    DATA     BYTE      t
      02000003H   SYMBOL    XDATA    BYTE      Last_Sec
      ---         BLOCKEND  CODE     ---       LVL=1
      ---         BLOCKEND  CODE     ---       LVL=0

      01007BA7H   BLOCK     CODE     ---       LVL=0
      01007BA7H   LINE      ---      ---       #567
      01007BA7H   LINE      ---      ---       #568
      01007BA7H   BLOCK     CODE     NEAR LAB  LVL=1
      01007BA7H   LINE      ---      ---       #571
      01007BA9H   LINE      ---      ---       #576
      01007BADH   LINE      ---      ---       #578
      01007BB4H   LINE      ---      ---       #579
      01007BB4H   LINE      ---      ---       #580
LX51 LINKER/LOCATER V4.66.1.0                                                         04/08/2019  16:56:50  PAGE 49


      01007BB6H   LINE      ---      ---       #582
      01007BC2H   LINE      ---      ---       #583
      01007BC2H   LINE      ---      ---       #584
      01007BC4H   LINE      ---      ---       #585
      01007BC4H   LINE      ---      ---       #587
      01007BDEH   LINE      ---      ---       #593
      01007BDEH   LINE      ---      ---       #594
      02000004H   SYMBOL    XDATA    BYTE      Last_Min
      00000007H   SYMBOL    DATA     BYTE      t
      02000005H   SYMBOL    XDATA    BYTE      Last_Sec
      ---         BLOCKEND  CODE     ---       LVL=1
      ---         BLOCKEND  CODE     ---       LVL=0

      01006C03H   BLOCK     CODE     ---       LVL=0
      01006C03H   LINE      ---      ---       #596
      01006C03H   LINE      ---      ---       #597
      01006C03H   BLOCK     CODE     NEAR LAB  LVL=1
      01006C03H   LINE      ---      ---       #600
      01006C08H   LINE      ---      ---       #611
      01006C0EH   LINE      ---      ---       #612
      01006C14H   LINE      ---      ---       #613
      01006C14H   LINE      ---      ---       #614
      01006C16H   LINE      ---      ---       #615
      01006C1FH   LINE      ---      ---       #616
      01006C2AH   LINE      ---      ---       #617
      01006C39H   LINE      ---      ---       #618
      01006C57H   LINE      ---      ---       #619
      01006C57H   LINE      ---      ---       #632
      01006C66H   LINE      ---      ---       #633
      01006C66H   LINE      ---      ---       #634
      01006C68H   LINE      ---      ---       #635
      01006C68H   LINE      ---      ---       #637
      01006C68H   LINE      ---      ---       #638
      01006C6EH   LINE      ---      ---       #639
      01006C6EH   LINE      ---      ---       #640
      01006C75H   LINE      ---      ---       #641
      01006C77H   LINE      ---      ---       #642
      01006C77H   LINE      ---      ---       #643
      01006C77H   LINE      ---      ---       #644
      01006C79H   LINE      ---      ---       #646
      01006C79H   LINE      ---      ---       #647
      01006C7EH   LINE      ---      ---       #648
      01006C7EH   LINE      ---      ---       #649
      01006C7EH   LINE      ---      ---       #650
      01006C80H   LINE      ---      ---       #651
      01006C8AH   LINE      ---      ---       #652
      01006C8AH   LINE      ---      ---       #654
      01006C8EH   LINE      ---      ---       #655
      01006C93H   LINE      ---      ---       #656
      01006C93H   LINE      ---      ---       #657
      01006C95H   LINE      ---      ---       #662
      01006CA9H   LINE      ---      ---       #663
      01006CA9H   LINE      ---      ---       #665
      01006CAEH   LINE      ---      ---       #666
      01006CB0H   LINE      ---      ---       #668
      01006CB0H   LINE      ---      ---       #669
      01006CB5H   LINE      ---      ---       #670
      01006CBBH   LINE      ---      ---       #672
      01006CC1H   LINE      ---      ---       #673
      01006CC1H   LINE      ---      ---       #674
      01006CC7H   LINE      ---      ---       #675
      01006CC7H   LINE      ---      ---       #676
      01006CF5H   LINE      ---      ---       #677
      01006CF7H   LINE      ---      ---       #679
      01006CF7H   LINE      ---      ---       #680
LX51 LINKER/LOCATER V4.66.1.0                                                         04/08/2019  16:56:50  PAGE 50


      01006D27H   LINE      ---      ---       #681
      01006D27H   LINE      ---      ---       #684
      01006D34H   LINE      ---      ---       #685
      01006D34H   LINE      ---      ---       #686
      01006D69H   LINE      ---      ---       #687
      01006D69H   LINE      ---      ---       #690
      01006D76H   LINE      ---      ---       #691
      01006D76H   LINE      ---      ---       #692
      01006D80H   LINE      ---      ---       #693
      01006D80H   LINE      ---      ---       #694
      01006D83H   LINE      ---      ---       #695
      01006D83H   LINE      ---      ---       #696
      01006D85H   LINE      ---      ---       #698
      01006D85H   LINE      ---      ---       #699
      01006D8AH   LINE      ---      ---       #700
      01006D8AH   LINE      ---      ---       #701
      01006D8AH   LINE      ---      ---       #702
      01006D8AH   LINE      ---      ---       #703
      01006D8CH   LINE      ---      ---       #705
      01006D8CH   LINE      ---      ---       #706
      01006D99H   LINE      ---      ---       #708
      01006D99H   LINE      ---      ---       #709
      01006D99H   LINE      ---      ---       #710
      01006D9BH   LINE      ---      ---       #712
      01006D9BH   LINE      ---      ---       #714
      01006D9BH   LINE      ---      ---       #717
      01006D9BH   LINE      ---      ---       #718
      01006DA2H   LINE      ---      ---       #719
      01006DA2H   LINE      ---      ---       #720
      01006DA9H   LINE      ---      ---       #721
      01006DAEH   LINE      ---      ---       #722
      01006DAEH   LINE      ---      ---       #723
      01006DAEH   LINE      ---      ---       #724
      01006DB0H   LINE      ---      ---       #726
      01006DB0H   LINE      ---      ---       #727
      01006DB3H   LINE      ---      ---       #728
      01006DB8H   LINE      ---      ---       #729
      01006DB8H   LINE      ---      ---       #730
      01006DBAH   LINE      ---      ---       #731
      01006DC4H   LINE      ---      ---       #732
      01006DC4H   LINE      ---      ---       #734
      01006DC8H   LINE      ---      ---       #735
      01006DCDH   LINE      ---      ---       #736
      01006DCDH   LINE      ---      ---       #738
      01006DCFH   LINE      ---      ---       #741
      01006DE3H   LINE      ---      ---       #742
      01006DE3H   LINE      ---      ---       #743
      01006DECH   LINE      ---      ---       #744
      01006DECH   LINE      ---      ---       #745
      01006DEFH   LINE      ---      ---       #746
      01006DEFH   LINE      ---      ---       #747
      01006DF6H   LINE      ---      ---       #748
      01006DFCH   LINE      ---      ---       #750
      01006DFEH   LINE      ---      ---       #752
      01006DFEH   LINE      ---      ---       #753
      01006E03H   LINE      ---      ---       #754
      01006E0EH   LINE      ---      ---       #755
      01006E13H   LINE      ---      ---       #756
      01006E1FH   LINE      ---      ---       #757
      01006E1FH   LINE      ---      ---       #758
      01006E29H   LINE      ---      ---       #759
      01006E29H   LINE      ---      ---       #760
      01006E33H   LINE      ---      ---       #761
      01006E35H   LINE      ---      ---       #763
      01006E3BH   LINE      ---      ---       #764
LX51 LINKER/LOCATER V4.66.1.0                                                         04/08/2019  16:56:50  PAGE 51


      01006E3BH   LINE      ---      ---       #765
      01006E49H   LINE      ---      ---       #766
      01006E49H   LINE      ---      ---       #767
      01006E56H   LINE      ---      ---       #768
      01006E56H   LINE      ---      ---       #769
      01006E72H   LINE      ---      ---       #770
      01006E7AH   LINE      ---      ---       #771
      01006E7AH   LINE      ---      ---       #772
      01006E83H   LINE      ---      ---       #773
      01006E83H   LINE      ---      ---       #774
      01006E85H   LINE      ---      ---       #776
      01006E85H   LINE      ---      ---       #777
      01006E8CH   LINE      ---      ---       #778
      01006E8CH   LINE      ---      ---       #779
      01006E9CH   LINE      ---      ---       #780
      01006E9EH   LINE      ---      ---       #782
      01006E9EH   LINE      ---      ---       #783
      01006EA8H   LINE      ---      ---       #785
      01006EA8H   LINE      ---      ---       #787
      01006EB5H   LINE      ---      ---       #788
      01006EB5H   LINE      ---      ---       #789
      01006ECBH   LINE      ---      ---       #790
      01006ECBH   LINE      ---      ---       #791
      01006ECBH   LINE      ---      ---       #793
      01006ECBH   LINE      ---      ---       #795
      01006ECBH   LINE      ---      ---       #796
      01006ED1H   LINE      ---      ---       #797
      01006EE0H   LINE      ---      ---       #798
      01006EE0H   LINE      ---      ---       #799
      01006EE7H   LINE      ---      ---       #800
      01006EE7H   LINE      ---      ---       #801
      01006EE7H   LINE      ---      ---       #802
      01006EE7H   LINE      ---      ---       #804
      01006EE7H   LINE      ---      ---       #806
      01006EE7H   LINE      ---      ---       #809
      01006EE7H   LINE      ---      ---       #811
      01006EE7H   LINE      ---      ---       #813
      01006EE7H   LINE      ---      ---       #815
      01006EF7H   LINE      ---      ---       #816
      01006EF7H   LINE      ---      ---       #817
      01006F00H   LINE      ---      ---       #818
      01006F00H   LINE      ---      ---       #819
      01006F03H   LINE      ---      ---       #820
      01006F03H   LINE      ---      ---       #821
      01006F0CH   LINE      ---      ---       #822
      01006F0CH   LINE      ---      ---       #823
      01006F0FH   LINE      ---      ---       #824
      01006F0FH   LINE      ---      ---       #826
      01006F11H   LINE      ---      ---       #828
      01006F11H   LINE      ---      ---       #829
      01006F16H   LINE      ---      ---       #830
      01006F1AH   LINE      ---      ---       #831
      01006F1AH   LINE      ---      ---       #833
      01006F20H   LINE      ---      ---       #834
      01006F26H   LINE      ---      ---       #835
      01006F26H   LINE      ---      ---       #836
      01006F28H   LINE      ---      ---       #837
      01006F2EH   LINE      ---      ---       #838
      01006F2EH   LINE      ---      ---       #839
      01006F30H   LINE      ---      ---       #840
      01006F31H   LINE      ---      ---       #841
      01006F35H   LINE      ---      ---       #842
      01006F35H   LINE      ---      ---       #843
      01006F3BH   LINE      ---      ---       #844
      01006F3CH   LINE      ---      ---       #846
LX51 LINKER/LOCATER V4.66.1.0                                                         04/08/2019  16:56:50  PAGE 52


      01006F3CH   LINE      ---      ---       #847
      01006F41H   LINE      ---      ---       #848
      01006F41H   LINE      ---      ---       #849
      01006F41H   LINE      ---      ---       #850
      01006F41H   LINE      ---      ---       #851
      02000006H   SYMBOL    XDATA    BYTE      Get_time_out
      02000007H   SYMBOL    XDATA    BYTE      Read_Order
      02000113H   SYMBOL    XDATA    BYTE      Read_SHT21_Err
      00000020H.0 SYMBOL    BIT      BIT       Read_SCL_CONF
      02000114H   SYMBOL    XDATA    DWORD     TempLong
      02000118H   SYMBOL    XDATA    WORD      Temp2
      02000008H   SYMBOL    XDATA    WORD      RT_Temp_Mem_L1
      0200000AH   SYMBOL    XDATA    WORD      RT_Temp_Mem_L2
      0200000CH   SYMBOL    XDATA    WORD      RT_Temp_Mem_L3
      0200000EH   SYMBOL    XDATA    BYTE      ReCnt
      ---         BLOCKEND  CODE     ---       LVL=1
      ---         BLOCKEND  CODE     ---       LVL=0

      01006838H   BLOCK     CODE     ---       LVL=0
      01006838H   LINE      ---      ---       #854
      01006838H   LINE      ---      ---       #855
      01006838H   BLOCK     CODE     NEAR LAB  LVL=1
      01006838H   LINE      ---      ---       #874
      0100683DH   LINE      ---      ---       #875
      0100683FH   LINE      ---      ---       #878
      01006845H   LINE      ---      ---       #883
      0100684BH   LINE      ---      ---       #884
      01006851H   LINE      ---      ---       #885
      01006851H   LINE      ---      ---       #886
      01006853H   LINE      ---      ---       #887
      01006853H   LINE      ---      ---       #889
      01006862H   LINE      ---      ---       #890
      01006862H   LINE      ---      ---       #891
      01006864H   LINE      ---      ---       #892
      01006864H   LINE      ---      ---       #893
      0100686DH   LINE      ---      ---       #894
      0100686DH   LINE      ---      ---       #895
      01006870H   LINE      ---      ---       #896
      01006870H   LINE      ---      ---       #898
      01006876H   LINE      ---      ---       #899
      01006876H   LINE      ---      ---       #900
      01006878H   LINE      ---      ---       #910
      0100687CH   LINE      ---      ---       #911
      0100687CH   LINE      ---      ---       #912
      01006886H   LINE      ---      ---       #914
      01006886H   LINE      ---      ---       #915
      01006888H   LINE      ---      ---       #925
      0100688CH   LINE      ---      ---       #926
      0100688EH   LINE      ---      ---       #927
      01006894H   LINE      ---      ---       #929
      0100689CH   LINE      ---      ---       #930
      010068A2H   LINE      ---      ---       #932
      010068AAH   LINE      ---      ---       #934
      010068AFH   LINE      ---      ---       #935
      010068AFH   LINE      ---      ---       #936
      010068B7H   LINE      ---      ---       #937
      010068E2H   LINE      ---      ---       #954
      010068F6H   LINE      ---      ---       #956
      010068F9H   LINE      ---      ---       #957
      010068F9H   LINE      ---      ---       #958
      010068FBH   LINE      ---      ---       #959
      010068FBH   LINE      ---      ---       #961
      01006900H   LINE      ---      ---       #962
      01006900H   LINE      ---      ---       #963
      01006905H   LINE      ---      ---       #964
LX51 LINKER/LOCATER V4.66.1.0                                                         04/08/2019  16:56:50  PAGE 53


      0100690AH   LINE      ---      ---       #966
      0100690DH   LINE      ---      ---       #967
      01006910H   LINE      ---      ---       #968
      01006910H   LINE      ---      ---       #969
      01006915H   LINE      ---      ---       #971
      01006917H   LINE      ---      ---       #973
      01006917H   LINE      ---      ---       #974
      01006920H   LINE      ---      ---       #976
      01006920H   LINE      ---      ---       #978
      01006937H   LINE      ---      ---       #979
      01006937H   LINE      ---      ---       #980
      0100693CH   LINE      ---      ---       #981
      0100694BH   LINE      ---      ---       #982
      0100694BH   LINE      ---      ---       #983
      01006952H   LINE      ---      ---       #984
      01006952H   LINE      ---      ---       #985
      01006954H   LINE      ---      ---       #987
      01006954H   LINE      ---      ---       #988
      0100695BH   LINE      ---      ---       #989
      0100695BH   LINE      ---      ---       #991
      0100696AH   LINE      ---      ---       #992
      0100696AH   LINE      ---      ---       #994
      0100696AH   LINE      ---      ---       #996
      0100696AH   LINE      ---      ---       #997
      01006971H   LINE      ---      ---       #998
      01006971H   LINE      ---      ---       #1000
      010069A8H   LINE      ---      ---       #1002
      010069A8H   LINE      ---      ---       #1003
      010069B6H   LINE      ---      ---       #1004
      010069B6H   LINE      ---      ---       #1005
      010069BFH   LINE      ---      ---       #1006
      010069C3H   LINE      ---      ---       #1007
      010069C3H   LINE      ---      ---       #1008
      010069E1H   LINE      ---      ---       #1009
      010069E1H   LINE      ---      ---       #1010
      010069E1H   LINE      ---      ---       #1011
      010069E1H   LINE      ---      ---       #1013
      010069E1H   LINE      ---      ---       #1015
      010069E1H   LINE      ---      ---       #1016
      010069F0H   LINE      ---      ---       #1017
      010069F0H   LINE      ---      ---       #1018
      010069F0H   LINE      ---      ---       #1025
      010069F0H   LINE      ---      ---       #1026
      010069F7H   LINE      ---      ---       #1027
      010069F7H   LINE      ---      ---       #1029
      010069FCH   LINE      ---      ---       #1030
      01006A01H   LINE      ---      ---       #1032
      01006A01H   LINE      ---      ---       #1033
      01006A01H   LINE      ---      ---       #1036
      01006A01H   LINE      ---      ---       #1039
      01006A04H   LINE      ---      ---       #1040
      01006A07H   LINE      ---      ---       #1041
      01006A07H   LINE      ---      ---       #1042
      01006A0CH   LINE      ---      ---       #1044
      01006A0EH   LINE      ---      ---       #1046
      01006A0EH   LINE      ---      ---       #1047
      01006A17H   LINE      ---      ---       #1049
      01006A17H   LINE      ---      ---       #1052
      01006A25H   LINE      ---      ---       #1053
      01006A25H   LINE      ---      ---       #1054
      01006A2AH   LINE      ---      ---       #1055
      01006A39H   LINE      ---      ---       #1056
      01006A39H   LINE      ---      ---       #1057
      01006A40H   LINE      ---      ---       #1058
      01006A40H   LINE      ---      ---       #1059
LX51 LINKER/LOCATER V4.66.1.0                                                         04/08/2019  16:56:50  PAGE 54


      01006A42H   LINE      ---      ---       #1061
      01006A42H   LINE      ---      ---       #1062
      01006A49H   LINE      ---      ---       #1063
      01006A49H   LINE      ---      ---       #1064
      01006A53H   LINE      ---      ---       #1066
      01006A5CH   LINE      ---      ---       #1075
      01006A5CH   LINE      ---      ---       #1076
      01006A5CH   LINE      ---      ---       #1078
      01006A5CH   LINE      ---      ---       #1080
      01006A5CH   LINE      ---      ---       #1081
      00000020H.0 SYMBOL    BIT      BIT       CQKSensorExist
      02000113H   SYMBOL    XDATA    BYTE      T18B20_L
      02000114H   SYMBOL    XDATA    BYTE      T18B20_H
      02000115H   SYMBOL    XDATA    BYTE      CQK_T18B20_L
      02000116H   SYMBOL    XDATA    BYTE      CQK_T18B20_H
      00000005H   SYMBOL    DATA     BYTE      T18B20_H_GET
      00000004H   SYMBOL    DATA     BYTE      T18B20_L_GET
      00000005H   SYMBOL    DATA     BYTE      CQK_T18B20_H_GET
      00000004H   SYMBOL    DATA     BYTE      CQK_T18B20_L_GET
      0200000FH   SYMBOL    XDATA    WORD      CQK_Temp_Last
      02000117H   SYMBOL    XDATA    BYTE      CRC8_error
      02000118H   SYMBOL    XDATA    BYTE      checksum
      02000119H   SYMBOL    XDATA    ---       DS18B20_Cdata
      02000121H   SYMBOL    XDATA    WORD      temp
      02000011H   SYMBOL    XDATA    WORD      JRP_Temp_Last
      02000013H   SYMBOL    XDATA    BYTE      Get_Temp_Cnt
      ---         BLOCKEND  CODE     ---       LVL=1
      ---         BLOCKEND  CODE     ---       LVL=0

      01009889H   BLOCK     CODE     ---       LVL=0
      01009889H   LINE      ---      ---       #1087
      01009889H   LINE      ---      ---       #1088
      01009889H   BLOCK     CODE     NEAR LAB  LVL=1
      01009889H   LINE      ---      ---       #1090
      0100988CH   LINE      ---      ---       #1099
      0100989AH   LINE      ---      ---       #1100
      0100989AH   LINE      ---      ---       #1101
      0100989DH   LINE      ---      ---       #1102
      01009991H   LINE      ---      ---       #1123
      01009999H   LINE      ---      ---       #1124
      01009999H   LINE      ---      ---       #1125
      010099BFH   LINE      ---      ---       #1128
      010099CEH   LINE      ---      ---       #1129
      010099CEH   LINE      ---      ---       #1130
      010099D7H   LINE      ---      ---       #1131
      010099D9H   LINE      ---      ---       #1133
      010099D9H   LINE      ---      ---       #1134
      010099E9H   LINE      ---      ---       #1135
      010099E9H   LINE      ---      ---       #1138
      010099FBH   LINE      ---      ---       #1141
      01009A0AH   LINE      ---      ---       #1142
      01009A0AH   LINE      ---      ---       #1143
      01009A13H   LINE      ---      ---       #1144
      01009A15H   LINE      ---      ---       #1146
      01009A15H   LINE      ---      ---       #1147
      01009A25H   LINE      ---      ---       #1148
      01009A25H   LINE      ---      ---       #1151
      01009A39H   LINE      ---      ---       #1152
      01009A3BH   LINE      ---      ---       #1154
      01009A3BH   LINE      ---      ---       #1155
      01009A61H   LINE      ---      ---       #1157
      01009A61H   LINE      ---      ---       #1159
      01009ABFH   LINE      ---      ---       #1165
      01009ABFH   LINE      ---      ---       #1172
      01009AD9H   LINE      ---      ---       #1173
LX51 LINKER/LOCATER V4.66.1.0                                                         04/08/2019  16:56:50  PAGE 55


      01009AD9H   LINE      ---      ---       #1174
      01009AE0H   LINE      ---      ---       #1176
      01009AE5H   LINE      ---      ---       #1178
      01009AECH   LINE      ---      ---       #1180
      01009AEFH   LINE      ---      ---       #1181
      01009AEFH   LINE      ---      ---       #1183
      01009AEFH   LINE      ---      ---       #1186
      01009AF8H   LINE      ---      ---       #1187
      01009AF8H   LINE      ---      ---       #1188
      01009AFFH   LINE      ---      ---       #1189
      01009B01H   LINE      ---      ---       #1190
      01009B01H   LINE      ---      ---       #1191
      01009B08H   LINE      ---      ---       #1192
      01009B08H   LINE      ---      ---       #1194
      01009B0AH   LINE      ---      ---       #1196
      01009B16H   LINE      ---      ---       #1197
      01009B16H   LINE      ---      ---       #1198
      01009B1EH   LINE      ---      ---       #1199
      01009B1EH   LINE      ---      ---       #1200
      01009B23H   LINE      ---      ---       #1201
      01009B23H   LINE      ---      ---       #1202
      01009B2AH   LINE      ---      ---       #1203
      01009B2CH   LINE      ---      ---       #1205
      01009B2CH   LINE      ---      ---       #1206
      01009B3CH   LINE      ---      ---       #1207
      01009B3CH   LINE      ---      ---       #1208
      01009B4FH   LINE      ---      ---       #1209
      01009B4FH   LINE      ---      ---       #1210
      01009B54H   LINE      ---      ---       #1211
      01009B54H   LINE      ---      ---       #1215
      01009B6BH   LINE      ---      ---       #1216
      01009B6EH   LINE      ---      ---       #1217
      01009B78H   LINE      ---      ---       #1219
      01009B7EH   LINE      ---      ---       #1220
      01009B7EH   LINE      ---      ---       #1221
      01009B98H   LINE      ---      ---       #1222
      01009B98H   LINE      ---      ---       #1224
      01009B98H   LINE      ---      ---       #1225
      01009BA9H   LINE      ---      ---       #1226
      01009BA9H   LINE      ---      ---       #1228
      01009BA9H   LINE      ---      ---       #1229
      01009BB5H   LINE      ---      ---       #1230
      01009BB5H   LINE      ---      ---       #1232
      01009BB5H   LINE      ---      ---       #1233
      01009BC3H   LINE      ---      ---       #1234
      01009BC3H   LINE      ---      ---       #1236
      01009BC3H   LINE      ---      ---       #1238
      01009BC3H   LINE      ---      ---       #1239
      01009BC3H   LINE      ---      ---       #1240
      01009BC3H   LINE      ---      ---       #1241
      01009BC5H   LINE      ---      ---       #1243
      01009BC5H   LINE      ---      ---       #1244
      01009BC5H   LINE      ---      ---       #1245
      01009BC5H   LINE      ---      ---       #1246
      01009BC7H   LINE      ---      ---       #1248
      01009BC7H   LINE      ---      ---       #1249
      01009BC9H   LINE      ---      ---       #1250
      01009BC9H   LINE      ---      ---       #1252
      01009BCEH   LINE      ---      ---       #1253
      01009BCEH   LINE      ---      ---       #1255
      01009BCEH   LINE      ---      ---       #1257
      01009BCEH   LINE      ---      ---       #1258
      01009BDAH   LINE      ---      ---       #1259
      01009BDAH   LINE      ---      ---       #1260
      01009BE0H   LINE      ---      ---       #1261
LX51 LINKER/LOCATER V4.66.1.0                                                         04/08/2019  16:56:50  PAGE 56


      01009BE0H   LINE      ---      ---       #1262
      01009BE0H   LINE      ---      ---       #1265
      01009BEBH   LINE      ---      ---       #1267
      01009BEDH   LINE      ---      ---       #1268
      01009BF3H   LINE      ---      ---       #1269
      01009BF3H   LINE      ---      ---       #1270
      01009BF3H   LINE      ---      ---       #1271
      01009C09H   LINE      ---      ---       #1272
      01009C11H   LINE      ---      ---       #1273
      01009C11H   LINE      ---      ---       #1274
      01009C16H   LINE      ---      ---       #1275
      01009C16H   LINE      ---      ---       #1276
      01009C1CH   LINE      ---      ---       #1277
      01009C1CH   LINE      ---      ---       #1278
      01009C26H   LINE      ---      ---       #1279
      01009C26H   LINE      ---      ---       #1280
      01009C3AH   LINE      ---      ---       #1281
      01009C3AH   LINE      ---      ---       #1282
      01009C3AH   LINE      ---      ---       #1283
      01009C44H   LINE      ---      ---       #1284
      01009C44H   LINE      ---      ---       #1285
      01009C44H   LINE      ---      ---       #1286
      01009C44H   LINE      ---      ---       #1287
      01009C44H   LINE      ---      ---       #1288
      01009C46H   LINE      ---      ---       #1290
      01009C46H   LINE      ---      ---       #1291
      01009C48H   LINE      ---      ---       #1292
      01009C48H   LINE      ---      ---       #1293
      01009C53H   LINE      ---      ---       #1294
      01009C53H   LINE      ---      ---       #1299
      01009C5BH   LINE      ---      ---       #1300
      01009C5BH   LINE      ---      ---       #1301
      01009C70H   LINE      ---      ---       #1303
      01009C70H   LINE      ---      ---       #1304
      01009C76H   LINE      ---      ---       #1305
      01009C76H   LINE      ---      ---       #1306
      01009C78H   LINE      ---      ---       #1308
      01009C78H   LINE      ---      ---       #1309
      01009C7FH   LINE      ---      ---       #1310
      01009C7FH   LINE      ---      ---       #1312
      01009C92H   LINE      ---      ---       #1314
      01009C92H   LINE      ---      ---       #1315
      01009C98H   LINE      ---      ---       #1316
      01009C98H   LINE      ---      ---       #1318
      01009CA4H   LINE      ---      ---       #1319
      01009CA4H   LINE      ---      ---       #1320
      01009CA7H   LINE      ---      ---       #1321
      01009CA7H   LINE      ---      ---       #1322
      01009CB6H   LINE      ---      ---       #1324
      01009CC5H   LINE      ---      ---       #1325
      01009CC5H   LINE      ---      ---       #1326
      01009CCCH   LINE      ---      ---       #1327
      01009CD3H   LINE      ---      ---       #1329
      01009CD3H   LINE      ---      ---       #1331
      01009CE7H   LINE      ---      ---       #1332
      01009CE7H   LINE      ---      ---       #1333
      01009CEEH   LINE      ---      ---       #1335
      01009CEFH   LINE      ---      ---       #1337
      01009CF7H   LINE      ---      ---       #1338
      01009CF7H   LINE      ---      ---       #1339
      01009D03H   LINE      ---      ---       #1340
      01009D03H   LINE      ---      ---       #1341
      01009D0AH   LINE      ---      ---       #1342
      01009D0AH   LINE      ---      ---       #1343
      01009D0CH   LINE      ---      ---       #1344
LX51 LINKER/LOCATER V4.66.1.0                                                         04/08/2019  16:56:50  PAGE 57


      01009D12H   LINE      ---      ---       #1345
      01009D14H   LINE      ---      ---       #1347
      01009D14H   LINE      ---      ---       #1348
      01009D25H   LINE      ---      ---       #1351
      01009D25H   LINE      ---      ---       #1352
      01009D2FH   LINE      ---      ---       #1353
      01009D2FH   LINE      ---      ---       #1355
      01009D33H   LINE      ---      ---       #1356
      01009D33H   LINE      ---      ---       #1357
      01009D35H   LINE      ---      ---       #1359
      01009D35H   LINE      ---      ---       #1360
      01009D3FH   LINE      ---      ---       #1361
      01009D3FH   LINE      ---      ---       #1362
      01009D4CH   LINE      ---      ---       #1363
      01009D4CH   LINE      ---      ---       #1364
      01009D4CH   LINE      ---      ---       #1366
      01009D5AH   LINE      ---      ---       #1367
      01009D5AH   LINE      ---      ---       #1369
      01009D6EH   LINE      ---      ---       #1370
      01009D6EH   LINE      ---      ---       #1372
      01009D75H   LINE      ---      ---       #1373
      01009D75H   LINE      ---      ---       #1375
      01009D81H   LINE      ---      ---       #1376
      01009D81H   LINE      ---      ---       #1377
      01009D88H   LINE      ---      ---       #1378
      01009D88H   LINE      ---      ---       #1379
      01009D8AH   LINE      ---      ---       #1381
      01009D8AH   LINE      ---      ---       #1382
      01009D96H   LINE      ---      ---       #1383
      01009D96H   LINE      ---      ---       #1384
      01009D99H   LINE      ---      ---       #1385
      01009D99H   LINE      ---      ---       #1386
      01009D99H   LINE      ---      ---       #1391
      01009DB4H   LINE      ---      ---       #1392
      01009DB4H   LINE      ---      ---       #1393
      01009DBBH   LINE      ---      ---       #1394
      01009DBDH   LINE      ---      ---       #1396
      01009DBDH   LINE      ---      ---       #1397
      01009DC3H   LINE      ---      ---       #1398
      01009DD4H   LINE      ---      ---       #1399
      01009DD4H   LINE      ---      ---       #1400
      01009DD8H   LINE      ---      ---       #1401
      01009DEEH   LINE      ---      ---       #1402
      01009DF1H   LINE      ---      ---       #1404
      01009DFFH   LINE      ---      ---       #1406
      01009E06H   LINE      ---      ---       #1407
      01009E06H   LINE      ---      ---       #1408
      01009E13H   LINE      ---      ---       #1409
      01009E13H   LINE      ---      ---       #1410
      01009E1AH   LINE      ---      ---       #1411
      01009E1AH   LINE      ---      ---       #1412
      01009E1CH   LINE      ---      ---       #1414
      01009E1CH   LINE      ---      ---       #1415
      01009E29H   LINE      ---      ---       #1416
      01009E29H   LINE      ---      ---       #1417
      01009E30H   LINE      ---      ---       #1418
      01009E30H   LINE      ---      ---       #1419
      01009E30H   LINE      ---      ---       #1421
      01009E35H   LINE      ---      ---       #1423
      01009E35H   LINE      ---      ---       #1424
      01009E42H   LINE      ---      ---       #1425
      01009E42H   LINE      ---      ---       #1426
      01009E49H   LINE      ---      ---       #1427
      01009E49H   LINE      ---      ---       #1428
      01009E4BH   LINE      ---      ---       #1430
LX51 LINKER/LOCATER V4.66.1.0                                                         04/08/2019  16:56:50  PAGE 58


      01009E4BH   LINE      ---      ---       #1431
      01009E58H   LINE      ---      ---       #1432
      01009E58H   LINE      ---      ---       #1433
      01009E5BH   LINE      ---      ---       #1434
      01009E5BH   LINE      ---      ---       #1435
      01009E5BH   LINE      ---      ---       #1436
      01009E5BH   LINE      ---      ---       #1437
      01009E5BH   LINE      ---      ---       #1440
      01009E70H   LINE      ---      ---       #1444
      01009E92H   LINE      ---      ---       #1445
      01009E92H   LINE      ---      ---       #1446
      01009E9DH   LINE      ---      ---       #1447
      01009E9DH   LINE      ---      ---       #1448
      01009EA3H   LINE      ---      ---       #1449
      01009EA3H   LINE      ---      ---       #1450
      01009EAEH   LINE      ---      ---       #1451
      01009EAEH   LINE      ---      ---       #1452
      01009EAEH   LINE      ---      ---       #1453
      01009EAEH   LINE      ---      ---       #1455
      01009EAEH   LINE      ---      ---       #1457
      01009EAEH   LINE      ---      ---       #1459
      01009EAEH   LINE      ---      ---       #1460
      01009EAEH   LINE      ---      ---       #1461
      01009EAEH   LINE      ---      ---       #1464
      01009EBAH   LINE      ---      ---       #1465
      01009EBAH   LINE      ---      ---       #1466
      01009EC0H   LINE      ---      ---       #1467
      01009EC0H   LINE      ---      ---       #1468
      01009ECAH   LINE      ---      ---       #1469
      01009ECAH   LINE      ---      ---       #1470
      01009ED3H   LINE      ---      ---       #1471
      01009ED3H   LINE      ---      ---       #1473
      01009ED4H   LINE      ---      ---       #1474
      01009EDEH   LINE      ---      ---       #1475
      01009EDEH   LINE      ---      ---       #1476
      01009EE1H   LINE      ---      ---       #1478
      01009EE1H   LINE      ---      ---       #1480
      01009EE1H   LINE      ---      ---       #1482
      01009EE1H   LINE      ---      ---       #1484
      01009EE1H   LINE      ---      ---       #1485
      02000113H   SYMBOL    XDATA    WORD      Val_Calc
      02000115H   SYMBOL    XDATA    INT       Humidity_Err
      02000117H   SYMBOL    XDATA    INT       Humidity_Comp
      02000014H   SYMBOL    XDATA    WORD      Last_Rem_Humidity
      02000016H   SYMBOL    XDATA    WORD      WarmUp_S_Cnt
      ---         BLOCKEND  CODE     ---       LVL=1
      ---         BLOCKEND  CODE     ---       LVL=0

      0100AC20H   BLOCK     CODE     ---       LVL=0
      0100AC20H   LINE      ---      ---       #1488
      0100AC20H   LINE      ---      ---       #1489
      0100AC20H   BLOCK     CODE     NEAR LAB  LVL=1
      0100AC20H   LINE      ---      ---       #1492
      0100AC2FH   LINE      ---      ---       #1493
      0100AC2FH   LINE      ---      ---       #1495
      0100AC2FH   LINE      ---      ---       #1496
      0100AC4EH   LINE      ---      ---       #1497
      0100AC52H   LINE      ---      ---       #1498
      0100AC5FH   LINE      ---      ---       #1499
      0100AC5FH   LINE      ---      ---       #1500
      0100AC61H   LINE      ---      ---       #1501
      0100AC61H   LINE      ---      ---       #1502
      0100AC71H   LINE      ---      ---       #1503
      0100AC7CH   LINE      ---      ---       #1506
      00000006H   SYMBOL    DATA     WORD      i
LX51 LINKER/LOCATER V4.66.1.0                                                         04/08/2019  16:56:50  PAGE 59


      00000005H   SYMBOL    DATA     BYTE      N
      02000119H   SYMBOL    XDATA    BYTE      j
      ---         BLOCKEND  CODE     ---       LVL=1
      ---         BLOCKEND  CODE     ---       LVL=0

      0100AC88H   BLOCK     CODE     ---       LVL=0
      0100AC88H   LINE      ---      ---       #1508
      0100AC88H   LINE      ---      ---       #1509
      0100AC88H   BLOCK     CODE     NEAR LAB  LVL=1
      0100AC88H   LINE      ---      ---       #1512
      0100AC8DH   LINE      ---      ---       #1513
      0100AC94H   LINE      ---      ---       #1514
      0100AC98H   LINE      ---      ---       #1515
      0100AC98H   LINE      ---      ---       #1516
      0100ACB7H   LINE      ---      ---       #1518
      0100ACBEH   LINE      ---      ---       #1519
      0100ACC5H   LINE      ---      ---       #1520
      0100ACC5H   LINE      ---      ---       #1521
      0100ACD4H   LINE      ---      ---       #1522
      0100ACD6H   LINE      ---      ---       #1523
      0100ACD6H   LINE      ---      ---       #1524
      0100ACE6H   LINE      ---      ---       #1525
      0100AD0AH   LINE      ---      ---       #1526
      0100AD25H   LINE      ---      ---       #1527
      0100AD2DH   LINE      ---      ---       #1528
      0100AD2FH   LINE      ---      ---       #1530
      0100AD2FH   LINE      ---      ---       #1531
      0100AD35H   LINE      ---      ---       #1532
      0100AD3AH   LINE      ---      ---       #1533
      0100AD3AH   LINE      ---      ---       #1534
      0100AD3AH   LINE      ---      ---       #1535
      0100AD44H   LINE      ---      ---       #1536
      0100AD71H   LINE      ---      ---       #1538
      0100AD71H   LINE      ---      ---       #1539
      0100AD81H   LINE      ---      ---       #1540
      0100AD81H   LINE      ---      ---       #1541
      0100AD81H   LINE      ---      ---       #1542
      0100AD81H   LINE      ---      ---       #1543
      0100AD85H   LINE      ---      ---       #1544
      02000113H   SYMBOL    XDATA    WORD      Start1
      02000115H   SYMBOL    XDATA    WORD      Start2
      02000117H   SYMBOL    XDATA    WORD      StartAdr
      02000119H   SYMBOL    XDATA    BYTE      N
      0200011AH   SYMBOL    XDATA    BYTE      K
      0200011BH   SYMBOL    XDATA    BYTE      j
      ---         BLOCKEND  CODE     ---       LVL=1
      ---         BLOCKEND  CODE     ---       LVL=0

      0100AE32H   BLOCK     CODE     ---       LVL=0
      0100AE32H   LINE      ---      ---       #1576
      0100AE32H   LINE      ---      ---       #1577
      0100AE32H   LINE      ---      ---       #1578
      0100AE38H   LINE      ---      ---       #1579
      0100AE3CH   LINE      ---      ---       #1580
      ---         BLOCKEND  ---      ---       LVL=0

      0100A071H   BLOCK     CODE     ---       LVL=0
      0100A071H   LINE      ---      ---       #1583
      0100A071H   LINE      ---      ---       #1584
      0100A071H   BLOCK     CODE     NEAR LAB  LVL=1
      0100A071H   LINE      ---      ---       #1585
      0100A074H   LINE      ---      ---       #1588
      0100A076H   LINE      ---      ---       #1592
      0100A07EH   LINE      ---      ---       #1594
      0100A07EH   LINE      ---      ---       #1595
LX51 LINKER/LOCATER V4.66.1.0                                                         04/08/2019  16:56:50  PAGE 60


      0100A080H   LINE      ---      ---       #1596
      0100A080H   LINE      ---      ---       #1597
      0100A085H   LINE      ---      ---       #1598
      0100A088H   LINE      ---      ---       #1603
      0100A0BBH   LINE      ---      ---       #1607
      0100A0BBH   LINE      ---      ---       #1608
      0100A0C5H   LINE      ---      ---       #1610
      0100A0D1H   LINE      ---      ---       #1613
      0100A0D3H   LINE      ---      ---       #1615
      0100A0D3H   LINE      ---      ---       #1616
      0100A0E0H   LINE      ---      ---       #1618
      0100A0E0H   LINE      ---      ---       #1620
      0100A0F0H   LINE      ---      ---       #1621
      0100A0F0H   LINE      ---      ---       #1622
      0100A0F6H   LINE      ---      ---       #1623
      0100A0FCH   LINE      ---      ---       #1625
      0100A106H   LINE      ---      ---       #1630
      0100A108H   LINE      ---      ---       #1632
      0100A108H   LINE      ---      ---       #1633
      0100A115H   LINE      ---      ---       #1635
      0100A115H   LINE      ---      ---       #1637
      0100A12DH   LINE      ---      ---       #1639
      0100A12DH   LINE      ---      ---       #1640
      0100A133H   LINE      ---      ---       #1641
      0100A13CH   LINE      ---      ---       #1642
      0100A13CH   LINE      ---      ---       #1643
      0100A13FH   LINE      ---      ---       #1645
      0100A13FH   LINE      ---      ---       #1646
      0100A143H   LINE      ---      ---       #1649
      0100A145H   LINE      ---      ---       #1650
      0100A147H   LINE      ---      ---       #1652
      0100A147H   LINE      ---      ---       #1653
      0100A14CH   LINE      ---      ---       #1654
      0100A14CH   LINE      ---      ---       #1657
      0100A163H   LINE      ---      ---       #1658
      0100A163H   LINE      ---      ---       #1659
      0100A169H   LINE      ---      ---       #1660
      0100A174H   LINE      ---      ---       #1661
      0100A176H   LINE      ---      ---       #1663
      0100A176H   LINE      ---      ---       #1664
      0100A183H   LINE      ---      ---       #1666
      0100A183H   LINE      ---      ---       #1667
      0100A18EH   LINE      ---      ---       #1668
      0100A18EH   LINE      ---      ---       #1669
      0100A190H   LINE      ---      ---       #1670
      0100A192H   LINE      ---      ---       #1672
      0100A192H   LINE      ---      ---       #1673
      0100A195H   LINE      ---      ---       #1674
      0100A195H   LINE      ---      ---       #1677
      0100A1A0H   LINE      ---      ---       #1678
      0100A1A0H   LINE      ---      ---       #1679
      0100A1A2H   LINE      ---      ---       #1680
      0100A1A4H   LINE      ---      ---       #1682
      0100A1A4H   LINE      ---      ---       #1683
      0100A1A7H   LINE      ---      ---       #1684
      0100A1A7H   LINE      ---      ---       #1687
      0100A1ABH   LINE      ---      ---       #1688
      0100A1ABH   LINE      ---      ---       #1689
      0100A1B4H   LINE      ---      ---       #1690
      0100A1B6H   LINE      ---      ---       #1692
      0100A1B6H   LINE      ---      ---       #1693
      0100A1BDH   LINE      ---      ---       #1694
      0100A1BDH   LINE      ---      ---       #1695
      0100A1C3H   LINE      ---      ---       #1696
      0100A1C3H   LINE      ---      ---       #1697
LX51 LINKER/LOCATER V4.66.1.0                                                         04/08/2019  16:56:50  PAGE 61


      0100A1C3H   LINE      ---      ---       #1711
      0100A1C9H   LINE      ---      ---       #1712
      0100A1C9H   LINE      ---      ---       #1713
      0100A1D7H   LINE      ---      ---       #1714
      0100A1D7H   LINE      ---      ---       #1715
      0100A1EAH   LINE      ---      ---       #1716
      0100A1EAH   LINE      ---      ---       #1717
      0100A1F1H   LINE      ---      ---       #1718
      0100A1F1H   LINE      ---      ---       #1719
      0100A201H   LINE      ---      ---       #1720
      0100A201H   LINE      ---      ---       #1721
      0100A208H   LINE      ---      ---       #1722
      0100A208H   LINE      ---      ---       #1723
      0100A218H   LINE      ---      ---       #1724
      0100A218H   LINE      ---      ---       #1725
      0100A21CH   LINE      ---      ---       #1726
      0100A21CH   LINE      ---      ---       #1727
      0100A228H   LINE      ---      ---       #1728
      0100A228H   LINE      ---      ---       #1729
      0100A22CH   LINE      ---      ---       #1730
      0100A22CH   LINE      ---      ---       #1731
      0100A23CH   LINE      ---      ---       #1732
      0100A23CH   LINE      ---      ---       #1733
      0100A240H   LINE      ---      ---       #1734
      0100A240H   LINE      ---      ---       #1735
      0100A250H   LINE      ---      ---       #1736
      0100A250H   LINE      ---      ---       #1737
      0100A256H   LINE      ---      ---       #1738
      0100A256H   LINE      ---      ---       #1739
      0100A265H   LINE      ---      ---       #1740
      0100A265H   LINE      ---      ---       #1741
      0100A26CH   LINE      ---      ---       #1742
      0100A26CH   LINE      ---      ---       #1743
      0100A27CH   LINE      ---      ---       #1744
      0100A27CH   LINE      ---      ---       #1745
      0100A281H   LINE      ---      ---       #1746
      0100A281H   LINE      ---      ---       #1747
      0100A295H   LINE      ---      ---       #1748
      0100A295H   LINE      ---      ---       #1749
      0100A295H   LINE      ---      ---       #1752
      0100A29BH   LINE      ---      ---       #1753
      0100A29BH   LINE      ---      ---       #1754
      0100A2A0H   LINE      ---      ---       #1755
      0100A2A2H   LINE      ---      ---       #1756
      0100A2A7H   LINE      ---      ---       #1757
      0100A2A7H   LINE      ---      ---       #1758
      0100A2ADH   LINE      ---      ---       #1759
      0100A2AFH   LINE      ---      ---       #1760
      0100A2BDH   LINE      ---      ---       #1761
      0100A2BDH   LINE      ---      ---       #1762
      0100A2C3H   LINE      ---      ---       #1763
      0100A2C5H   LINE      ---      ---       #1764
      0100A2D1H   LINE      ---      ---       #1765
      0100A2D1H   LINE      ---      ---       #1766
      0100A2D7H   LINE      ---      ---       #1767
      0100A2D9H   LINE      ---      ---       #1768
      0100A2E0H   LINE      ---      ---       #1769
      0100A2E0H   LINE      ---      ---       #1770
      0100A2E6H   LINE      ---      ---       #1771
      0100A2E8H   LINE      ---      ---       #1772
      0100A2ECH   LINE      ---      ---       #1773
      0100A2ECH   LINE      ---      ---       #1774
      0100A2F2H   LINE      ---      ---       #1775
      0100A2F4H   LINE      ---      ---       #1776
      0100A2FBH   LINE      ---      ---       #1777
LX51 LINKER/LOCATER V4.66.1.0                                                         04/08/2019  16:56:50  PAGE 62


      0100A2FBH   LINE      ---      ---       #1778
      0100A301H   LINE      ---      ---       #1779
      0100A303H   LINE      ---      ---       #1780
      0100A30AH   LINE      ---      ---       #1781
      0100A30AH   LINE      ---      ---       #1782
      0100A310H   LINE      ---      ---       #1783
      0100A312H   LINE      ---      ---       #1785
      0100A312H   LINE      ---      ---       #1786
      0100A317H   LINE      ---      ---       #1787
      0100A31BH   LINE      ---      ---       #1788
      0100A31BH   LINE      ---      ---       #1790
      0100A327H   LINE      ---      ---       #1791
      0100A327H   LINE      ---      ---       #1792
      0100A32AH   LINE      ---      ---       #1794
      0100A32AH   LINE      ---      ---       #1796
      0100A332H   LINE      ---      ---       #1800
      0100A339H   LINE      ---      ---       #1801
      0100A34FH   LINE      ---      ---       #1802
      0100A34FH   LINE      ---      ---       #1803
      0100A356H   LINE      ---      ---       #1804
      0100A356H   LINE      ---      ---       #1806
      0100A361H   LINE      ---      ---       #1807
      0100A361H   LINE      ---      ---       #1808
      0100A367H   LINE      ---      ---       #1809
      0100A367H   LINE      ---      ---       #1810
      0100A369H   LINE      ---      ---       #1812
      0100A36EH   LINE      ---      ---       #1813
      0100A36EH   LINE      ---      ---       #1814
      0100A376H   LINE      ---      ---       #1815
      0100A376H   LINE      ---      ---       #1816
      0100A37AH   LINE      ---      ---       #1819
      0100A37EH   LINE      ---      ---       #1820
      0100A37EH   LINE      ---      ---       #1821
      0100A383H   LINE      ---      ---       #1822
      0100A383H   LINE      ---      ---       #1823
      0100A388H   LINE      ---      ---       #1824
      0100A388H   LINE      ---      ---       #1825
      0100A394H   LINE      ---      ---       #1827
      0100A394H   LINE      ---      ---       #1828
      0100A394H   LINE      ---      ---       #1830
      0100A39DH   LINE      ---      ---       #1831
      0100A39DH   LINE      ---      ---       #1832
      0100A3A2H   LINE      ---      ---       #1833
      0100A3A2H   LINE      ---      ---       #1834
      0100A3B6H   LINE      ---      ---       #1837
      0100A3B6H   LINE      ---      ---       #1838
      0100A3B6H   LINE      ---      ---       #1839
      0100A3B6H   LINE      ---      ---       #1840
      0100A3B8H   LINE      ---      ---       #1841
      0100A3B8H   LINE      ---      ---       #1842
      0100A3BEH   LINE      ---      ---       #1843
      0100A3BEH   LINE      ---      ---       #1844
      0100A3C2H   LINE      ---      ---       #1845
      0100A3C4H   LINE      ---      ---       #1846
      0100A3CDH   LINE      ---      ---       #1847
      0100A3CDH   LINE      ---      ---       #1848
      0100A3CFH   LINE      ---      ---       #1849
      0100A3CFH   LINE      ---      ---       #1851
      0100A3CFH   LINE      ---      ---       #1853
      0100A3CFH   LINE      ---      ---       #1856
      0100A3CFH   LINE      ---      ---       #1857
      0100A3D1H   LINE      ---      ---       #1859
      0100A3D1H   LINE      ---      ---       #1860
      0100A3D6H   LINE      ---      ---       #1861
      0100A3D6H   LINE      ---      ---       #1862
LX51 LINKER/LOCATER V4.66.1.0                                                         04/08/2019  16:56:50  PAGE 63


      0100A3D7H   LINE      ---      ---       #1863
      0100A3DCH   LINE      ---      ---       #1865
      0100A3DCH   LINE      ---      ---       #1867
      0100A3E4H   LINE      ---      ---       #1868
      0100A3E4H   LINE      ---      ---       #1869
      0100A3E7H   LINE      ---      ---       #1870
      0100A3EAH   LINE      ---      ---       #1871
      0100A3EAH   LINE      ---      ---       #1872
      0100A3F0H   LINE      ---      ---       #1873
      0100A3F0H   LINE      ---      ---       #1874
      0100A3F4H   LINE      ---      ---       #1875
      0100A3F6H   LINE      ---      ---       #1876
      0100A3FDH   LINE      ---      ---       #1877
      0100A3FDH   LINE      ---      ---       #1878
      0100A403H   LINE      ---      ---       #1879
      0100A403H   LINE      ---      ---       #1881
      0100A403H   LINE      ---      ---       #1883
      0100A403H   LINE      ---      ---       #1884
      0100A413H   LINE      ---      ---       #1886
      0100A415H   LINE      ---      ---       #1887
      0100A436H   LINE      ---      ---       #1891
      0100A436H   LINE      ---      ---       #1893
      0100A43EH   LINE      ---      ---       #1894
      0100A43EH   LINE      ---      ---       #1895
      0100A441H   LINE      ---      ---       #1896
      0100A445H   LINE      ---      ---       #1897
      0100A445H   LINE      ---      ---       #1899
      0100A44BH   LINE      ---      ---       #1900
      0100A44BH   LINE      ---      ---       #1901
      0100A44FH   LINE      ---      ---       #1902
      0100A451H   LINE      ---      ---       #1903
      0100A458H   LINE      ---      ---       #1904
      0100A458H   LINE      ---      ---       #1905
      0100A45AH   LINE      ---      ---       #1906
      0100A45AH   LINE      ---      ---       #1908
      0100A45AH   LINE      ---      ---       #1910
      0100A45AH   LINE      ---      ---       #1913
      0100A45AH   LINE      ---      ---       #1915
      0100A464H   LINE      ---      ---       #1916
      0100A464H   LINE      ---      ---       #1917
      0100A469H   LINE      ---      ---       #1918
      0100A46BH   LINE      ---      ---       #1919
      0100A46BH   LINE      ---      ---       #1920
      0100A46FH   LINE      ---      ---       #1921
      0100A46FH   LINE      ---      ---       #1922
      0100A47FH   LINE      ---      ---       #1923
      0100A47FH   LINE      ---      ---       #1924
      0100A484H   LINE      ---      ---       #1925
      0100A486H   LINE      ---      ---       #1926
      0100A486H   LINE      ---      ---       #1927
      0100A48AH   LINE      ---      ---       #1928
      0100A48AH   LINE      ---      ---       #1929
      0100A48EH   LINE      ---      ---       #1930
      0100A48EH   LINE      ---      ---       #1932
      0100A48EH   LINE      ---      ---       #1934
      0100A48EH   LINE      ---      ---       #1935
      0100A48EH   LINE      ---      ---       #1936
      0100A490H   LINE      ---      ---       #1938
      0100A490H   LINE      ---      ---       #1939
      0100A490H   LINE      ---      ---       #1940
      0100A492H   LINE      ---      ---       #1941
      0100A49CH   LINE      ---      ---       #1943
      0100A49CH   LINE      ---      ---       #1944
      0100A49EH   LINE      ---      ---       #1946
      0100A49EH   LINE      ---      ---       #1947
LX51 LINKER/LOCATER V4.66.1.0                                                         04/08/2019  16:56:50  PAGE 64


      0100A4A6H   LINE      ---      ---       #1948
      0100A4A6H   LINE      ---      ---       #1949
      0100A4A9H   LINE      ---      ---       #1950
      0100A4ADH   LINE      ---      ---       #1951
      0100A4ADH   LINE      ---      ---       #1954
      0100A4B5H   LINE      ---      ---       #1955
      0100A4B5H   LINE      ---      ---       #1956
      0100A4B8H   LINE      ---      ---       #1957
      0100A4BAH   LINE      ---      ---       #1959
      0100A4BAH   LINE      ---      ---       #1960
      0100A4BDH   LINE      ---      ---       #1961
      0100A4BDH   LINE      ---      ---       #1962
      0100A4C1H   LINE      ---      ---       #1963
      0100A4C1H   LINE      ---      ---       #1964
      0100A4C1H   LINE      ---      ---       #1965
      0100A4C5H   LINE      ---      ---       #1966
      0100A4C5H   LINE      ---      ---       #1967
      0100A4E8H   LINE      ---      ---       #1971
      0100A4E8H   LINE      ---      ---       #1972
      0100A4E8H   LINE      ---      ---       #1974
      0100A4E8H   LINE      ---      ---       #1975
      0100A4EDH   LINE      ---      ---       #1976
      0100A4EDH   LINE      ---      ---       #1977
      0100A4EDH   LINE      ---      ---       #1979
      0100A4EDH   LINE      ---      ---       #1981
      0100A4EDH   LINE      ---      ---       #1983
      0100A500H   LINE      ---      ---       #1988
      0100A50DH   LINE      ---      ---       #1989
      0100A50DH   LINE      ---      ---       #1990
      0100A510H   LINE      ---      ---       #1991
      0100A512H   LINE      ---      ---       #1993
      0100A512H   LINE      ---      ---       #1994
      0100A515H   LINE      ---      ---       #1995
      0100A515H   LINE      ---      ---       #1996
      0100A519H   LINE      ---      ---       #1997
      0100A519H   LINE      ---      ---       #1998
      0100A519H   LINE      ---      ---       #1999
      0100A51DH   LINE      ---      ---       #2000
      0100A51DH   LINE      ---      ---       #2001
      0100A53FH   LINE      ---      ---       #2005
      0100A53FH   LINE      ---      ---       #2006
      0100A53FH   LINE      ---      ---       #2008
      0100A53FH   LINE      ---      ---       #2009
      0100A544H   LINE      ---      ---       #2010
      0100A544H   LINE      ---      ---       #2011
      0100A544H   LINE      ---      ---       #2013
      0100A544H   LINE      ---      ---       #2015
      0100A544H   LINE      ---      ---       #2017
      0100A560H   LINE      ---      ---       #2020
      0100A560H   LINE      ---      ---       #2021
      0100A560H   LINE      ---      ---       #2022
      0100A566H   LINE      ---      ---       #2023
      0100A566H   LINE      ---      ---       #2024
      0100A569H   LINE      ---      ---       #2026
      0100A571H   LINE      ---      ---       #2027
      0100A571H   LINE      ---      ---       #2028
      0100A574H   LINE      ---      ---       #2029
      0100A577H   LINE      ---      ---       #2030
      0100A577H   LINE      ---      ---       #2031
      0100A57DH   LINE      ---      ---       #2032
      0100A57DH   LINE      ---      ---       #2034
      0100A583H   LINE      ---      ---       #2035
      0100A585H   LINE      ---      ---       #2037
      0100A58CH   LINE      ---      ---       #2038
      0100A58CH   LINE      ---      ---       #2039
LX51 LINKER/LOCATER V4.66.1.0                                                         04/08/2019  16:56:50  PAGE 65


      0100A58EH   LINE      ---      ---       #2040
      0100A58EH   LINE      ---      ---       #2042
      0100A58EH   LINE      ---      ---       #2044
      0100A58EH   LINE      ---      ---       #2045
      0100A59BH   LINE      ---      ---       #2047
      0100A59BH   LINE      ---      ---       #2048
      0100A5A4H   LINE      ---      ---       #2049
      0100A5A4H   LINE      ---      ---       #2051
      0100A5A8H   LINE      ---      ---       #2052
      0100A5A8H   LINE      ---      ---       #2053
      0100A5B0H   LINE      ---      ---       #2054
      0100A5B0H   LINE      ---      ---       #2055
      0100A5B4H   LINE      ---      ---       #2057
      0100A5B4H   LINE      ---      ---       #2060
      0100A5B9H   LINE      ---      ---       #2061
      0100A5B9H   LINE      ---      ---       #2062
      0100A5BDH   LINE      ---      ---       #2063
      0100A5BDH   LINE      ---      ---       #2064
      0100A5C2H   LINE      ---      ---       #2065
      0100A5C2H   LINE      ---      ---       #2066
      0100A5CBH   LINE      ---      ---       #2069
      0100A5CBH   LINE      ---      ---       #2070
      0100A5CBH   LINE      ---      ---       #2071
      0100A5CBH   LINE      ---      ---       #2072
      0100A5CDH   LINE      ---      ---       #2073
      0100A5D1H   LINE      ---      ---       #2074
      0100A5D1H   LINE      ---      ---       #2075
      0100A5E5H   LINE      ---      ---       #2078
      0100A5FAH   LINE      ---      ---       #2081
      0100A5FAH   LINE      ---      ---       #2083
      0100A5FAH   LINE      ---      ---       #2085
      0100A5FAH   LINE      ---      ---       #2086
      0100A5FAH   LINE      ---      ---       #2087
      0100A5FCH   LINE      ---      ---       #2088
      0100A5FCH   LINE      ---      ---       #2089
      0100A5FCH   LINE      ---      ---       #2090
      0100A5FCH   LINE      ---      ---       #2092
      0100A5FCH   LINE      ---      ---       #2093
      0100A602H   LINE      ---      ---       #2094
      0100A602H   LINE      ---      ---       #2095
      0100A604H   LINE      ---      ---       #2096
      0100A608H   LINE      ---      ---       #2097
      0100A608H   LINE      ---      ---       #2098
      0100A608H   LINE      ---      ---       #2099
      0100A608H   LINE      ---      ---       #2101
      0100A608H   LINE      ---      ---       #2102
      02000113H   SYMBOL    XDATA    BYTE      color
      02000018H   SYMBOL    XDATA    BYTE      Err_Event_Cnt
      02000114H   SYMBOL    XDATA    BYTE      Err_Event_1
      02000115H   SYMBOL    XDATA    BYTE      Err_Event_2
      02000019H   SYMBOL    XDATA    BYTE      AlarmInfoRem
      ---         BLOCKEND  CODE     ---       LVL=1
      ---         BLOCKEND  CODE     ---       LVL=0

      01009241H   BLOCK     CODE     ---       LVL=0
      01009241H   LINE      ---      ---       #2105
      01009241H   LINE      ---      ---       #2106
      01009241H   BLOCK     CODE     NEAR LAB  LVL=1
      01009241H   LINE      ---      ---       #2107
      01009244H   LINE      ---      ---       #2113
      0100925BH   LINE      ---      ---       #2114
      0100925BH   LINE      ---      ---       #2115
      01009261H   LINE      ---      ---       #2116
      01009261H   LINE      ---      ---       #2119
      0100926BH   LINE      ---      ---       #2120
LX51 LINKER/LOCATER V4.66.1.0                                                         04/08/2019  16:56:50  PAGE 66


      0100926BH   LINE      ---      ---       #2121
      01009296H   LINE      ---      ---       #2123
      01009296H   LINE      ---      ---       #2126
      010092A5H   LINE      ---      ---       #2127
      010092A5H   LINE      ---      ---       #2128
      010092A8H   LINE      ---      ---       #2129
      010092A8H   LINE      ---      ---       #2131
      010092B7H   LINE      ---      ---       #2132
      010092B7H   LINE      ---      ---       #2133
      010092BAH   LINE      ---      ---       #2134
      010092BAH   LINE      ---      ---       #2135
      010092C0H   LINE      ---      ---       #2137
      010092C7H   LINE      ---      ---       #2138
      010092C7H   LINE      ---      ---       #2139
      010092EAH   LINE      ---      ---       #2140
      010092EAH   LINE      ---      ---       #2141
      010092F6H   LINE      ---      ---       #2142
      010092F6H   LINE      ---      ---       #2143
      010092F9H   LINE      ---      ---       #2144
      010092F9H   LINE      ---      ---       #2145
      010092FBH   LINE      ---      ---       #2147
      010092FBH   LINE      ---      ---       #2148
      010092FDH   LINE      ---      ---       #2149
      010092FDH   LINE      ---      ---       #2153
      01009305H   LINE      ---      ---       #2154
      01009310H   LINE      ---      ---       #2155
      01009312H   LINE      ---      ---       #2157
      01009312H   LINE      ---      ---       #2158
      01009314H   LINE      ---      ---       #2159
      01009314H   LINE      ---      ---       #2165
      01009317H   LINE      ---      ---       #2166
      01009317H   LINE      ---      ---       #2168
      01009317H   LINE      ---      ---       #2170
      01009317H   LINE      ---      ---       #2171
      0100931FH   LINE      ---      ---       #2172
      0100931FH   LINE      ---      ---       #2174
      0100932CH   LINE      ---      ---       #2175
      0100932CH   LINE      ---      ---       #2176
      01009333H   LINE      ---      ---       #2178
      01009333H   LINE      ---      ---       #2179
      01009336H   LINE      ---      ---       #2180
      01009336H   LINE      ---      ---       #2181
      01009338H   LINE      ---      ---       #2183
      01009338H   LINE      ---      ---       #2184
      01009341H   LINE      ---      ---       #2185
      01009341H   LINE      ---      ---       #2186
      01009343H   LINE      ---      ---       #2187
      01009343H   LINE      ---      ---       #2188
      01009343H   LINE      ---      ---       #2192
      01009347H   LINE      ---      ---       #2193
      01009347H   LINE      ---      ---       #2194
      0100934FH   LINE      ---      ---       #2195
      0100934FH   LINE      ---      ---       #2196
      01009358H   LINE      ---      ---       #2197
      01009358H   LINE      ---      ---       #2198
      0100935BH   LINE      ---      ---       #2199
      0100935BH   LINE      ---      ---       #2200
      01009365H   LINE      ---      ---       #2201
      01009365H   LINE      ---      ---       #2202
      01009365H   LINE      ---      ---       #2203
      01009365H   LINE      ---      ---       #2204
      01009367H   LINE      ---      ---       #2206
      01009367H   LINE      ---      ---       #2207
      0100936CH   LINE      ---      ---       #2208
      0100936CH   LINE      ---      ---       #2209
LX51 LINKER/LOCATER V4.66.1.0                                                         04/08/2019  16:56:50  PAGE 67


      01009375H   LINE      ---      ---       #2210
      01009375H   LINE      ---      ---       #2211
      0100937EH   LINE      ---      ---       #2212
      0100937EH   LINE      ---      ---       #2213
      0100937EH   LINE      ---      ---       #2215
      0100938DH   LINE      ---      ---       #2216
      0100938DH   LINE      ---      ---       #2217
      01009398H   LINE      ---      ---       #2219
      01009398H   LINE      ---      ---       #2225
      01009398H   LINE      ---      ---       #2226
      010093AFH   LINE      ---      ---       #2227
      010093AFH   LINE      ---      ---       #2228
      010093B5H   LINE      ---      ---       #2229
      010093BAH   LINE      ---      ---       #2230
      010093BAH   LINE      ---      ---       #2231
      010093BDH   LINE      ---      ---       #2232
      010093BDH   LINE      ---      ---       #2233
      010093BFH   LINE      ---      ---       #2235
      010093BFH   LINE      ---      ---       #2236
      010093C8H   LINE      ---      ---       #2237
      010093C8H   LINE      ---      ---       #2238
      010093CAH   LINE      ---      ---       #2239
      010093CAH   LINE      ---      ---       #2240
      010093CAH   LINE      ---      ---       #2241
      010093CAH   LINE      ---      ---       #2243
      010093D1H   LINE      ---      ---       #2244
      010093D1H   LINE      ---      ---       #2245
      010093DDH   LINE      ---      ---       #2247
      010093DDH   LINE      ---      ---       #2248
      010093DFH   LINE      ---      ---       #2249
      010093E1H   LINE      ---      ---       #2251
      010093E1H   LINE      ---      ---       #2252
      010093E8H   LINE      ---      ---       #2253
      010093E8H   LINE      ---      ---       #2255
      010093EDH   LINE      ---      ---       #2256
      010093EFH   LINE      ---      ---       #2257
      010093F3H   LINE      ---      ---       #2258
      010093F3H   LINE      ---      ---       #2259
      01009400H   LINE      ---      ---       #2261
      01009400H   LINE      ---      ---       #2262
      01009403H   LINE      ---      ---       #2263
      01009405H   LINE      ---      ---       #2265
      01009405H   LINE      ---      ---       #2266
      01009407H   LINE      ---      ---       #2267
      01009407H   LINE      ---      ---       #2269
      01009411H   LINE      ---      ---       #2270
      01009411H   LINE      ---      ---       #2272
      01009411H   LINE      ---      ---       #2274
      01009411H   LINE      ---      ---       #2276
      01009427H   LINE      ---      ---       #2277
      01009427H   LINE      ---      ---       #2278
      0100942FH   LINE      ---      ---       #2279
      0100942FH   LINE      ---      ---       #2280
      01009432H   LINE      ---      ---       #2281
      01009432H   LINE      ---      ---       #2282
      01009434H   LINE      ---      ---       #2283
      01009434H   LINE      ---      ---       #2284
      01009439H   LINE      ---      ---       #2285
      01009439H   LINE      ---      ---       #2296
      0100943DH   LINE      ---      ---       #2297
      0100943DH   LINE      ---      ---       #2300
      01009454H   LINE      ---      ---       #2301
      01009454H   LINE      ---      ---       #2302
      01009469H   LINE      ---      ---       #2305
      01009469H   LINE      ---      ---       #2306
LX51 LINKER/LOCATER V4.66.1.0                                                         04/08/2019  16:56:50  PAGE 68


      01009471H   LINE      ---      ---       #2307
      01009471H   LINE      ---      ---       #2308
      01009475H   LINE      ---      ---       #2309
      01009475H   LINE      ---      ---       #2310
      01009477H   LINE      ---      ---       #2312
      01009477H   LINE      ---      ---       #2314
      01009477H   LINE      ---      ---       #2315
      01009477H   LINE      ---      ---       #2316
      01009483H   LINE      ---      ---       #2317
      01009483H   LINE      ---      ---       #2318
      01009492H   LINE      ---      ---       #2319
      01009492H   LINE      ---      ---       #2320
      0100949AH   LINE      ---      ---       #2321
      0100949AH   LINE      ---      ---       #2322
      0100949DH   LINE      ---      ---       #2323
      0100949DH   LINE      ---      ---       #2324
      0100949DH   LINE      ---      ---       #2325
      0100949FH   LINE      ---      ---       #2332
      0100949FH   LINE      ---      ---       #2333
      010094A4H   LINE      ---      ---       #2334
      010094A4H   LINE      ---      ---       #2338
      010094A8H   LINE      ---      ---       #2339
      010094A8H   LINE      ---      ---       #2340
      010094B7H   LINE      ---      ---       #2341
      010094B7H   LINE      ---      ---       #2342
      010094C0H   LINE      ---      ---       #2343
      010094C0H   LINE      ---      ---       #2344
      010094C3H   LINE      ---      ---       #2345
      010094C3H   LINE      ---      ---       #2346
      010094C5H   LINE      ---      ---       #2353
      010094C5H   LINE      ---      ---       #2354
      010094CAH   LINE      ---      ---       #2355
      010094CAH   LINE      ---      ---       #2359
      010094D1H   LINE      ---      ---       #2360
      010094D1H   LINE      ---      ---       #2361
      010094D8H   LINE      ---      ---       #2363
      010094D8H   LINE      ---      ---       #2364
      010094DBH   LINE      ---      ---       #2365
      010094DBH   LINE      ---      ---       #2366
      010094DDH   LINE      ---      ---       #2368
      010094DDH   LINE      ---      ---       #2369
      010094E1H   LINE      ---      ---       #2370
      010094E1H   LINE      ---      ---       #2371
      010094E3H   LINE      ---      ---       #2372
      010094E3H   LINE      ---      ---       #2373
      010094E3H   LINE      ---      ---       #2375
      010094E7H   LINE      ---      ---       #2376
      010094E7H   LINE      ---      ---       #2377
      010094F5H   LINE      ---      ---       #2379
      010094F5H   LINE      ---      ---       #2380
      010094FEH   LINE      ---      ---       #2381
      010094FEH   LINE      ---      ---       #2382
      01009500H   LINE      ---      ---       #2383
      01009500H   LINE      ---      ---       #2385
      01009500H   LINE      ---      ---       #2386
      01009500H   LINE      ---      ---       #2388
      01009500H   LINE      ---      ---       #2389
      01009506H   LINE      ---      ---       #2390
      01009506H   LINE      ---      ---       #2391
      01009506H   LINE      ---      ---       #2392
      01009507H   LINE      ---      ---       #2394
      01009507H   LINE      ---      ---       #2395
      01009507H   LINE      ---      ---       #2396
      01009507H   LINE      ---      ---       #2397
      01009509H   LINE      ---      ---       #2399
LX51 LINKER/LOCATER V4.66.1.0                                                         04/08/2019  16:56:50  PAGE 69


      01009509H   LINE      ---      ---       #2400
      0100950EH   LINE      ---      ---       #2401
      0100950EH   LINE      ---      ---       #2402
      02000113H   SYMBOL    XDATA    WORD      a
      02000115H   SYMBOL    XDATA    WORD      b
      02000117H   SYMBOL    XDATA    WORD      c
      0200001AH   SYMBOL    XDATA    BYTE      No_Water_Times
      0200001BH   SYMBOL    XDATA    BYTE      RT_SHIDU_More_then_90_Cnt
      0200001CH   SYMBOL    XDATA    WORD      Last1s_RThumity
      0200001EH   SYMBOL    XDATA    WORD      Last1s_RTtemp
      ---         BLOCKEND  CODE     ---       LVL=1
      ---         BLOCKEND  CODE     ---       LVL=0

      01009561H   BLOCK     CODE     ---       LVL=0
      01009561H   LINE      ---      ---       #2404
      01009561H   LINE      ---      ---       #2405
      01009561H   BLOCK     CODE     NEAR LAB  LVL=1
      01009561H   LINE      ---      ---       #2409
      0100956AH   LINE      ---      ---       #2410
      0100956AH   LINE      ---      ---       #2411
      0100956EH   LINE      ---      ---       #2413
      0100956EH   LINE      ---      ---       #2414
      01009570H   LINE      ---      ---       #2415
      01009570H   LINE      ---      ---       #2416
      01009570H   LINE      ---      ---       #2417
      01009578H   LINE      ---      ---       #2418
      01009578H   LINE      ---      ---       #2419
      0100957FH   LINE      ---      ---       #2420
      0100957FH   LINE      ---      ---       #2422
      01009581H   LINE      ---      ---       #2425
      01009587H   LINE      ---      ---       #2426
      01009587H   LINE      ---      ---       #2427
      01009589H   LINE      ---      ---       #2428
      01009593H   LINE      ---      ---       #2429
      01009593H   LINE      ---      ---       #2430
      01009598H   LINE      ---      ---       #2434
      01009598H   LINE      ---      ---       #2435
      010095A1H   LINE      ---      ---       #2439
      010095BAH   LINE      ---      ---       #2440
      010095BFH   LINE      ---      ---       #2444
      010095C6H   LINE      ---      ---       #2445
      010095C6H   LINE      ---      ---       #2446
      010095C8H   LINE      ---      ---       #2447
      010095CCH   LINE      ---      ---       #2448
      010095CEH   LINE      ---      ---       #2450
      010095CEH   LINE      ---      ---       #2451
      010095D0H   LINE      ---      ---       #2452
      010095D0H   LINE      ---      ---       #2453
      010095DFH   LINE      ---      ---       #2454
      010095E4H   LINE      ---      ---       #2455
      010095F3H   LINE      ---      ---       #2458
      010095F3H   LINE      ---      ---       #2460
      010095FBH   LINE      ---      ---       #2461
      01009601H   LINE      ---      ---       #2462
      01009601H   LINE      ---      ---       #2463
      01009608H   LINE      ---      ---       #2464
      01009608H   LINE      ---      ---       #2465
      0100960EH   LINE      ---      ---       #2466
      0100960EH   LINE      ---      ---       #2467
      01009615H   LINE      ---      ---       #2468
      01009615H   LINE      ---      ---       #2469
      0100961BH   LINE      ---      ---       #2470
      0100961BH   LINE      ---      ---       #2471
      01009622H   LINE      ---      ---       #2472
      01009622H   LINE      ---      ---       #2473
LX51 LINKER/LOCATER V4.66.1.0                                                         04/08/2019  16:56:50  PAGE 70


      01009631H   LINE      ---      ---       #2475
      0100963EH   LINE      ---      ---       #2476
      01009653H   LINE      ---      ---       #2482
      01009662H   LINE      ---      ---       #2484
      01009671H   LINE      ---      ---       #2486
      01009671H   LINE      ---      ---       #2487
      01009678H   LINE      ---      ---       #2488
      01009678H   LINE      ---      ---       #2489
      0100967BH   LINE      ---      ---       #2490
      0100967BH   LINE      ---      ---       #2491
      01009682H   LINE      ---      ---       #2492
      01009682H   LINE      ---      ---       #2494
      01009689H   LINE      ---      ---       #2495
      01009689H   LINE      ---      ---       #2496
      01009694H   LINE      ---      ---       #2497
      01009694H   LINE      ---      ---       #2498
      01009694H   LINE      ---      ---       #2499
      0100969BH   LINE      ---      ---       #2500
      0100969BH   LINE      ---      ---       #2502
      010096A2H   LINE      ---      ---       #2503
      010096A2H   LINE      ---      ---       #2504
      010096ADH   LINE      ---      ---       #2505
      010096B4H   LINE      ---      ---       #2506
      010096B4H   LINE      ---      ---       #2507
      010096B4H   LINE      ---      ---       #2508
      010096B4H   LINE      ---      ---       #2509
      010096B4H   LINE      ---      ---       #2511
      010096B4H   LINE      ---      ---       #2513
      010096B4H   LINE      ---      ---       #2515
      010096B4H   LINE      ---      ---       #2516
      02000020H   SYMBOL    XDATA    BYTE      Enable_Save_Data
      00000006H   SYMBOL    DATA     WORD      a
      02000113H   SYMBOL    XDATA    WORD      b
      00000004H   SYMBOL    DATA     WORD      c
      02000115H   SYMBOL    XDATA    DWORD     Adress
      ---         BLOCKEND  CODE     ---       LVL=1
      ---         BLOCKEND  CODE     ---       LVL=0

      0100822BH   BLOCK     CODE     ---       LVL=0
      0100822BH   LINE      ---      ---       #2519
      0100822BH   LINE      ---      ---       #2520
      0100822BH   BLOCK     CODE     NEAR LAB  LVL=1
      0100822BH   LINE      ---      ---       #2521
      0100822EH   LINE      ---      ---       #2523
      01008231H   LINE      ---      ---       #2524
      01008233H   LINE      ---      ---       #2525
      01008236H   LINE      ---      ---       #2526
      01008239H   LINE      ---      ---       #2527
      0100823CH   LINE      ---      ---       #2528
      0100823FH   LINE      ---      ---       #2529
      01008241H   LINE      ---      ---       #2530
      01008244H   LINE      ---      ---       #2531
      01008247H   LINE      ---      ---       #2533
      0100824AH   LINE      ---      ---       #2534
      0100824CH   LINE      ---      ---       #2535
      01008250H   LINE      ---      ---       #2536
      01008252H   LINE      ---      ---       #2537
      01008254H   LINE      ---      ---       #2538
      01008256H   LINE      ---      ---       #2539
      01008258H   LINE      ---      ---       #2540
      0100825AH   LINE      ---      ---       #2541
      0100825CH   LINE      ---      ---       #2542
      0100825EH   LINE      ---      ---       #2543
      01008260H   LINE      ---      ---       #2544
      01008266H   LINE      ---      ---       #2545
LX51 LINKER/LOCATER V4.66.1.0                                                         04/08/2019  16:56:50  PAGE 71


      01008268H   LINE      ---      ---       #2547
      0100826BH   LINE      ---      ---       #2548
      0100826EH   LINE      ---      ---       #2549
      01008270H   LINE      ---      ---       #2552
      01008276H   LINE      ---      ---       #2553
      01008276H   LINE      ---      ---       #2554
      0100827CH   LINE      ---      ---       #2555
      0100827EH   LINE      ---      ---       #2557
      0100827EH   LINE      ---      ---       #2558
      01008284H   LINE      ---      ---       #2559
      01008284H   LINE      ---      ---       #2562
      0100828EH   LINE      ---      ---       #2563
      0100828EH   LINE      ---      ---       #2564
      01008294H   LINE      ---      ---       #2565
      01008296H   LINE      ---      ---       #2566
      01008298H   LINE      ---      ---       #2567
      0100829BH   LINE      ---      ---       #2569
      010082A4H   LINE      ---      ---       #2571
      010082AAH   LINE      ---      ---       #2572
      010082AAH   LINE      ---      ---       #2573
      010082CAH   LINE      ---      ---       #2575
      010082E1H   LINE      ---      ---       #2576
      010082E1H   LINE      ---      ---       #2577
      010082F4H   LINE      ---      ---       #2579
      0100830DH   LINE      ---      ---       #2584
      01008310H   LINE      ---      ---       #2585
      01008312H   LINE      ---      ---       #2586
      01008312H   LINE      ---      ---       #2588
      01008317H   LINE      ---      ---       #2589
      02000113H   SYMBOL    XDATA    WORD      j
      ---         BLOCKEND  CODE     ---       LVL=1
      ---         BLOCKEND  CODE     ---       LVL=0

      0100ADA7H   BLOCK     CODE     ---       LVL=0
      0100ADA7H   LINE      ---      ---       #2591
      0100ADA7H   LINE      ---      ---       #2592
      0100ADA7H   LINE      ---      ---       #2593
      0100ADA9H   LINE      ---      ---       #2595
      0100ADB3H   LINE      ---      ---       #2597
      0100ADB8H   LINE      ---      ---       #2598
      0100ADBAH   LINE      ---      ---       #2599
      0100ADBEH   LINE      ---      ---       #2600
      0100ADC2H   LINE      ---      ---       #2602
      0100ADC8H   LINE      ---      ---       #2604
      0100ADCDH   LINE      ---      ---       #2605
      0100ADD1H   LINE      ---      ---       #2607
      0100ADD5H   LINE      ---      ---       #2608
      0100ADD9H   LINE      ---      ---       #2610
      0100ADDEH   LINE      ---      ---       #2613
      0100ADE7H   LINE      ---      ---       #2614
      0100ADE9H   LINE      ---      ---       #2616
      0100ADFDH   LINE      ---      ---       #2617
      0100AE03H   LINE      ---      ---       #2620
      0100AE07H   LINE      ---      ---       #2621
      ---         BLOCKEND  ---      ---       LVL=0

      0100744EH   BLOCK     CODE     ---       LVL=0
      0100744EH   LINE      ---      ---       #2627
      0100744EH   LINE      ---      ---       #2628
      0100744EH   BLOCK     CODE     NEAR LAB  LVL=1
      0100744EH   LINE      ---      ---       #2631
      01007451H   LINE      ---      ---       #2634
      01007469H   LINE      ---      ---       #2635
      01007469H   LINE      ---      ---       #2636
      01007473H   LINE      ---      ---       #2638
LX51 LINKER/LOCATER V4.66.1.0                                                         04/08/2019  16:56:50  PAGE 72


      01007475H   LINE      ---      ---       #2640
      01007475H   LINE      ---      ---       #2641
      0100747AH   LINE      ---      ---       #2642
      0100747AH   LINE      ---      ---       #2644
      01007483H   LINE      ---      ---       #2645
      01007483H   LINE      ---      ---       #2646
      0100748BH   LINE      ---      ---       #2648
      0100748DH   LINE      ---      ---       #2650
      0100748DH   LINE      ---      ---       #2651
      01007492H   LINE      ---      ---       #2652
      01007492H   LINE      ---      ---       #2654
      010074A3H   LINE      ---      ---       #2655
      010074A3H   LINE      ---      ---       #2656
      010074A9H   LINE      ---      ---       #2657
      010074ACH   LINE      ---      ---       #2659
      010074AEH   LINE      ---      ---       #2661
      010074AEH   LINE      ---      ---       #2662
      010074B3H   LINE      ---      ---       #2663
      010074B3H   LINE      ---      ---       #2666
      010074BCH   LINE      ---      ---       #2667
      010074BCH   LINE      ---      ---       #2668
      010074C2H   LINE      ---      ---       #2669
      010074C9H   LINE      ---      ---       #2670
      010074CBH   LINE      ---      ---       #2672
      010074CBH   LINE      ---      ---       #2673
      010074D0H   LINE      ---      ---       #2674
      010074D0H   LINE      ---      ---       #2678
      010074D0H   LINE      ---      ---       #2679
      010074D6H   LINE      ---      ---       #2681
      010074D6H   LINE      ---      ---       #2682
      010074DDH   LINE      ---      ---       #2684
      010074E4H   LINE      ---      ---       #2685
      010074E4H   LINE      ---      ---       #2686
      010074EFH   LINE      ---      ---       #2687
      010074F7H   LINE      ---      ---       #2688
      010074FBH   LINE      ---      ---       #2689
      01007503H   LINE      ---      ---       #2690
      01007505H   LINE      ---      ---       #2692
      01007505H   LINE      ---      ---       #2693
      0100750DH   LINE      ---      ---       #2694
      01007513H   LINE      ---      ---       #2695
      0100751CH   LINE      ---      ---       #2696
      0100752EH   LINE      ---      ---       #2697
      0100752EH   LINE      ---      ---       #2700
      01007536H   LINE      ---      ---       #2702
      01007536H   LINE      ---      ---       #2703
      01007551H   LINE      ---      ---       #2706
      01007559H   LINE      ---      ---       #2707
      0100755BH   LINE      ---      ---       #2709
      0100755BH   LINE      ---      ---       #2710
      0100756BH   LINE      ---      ---       #2712
      01007574H   LINE      ---      ---       #2713
      01007584H   LINE      ---      ---       #2714
      01007584H   LINE      ---      ---       #2717
      0100758CH   LINE      ---      ---       #2719
      0100758CH   LINE      ---      ---       #2720
      010075A4H   LINE      ---      ---       #2723
      010075B5H   LINE      ---      ---       #2724
      010075B7H   LINE      ---      ---       #2726
      010075B7H   LINE      ---      ---       #2727
      010075C4H   LINE      ---      ---       #2729
      010075CEH   LINE      ---      ---       #2730
      010075DEH   LINE      ---      ---       #2731
      010075DEH   LINE      ---      ---       #2734
      010075DEH   LINE      ---      ---       #2735
LX51 LINKER/LOCATER V4.66.1.0                                                         04/08/2019  16:56:50  PAGE 73


      02000113H   SYMBOL    XDATA    WORD      Disp
      02000115H   SYMBOL    XDATA    WORD      color
      ---         BLOCKEND  CODE     ---       LVL=1
      ---         BLOCKEND  CODE     ---       LVL=0

      0100666BH   BLOCK     CODE     ---       LVL=0
      0100666FH   LINE      ---      ---       #2742
      0100666FH   LINE      ---      ---       #2743
      0100666FH   LINE      ---      ---       #2744
      01006675H   LINE      ---      ---       #2745
      0100667FH   LINE      ---      ---       #2746
      0100668AH   LINE      ---      ---       #2747
      01006695H   LINE      ---      ---       #2748
      010066A0H   LINE      ---      ---       #2749
      010066ABH   LINE      ---      ---       #2750
      010066B6H   LINE      ---      ---       #2751
      010066C1H   LINE      ---      ---       #2752
      ---         BLOCKEND  ---      ---       LVL=0

      0100AFE8H   BLOCK     CODE     ---       LVL=0
      0100AFE8H   LINE      ---      ---       #2756
      0100AFE8H   LINE      ---      ---       #2757
      0100AFE8H   LINE      ---      ---       #2758
      0100AFEEH   LINE      ---      ---       #2759
      0100AFF2H   LINE      ---      ---       #2760
      0100AFF6H   LINE      ---      ---       #2761
      0100AFFAH   LINE      ---      ---       #2763
      0100AFFEH   LINE      ---      ---       #2764
      0100B002H   LINE      ---      ---       #2767
      ---         BLOCKEND  ---      ---       LVL=0

      01006373H   BLOCK     CODE     ---       LVL=0
      01006373H   LINE      ---      ---       #2771
      01006373H   LINE      ---      ---       #2772
      01006373H   LINE      ---      ---       #2773
      0100637DH   LINE      ---      ---       #2774
      01006388H   LINE      ---      ---       #2775
      01006393H   LINE      ---      ---       #2776
      0100639EH   LINE      ---      ---       #2777
      010063A9H   LINE      ---      ---       #2778
      010063B4H   LINE      ---      ---       #2779
      010063BFH   LINE      ---      ---       #2780
      010063CAH   LINE      ---      ---       #2782
      01006425H   LINE      ---      ---       #2797
      01006425H   LINE      ---      ---       #2798
      0100642AH   LINE      ---      ---       #2799
      0100642DH   LINE      ---      ---       #2800
      0100642DH   LINE      ---      ---       #2801
      ---         BLOCKEND  ---      ---       LVL=0

      0100B005H   BLOCK     CODE     ---       LVL=0
      0100B005H   LINE      ---      ---       #2805
      0100B005H   LINE      ---      ---       #2806
      0100B005H   LINE      ---      ---       #2807
      0100B00CH   LINE      ---      ---       #2808
      0100B00CH   LINE      ---      ---       #2809
      0100B00FH   LINE      ---      ---       #2810
      0100B00FH   LINE      ---      ---       #2812
      0100B018H   LINE      ---      ---       #2813
      0100B022H   LINE      ---      ---       #2814
      0100B02CH   LINE      ---      ---       #2815
      0100B036H   LINE      ---      ---       #2816
      0100B040H   LINE      ---      ---       #2817
      0100B048H   LINE      ---      ---       #2819
      0100B04BH   LINE      ---      ---       #2820
LX51 LINKER/LOCATER V4.66.1.0                                                         04/08/2019  16:56:50  PAGE 74


      0100B04BH   LINE      ---      ---       #2821
      0100B050H   LINE      ---      ---       #2822
      0100B053H   LINE      ---      ---       #2823
      0100B055H   LINE      ---      ---       #2825
      0100B055H   LINE      ---      ---       #2826
      0100B057H   LINE      ---      ---       #2827
      ---         BLOCKEND  ---      ---       LVL=0

      01009FFEH   BLOCK     CODE     ---       LVL=0
      01009FFEH   LINE      ---      ---       #2840
      01009FFEH   LINE      ---      ---       #2841
      01009FFEH   LINE      ---      ---       #2842
      0100A00DH   LINE      ---      ---       #2843
      0100A00DH   LINE      ---      ---       #2848
      0100A023H   LINE      ---      ---       #2849
      0100A023H   LINE      ---      ---       #2850
      0100A023H   LINE      ---      ---       #2852
      0100A023H   LINE      ---      ---       #2853
      0100A029H   LINE      ---      ---       #2854
      0100A029H   LINE      ---      ---       #2855
      0100A030H   LINE      ---      ---       #2856
      0100A03DH   LINE      ---      ---       #2857
      0100A03DH   LINE      ---      ---       #2858
      0100A043H   LINE      ---      ---       #2859
      0100A045H   LINE      ---      ---       #2861
      0100A045H   LINE      ---      ---       #2862
      0100A04AH   LINE      ---      ---       #2863
      0100A04AH   LINE      ---      ---       #2864
      0100A053H   LINE      ---      ---       #2865
      0100A05AH   LINE      ---      ---       #2866
      0100A060H   LINE      ---      ---       #2867
      0100A061H   LINE      ---      ---       #2875
      0100A061H   LINE      ---      ---       #2876
      0100A068H   LINE      ---      ---       #2877
      0100A068H   LINE      ---      ---       #2879
      ---         BLOCKEND  ---      ---       LVL=0

      0100B7C9H   BLOCK     CODE     ---       LVL=0
      0100B7C9H   LINE      ---      ---       #2899
      0100B7C9H   LINE      ---      ---       #2900
      0100B7C9H   BLOCK     CODE     NEAR LAB  LVL=1
      0100B7C9H   LINE      ---      ---       #2907
      0100B7DAH   LINE      ---      ---       #2908
      0100B7DAH   LINE      ---      ---       #2909
      0100B7DDH   LINE      ---      ---       #2910
      0100B7DDH   LINE      ---      ---       #2911
      0100B7EEH   LINE      ---      ---       #2912
      0100B7EEH   LINE      ---      ---       #2913
      0100B7F1H   LINE      ---      ---       #2914
      0100B7F1H   LINE      ---      ---       #2916
      0100B7FFH   LINE      ---      ---       #2917
      0100B810H   LINE      ---      ---       #2918
      0100B810H   LINE      ---      ---       #2919
      0100B812H   LINE      ---      ---       #2920
      0100B812H   LINE      ---      ---       #2921
      0100B812H   LINE      ---      ---       #2922
      0100B812H   LINE      ---      ---       #2924
      0100B812H   LINE      ---      ---       #2925
      0100B824H   LINE      ---      ---       #2929
      0100B84FH   LINE      ---      ---       #2930
      0100B854H   LINE      ---      ---       #2931
      0100B85DH   LINE      ---      ---       #2934
      0100B85DH   LINE      ---      ---       #2935
      0100B862H   LINE      ---      ---       #2936
      0100B864H   LINE      ---      ---       #2937
LX51 LINKER/LOCATER V4.66.1.0                                                         04/08/2019  16:56:50  PAGE 75


      0100B86FH   LINE      ---      ---       #2938
      0100B86FH   LINE      ---      ---       #2939
      0100B873H   LINE      ---      ---       #2940
      0100B873H   LINE      ---      ---       #2942
      0100B873H   LINE      ---      ---       #2944
      0100B873H   LINE      ---      ---       #2946
      0100B885H   LINE      ---      ---       #2948
      0100B88AH   LINE      ---      ---       #2949
      00000002H   SYMBOL    DATA     INT       Vlaue1
      00000006H   SYMBOL    DATA     INT       tmp
      02000021H   SYMBOL    XDATA    INT       Controler_Kp
      02000023H   SYMBOL    XDATA    INT       Controler_Ki
      02000025H   SYMBOL    XDATA    INT       Controler_Kd
      ---         BLOCKEND  CODE     ---       LVL=1
      ---         BLOCKEND  CODE     ---       LVL=0

      0100B898H   BLOCK     CODE     ---       LVL=0
      0100B898H   LINE      ---      ---       #2954
      0100B898H   LINE      ---      ---       #2955
      0100B898H   BLOCK     CODE     NEAR LAB  LVL=1
      0100B898H   LINE      ---      ---       #2963
      0100B8A9H   LINE      ---      ---       #2964
      0100B8A9H   LINE      ---      ---       #2965
      0100B8ABH   LINE      ---      ---       #2966
      0100B8ABH   LINE      ---      ---       #2967
      0100B8BCH   LINE      ---      ---       #2968
      0100B8BCH   LINE      ---      ---       #2969
      0100B8BEH   LINE      ---      ---       #2970
      0100B8BEH   LINE      ---      ---       #2972
      0100B8CBH   LINE      ---      ---       #2973
      0100B8DCH   LINE      ---      ---       #2974
      0100B8DCH   LINE      ---      ---       #2975
      0100B8DEH   LINE      ---      ---       #2976
      0100B8DEH   LINE      ---      ---       #2977
      0100B8EFH   LINE      ---      ---       #2978
      0100B8EFH   LINE      ---      ---       #2979
      0100B8F6H   LINE      ---      ---       #2980
      0100B8F6H   LINE      ---      ---       #2982
      0100B908H   LINE      ---      ---       #2986
      0100B933H   LINE      ---      ---       #2987
      0100B938H   LINE      ---      ---       #2988
      0100B941H   LINE      ---      ---       #2991
      0100B941H   LINE      ---      ---       #2992
      0100B946H   LINE      ---      ---       #2993
      0100B948H   LINE      ---      ---       #2994
      0100B953H   LINE      ---      ---       #2995
      0100B953H   LINE      ---      ---       #2996
      0100B957H   LINE      ---      ---       #2997
      0100B957H   LINE      ---      ---       #2999
      0100B957H   LINE      ---      ---       #3001
      0100B957H   LINE      ---      ---       #3003
      0100B969H   LINE      ---      ---       #3005
      0100B96EH   LINE      ---      ---       #3006
      00000002H   SYMBOL    DATA     INT       Vlaue1
      00000006H   SYMBOL    DATA     INT       tmp
      02000027H   SYMBOL    XDATA    INT       Controler_Kp2
      02000029H   SYMBOL    XDATA    INT       Controler_Ki2
      0200002BH   SYMBOL    XDATA    INT       Controler_Kd2
      ---         BLOCKEND  CODE     ---       LVL=1
      ---         BLOCKEND  CODE     ---       LVL=0

      0100B97CH   BLOCK     CODE     ---       LVL=0
      0100B97CH   LINE      ---      ---       #3011
      0100B97CH   LINE      ---      ---       #3012
      0100B97CH   BLOCK     CODE     NEAR LAB  LVL=1
LX51 LINKER/LOCATER V4.66.1.0                                                         04/08/2019  16:56:50  PAGE 76


      0100B97CH   LINE      ---      ---       #3019
      0100B98DH   LINE      ---      ---       #3020
      0100B98DH   LINE      ---      ---       #3021
      0100B98FH   LINE      ---      ---       #3022
      0100B98FH   LINE      ---      ---       #3023
      0100B9A0H   LINE      ---      ---       #3024
      0100B9A0H   LINE      ---      ---       #3025
      0100B9A2H   LINE      ---      ---       #3026
      0100B9A2H   LINE      ---      ---       #3028
      0100B9ACH   LINE      ---      ---       #3029
      0100B9BDH   LINE      ---      ---       #3030
      0100B9BDH   LINE      ---      ---       #3031
      0100B9C4H   LINE      ---      ---       #3032
      0100B9C4H   LINE      ---      ---       #3033
      0100B9D5H   LINE      ---      ---       #3034
      0100B9D5H   LINE      ---      ---       #3035
      0100B9DCH   LINE      ---      ---       #3036
      0100B9DCH   LINE      ---      ---       #3038
      0100B9F4H   LINE      ---      ---       #3042
      0100B9F6H   LINE      ---      ---       #3044
      0100BA14H   LINE      ---      ---       #3045
      0100BA16H   LINE      ---      ---       #3046
      0100BA1FH   LINE      ---      ---       #3048
      0100BA29H   LINE      ---      ---       #3049
      0100BA29H   LINE      ---      ---       #3050
      0100BA33H   LINE      ---      ---       #3051
      0100BA35H   LINE      ---      ---       #3052
      0100BA46H   LINE      ---      ---       #3053
      0100BA46H   LINE      ---      ---       #3054
      0100BA4DH   LINE      ---      ---       #3055
      0100BA4DH   LINE      ---      ---       #3057
      0100BA4DH   LINE      ---      ---       #3059
      0100BA4DH   LINE      ---      ---       #3061
      0100BA5FH   LINE      ---      ---       #3063
      0100BA64H   LINE      ---      ---       #3064
      00000002H   SYMBOL    DATA     INT       Vlaue1
      00000006H   SYMBOL    DATA     INT       tmp
      0200002DH   SYMBOL    XDATA    INT       Controler_Kp3
      0200002FH   SYMBOL    XDATA    INT       Controler_Ki3
      02000031H   SYMBOL    XDATA    INT       Controler_Kd3
      ---         BLOCKEND  CODE     ---       LVL=1
      ---         BLOCKEND  CODE     ---       LVL=0

      0100BA8CH   BLOCK     CODE     ---       LVL=0
      0100BA8CH   LINE      ---      ---       #3070
      0100BA8CH   LINE      ---      ---       #3071
      0100BA8CH   BLOCK     CODE     NEAR LAB  LVL=1
      0100BA8CH   LINE      ---      ---       #3075
      0100BA93H   LINE      ---      ---       #3079
      0100BA9AH   LINE      ---      ---       #3080
      0100BA9AH   LINE      ---      ---       #3084
      0100BAB9H   LINE      ---      ---       #3087
      0100BABDH   LINE      ---      ---       #3089
      0100BAC8H   LINE      ---      ---       #3091
      0100BAC9H   LINE      ---      ---       #3093
      0100BAC9H   LINE      ---      ---       #3094
      0100BACFH   LINE      ---      ---       #3095
      0100BADEH   LINE      ---      ---       #3096
      0100BADEH   LINE      ---      ---       #3097
      0100BAE5H   LINE      ---      ---       #3098
      0100BAE5H   LINE      ---      ---       #3099
      0100BAF4H   LINE      ---      ---       #3100
      0100BAF4H   LINE      ---      ---       #3102
      0100BB1AH   LINE      ---      ---       #3103
      0100BB1AH   LINE      ---      ---       #3104
LX51 LINKER/LOCATER V4.66.1.0                                                         04/08/2019  16:56:50  PAGE 77


      0100BB1FH   LINE      ---      ---       #3105
      0100BB1FH   LINE      ---      ---       #3106
      0100BB1FH   LINE      ---      ---       #3107
      0100BB21H   LINE      ---      ---       #3109
      0100BB21H   LINE      ---      ---       #3110
      0100BB3EH   LINE      ---      ---       #3111
      0100BB48H   LINE      ---      ---       #3112
      0100BB48H   LINE      ---      ---       #3113
      0100BB51H   LINE      ---      ---       #3114
      0100BB53H   LINE      ---      ---       #3115
      0100BB64H   LINE      ---      ---       #3116
      0100BB64H   LINE      ---      ---       #3117
      0100BB6BH   LINE      ---      ---       #3118
      0100BB6BH   LINE      ---      ---       #3120
      0100BB6BH   LINE      ---      ---       #3122
      0100BB6BH   LINE      ---      ---       #3126
      0100BB75H   LINE      ---      ---       #3127
      0100BB75H   LINE      ---      ---       #3128
      0100BB78H   LINE      ---      ---       #3129
      0100BB81H   LINE      ---      ---       #3130
      0100BB81H   LINE      ---      ---       #3131
      0100BB8AH   LINE      ---      ---       #3132
      0100BB8CH   LINE      ---      ---       #3134
      0100BB8CH   LINE      ---      ---       #3135
      0100BB9CH   LINE      ---      ---       #3136
      0100BB9CH   LINE      ---      ---       #3137
      0100BBB8H   LINE      ---      ---       #3138
      0100BBB8H   LINE      ---      ---       #3140
      0100BBBEH   LINE      ---      ---       #3141
      0100BBCFH   LINE      ---      ---       #3142
      0100BBCFH   LINE      ---      ---       #3143
      0100BBD3H   LINE      ---      ---       #3145
      0100BBE2H   LINE      ---      ---       #3149
      0100BC33H   LINE      ---      ---       #3151
      0100BC3DH   LINE      ---      ---       #3152
      0100BC3DH   LINE      ---      ---       #3153
      0100BC43H   LINE      ---      ---       #3154
      0100BC43H   LINE      ---      ---       #3156
      0100BC4EH   LINE      ---      ---       #3157
      0100BC4EH   LINE      ---      ---       #3158
      0100BC4EH   LINE      ---      ---       #3161
      0100BC67H   LINE      ---      ---       #3164
      0100BC71H   LINE      ---      ---       #3165
      0100BC71H   LINE      ---      ---       #3166
      0100BC72H   LINE      ---      ---       #3168
      0100BC74H   LINE      ---      ---       #3170
      0100BC74H   LINE      ---      ---       #3171
      0100BC7DH   LINE      ---      ---       #3172
      0100BC7DH   LINE      ---      ---       #3173
      0100BC7DH   LINE      ---      ---       #3174
      0100BC7DH   LINE      ---      ---       #3175
      02000033H   SYMBOL    XDATA    INT       err_sum
      02000035H   SYMBOL    XDATA    INT       RT_Temp_Mem
      02000119H   SYMBOL    XDATA    INT       Calc_int
      0200011BH   SYMBOL    XDATA    WORD      Val_Calc
      ---         BLOCKEND  CODE     ---       LVL=1
      ---         BLOCKEND  CODE     ---       LVL=0

      0100BFFBH   BLOCK     CODE     ---       LVL=0
      0100BFFBH   LINE      ---      ---       #3178
      0100BFFBH   LINE      ---      ---       #3179
      0100BFFBH   LINE      ---      ---       #3180
      0100C007H   LINE      ---      ---       #3181
      0100C007H   LINE      ---      ---       #3182
      0100C00CH   LINE      ---      ---       #3183
LX51 LINKER/LOCATER V4.66.1.0                                                         04/08/2019  16:56:50  PAGE 78


      0100C00DH   LINE      ---      ---       #3184
      0100C019H   LINE      ---      ---       #3185
      0100C019H   LINE      ---      ---       #3186
      0100C01EH   LINE      ---      ---       #3187
      0100C01FH   LINE      ---      ---       #3188
      0100C029H   LINE      ---      ---       #3189
      0100C029H   LINE      ---      ---       #3190
      0100C02FH   LINE      ---      ---       #3191
      0100C02FH   LINE      ---      ---       #3193
      0100C02FH   LINE      ---      ---       #3195
      0100C02FH   LINE      ---      ---       #3196
      ---         BLOCKEND  ---      ---       LVL=0

      01008821H   BLOCK     CODE     ---       LVL=0
      01008821H   LINE      ---      ---       #3198
      01008821H   LINE      ---      ---       #3199
      01008821H   BLOCK     CODE     NEAR LAB  LVL=1
      01008821H   LINE      ---      ---       #3207
      01008827H   LINE      ---      ---       #3208
      0100882DH   LINE      ---      ---       #3209
      0100882DH   LINE      ---      ---       #3210
      0100882FH   LINE      ---      ---       #3213
      0100883FH   LINE      ---      ---       #3214
      01008846H   LINE      ---      ---       #3215
      01008846H   LINE      ---      ---       #3216
      0100884CH   LINE      ---      ---       #3217
      01008852H   LINE      ---      ---       #3218
      01008852H   LINE      ---      ---       #3219
      01008855H   LINE      ---      ---       #3220
      0100885AH   LINE      ---      ---       #3221
      0100885AH   LINE      ---      ---       #3222
      0100885CH   LINE      ---      ---       #3224
      0100885CH   LINE      ---      ---       #3225
      01008861H   LINE      ---      ---       #3226
      01008866H   LINE      ---      ---       #3227
      01008866H   LINE      ---      ---       #3228
      0100886DH   LINE      ---      ---       #3229
      0100886DH   LINE      ---      ---       #3232
      0100887AH   LINE      ---      ---       #3233
      0100887AH   LINE      ---      ---       #3234
      0100887CH   LINE      ---      ---       #3235
      0100887EH   LINE      ---      ---       #3237
      0100887EH   LINE      ---      ---       #3238
      01008880H   LINE      ---      ---       #3239
      01008880H   LINE      ---      ---       #3242
      0100888FH   LINE      ---      ---       #3243
      0100888FH   LINE      ---      ---       #3244
      01008891H   LINE      ---      ---       #3245
      01008893H   LINE      ---      ---       #3246
      01008895H   LINE      ---      ---       #3248
      01008895H   LINE      ---      ---       #3249
      01008898H   LINE      ---      ---       #3250
      01008898H   LINE      ---      ---       #3251
      0100889AH   LINE      ---      ---       #3252
      0100889CH   LINE      ---      ---       #3253
      0100889CH   LINE      ---      ---       #3254
      0100889CH   LINE      ---      ---       #3255
      0100889EH   LINE      ---      ---       #3257
      0100889EH   LINE      ---      ---       #3258
      010088A4H   LINE      ---      ---       #3259
      010088A7H   LINE      ---      ---       #3260
      010088A7H   LINE      ---      ---       #3261
      010088ADH   LINE      ---      ---       #3262
      010088ADH   LINE      ---      ---       #3263
      010088B6H   LINE      ---      ---       #3264
LX51 LINKER/LOCATER V4.66.1.0                                                         04/08/2019  16:56:50  PAGE 79


      010088B6H   LINE      ---      ---       #3265
      010088BEH   LINE      ---      ---       #3266
      010088BEH   LINE      ---      ---       #3267
      010088C3H   LINE      ---      ---       #3268
      010088C5H   LINE      ---      ---       #3270
      010088C5H   LINE      ---      ---       #3271
      010088CBH   LINE      ---      ---       #3272
      010088CBH   LINE      ---      ---       #3273
      010088D0H   LINE      ---      ---       #3274
      010088D4H   LINE      ---      ---       #3275
      010088D4H   LINE      ---      ---       #3276
      010088D4H   LINE      ---      ---       #3277
      010088D4H   LINE      ---      ---       #3280
      010088E1H   LINE      ---      ---       #3281
      010088E1H   LINE      ---      ---       #3282
      010088E3H   LINE      ---      ---       #3283
      010088E5H   LINE      ---      ---       #3284
      010088E6H   LINE      ---      ---       #3286
      010088E6H   LINE      ---      ---       #3287
      010088E9H   LINE      ---      ---       #3288
      010088E9H   LINE      ---      ---       #3289
      010088EBH   LINE      ---      ---       #3290
      010088EDH   LINE      ---      ---       #3291
      010088EDH   LINE      ---      ---       #3292
      010088EDH   LINE      ---      ---       #3293
      010088EFH   LINE      ---      ---       #3295
      010088EFH   LINE      ---      ---       #3296
      010088F5H   LINE      ---      ---       #3297
      010088F8H   LINE      ---      ---       #3298
      010088F8H   LINE      ---      ---       #3299
      010088FEH   LINE      ---      ---       #3300
      010088FEH   LINE      ---      ---       #3301
      01008907H   LINE      ---      ---       #3302
      01008907H   LINE      ---      ---       #3303
      0100890FH   LINE      ---      ---       #3304
      0100890FH   LINE      ---      ---       #3305
      01008914H   LINE      ---      ---       #3306
      01008916H   LINE      ---      ---       #3308
      01008916H   LINE      ---      ---       #3309
      0100891CH   LINE      ---      ---       #3310
      0100891CH   LINE      ---      ---       #3311
      01008921H   LINE      ---      ---       #3312
      01008925H   LINE      ---      ---       #3313
      01008925H   LINE      ---      ---       #3314
      01008925H   LINE      ---      ---       #3315
      01008925H   LINE      ---      ---       #3316
      02000037H   SYMBOL    XDATA    BYTE      Micro_Temp_CLK
      02000038H   SYMBOL    XDATA    BYTE      Check_WireInTimes
      02000039H   SYMBOL    XDATA    BYTE      Check_WireOutTimes
      0200003AH   SYMBOL    XDATA    BYTE      WireIn_FB_Count
      0200003BH   SYMBOL    XDATA    BYTE      WireOut_FB_Count
      0200003CH   SYMBOL    XDATA    BYTE      NoHpCheck_Times
      ---         BLOCKEND  CODE     ---       LVL=1
      ---         BLOCKEND  CODE     ---       LVL=0

      ---         MODULE    ---      ---       SOUND_TYPE
      010089AEH   PUBLIC    CODE     ---       Sound_Type_Drive
      0100C394H   PUBLIC    CODE     ---       Sound_Alarm_Pause_Disable
      0100C36BH   PUBLIC    CODE     ---       Sound_Alarm_Pause_Enable
      0100B729H   PUBLIC    CODE     ---       Sound_Short
      000000C0H.3 SFRSYM    DATA     BIT       P43
      02000358H   SYMBOL    XDATA    BYTE      Sound_En_Cnt
      02000359H   SYMBOL    XDATA    WORD      SoundPauseCnt

      0100B729H   BLOCK     CODE     ---       LVL=0
LX51 LINKER/LOCATER V4.66.1.0                                                         04/08/2019  16:56:50  PAGE 80


      0100B729H   LINE      ---      ---       #10
      0100B729H   LINE      ---      ---       #11
      0100B729H   LINE      ---      ---       #12
      0100B72FH   LINE      ---      ---       #13
      0100B72FH   LINE      ---      ---       #15
      0100B72FH   LINE      ---      ---       #17
      0100B72FH   LINE      ---      ---       #18
      0100B735H   LINE      ---      ---       #19
      0100B735H   LINE      ---      ---       #20
      ---         BLOCKEND  ---      ---       LVL=0

      0100C36BH   BLOCK     CODE     ---       LVL=0
      0100C36BH   LINE      ---      ---       #22
      0100C36BH   LINE      ---      ---       #23
      0100C36BH   LINE      ---      ---       #24
      0100C375H   LINE      ---      ---       #25
      ---         BLOCKEND  ---      ---       LVL=0

      0100C38FH   BLOCK     CODE     ---       LVL=0
      0100C394H   LINE      ---      ---       #27
      0100C394H   LINE      ---      ---       #28
      0100C394H   LINE      ---      ---       #29
      0100C39BH   LINE      ---      ---       #30
      ---         BLOCKEND  ---      ---       LVL=0

      010089AEH   BLOCK     CODE     ---       LVL=0
      010089AEH   LINE      ---      ---       #32
      010089AEH   LINE      ---      ---       #33
      010089AEH   LINE      ---      ---       #34
      010089B4H   LINE      ---      ---       #35
      010089B4H   LINE      ---      ---       #36
      010089BEH   LINE      ---      ---       #37
      010089BEH   LINE      ---      ---       #38
      010089C0H   LINE      ---      ---       #39
      010089C4H   LINE      ---      ---       #40
      010089C5H   LINE      ---      ---       #42
      010089C5H   LINE      ---      ---       #43
      010089CFH   LINE      ---      ---       #44
      010089D1H   LINE      ---      ---       #45
      010089D1H   LINE      ---      ---       #46
      010089D2H   LINE      ---      ---       #48
      010089D2H   LINE      ---      ---       #49
      010089D8H   LINE      ---      ---       #50
      010089D8H   LINE      ---      ---       #51
      010089DAH   LINE      ---      ---       #52
      010089DCH   LINE      ---      ---       #53
      010089DDH   LINE      ---      ---       #55
      010089DDH   LINE      ---      ---       #56
      010089DFH   LINE      ---      ---       #57
      010089DFH   LINE      ---      ---       #58
      010089DFH   LINE      ---      ---       #59
      ---         BLOCKEND  ---      ---       LVL=0

      ---         MODULE    ---      ---       MAIN
      0100802EH   PUBLIC    CODE     ---       main
      000000C1H   SFRSYM    DATA     BYTE      WDT_CONTR

      0100802EH   BLOCK     CODE     ---       LVL=0
      0100802EH   LINE      ---      ---       #6
      0100802EH   LINE      ---      ---       #7
      0100802EH   LINE      ---      ---       #8
      01008030H   LINE      ---      ---       #9
      01008032H   LINE      ---      ---       #10
      01008035H   LINE      ---      ---       #11
      0100803DH   LINE      ---      ---       #13
LX51 LINKER/LOCATER V4.66.1.0                                                         04/08/2019  16:56:50  PAGE 81


      0100803DH   LINE      ---      ---       #14
      0100803DH   LINE      ---      ---       #15
      01008040H   LINE      ---      ---       #16
      01008042H   LINE      ---      ---       #17
      01008045H   LINE      ---      ---       #18
      01008048H   LINE      ---      ---       #19
      0100804BH   LINE      ---      ---       #20
      0100804EH   LINE      ---      ---       #21
      01008051H   LINE      ---      ---       #22
      01008054H   LINE      ---      ---       #23
      01008057H   LINE      ---      ---       #24
      0100805AH   LINE      ---      ---       #25
      0100805DH   LINE      ---      ---       #26
      01008060H   LINE      ---      ---       #27
      01008063H   LINE      ---      ---       #28
      01008066H   LINE      ---      ---       #29
      01008069H   LINE      ---      ---       #30
      0100806CH   LINE      ---      ---       #31
      0100806FH   LINE      ---      ---       #32
      01008072H   LINE      ---      ---       #33
      01008075H   LINE      ---      ---       #34
      01008078H   LINE      ---      ---       #35
      0100807BH   LINE      ---      ---       #36
      0100807EH   LINE      ---      ---       #37
      01008081H   LINE      ---      ---       #38
      01008084H   LINE      ---      ---       #39
      01008087H   LINE      ---      ---       #40
      ---         BLOCKEND  ---      ---       LVL=0

      ---         MODULE    ---      ---       STCROMCRC16

      ---         MODULE    ---      ---       LCD
      02000361H   PUBLIC    XDATA    BYTE      Back_Color
      0100491FH   PUBLIC    CODE     ---       asc2_2412
      0100432FH   PUBLIC    CODE     ---       asc2_1608
      0100374FH   PUBLIC    CODE     ---       NUM38X64
      0100358DH   PUBLIC    CODE     ---       FNT10X24
      0100350FH   PUBLIC    CODE     ---       RH14X24
      010034BDH   PUBLIC    CODE     ---       JQK41X16
      01003469H   PUBLIC    CODE     ---       RTD28X24
      0100341EH   PUBLIC    CODE     ---       CQK25X24
      010033B2H   PUBLIC    CODE     ---       HEAT36X32
      0100329AH   PUBLIC    CODE     ---       VHB8056X40
      01003086H   PUBLIC    CODE     ---       DHM14X16
      01002E46H   PUBLIC    CODE     ---       ICO48X48
      01002D1AH   PUBLIC    CODE     ---       gImage_LAN_SEL_FR
      01002C06H   PUBLIC    CODE     ---       gImage_LAN_SEL_ES
      01002AAAH   PUBLIC    CODE     ---       gImage_LAN_SEL_PT
      010029B4H   PUBLIC    CODE     ---       gImage_LAN_SEL_EN
      0100284CH   PUBLIC    CODE     ---       ICO24X24
      01002144H   PUBLIC    CODE     ---       ICO40X40
      01001CE4H   PUBLIC    CODE     ---       ICO32X40
      01001B7CH   PUBLIC    CODE     ---       Num8X24
      01001A8CH   PUBLIC    CODE     ---       Num8X16
      010019C4H   PUBLIC    CODE     ---       NUM10X16
      01001672H   PUBLIC    CODE     ---       NUM17X40
      01000E3EH   PUBLIC    CODE     ---       NUM30X56
      010009CAH   PUBLIC    CODE     ---       gImage_FANEM
      0100099AH   PUBLIC    CODE     ---       gImage_LOGO5
      01000961H   PUBLIC    CODE     ---       gImage_LOGO4
      010008FBH   PUBLIC    CODE     ---       gImage_LOGO3
      0100088FH   PUBLIC    CODE     ---       gImage_LOGO2
      0100082FH   PUBLIC    CODE     ---       gImage_LOGO1
      010005DFH   PUBLIC    CODE     ---       Shangbiao8
      01000305H   PUBLIC    CODE     ---       PIC_WuChuang
LX51 LINKER/LOCATER V4.66.1.0                                                         04/08/2019  16:56:50  PAGE 82


      0100003FH   PUBLIC    CODE     ---       PIC_YouChuang
      0100679DH   PUBLIC    CODE     ---       LCD_Show_Verion
      01007CB4H   PUBLIC    CODE     ---       DrawWorkWindows
      0100C2FAH   PUBLIC    CODE     ---       Refresh_Work_Mode
      02000199H   PUBLIC    XDATA    BYTE      ?_Draw_Circle?BYTE
      0100849FH   PUBLIC    CODE     ---       _Draw_Circle
      0200014BH   PUBLIC    XDATA    BYTE      ?_LCD_ShowxNum?BYTE
      01009EE8H   PUBLIC    CODE     ---       _LCD_ShowxNum
      0200019AH   PUBLIC    XDATA    BYTE      ?_LCD_ShowString?BYTE
      010066EDH   PUBLIC    CODE     ---       _LCD_ShowString
      020001AFH   PUBLIC    XDATA    BYTE      ?_LCD_ShowChar?BYTE
      0100BCDBH   PUBLIC    CODE     ---       _LCD_ShowChar
      020001B7H   PUBLIC    XDATA    BYTE      ?_DISP_FNT12X24?BYTE
      0100BDECH   PUBLIC    CODE     ---       _DISP_FNT12X24
      020001B7H   PUBLIC    XDATA    BYTE      ?_DISP_FNT8X16?BYTE
      0100BD04H   PUBLIC    CODE     ---       _DISP_FNT8X16
      0100A616H   PUBLIC    CODE     ---       _DISP_VHB80_PIC
      0100C357H   PUBLIC    CODE     ---       _Disp_WuChuang
      0100A7C6H   PUBLIC    CODE     ---       _Disp_YouChuang
      0100A77AH   PUBLIC    CODE     ---       _DISP_VHB80_56X40
      02000199H   PUBLIC    XDATA    BYTE      ?_DISP_DHM?BYTE
      01007E5CH   PUBLIC    CODE     ---       _DISP_DHM
      02000199H   PUBLIC    XDATA    BYTE      ?_DISP_ICO_52X64?BYTE
      01007F61H   PUBLIC    CODE     ---       _DISP_ICO_52X64
      02000199H   PUBLIC    XDATA    BYTE      ?_DISP_ICO_40X40?BYTE
      01007EB0H   PUBLIC    CODE     ---       _DISP_ICO_40X40
      02000199H   PUBLIC    XDATA    BYTE      ?_DISP_ICO_32X40?BYTE
      01007F3BH   PUBLIC    CODE     ---       _DISP_ICO_32X40
      0200019AH   PUBLIC    XDATA    BYTE      ?_DISP_TIME_10X16?BYTE
      0100782FH   PUBLIC    CODE     ---       _DISP_TIME_10X16
      02000199H   PUBLIC    XDATA    BYTE      ?_DISP_RH14X24?BYTE
      01007E1CH   PUBLIC    CODE     ---       _DISP_RH14X24
      02000115H   PUBLIC    XDATA    BYTE      ?_DISP_FNT10X24?BYTE
      01007ECCH   PUBLIC    CODE     ---       _DISP_FNT10X24
      0200019FH   PUBLIC    XDATA    BYTE      ?_DISP_RH_17X40?BYTE
      01007607H   PUBLIC    CODE     ---       _DISP_RH_17X40
      0100A761H   PUBLIC    CODE     ---       _DISP_HEAT_36X24
      0100A67DH   PUBLIC    CODE     ---       _DISP_JQK41X16
      0100A7B4H   PUBLIC    CODE     ---       _DISP_RTD28X24
      0100A79CH   PUBLIC    CODE     ---       _DISP_CQK25X24
      02000116H   PUBLIC    XDATA    BYTE      ?_DISP_TEMP_38X64?BYTE
      01007F8EH   PUBLIC    CODE     ---       _DISP_TEMP_38X64
      0200019FH   PUBLIC    XDATA    BYTE      ?_DISP_TEMP_30X56?BYTE
      010077F4H   PUBLIC    CODE     ---       _DISP_TEMP_30X56
      0200019FH   PUBLIC    XDATA    BYTE      ?_Draw_Rectangle_Real?BYTE
      0100772EH   PUBLIC    CODE     ---       _Draw_Rectangle_Real
      02000199H   PUBLIC    XDATA    BYTE      ?_Draw_Rectangle?BYTE
      010085AEH   PUBLIC    CODE     ---       _Draw_Rectangle
      020001C7H   PUBLIC    XDATA    BYTE      ?_LCD_CrtlWrite_Area?BYTE
      010086CBH   PUBLIC    CODE     ---       _LCD_CrtlWrite_Area
      01008318H   PUBLIC    CODE     ---       LCD_Initial
      01008465H   PUBLIC    CODE     ---       _LCD_CtrlWrite_Color
      01008478H   PUBLIC    CODE     ---       _LCD_CtrlWrite_ILI9328
      00000080H   SFRSYM    DATA     BYTE      P0
      00000090H.4 SFRSYM    DATA     BIT       P14
      00000090H.5 SFRSYM    DATA     BIT       P15
      00000090H.6 SFRSYM    DATA     BIT       P16
      000000C0H   SFRSYM    DATA     BIT       P40
      000000C0H.6 SFRSYM    DATA     BIT       P46
      0100569FH   SYMBOL    CODE     ---       Table_Color
      0100000EH   SYMBOL    CODE     ---       _SdCmd
      010083FEH   SYMBOL    CODE     ---       _SdData
      01007629H   SYMBOL    CODE     ---       _DISP_MONO_GRAP
      0100842FH   SYMBOL    CODE     ---       _LCD_DrawPoint
      0100C39CH   SYMBOL    CODE     ---       _LCD_Pow
LX51 LINKER/LOCATER V4.66.1.0                                                         04/08/2019  16:56:50  PAGE 83



      0100000EH   BLOCK     CODE     ---       LVL=0
      0100000EH   LINE      ---      ---       #33
      0100000EH   LINE      ---      ---       #34
      0100000EH   LINE      ---      ---       #35
      01000010H   LINE      ---      ---       #36
      00000007H   SYMBOL    DATA     BYTE      data8
      ---         BLOCKEND  ---      ---       LVL=0

      010083FEH   BLOCK     CODE     ---       LVL=0
      0100842BH   LINE      ---      ---       #44
      0100842BH   LINE      ---      ---       #45
      0100842BH   LINE      ---      ---       #46
      0100842DH   LINE      ---      ---       #47
      00000007H   SYMBOL    DATA     BYTE      data8
      ---         BLOCKEND  ---      ---       LVL=0

      01008478H   BLOCK     CODE     ---       LVL=0
      01008478H   LINE      ---      ---       #54
      0100847EH   LINE      ---      ---       #55
      0100847EH   LINE      ---      ---       #56
      01008480H   LINE      ---      ---       #57
      01008482H   LINE      ---      ---       #58
      01008485H   LINE      ---      ---       #59
      01008487H   LINE      ---      ---       #60
      01008489H   LINE      ---      ---       #61
      0100848EH   LINE      ---      ---       #62
      01008490H   LINE      ---      ---       #63
      01008492H   LINE      ---      ---       #64
      01008494H   LINE      ---      ---       #65
      01008496H   LINE      ---      ---       #66
      00000004H   SYMBOL    DATA     WORD      i
      ---         BLOCKEND  ---      ---       LVL=0

      01008465H   BLOCK     CODE     ---       LVL=0
      01008465H   LINE      ---      ---       #68
      01008465H   LINE      ---      ---       #69
      01008465H   LINE      ---      ---       #70
      00000007H   SYMBOL    DATA     BYTE      color
      ---         BLOCKEND  ---      ---       LVL=0

      01008318H   BLOCK     CODE     ---       LVL=0
      01008318H   LINE      ---      ---       #73
      01008318H   LINE      ---      ---       #74
      01008318H   LINE      ---      ---       #76
      0100831AH   LINE      ---      ---       #77
      01008321H   LINE      ---      ---       #78
      01008323H   LINE      ---      ---       #79
      0100832AH   LINE      ---      ---       #81
      0100832FH   LINE      ---      ---       #82
      01008336H   LINE      ---      ---       #83
      0100833AH   LINE      ---      ---       #85
      0100833FH   LINE      ---      ---       #86
      01008342H   LINE      ---      ---       #87
      01008347H   LINE      ---      ---       #89
      0100834CH   LINE      ---      ---       #90
      01008350H   LINE      ---      ---       #92
      01008353H   LINE      ---      ---       #93
      01008357H   LINE      ---      ---       #96
      0100835CH   LINE      ---      ---       #97
      01008360H   LINE      ---      ---       #99
      01008365H   LINE      ---      ---       #100
      01008369H   LINE      ---      ---       #102
      0100836EH   LINE      ---      ---       #103
      01008372H   LINE      ---      ---       #105
LX51 LINKER/LOCATER V4.66.1.0                                                         04/08/2019  16:56:50  PAGE 84


      01008377H   LINE      ---      ---       #106
      0100837BH   LINE      ---      ---       #108
      01008380H   LINE      ---      ---       #109
      01008384H   LINE      ---      ---       #111
      01008389H   LINE      ---      ---       #112
      0100838DH   LINE      ---      ---       #114
      01008392H   LINE      ---      ---       #115
      01008396H   LINE      ---      ---       #117
      0100839BH   LINE      ---      ---       #118
      0100839FH   LINE      ---      ---       #119
      010083A3H   LINE      ---      ---       #121
      010083A8H   LINE      ---      ---       #122
      010083ACH   LINE      ---      ---       #124
      010083B0H   LINE      ---      ---       #137
      010083B2H   LINE      ---      ---       #141
      010083B6H   LINE      ---      ---       #154
      010083B8H   LINE      ---      ---       #157
      010083C1H   LINE      ---      ---       #158
      010083C6H   LINE      ---      ---       #160
      010083CCH   LINE      ---      ---       #162
      010083D1H   LINE      ---      ---       #163
      010083D4H   LINE      ---      ---       #165
      010083D6H   LINE      ---      ---       #166
      010083DAH   LINE      ---      ---       #168
      010083DFH   LINE      ---      ---       #169
      010083E1H   LINE      ---      ---       #171
      010083E4H   LINE      ---      ---       #172
      010083E8H   LINE      ---      ---       #174
      010083EEH   LINE      ---      ---       #175
      ---         BLOCKEND  ---      ---       LVL=0

      010086CBH   BLOCK     CODE     ---       LVL=0
      010086CBH   LINE      ---      ---       #178
      010086CEH   LINE      ---      ---       #179
      010086CEH   LINE      ---      ---       #180
      010086D2H   LINE      ---      ---       #182
      010086D7H   LINE      ---      ---       #183
      010086DAH   LINE      ---      ---       #185
      010086DFH   LINE      ---      ---       #186
      010086E3H   LINE      ---      ---       #187
      010086E8H   LINE      ---      ---       #188
      010086EDH   LINE      ---      ---       #190
      00000004H   SYMBOL    DATA     BYTE      SX
      00000005H   SYMBOL    DATA     BYTE      EX
      00000002H   SYMBOL    DATA     WORD      SY
      020001CBH   SYMBOL    XDATA    WORD      EY
      ---         BLOCKEND  ---      ---       LVL=0

      010085A5H   BLOCK     CODE     ---       LVL=0
      010085AEH   LINE      ---      ---       #195
      010085BEH   LINE      ---      ---       #196
      02000199H   SYMBOL    XDATA    BYTE      Start_X
      0200019AH   SYMBOL    XDATA    WORD      Start_Y
      00000001H   SYMBOL    DATA     BYTE      End_X
      0200019DH   SYMBOL    XDATA    WORD      End_Y
      0200019FH   SYMBOL    XDATA    BYTE      color
      020001A0H   SYMBOL    XDATA    BYTE      LineW
      010085BEH   BLOCK     CODE     NEAR LAB  LVL=1
      010085BEH   LINE      ---      ---       #198
      010085CCH   LINE      ---      ---       #199
      010085E7H   LINE      ---      ---       #201
      010085F9H   LINE      ---      ---       #202
      01008605H   LINE      ---      ---       #203
      01008605H   LINE      ---      ---       #204
      0100860FH   LINE      ---      ---       #205
LX51 LINKER/LOCATER V4.66.1.0                                                         04/08/2019  16:56:50  PAGE 85


      0100860FH   LINE      ---      ---       #206
      01008616H   LINE      ---      ---       #208
      0100861DH   LINE      ---      ---       #209
      01008647H   LINE      ---      ---       #211
      01008647H   LINE      ---      ---       #212
      01008651H   LINE      ---      ---       #213
      01008651H   LINE      ---      ---       #214
      01008658H   LINE      ---      ---       #216
      0100865FH   LINE      ---      ---       #217
      0100867DH   LINE      ---      ---       #219
      0100867DH   LINE      ---      ---       #220
      01008688H   LINE      ---      ---       #221
      01008688H   LINE      ---      ---       #222
      0100868FH   LINE      ---      ---       #224
      01008696H   LINE      ---      ---       #225
      010086B1H   LINE      ---      ---       #227
      010086B1H   LINE      ---      ---       #228
      010086BCH   LINE      ---      ---       #229
      010086BCH   LINE      ---      ---       #230
      010086C3H   LINE      ---      ---       #232
      010086CAH   LINE      ---      ---       #233
      020001A1H   SYMBOL    XDATA    WORD      i
      00000002H   SYMBOL    DATA     WORD      j
      020001A3H   SYMBOL    XDATA    WORD      w
      020001A5H   SYMBOL    XDATA    WORD      h
      ---         BLOCKEND  CODE     ---       LVL=1
      ---         BLOCKEND  CODE     ---       LVL=0

      01007721H   BLOCK     CODE     ---       LVL=0
      0100772EH   LINE      ---      ---       #236
      01007739H   LINE      ---      ---       #237
      00000002H   SYMBOL    DATA     BYTE      Start_X
      020001A0H   SYMBOL    XDATA    WORD      Start_Y
      00000003H   SYMBOL    DATA     BYTE      End_X
      020001A3H   SYMBOL    XDATA    WORD      End_Y
      020001A5H   SYMBOL    XDATA    BYTE      color
      01007739H   BLOCK     CODE     NEAR LAB  LVL=1
      01007739H   LINE      ---      ---       #239
      01007749H   LINE      ---      ---       #240
      01007761H   LINE      ---      ---       #241
      01007782H   LINE      ---      ---       #242
      0100779EH   LINE      ---      ---       #243
      0100779EH   LINE      ---      ---       #244
      010077AEH   LINE      ---      ---       #245
      010077AEH   LINE      ---      ---       #246
      010077B6H   LINE      ---      ---       #247
      010077BDH   LINE      ---      ---       #248
      010077C5H   LINE      ---      ---       #249
      00000002H   SYMBOL    DATA     WORD      i
      020001A6H   SYMBOL    XDATA    WORD      j
      020001A8H   SYMBOL    XDATA    WORD      w
      020001AAH   SYMBOL    XDATA    WORD      h
      ---         BLOCKEND  CODE     ---       LVL=1
      ---         BLOCKEND  CODE     ---       LVL=0

      01007629H   BLOCK     CODE     ---       LVL=0
      01007629H   LINE      ---      ---       #259
      01007634H   LINE      ---      ---       #260
      00000006H   SYMBOL    DATA     BYTE      X1
      020001A5H   SYMBOL    XDATA    WORD      Y1
      020001A7H   SYMBOL    XDATA    BYTE      H
      020001A8H   SYMBOL    XDATA    BYTE      W
      020001A9H   SYMBOL    XDATA    ---       gp
      020001ACH   SYMBOL    XDATA    BYTE      color
      01007634H   BLOCK     CODE     NEAR LAB  LVL=1
LX51 LINKER/LOCATER V4.66.1.0                                                         04/08/2019  16:56:50  PAGE 86


      01007634H   LINE      ---      ---       #262
      01007656H   LINE      ---      ---       #263
      01007680H   LINE      ---      ---       #264
      01007680H   LINE      ---      ---       #265
      01007687H   LINE      ---      ---       #266
      01007687H   LINE      ---      ---       #267
      010076B0H   LINE      ---      ---       #268
      010076B0H   LINE      ---      ---       #269
      010076B3H   LINE      ---      ---       #270
      010076B5H   LINE      ---      ---       #272
      010076B5H   LINE      ---      ---       #273
      010076BDH   LINE      ---      ---       #274
      010076BDH   LINE      ---      ---       #275
      010076D2H   LINE      ---      ---       #276
      010076DAH   LINE      ---      ---       #277
      020001ADH   SYMBOL    XDATA    WORD      w
      020001AFH   SYMBOL    XDATA    WORD      j
      ---         BLOCKEND  CODE     ---       LVL=1
      ---         BLOCKEND  CODE     ---       LVL=0

      010077EEH   BLOCK     CODE     ---       LVL=0
      010077F4H   LINE      ---      ---       #280
      010077FCH   LINE      ---      ---       #281
      010077FCH   LINE      ---      ---       #282
      0200019FH   SYMBOL    XDATA    BYTE      X
      020001A0H   SYMBOL    XDATA    WORD      Y
      00000003H   SYMBOL    DATA     BYTE      NUM
      020001A3H   SYMBOL    XDATA    BYTE      color
      ---         BLOCKEND  ---      ---       LVL=0

      01007F81H   BLOCK     CODE     ---       LVL=0
      01007F8EH   LINE      ---      ---       #285
      01007F95H   LINE      ---      ---       #286
      01007F95H   LINE      ---      ---       #287
      02000116H   SYMBOL    XDATA    BYTE      X
      02000117H   SYMBOL    XDATA    WORD      Y
      00000003H   SYMBOL    DATA     BYTE      NUM
      0200011AH   SYMBOL    XDATA    BYTE      color
      ---         BLOCKEND  ---      ---       LVL=0

      0100A796H   BLOCK     CODE     ---       LVL=0
      0100A79CH   LINE      ---      ---       #290
      00000007H   SYMBOL    DATA     BYTE      X
      00000004H   SYMBOL    DATA     WORD      Y
      00000006H   SYMBOL    DATA     BYTE      color
      ---         BLOCKEND  ---      ---       LVL=0

      0100A7AEH   BLOCK     CODE     ---       LVL=0
      0100A7B4H   LINE      ---      ---       #295
      00000007H   SYMBOL    DATA     BYTE      X
      00000004H   SYMBOL    DATA     WORD      Y
      00000006H   SYMBOL    DATA     BYTE      color
      ---         BLOCKEND  ---      ---       LVL=0

      0100A67DH   BLOCK     CODE     ---       LVL=0
      0100A67DH   LINE      ---      ---       #300
      00000007H   SYMBOL    DATA     BYTE      X
      00000004H   SYMBOL    DATA     WORD      Y
      00000006H   SYMBOL    DATA     BYTE      color
      ---         BLOCKEND  ---      ---       LVL=0

      0100A761H   BLOCK     CODE     ---       LVL=0
      0100A761H   LINE      ---      ---       #307
      00000007H   SYMBOL    DATA     BYTE      X
      00000004H   SYMBOL    DATA     WORD      Y
LX51 LINKER/LOCATER V4.66.1.0                                                         04/08/2019  16:56:50  PAGE 87


      00000006H   SYMBOL    DATA     BYTE      color
      ---         BLOCKEND  ---      ---       LVL=0

      01007601H   BLOCK     CODE     ---       LVL=0
      01007607H   LINE      ---      ---       #312
      0100760FH   LINE      ---      ---       #313
      0100760FH   LINE      ---      ---       #314
      0200019FH   SYMBOL    XDATA    BYTE      X
      020001A0H   SYMBOL    XDATA    WORD      Y
      00000003H   SYMBOL    DATA     BYTE      NUM
      020001A3H   SYMBOL    XDATA    BYTE      color
      ---         BLOCKEND  ---      ---       LVL=0

      01007ECCH   BLOCK     CODE     ---       LVL=0
      01007ECCH   LINE      ---      ---       #317
      01007ED3H   LINE      ---      ---       #318
      01007ED3H   LINE      ---      ---       #319
      02000115H   SYMBOL    XDATA    BYTE      X
      02000116H   SYMBOL    XDATA    WORD      Y
      00000003H   SYMBOL    DATA     BYTE      NUM
      02000119H   SYMBOL    XDATA    BYTE      color
      ---         BLOCKEND  ---      ---       LVL=0

      01007E1CH   BLOCK     CODE     ---       LVL=0
      01007E1CH   LINE      ---      ---       #322
      01007E23H   LINE      ---      ---       #323
      01007E23H   LINE      ---      ---       #324
      02000199H   SYMBOL    XDATA    BYTE      X
      0200019AH   SYMBOL    XDATA    WORD      Y
      00000003H   SYMBOL    DATA     BYTE      NUM
      0200019DH   SYMBOL    XDATA    BYTE      color
      ---         BLOCKEND  ---      ---       LVL=0

      0100782BH   BLOCK     CODE     ---       LVL=0
      0100782FH   LINE      ---      ---       #327
      01007836H   LINE      ---      ---       #328
      01007836H   LINE      ---      ---       #329
      0200019AH   SYMBOL    XDATA    BYTE      X
      0200019BH   SYMBOL    XDATA    WORD      Y
      00000003H   SYMBOL    DATA     BYTE      NUM
      0200019EH   SYMBOL    XDATA    BYTE      color
      ---         BLOCKEND  ---      ---       LVL=0

      01007F23H   BLOCK     CODE     ---       LVL=0
      01007F3BH   LINE      ---      ---       #331
      01007F42H   LINE      ---      ---       #332
      01007F42H   LINE      ---      ---       #333
      02000199H   SYMBOL    XDATA    BYTE      X
      0200019AH   SYMBOL    XDATA    WORD      Y
      00000003H   SYMBOL    DATA     BYTE      NUM
      0200019DH   SYMBOL    XDATA    BYTE      color
      ---         BLOCKEND  ---      ---       LVL=0

      01007EA9H   BLOCK     CODE     ---       LVL=0
      01007EB0H   LINE      ---      ---       #336
      01007EB7H   LINE      ---      ---       #337
      01007EB7H   LINE      ---      ---       #338
      02000199H   SYMBOL    XDATA    BYTE      X
      0200019AH   SYMBOL    XDATA    WORD      Y
      00000003H   SYMBOL    DATA     BYTE      NUM
      0200019DH   SYMBOL    XDATA    BYTE      color
      ---         BLOCKEND  ---      ---       LVL=0

      01007F61H   BLOCK     CODE     ---       LVL=0
      01007F61H   LINE      ---      ---       #343
LX51 LINKER/LOCATER V4.66.1.0                                                         04/08/2019  16:56:50  PAGE 88


      01007F68H   LINE      ---      ---       #344
      01007F68H   LINE      ---      ---       #345
      02000199H   SYMBOL    XDATA    BYTE      X
      0200019AH   SYMBOL    XDATA    WORD      Y
      00000003H   SYMBOL    DATA     BYTE      NUM
      0200019DH   SYMBOL    XDATA    BYTE      color
      ---         BLOCKEND  ---      ---       LVL=0

      01007E58H   BLOCK     CODE     ---       LVL=0
      01007E5CH   LINE      ---      ---       #349
      01007E63H   LINE      ---      ---       #350
      01007E63H   LINE      ---      ---       #351
      02000199H   SYMBOL    XDATA    BYTE      X
      0200019AH   SYMBOL    XDATA    WORD      Y
      00000003H   SYMBOL    DATA     BYTE      NUM
      0200019DH   SYMBOL    XDATA    BYTE      color
      ---         BLOCKEND  ---      ---       LVL=0

      0100A77AH   BLOCK     CODE     ---       LVL=0
      0100A77AH   LINE      ---      ---       #354
      00000007H   SYMBOL    DATA     BYTE      X
      00000004H   SYMBOL    DATA     WORD      Y
      00000006H   SYMBOL    DATA     BYTE      color
      ---         BLOCKEND  ---      ---       LVL=0

      0100A7C6H   BLOCK     CODE     ---       LVL=0
      0100A7C6H   LINE      ---      ---       #360
      00000007H   SYMBOL    DATA     BYTE      X
      00000004H   SYMBOL    DATA     WORD      Y
      00000006H   SYMBOL    DATA     BYTE      color
      ---         BLOCKEND  ---      ---       LVL=0

      0100C351H   BLOCK     CODE     ---       LVL=0
      0100C357H   LINE      ---      ---       #365
      00000007H   SYMBOL    DATA     BYTE      X
      00000004H   SYMBOL    DATA     WORD      Y
      00000006H   SYMBOL    DATA     BYTE      color
      ---         BLOCKEND  ---      ---       LVL=0

      0100A613H   BLOCK     CODE     ---       LVL=0
      0100A616H   LINE      ---      ---       #370
      0100A61CH   LINE      ---      ---       #371
      0100A61CH   LINE      ---      ---       #372
      0100A624H   LINE      ---      ---       #373
      0100A631H   LINE      ---      ---       #374
      0100A638H   LINE      ---      ---       #375
      0100A649H   LINE      ---      ---       #377
      0100A650H   LINE      ---      ---       #378
      0100A672H   LINE      ---      ---       #381
      02000116H   SYMBOL    XDATA    BYTE      color
      ---         BLOCKEND  ---      ---       LVL=0

      0100842FH   BLOCK     CODE     ---       LVL=0
      01008442H   LINE      ---      ---       #388
      0100844AH   LINE      ---      ---       #389
      0100844AH   LINE      ---      ---       #390
      0100844FH   LINE      ---      ---       #391
      01008451H   LINE      ---      ---       #393
      01008453H   LINE      ---      ---       #395
      01008458H   LINE      ---      ---       #396
      0100845BH   LINE      ---      ---       #398
      0100845DH   LINE      ---      ---       #400
      01008462H   LINE      ---      ---       #401
      020001C7H   SYMBOL    XDATA    WORD      x
      00000004H   SYMBOL    DATA     WORD      y
LX51 LINKER/LOCATER V4.66.1.0                                                         04/08/2019  16:56:50  PAGE 89


      00000003H   SYMBOL    DATA     BYTE      color
      ---         BLOCKEND  ---      ---       LVL=0

      0100BD04H   BLOCK     CODE     ---       LVL=0
      0100BD04H   LINE      ---      ---       #411
      0100BD09H   LINE      ---      ---       #412
      020001B7H   SYMBOL    XDATA    WORD      X
      020001B9H   SYMBOL    XDATA    WORD      Y
      00000003H   SYMBOL    DATA     BYTE      NUM
      020001BCH   SYMBOL    XDATA    BYTE      mode
      020001BDH   SYMBOL    XDATA    BYTE      color
      0100BD09H   BLOCK     CODE     NEAR LAB  LVL=1
      0100BD09H   LINE      ---      ---       #415
      0100BD0FH   LINE      ---      ---       #417
      0100BD12H   LINE      ---      ---       #420
      0100BD31H   LINE      ---      ---       #422
      0100BD35H   LINE      ---      ---       #423
      0100BD37H   LINE      ---      ---       #424
      0100BD37H   LINE      ---      ---       #425
      0100BD42H   LINE      ---      ---       #426
      0100BD42H   LINE      ---      ---       #427
      0100BD5EH   LINE      ---      ---       #428
      0100BD5EH   LINE      ---      ---       #429
      0100BD64H   LINE      ---      ---       #430
      0100BD64H   LINE      ---      ---       #431
      0100BD65H   LINE      ---      ---       #432
      0100BD67H   LINE      ---      ---       #434
      0100BD67H   LINE      ---      ---       #435
      0100BD6AH   LINE      ---      ---       #436
      0100BD6AH   LINE      ---      ---       #437
      0100BD6CH   LINE      ---      ---       #439
      0100BD6CH   LINE      ---      ---       #440
      0100BD72H   LINE      ---      ---       #441
      0100BD72H   LINE      ---      ---       #442
      0100BD7AH   LINE      ---      ---       #443
      0100BD7AH   LINE      ---      ---       #444
      0100BD7AH   LINE      ---      ---       #445
      0100BD7FH   LINE      ---      ---       #448
      0100BD8AH   LINE      ---      ---       #449
      0100BD8AH   LINE      ---      ---       #450
      0100BDA6H   LINE      ---      ---       #451
      0100BDA6H   LINE      ---      ---       #452
      0100BDACH   LINE      ---      ---       #453
      0100BDACH   LINE      ---      ---       #454
      0100BDADH   LINE      ---      ---       #455
      0100BDAFH   LINE      ---      ---       #457
      0100BDAFH   LINE      ---      ---       #458
      0100BDB2H   LINE      ---      ---       #459
      0100BDB2H   LINE      ---      ---       #460
      0100BDB4H   LINE      ---      ---       #462
      0100BDB4H   LINE      ---      ---       #463
      0100BDBAH   LINE      ---      ---       #464
      0100BDBAH   LINE      ---      ---       #465
      0100BDC2H   LINE      ---      ---       #466
      0100BDC2H   LINE      ---      ---       #467
      0100BDC2H   LINE      ---      ---       #468
      0100BDC7H   LINE      ---      ---       #470
      0100BDCDH   LINE      ---      ---       #471
      0100BDE3H   LINE      ---      ---       #473
      020001BEH   SYMBOL    XDATA    WORD      w
      020001C0H   SYMBOL    XDATA    WORD      j
      020001C2H   SYMBOL    XDATA    WORD      F_x
      020001C4H   SYMBOL    XDATA    WORD      F_y
      00000001H   SYMBOL    DATA     BYTE      num
      ---         BLOCKEND  CODE     ---       LVL=1
LX51 LINKER/LOCATER V4.66.1.0                                                         04/08/2019  16:56:50  PAGE 90


      ---         BLOCKEND  CODE     ---       LVL=0

      0100BDECH   BLOCK     CODE     ---       LVL=0
      0100BDECH   LINE      ---      ---       #482
      0100BDF1H   LINE      ---      ---       #483
      020001B7H   SYMBOL    XDATA    WORD      X
      020001B9H   SYMBOL    XDATA    WORD      Y
      00000003H   SYMBOL    DATA     BYTE      NUM
      020001BCH   SYMBOL    XDATA    BYTE      mode
      020001BDH   SYMBOL    XDATA    BYTE      color
      0100BDF1H   BLOCK     CODE     NEAR LAB  LVL=1
      0100BDF1H   LINE      ---      ---       #486
      0100BDF6H   LINE      ---      ---       #488
      0100BDF9H   LINE      ---      ---       #491
      0100BE16H   LINE      ---      ---       #493
      0100BE1DH   LINE      ---      ---       #494
      0100BE1FH   LINE      ---      ---       #495
      0100BE1FH   LINE      ---      ---       #496
      0100BE21H   LINE      ---      ---       #497
      0100BE21H   LINE      ---      ---       #498
      0100BE53H   LINE      ---      ---       #499
      0100BE53H   LINE      ---      ---       #500
      0100BE59H   LINE      ---      ---       #501
      0100BE59H   LINE      ---      ---       #502
      0100BE5AH   LINE      ---      ---       #503
      0100BE5CH   LINE      ---      ---       #505
      0100BE5CH   LINE      ---      ---       #506
      0100BE70H   LINE      ---      ---       #507
      0100BE70H   LINE      ---      ---       #508
      0100BE72H   LINE      ---      ---       #510
      0100BE72H   LINE      ---      ---       #511
      0100BE78H   LINE      ---      ---       #512
      0100BE78H   LINE      ---      ---       #513
      0100BE80H   LINE      ---      ---       #514
      0100BE80H   LINE      ---      ---       #515
      0100BE80H   LINE      ---      ---       #516
      0100BE87H   LINE      ---      ---       #519
      0100BE89H   LINE      ---      ---       #520
      0100BE89H   LINE      ---      ---       #521
      0100BEACH   LINE      ---      ---       #522
      0100BEACH   LINE      ---      ---       #523
      0100BEB2H   LINE      ---      ---       #524
      0100BEB2H   LINE      ---      ---       #525
      0100BEB3H   LINE      ---      ---       #526
      0100BEB5H   LINE      ---      ---       #528
      0100BEB5H   LINE      ---      ---       #529
      0100BEB8H   LINE      ---      ---       #530
      0100BEB8H   LINE      ---      ---       #531
      0100BEBAH   LINE      ---      ---       #533
      0100BEBAH   LINE      ---      ---       #534
      0100BEC0H   LINE      ---      ---       #535
      0100BEC0H   LINE      ---      ---       #536
      0100BEC8H   LINE      ---      ---       #537
      0100BEC8H   LINE      ---      ---       #538
      0100BEC8H   LINE      ---      ---       #539
      0100BECFH   LINE      ---      ---       #541
      0100BED1H   LINE      ---      ---       #542
      0100BED1H   LINE      ---      ---       #543
      0100BEF4H   LINE      ---      ---       #544
      0100BEF4H   LINE      ---      ---       #545
      0100BEFAH   LINE      ---      ---       #546
      0100BEFAH   LINE      ---      ---       #547
      0100BEFBH   LINE      ---      ---       #548
      0100BEFDH   LINE      ---      ---       #550
      0100BEFDH   LINE      ---      ---       #551
LX51 LINKER/LOCATER V4.66.1.0                                                         04/08/2019  16:56:50  PAGE 91


      0100BF00H   LINE      ---      ---       #552
      0100BF00H   LINE      ---      ---       #553
      0100BF02H   LINE      ---      ---       #555
      0100BF02H   LINE      ---      ---       #556
      0100BF08H   LINE      ---      ---       #557
      0100BF08H   LINE      ---      ---       #558
      0100BF10H   LINE      ---      ---       #559
      0100BF10H   LINE      ---      ---       #560
      0100BF10H   LINE      ---      ---       #561
      0100BF17H   LINE      ---      ---       #563
      0100BF1DH   LINE      ---      ---       #564
      0100BF33H   LINE      ---      ---       #566
      020001BEH   SYMBOL    XDATA    WORD      w
      020001C0H   SYMBOL    XDATA    WORD      j
      020001C2H   SYMBOL    XDATA    WORD      F_x
      020001C4H   SYMBOL    XDATA    WORD      F_y
      020001C6H   SYMBOL    XDATA    BYTE      num
      ---         BLOCKEND  CODE     ---       LVL=1
      ---         BLOCKEND  CODE     ---       LVL=0

      0100BCDBH   BLOCK     CODE     ---       LVL=0
      0100BCDBH   LINE      ---      ---       #574
      0100BCE9H   LINE      ---      ---       #575
      0100BCE9H   LINE      ---      ---       #578
      0100BCECH   LINE      ---      ---       #579
      0100BCECH   LINE      ---      ---       #580
      0100BCF4H   LINE      ---      ---       #581
      0100BCF4H   LINE      ---      ---       #582
      0100BCFBH   LINE      ---      ---       #583
      0100BCFBH   LINE      ---      ---       #584
      0100BD03H   LINE      ---      ---       #585
      0100BD03H   LINE      ---      ---       #587
      0100BD03H   LINE      ---      ---       #589
      0100BD03H   LINE      ---      ---       #590
      020001AFH   SYMBOL    XDATA    WORD      x
      020001B1H   SYMBOL    XDATA    WORD      y
      020001B3H   SYMBOL    XDATA    BYTE      size
      020001B4H   SYMBOL    XDATA    BYTE      num
      020001B5H   SYMBOL    XDATA    BYTE      mode
      020001B6H   SYMBOL    XDATA    BYTE      color
      ---         BLOCKEND  ---      ---       LVL=0

      010066E3H   BLOCK     CODE     ---       LVL=0
      010066EDH   LINE      ---      ---       #600
      010066F5H   LINE      ---      ---       #601
      0200019AH   SYMBOL    XDATA    WORD      x
      00000004H   SYMBOL    DATA     WORD      y
      00000002H   SYMBOL    DATA     WORD      height_x
      020001A0H   SYMBOL    XDATA    WORD      width_y
      020001A2H   SYMBOL    XDATA    ---       p
      020001A5H   SYMBOL    XDATA    BYTE      mode
      020001A6H   SYMBOL    XDATA    BYTE      color
      010066F5H   BLOCK     CODE     NEAR LAB  LVL=1
      010066F5H   LINE      ---      ---       #608
      010066FAH   LINE      ---      ---       #610
      01006700H   LINE      ---      ---       #611
      0100670FH   LINE      ---      ---       #612
      0100671EH   LINE      ---      ---       #617
      01006723H   LINE      ---      ---       #619
      0100672BH   LINE      ---      ---       #620
      0100673AH   LINE      ---      ---       #621
      0100673AH   LINE      ---      ---       #622
      01006758H   LINE      ---      ---       #624
      01006787H   LINE      ---      ---       #626
      01006790H   LINE      ---      ---       #627
LX51 LINKER/LOCATER V4.66.1.0                                                         04/08/2019  16:56:50  PAGE 92


      0100679AH   LINE      ---      ---       #628
      0100679CH   LINE      ---      ---       #647
      020001A7H   SYMBOL    XDATA    BYTE      size
      020001A8H   SYMBOL    XDATA    BYTE      y0
      020001A9H   SYMBOL    XDATA    WORD      Y1
      020001ABH   SYMBOL    XDATA    WORD      X1
      020001ADH   SYMBOL    XDATA    WORD      WIDTH_Y
      ---         BLOCKEND  CODE     ---       LVL=1
      ---         BLOCKEND  CODE     ---       LVL=0

      0100C39CH   BLOCK     CODE     ---       LVL=0
      0100C39CH   LINE      ---      ---       #651
      0100C3A4H   LINE      ---      ---       #652
      0200015AH   SYMBOL    XDATA    BYTE      m
      0200015BH   SYMBOL    XDATA    BYTE      n
      0100C3A4H   BLOCK     CODE     NEAR LAB  LVL=1
      0100C3A4H   LINE      ---      ---       #653
      0100C3ACH   LINE      ---      ---       #654
      0100C3B9H   LINE      ---      ---       #655
      0100C3B9H   LINE      ---      ---       #656
      0100C3CCH   LINE      ---      ---       #657
      0100C3CEH   LINE      ---      ---       #658
      0200015CH   SYMBOL    XDATA    DWORD     result
      ---         BLOCKEND  CODE     ---       LVL=1
      ---         BLOCKEND  CODE     ---       LVL=0

      01009EE2H   BLOCK     CODE     ---       LVL=0
      01009EE8H   LINE      ---      ---       #672
      01009EF6H   LINE      ---      ---       #673
      0200014BH   SYMBOL    XDATA    WORD      x
      0200014DH   SYMBOL    XDATA    WORD      y
      0200014FH   SYMBOL    XDATA    BYTE      size
      02000150H   SYMBOL    XDATA    BYTE      len
      02000151H   SYMBOL    XDATA    DWORD     num
      02000155H   SYMBOL    XDATA    BYTE      mode
      02000156H   SYMBOL    XDATA    BYTE      color
      01009EF6H   BLOCK     CODE     NEAR LAB  LVL=1
      01009EF6H   LINE      ---      ---       #675
      01009EFBH   LINE      ---      ---       #676
      01009F0AH   LINE      ---      ---       #677
      01009F0AH   LINE      ---      ---       #678
      01009F2BH   LINE      ---      ---       #679
      01009F39H   LINE      ---      ---       #680
      01009F39H   LINE      ---      ---       #681
      01009F3DH   LINE      ---      ---       #682
      01009F3DH   LINE      ---      ---       #683
      01009F48H   LINE      ---      ---       #684
      01009F48H   LINE      ---      ---       #685
      01009F59H   LINE      ---      ---       #686
      01009F5BH   LINE      ---      ---       #688
      01009F5BH   LINE      ---      ---       #689
      01009F66H   LINE      ---      ---       #690
      01009F66H   LINE      ---      ---       #691
      01009F68H   LINE      ---      ---       #692
      01009F68H   LINE      ---      ---       #694
      01009F68H   LINE      ---      ---       #695
      01009F6EH   LINE      ---      ---       #696
      01009F6EH   LINE      ---      ---       #697
      01009F6EH   LINE      ---      ---       #698
      01009F94H   LINE      ---      ---       #699
      01009F9CH   LINE      ---      ---       #700
      02000157H   SYMBOL    XDATA    BYTE      t
      02000158H   SYMBOL    XDATA    BYTE      temp
      02000159H   SYMBOL    XDATA    BYTE      enshow
      ---         BLOCKEND  CODE     ---       LVL=1
LX51 LINKER/LOCATER V4.66.1.0                                                         04/08/2019  16:56:50  PAGE 93


      ---         BLOCKEND  CODE     ---       LVL=0

      01008497H   BLOCK     CODE     ---       LVL=0
      0100849FH   LINE      ---      ---       #705
      010084A5H   LINE      ---      ---       #706
      02000199H   SYMBOL    XDATA    WORD      x0
      0200019BH   SYMBOL    XDATA    WORD      y0
      00000003H   SYMBOL    DATA     BYTE      r
      0200019EH   SYMBOL    XDATA    BYTE      color
      010084A5H   BLOCK     CODE     NEAR LAB  LVL=1
      010084A5H   LINE      ---      ---       #710
      010084B0H   LINE      ---      ---       #711
      010084C4H   LINE      ---      ---       #712
      010084D0H   LINE      ---      ---       #713
      010084D0H   LINE      ---      ---       #714
      0100852CH   LINE      ---      ---       #724
      01008535H   LINE      ---      ---       #725
      01008535H   LINE      ---      ---       #726
      0100854AH   LINE      ---      ---       #727
      0100854CH   LINE      ---      ---       #729
      0100854CH   LINE      ---      ---       #730
      0100856DH   LINE      ---      ---       #731
      01008577H   LINE      ---      ---       #732
      01008577H   LINE      ---      ---       #733
      01008579H   LINE      ---      ---       #734
      0200019FH   SYMBOL    XDATA    WORD      a
      020001A1H   SYMBOL    XDATA    WORD      b
      020001A3H   SYMBOL    XDATA    WORD      di
      ---         BLOCKEND  CODE     ---       LVL=1
      ---         BLOCKEND  CODE     ---       LVL=0

      0100C2FAH   BLOCK     CODE     ---       LVL=0
      0100C2FAH   LINE      ---      ---       #736
      0100C2FAH   LINE      ---      ---       #737
      0100C2FAH   LINE      ---      ---       #738
      0100C2FDH   LINE      ---      ---       #739
      0100C303H   LINE      ---      ---       #740
      0100C303H   LINE      ---      ---       #741
      0100C30CH   LINE      ---      ---       #742
      0100C313H   LINE      ---      ---       #743
      0100C313H   LINE      ---      ---       #744
      0100C31EH   LINE      ---      ---       #745
      0100C31EH   LINE      ---      ---       #746
      0100C31EH   LINE      ---      ---       #748
      0100C31EH   LINE      ---      ---       #749
      ---         BLOCKEND  ---      ---       LVL=0

      01007CB4H   BLOCK     CODE     ---       LVL=0
      01007CB4H   LINE      ---      ---       #756
      01007CB4H   LINE      ---      ---       #757
      01007CB4H   LINE      ---      ---       #758
      01007CB6H   LINE      ---      ---       #760
      01007CBBH   LINE      ---      ---       #762
      01007CBFH   LINE      ---      ---       #763
      01007CCAH   LINE      ---      ---       #766
      01007CCDH   LINE      ---      ---       #767
      01007CD0H   LINE      ---      ---       #768
      01007CDEH   LINE      ---      ---       #769
      01007CE3H   LINE      ---      ---       #770
      01007CEDH   LINE      ---      ---       #772
      01007CF6H   LINE      ---      ---       #774
      01007CFBH   LINE      ---      ---       #777
      01007D07H   LINE      ---      ---       #778
      01007D0DH   LINE      ---      ---       #779
      01007D0DH   LINE      ---      ---       #780
LX51 LINKER/LOCATER V4.66.1.0                                                         04/08/2019  16:56:50  PAGE 94


      01007D1EH   LINE      ---      ---       #782
      01007D20H   LINE      ---      ---       #783
      01007D27H   LINE      ---      ---       #784
      01007D27H   LINE      ---      ---       #785
      01007D34H   LINE      ---      ---       #787
      01007D36H   LINE      ---      ---       #788
      01007D3DH   LINE      ---      ---       #789
      01007D3DH   LINE      ---      ---       #790
      01007D4AH   LINE      ---      ---       #792
      01007D4CH   LINE      ---      ---       #793
      01007D53H   LINE      ---      ---       #794
      01007D53H   LINE      ---      ---       #795
      01007D64H   LINE      ---      ---       #797
      01007D64H   LINE      ---      ---       #799
      01007D64H   LINE      ---      ---       #801
      01007D64H   LINE      ---      ---       #803
      01007D70H   LINE      ---      ---       #804
      01007D79H   LINE      ---      ---       #805
      01007D82H   LINE      ---      ---       #808
      01007DB9H   LINE      ---      ---       #814
      01007DC5H   LINE      ---      ---       #815
      01007DD0H   LINE      ---      ---       #817
      ---         BLOCKEND  ---      ---       LVL=0

      0100679DH   BLOCK     CODE     ---       LVL=0
      0100679DH   LINE      ---      ---       #830
      0100679DH   LINE      ---      ---       #831
      0100679DH   LINE      ---      ---       #832
      ---         BLOCKEND  ---      ---       LVL=0

      ---         MODULE    ---      ---       W25X
      01008F7BH   PUBLIC    CODE     ---       _SPI_Erase_Sector
      0100C3E8H   PUBLIC    CODE     ---       SPI_Get_Byte
      01008F11H   PUBLIC    CODE     ---       _SPI_Send_Byte
      0100C3DEH   PUBLIC    CODE     ---       SPI_init
      0200011AH   PUBLIC    XDATA    BYTE      ?_SPI_Write_nBytes?BYTE
      01008F2FH   PUBLIC    CODE     ---       _SPI_Write_nBytes
      0200011CH   PUBLIC    XDATA    BYTE      ?_SPI_Read_nBytes?BYTE
      01008B9EH   PUBLIC    CODE     ---       _SPI_Read_nBytes
      0100C3D4H   PUBLIC    CODE     ---       SPI_Write_Disable
      01008FA5H   PUBLIC    CODE     ---       SPI_Write_Enable
      00000090H.7 SFRSYM    DATA     BIT       P17
      000000C0H.1 SFRSYM    DATA     BIT       P41
      000000C0H.2 SFRSYM    DATA     BIT       P42
      000000C0H.4 SFRSYM    DATA     BIT       P44
      000000C0H.5 SFRSYM    DATA     BIT       P45

      01008FA5H   BLOCK     CODE     ---       LVL=0
      01008FA5H   LINE      ---      ---       #42
      01008FA5H   LINE      ---      ---       #43
      01008FA7H   LINE      ---      ---       #44
      01008FABH   LINE      ---      ---       #45
      01008FADH   LINE      ---      ---       #46
      ---         BLOCKEND  ---      ---       LVL=0

      0100C3D4H   BLOCK     CODE     ---       LVL=0
      0100C3D4H   LINE      ---      ---       #47
      0100C3D4H   LINE      ---      ---       #48
      0100C3D4H   LINE      ---      ---       #49
      0100C3D6H   LINE      ---      ---       #50
      0100C3DBH   LINE      ---      ---       #51
      0100C3DDH   LINE      ---      ---       #52
      ---         BLOCKEND  ---      ---       LVL=0

      01008B9EH   BLOCK     CODE     ---       LVL=0
LX51 LINKER/LOCATER V4.66.1.0                                                         04/08/2019  16:56:50  PAGE 95


      01008B9EH   LINE      ---      ---       #63
      01008BA4H   LINE      ---      ---       #64
      0200011CH   SYMBOL    XDATA    DWORD     Dst_Addr
      02000120H   SYMBOL    XDATA    BYTE      nBytes_128
      02000121H   SYMBOL    XDATA    ---       Read_Adr
      01008BA4H   BLOCK     CODE     NEAR LAB  LVL=1
      01008BA4H   LINE      ---      ---       #65
      01008BA9H   LINE      ---      ---       #66
      01008BABH   LINE      ---      ---       #67
      01008BADH   LINE      ---      ---       #68
      01008BB1H   LINE      ---      ---       #69
      01008BB6H   LINE      ---      ---       #70
      01008BBBH   LINE      ---      ---       #71
      01008BC1H   LINE      ---      ---       #73
      01008BCEH   LINE      ---      ---       #74
      01008BCEH   LINE      ---      ---       #75
      01008BD9H   LINE      ---      ---       #76
      01008BE1H   LINE      ---      ---       #78
      01008BE3H   LINE      ---      ---       #79
      01008BE5H   LINE      ---      ---       #80
      02000124H   SYMBOL    XDATA    BYTE      i
      ---         BLOCKEND  CODE     ---       LVL=1
      ---         BLOCKEND  CODE     ---       LVL=0

      01008F2FH   BLOCK     CODE     ---       LVL=0
      01008F2FH   LINE      ---      ---       #86
      0200011AH   SYMBOL    XDATA    DWORD     Dst_Addr
      0200011EH   SYMBOL    XDATA    BYTE      nBytes_128
      0200011FH   SYMBOL    XDATA    ---       Data_Adr
      01008F32H   BLOCK     CODE     NEAR LAB  LVL=1
      01008F34H   LINE      ---      ---       #92
      01008F38H   LINE      ---      ---       #93
      01008F3DH   LINE      ---      ---       #94
      01008F42H   LINE      ---      ---       #95
      01008F4BH   LINE      ---      ---       #96
      01008F55H   LINE      ---      ---       #97
      01008F55H   LINE      ---      ---       #99
      01008F60H   LINE      ---      ---       #100
      01008F62H   LINE      ---      ---       #101
      01008F6AH   LINE      ---      ---       #102
      01008F6CH   LINE      ---      ---       #103
      02000122H   SYMBOL    XDATA    BYTE      i
      02000123H   SYMBOL    XDATA    BYTE      byte
      ---         BLOCKEND  CODE     ---       LVL=1
      ---         BLOCKEND  CODE     ---       LVL=0

      0100C3DEH   BLOCK     CODE     ---       LVL=0
      0100C3DEH   LINE      ---      ---       #106
      0100C3DEH   LINE      ---      ---       #107
      0100C3DEH   LINE      ---      ---       #108
      0100C3E0H   LINE      ---      ---       #109
      0100C3E2H   LINE      ---      ---       #110
      0100C3E6H   LINE      ---      ---       #111
      ---         BLOCKEND  ---      ---       LVL=0

      01008F06H   BLOCK     CODE     ---       LVL=0
      01008F11H   LINE      ---      ---       #115
      01008F11H   LINE      ---      ---       #116
      00000007H   SYMBOL    DATA     BYTE      out
      01008F11H   BLOCK     CODE     NEAR LAB  LVL=1
      01008F11H   LINE      ---      ---       #117
      01008F13H   LINE      ---      ---       #118
      01008F13H   LINE      ---      ---       #119
      01008F13H   LINE      ---      ---       #120
      01008F13H   LINE      ---      ---       #121
LX51 LINKER/LOCATER V4.66.1.0                                                         04/08/2019  16:56:50  PAGE 96


      01008F17H   LINE      ---      ---       #122
      01008F17H   LINE      ---      ---       #123
      01008F19H   LINE      ---      ---       #124
      01008F1BH   LINE      ---      ---       #126
      01008F1BH   LINE      ---      ---       #127
      01008F1DH   LINE      ---      ---       #128
      01008F1DH   LINE      ---      ---       #131
      01008F1FH   LINE      ---      ---       #132
      01008F23H   LINE      ---      ---       #133
      01008F27H   LINE      ---      ---       #134
      01008F29H   LINE      ---      ---       #135
      01008F2EH   LINE      ---      ---       #136
      00000006H   SYMBOL    DATA     BYTE      i
      00000007H   SYMBOL    DATA     BYTE      OUT
      ---         BLOCKEND  CODE     ---       LVL=1
      ---         BLOCKEND  CODE     ---       LVL=0

      0100C3E8H   BLOCK     CODE     ---       LVL=0
      0100C3E8H   LINE      ---      ---       #139
      0100C3E8H   LINE      ---      ---       #140
      0100C3E8H   BLOCK     CODE     NEAR LAB  LVL=1
      0100C3E8H   LINE      ---      ---       #141
      0100C3EBH   LINE      ---      ---       #143
      0100C3EBH   LINE      ---      ---       #144
      0100C3EBH   LINE      ---      ---       #145
      0100C3EFH   LINE      ---      ---       #146
      0100C3F3H   LINE      ---      ---       #147
      0100C3F5H   LINE      ---      ---       #148
      0100C3F6H   LINE      ---      ---       #149
      0100C3F9H   LINE      ---      ---       #150
      0100C3F9H   LINE      ---      ---       #151
      0100C3FCH   LINE      ---      ---       #152
      0100C3FCH   LINE      ---      ---       #154
      0100C3FDH   LINE      ---      ---       #155
      0100C3FEH   LINE      ---      ---       #156
      0100C3FFH   LINE      ---      ---       #157
      0100C400H   LINE      ---      ---       #158
      0100C402H   LINE      ---      ---       #159
      0100C407H   LINE      ---      ---       #160
      0100C40AH   LINE      ---      ---       #161
      00000007H   SYMBOL    DATA     BYTE      i
      00000006H   SYMBOL    DATA     BYTE      in
      00000020H.0 SYMBOL    BIT      BIT       temp
      ---         BLOCKEND  CODE     ---       LVL=1
      ---         BLOCKEND  CODE     ---       LVL=0

      01008F7BH   BLOCK     CODE     ---       LVL=0
      01008F7BH   LINE      ---      ---       #164
      01008F80H   LINE      ---      ---       #169
      01008F84H   LINE      ---      ---       #170
      01008F89H   LINE      ---      ---       #171
      01008F8EH   LINE      ---      ---       #172
      01008F96H   LINE      ---      ---       #173
      01008F98H   LINE      ---      ---       #174
      02000119H   SYMBOL    XDATA    DWORD     Dst_Addr
      ---         BLOCKEND  ---      ---       LVL=0

      ---         MODULE    ---      ---       SHT21
      0100A98DH   PUBLIC    CODE     ---       SHT21_ReadData
      01006BFDH   PUBLIC    CODE     ---       SHT21_WriteRH
      01006BF7H   PUBLIC    CODE     ---       SHT21_WriteTemp
      00000092H   SFRSYM    DATA     BYTE      P1M0
      00000091H   SFRSYM    DATA     BYTE      P1M1
      00000090H.1 SFRSYM    DATA     BIT       P11
      00000090H.2 SFRSYM    DATA     BIT       P12
LX51 LINKER/LOCATER V4.66.1.0                                                         04/08/2019  16:56:50  PAGE 97


      01006BE4H   SYMBOL    CODE     ---       SHT21_Start
      01006F5EH   SYMBOL    CODE     ---       SHT21_Stop
      0100AABBH   SYMBOL    CODE     ---       _SHT2x_CheckCrc
      01006B5FH   SYMBOL    CODE     ---       _SHT21_Write8Bit
      01006AFCH   SYMBOL    CODE     ---       _SHT21_Read8Bit
      01006BD5H   SYMBOL    CODE     ---       SCL_INPUT_HIGH
      01006BF0H   SYMBOL    CODE     ---       SDA_INPUT_HIGH
      01006BCCH   SYMBOL    CODE     ---       SCL_OUTPUT_LOW
      01006F6CH   SYMBOL    CODE     ---       SDA_OUTPUT_LOW

      01006BD5H   BLOCK     CODE     ---       LVL=0
      01006BDDH   LINE      ---      ---       #46
      01006BDDH   LINE      ---      ---       #47
      01006BDDH   LINE      ---      ---       #48
      01006BE0H   LINE      ---      ---       #49
      01006BE3H   LINE      ---      ---       #50
      ---         BLOCKEND  ---      ---       LVL=0

      01006BF0H   BLOCK     CODE     ---       LVL=0
      01006BF0H   LINE      ---      ---       #52
      01006BF0H   LINE      ---      ---       #53
      01006BF0H   LINE      ---      ---       #54
      01006BF3H   LINE      ---      ---       #55
      01006BF6H   LINE      ---      ---       #56
      ---         BLOCKEND  ---      ---       LVL=0

      01006BCCH   BLOCK     CODE     ---       LVL=0
      01006BCCH   LINE      ---      ---       #57
      01006BCCH   LINE      ---      ---       #58
      01006BCCH   LINE      ---      ---       #59
      01006BCFH   LINE      ---      ---       #60
      01006BD2H   LINE      ---      ---       #61
      01006BD4H   LINE      ---      ---       #62
      ---         BLOCKEND  ---      ---       LVL=0

      01006F6CH   BLOCK     CODE     ---       LVL=0
      01006F6CH   LINE      ---      ---       #63
      01006F6CH   LINE      ---      ---       #64
      01006F6CH   LINE      ---      ---       #65
      01006F6FH   LINE      ---      ---       #66
      01006F72H   LINE      ---      ---       #67
      01006F74H   LINE      ---      ---       #68
      ---         BLOCKEND  ---      ---       LVL=0

      01006BE4H   BLOCK     CODE     ---       LVL=0
      01006BE4H   LINE      ---      ---       #70
      01006BE4H   LINE      ---      ---       #71
      01006BE4H   LINE      ---      ---       #72
      01006BE6H   LINE      ---      ---       #73
      01006BE8H   LINE      ---      ---       #74
      01006BEAH   LINE      ---      ---       #75
      01006BECH   LINE      ---      ---       #76
      01006BEEH   LINE      ---      ---       #77
      ---         BLOCKEND  ---      ---       LVL=0

      01006F5EH   BLOCK     CODE     ---       LVL=0
      01006F5EH   LINE      ---      ---       #81
      01006F5EH   LINE      ---      ---       #82
      01006F5EH   LINE      ---      ---       #83
      01006F60H   LINE      ---      ---       #84
      01006F62H   LINE      ---      ---       #85
      01006F64H   LINE      ---      ---       #87
      01006F66H   LINE      ---      ---       #88
      ---         BLOCKEND  ---      ---       LVL=0

LX51 LINKER/LOCATER V4.66.1.0                                                         04/08/2019  16:56:50  PAGE 98


      01006B5FH   BLOCK     CODE     ---       LVL=0
      01006B63H   LINE      ---      ---       #94
      01006B68H   LINE      ---      ---       #95
      0200011AH   SYMBOL    XDATA    BYTE      i_input
      01006B68H   BLOCK     CODE     NEAR LAB  LVL=1
      01006B68H   LINE      ---      ---       #98
      01006B7EH   LINE      ---      ---       #99
      01006B7EH   LINE      ---      ---       #100
      01006B80H   LINE      ---      ---       #101
      01006B8BH   LINE      ---      ---       #102
      01006B8BH   LINE      ---      ---       #103
      01006B8DH   LINE      ---      ---       #104
      01006B8FH   LINE      ---      ---       #106
      01006B8FH   LINE      ---      ---       #107
      01006B91H   LINE      ---      ---       #108
      01006B91H   LINE      ---      ---       #110
      01006B93H   LINE      ---      ---       #113
      01006BA0H   LINE      ---      ---       #114
      01006BA2H   LINE      ---      ---       #115
      01006BA4H   LINE      ---      ---       #116
      01006BA6H   LINE      ---      ---       #118
      01006BA8H   LINE      ---      ---       #121
      01006BAFH   LINE      ---      ---       #122
      01006BB2H   LINE      ---      ---       #123
      01006BB2H   LINE      ---      ---       #124
      01006BC7H   LINE      ---      ---       #125
      01006BC7H   LINE      ---      ---       #126
      01006BC9H   LINE      ---      ---       #127
      01006BCBH   LINE      ---      ---       #128
      0200011BH   SYMBOL    XDATA    WORD      i
      ---         BLOCKEND  CODE     ---       LVL=1
      ---         BLOCKEND  CODE     ---       LVL=0

      01006AFCH   BLOCK     CODE     ---       LVL=0
      01006AFCH   LINE      ---      ---       #131
      01006B01H   LINE      ---      ---       #132
      02000123H   SYMBOL    XDATA    BYTE      ask
      01006B01H   BLOCK     CODE     NEAR LAB  LVL=1
      01006B01H   LINE      ---      ---       #133
      01006B06H   LINE      ---      ---       #135
      01006B08H   LINE      ---      ---       #137
      01006B17H   LINE      ---      ---       #138
      01006B17H   LINE      ---      ---       #139
      01006B19H   LINE      ---      ---       #141
      01006B1CH   LINE      ---      ---       #142
      01006B1CH   LINE      ---      ---       #143
      01006B2AH   LINE      ---      ---       #144
      01006B2AH   LINE      ---      ---       #145
      01006B2CH   LINE      ---      ---       #146
      01006B2EH   LINE      ---      ---       #147
      01006B38H   LINE      ---      ---       #148
      01006B3EH   LINE      ---      ---       #149
      01006B3EH   LINE      ---      ---       #150
      01006B40H   LINE      ---      ---       #151
      01006B42H   LINE      ---      ---       #153
      01006B42H   LINE      ---      ---       #154
      01006B44H   LINE      ---      ---       #155
      01006B44H   LINE      ---      ---       #156
      01006B46H   LINE      ---      ---       #159
      01006B48H   LINE      ---      ---       #160
      01006B4AH   LINE      ---      ---       #161
      01006B4CH   LINE      ---      ---       #162
      01006B4EH   LINE      ---      ---       #163
      01006B50H   LINE      ---      ---       #164
      01006B55H   LINE      ---      ---       #165
LX51 LINKER/LOCATER V4.66.1.0                                                         04/08/2019  16:56:50  PAGE 99


      02000124H   SYMBOL    XDATA    BYTE      mask
      02000125H   SYMBOL    XDATA    BYTE      rxByte
      ---         BLOCKEND  CODE     ---       LVL=1
      ---         BLOCKEND  CODE     ---       LVL=0

      01006BF7H   BLOCK     CODE     ---       LVL=0
      01006BF7H   LINE      ---      ---       #170
      01006BF7H   LINE      ---      ---       #171
      01006BF7H   BLOCK     CODE     NEAR LAB  LVL=1
      01006BF7H   LINE      ---      ---       #173
      01006BF9H   LINE      ---      ---       #175
      00000007H   SYMBOL    DATA     BYTE      Read_SHT21_Err
      ---         BLOCKEND  CODE     ---       LVL=1
      ---         BLOCKEND  CODE     ---       LVL=0

      01006BFDH   BLOCK     CODE     ---       LVL=0
      01006BFDH   LINE      ---      ---       #183
      01006BFDH   LINE      ---      ---       #184
      01006BFDH   BLOCK     CODE     NEAR LAB  LVL=1
      01006BFDH   LINE      ---      ---       #186
      01006BFFH   LINE      ---      ---       #188
      00000007H   SYMBOL    DATA     BYTE      Read_SHT21_Err
      ---         BLOCKEND  CODE     ---       LVL=1
      ---         BLOCKEND  CODE     ---       LVL=0

      0100A98DH   BLOCK     CODE     ---       LVL=0
      0100A98DH   LINE      ---      ---       #230
      0100A98DH   LINE      ---      ---       #231
      0100A98DH   BLOCK     CODE     NEAR LAB  LVL=1
      0100A98DH   LINE      ---      ---       #238
      0100A997H   LINE      ---      ---       #240
      0100A9A1H   LINE      ---      ---       #242
      0100A9ABH   LINE      ---      ---       #244
      0100A9AEH   LINE      ---      ---       #246
      0100A9B6H   LINE      ---      ---       #247
      0100A9BEH   LINE      ---      ---       #248
      0100A9D0H   LINE      ---      ---       #249
      0100A9D4H   LINE      ---      ---       #250
      0100A9D4H   LINE      ---      ---       #251
      0100A9D6H   LINE      ---      ---       #252
      0100A9D6H   LINE      ---      ---       #254
      0100A9E2H   LINE      ---      ---       #255
      0100A9F9H   LINE      ---      ---       #258
      0100A9F9H   LINE      ---      ---       #262
      0100A9F9H   LINE      ---      ---       #265
      0100AA0AH   LINE      ---      ---       #266
      0100AA0AH   LINE      ---      ---       #267
      0100AA0FH   LINE      ---      ---       #268
      0100AA0FH   LINE      ---      ---       #270
      0100AA16H   LINE      ---      ---       #271
      0100AA16H   LINE      ---      ---       #272
      0100AA28H   LINE      ---      ---       #275
      0100AA2AH   LINE      ---      ---       #277
      0100AA2AH   LINE      ---      ---       #279
      0100AA2AH   LINE      ---      ---       #280
      0200011AH   SYMBOL    XDATA    BYTE      TempH
      0200011BH   SYMBOL    XDATA    BYTE      TempL
      0200011CH   SYMBOL    XDATA    DWORD     TempLong
      02000120H   SYMBOL    XDATA    BYTE      checksum
      02000121H   SYMBOL    XDATA    ---       Cdata
      00000007H   SYMBOL    DATA     BYTE      CRC8_error
      ---         BLOCKEND  CODE     ---       LVL=1
      ---         BLOCKEND  CODE     ---       LVL=0

      0100AABBH   BLOCK     CODE     ---       LVL=0
LX51 LINKER/LOCATER V4.66.1.0                                                         04/08/2019  16:56:50  PAGE 100


      0100AABBH   LINE      ---      ---       #289
      02000123H   SYMBOL    XDATA    ---       Cdata
      02000126H   SYMBOL    XDATA    BYTE      nbrOfBytes
      02000127H   SYMBOL    XDATA    BYTE      checksum
      0100AABBH   BLOCK     CODE     NEAR LAB  LVL=1
      0100AABDH   LINE      ---      ---       #296
      0100AAC2H   LINE      ---      ---       #297
      0100AAC2H   LINE      ---      ---       #298
      0100AAC6H   LINE      ---      ---       #299
      0100AAC8H   LINE      ---      ---       #300
      0100AAC8H   LINE      ---      ---       #303
      0100AACFH   LINE      ---      ---       #304
      0100AACFH   LINE      ---      ---       #305
      0100AAD8H   LINE      ---      ---       #306
      0100AADAH   LINE      ---      ---       #308
      0100AADAH   LINE      ---      ---       #309
      0100AAE2H   LINE      ---      ---       #310
      0100AAE2H   LINE      ---      ---       #311
      0100AAE4H   LINE      ---      ---       #312
      0100AAE7H   LINE      ---      ---       #313
      0100AAF3H   LINE      ---      ---       #314
      0100AAF3H   LINE      ---      ---       #315
      0100AAF5H   LINE      ---      ---       #316
      0100AAF5H   LINE      ---      ---       #318
      0100AAF5H   LINE      ---      ---       #319
      0100AAF5H   LINE      ---      ---       #320
      0100AAF5H   LINE      ---      ---       #321
      02000128H   SYMBOL    XDATA    BYTE      crc
      00000005H   SYMBOL    DATA     BYTE      byteCtr
      00000004H   SYMBOL    DATA     BYTE      bit8
      ---         BLOCKEND  CODE     ---       LVL=1
      ---         BLOCKEND  CODE     ---       LVL=0

      ---         MODULE    ---      ---       RX8010
      0100C4B9H   PUBLIC    CODE     ---       _RX8010_GetTime
      0100C43FH   PUBLIC    CODE     ---       _RX8010_SetTime
      01007161H   PUBLIC    CODE     ---       RX8010_Initialize
      01007045H   PUBLIC    CODE     ---       _readEEone
      000000C1H   SFRSYM    DATA     BYTE      WDT_CONTR
      000000A8H.7 SFRSYM    DATA     BIT       EA
      000000A0H.5 SFRSYM    DATA     BIT       P25
      000000A0H.6 SFRSYM    DATA     BIT       P26
      00000096H   SFRSYM    DATA     BYTE      P2M0
      00000095H   SFRSYM    DATA     BYTE      P2M1
      0100C40BH   SYMBOL    CODE     ---       SCL_DIR_OUTPUT
      0100C438H   SYMBOL    CODE     ---       SDA_DIR_INPUT
      0100722EH   SYMBOL    CODE     ---       SDA_DIR_OUTPUT
      0100C412H   SYMBOL    CODE     ---       IC_start
      01006F85H   SYMBOL    CODE     ---       IC_stop
      010070C1H   SYMBOL    CODE     ---       _IC_WriteByte
      01007004H   SYMBOL    CODE     ---       IC_ReadByte
      0100711EH   SYMBOL    CODE     ---       _writeEEone

      0100C40BH   BLOCK     CODE     ---       LVL=0
      0100C40BH   LINE      ---      ---       #30
      0100C40BH   LINE      ---      ---       #31
      0100C40BH   LINE      ---      ---       #32
      0100C40EH   LINE      ---      ---       #33
      0100C411H   LINE      ---      ---       #34
      ---         BLOCKEND  ---      ---       LVL=0

      0100C438H   BLOCK     CODE     ---       LVL=0
      0100C438H   LINE      ---      ---       #36
      0100C438H   LINE      ---      ---       #37
      0100C438H   LINE      ---      ---       #38
LX51 LINKER/LOCATER V4.66.1.0                                                         04/08/2019  16:56:50  PAGE 101


      0100C43BH   LINE      ---      ---       #39
      0100C43EH   LINE      ---      ---       #40
      ---         BLOCKEND  ---      ---       LVL=0

      0100722EH   BLOCK     CODE     ---       LVL=0
      0100722EH   LINE      ---      ---       #41
      0100722EH   LINE      ---      ---       #42
      0100722EH   LINE      ---      ---       #43
      01007231H   LINE      ---      ---       #44
      01007234H   LINE      ---      ---       #45
      ---         BLOCKEND  ---      ---       LVL=0

      0100C412H   BLOCK     CODE     ---       LVL=0
      0100C412H   LINE      ---      ---       #51
      0100C412H   LINE      ---      ---       #52
      0100C412H   LINE      ---      ---       #53
      0100C414H   LINE      ---      ---       #54
      0100C417H   LINE      ---      ---       #55
      0100C419H   LINE      ---      ---       #56
      0100C41BH   LINE      ---      ---       #57
      0100C41EH   LINE      ---      ---       #58
      0100C420H   LINE      ---      ---       #59
      0100C423H   LINE      ---      ---       #60
      0100C425H   LINE      ---      ---       #61
      ---         BLOCKEND  ---      ---       LVL=0

      01006F85H   BLOCK     CODE     ---       LVL=0
      01006F85H   LINE      ---      ---       #67
      01006F85H   LINE      ---      ---       #68
      01006F85H   LINE      ---      ---       #69
      01006F88H   LINE      ---      ---       #72
      01006F8AH   LINE      ---      ---       #73
      01006F8CH   LINE      ---      ---       #74
      01006F8EH   LINE      ---      ---       #75
      01006F90H   LINE      ---      ---       #76
      ---         BLOCKEND  ---      ---       LVL=0

      010070C1H   BLOCK     CODE     ---       LVL=0
      010070C1H   LINE      ---      ---       #85
      010070C6H   LINE      ---      ---       #86
      020001AAH   SYMBOL    XDATA    BYTE      wdata
      010070C6H   BLOCK     CODE     NEAR LAB  LVL=1
      010070C6H   LINE      ---      ---       #88
      010070C8H   LINE      ---      ---       #89
      010070CBH   LINE      ---      ---       #90
      010070CBH   LINE      ---      ---       #91
      010070CDH   LINE      ---      ---       #92
      010070D0H   LINE      ---      ---       #93
      010070D7H   LINE      ---      ---       #94
      010070D7H   LINE      ---      ---       #95
      010070D9H   LINE      ---      ---       #96
      010070DBH   LINE      ---      ---       #98
      010070DBH   LINE      ---      ---       #99
      010070DDH   LINE      ---      ---       #100
      010070DDH   LINE      ---      ---       #101
      010070E0H   LINE      ---      ---       #102
      010070E2H   LINE      ---      ---       #103
      010070E4H   LINE      ---      ---       #104
      010070EFH   LINE      ---      ---       #106
      010070F1H   LINE      ---      ---       #107
      010070F3H   LINE      ---      ---       #108
      010070F6H   LINE      ---      ---       #109
      010070F8H   LINE      ---      ---       #110
      010070FAH   LINE      ---      ---       #111
      010070FFH   LINE      ---      ---       #112
LX51 LINKER/LOCATER V4.66.1.0                                                         04/08/2019  16:56:50  PAGE 102


      01007102H   LINE      ---      ---       #113
      01007102H   LINE      ---      ---       #114
      01007112H   LINE      ---      ---       #115
      01007112H   LINE      ---      ---       #116
      01007114H   LINE      ---      ---       #117
      01007116H   LINE      ---      ---       #118
      020001ABH   SYMBOL    XDATA    BYTE      i
      ---         BLOCKEND  CODE     ---       LVL=1
      ---         BLOCKEND  CODE     ---       LVL=0

      01007004H   BLOCK     CODE     ---       LVL=0
      01007004H   LINE      ---      ---       #125
      01007004H   LINE      ---      ---       #126
      01007004H   BLOCK     CODE     NEAR LAB  LVL=1
      01007004H   LINE      ---      ---       #128
      01007009H   LINE      ---      ---       #129
      0100700BH   LINE      ---      ---       #130
      0100700DH   LINE      ---      ---       #131
      0100700FH   LINE      ---      ---       #132
      01007012H   LINE      ---      ---       #133
      01007016H   LINE      ---      ---       #134
      01007016H   LINE      ---      ---       #135
      01007018H   LINE      ---      ---       #136
      0100701BH   LINE      ---      ---       #137
      01007023H   LINE      ---      ---       #138
      01007029H   LINE      ---      ---       #140
      0100702BH   LINE      ---      ---       #141
      0100702EH   LINE      ---      ---       #142
      01007030H   LINE      ---      ---       #143
      01007032H   LINE      ---      ---       #144
      0100703AH   LINE      ---      ---       #145
      0100703CH   LINE      ---      ---       #146
      0100703FH   LINE      ---      ---       #149
      01007044H   LINE      ---      ---       #150
      020001AAH   SYMBOL    XDATA    BYTE      i
      020001ABH   SYMBOL    XDATA    BYTE      IC_data
      ---         BLOCKEND  CODE     ---       LVL=1
      ---         BLOCKEND  CODE     ---       LVL=0

      01007045H   BLOCK     CODE     ---       LVL=0
      01007045H   LINE      ---      ---       #157
      020001A4H   SYMBOL    XDATA    BYTE      addr
      020001A5H   SYMBOL    XDATA    BYTE      num
      020001A6H   SYMBOL    XDATA    ---       Data
      01007048H   BLOCK     CODE     NEAR LAB  LVL=1
      0100704DH   LINE      ---      ---       #162
      0100704DH   LINE      ---      ---       #163
      0100704FH   LINE      ---      ---       #164
      0100704FH   LINE      ---      ---       #165
      01007059H   LINE      ---      ---       #166
      01007059H   LINE      ---      ---       #167
      0100705BH   LINE      ---      ---       #168
      0100705BH   LINE      ---      ---       #169
      0100705EH   LINE      ---      ---       #170
      01007065H   LINE      ---      ---       #171
      01007065H   LINE      ---      ---       #172
      0100706BH   LINE      ---      ---       #173
      0100706BH   LINE      ---      ---       #174
      0100707EH   LINE      ---      ---       #175
      0100707EH   LINE      ---      ---       #176
      0100708CH   LINE      ---      ---       #177
      0100708EH   LINE      ---      ---       #178
      01007090H   LINE      ---      ---       #179
      01007092H   LINE      ---      ---       #180
      0100709AH   LINE      ---      ---       #181
LX51 LINKER/LOCATER V4.66.1.0                                                         04/08/2019  16:56:50  PAGE 103


      010070B3H   LINE      ---      ---       #182
      010070B5H   LINE      ---      ---       #183
      010070B7H   LINE      ---      ---       #184
      010070B9H   LINE      ---      ---       #185
      010070BBH   LINE      ---      ---       #186
      010070BEH   LINE      ---      ---       #187
      010070C0H   LINE      ---      ---       #188
      020001A9H   SYMBOL    XDATA    BYTE      i
      ---         BLOCKEND  CODE     ---       LVL=1
      ---         BLOCKEND  CODE     ---       LVL=0

      0100711EH   BLOCK     CODE     ---       LVL=0
      0100711EH   LINE      ---      ---       #197
      0200011DH   SYMBOL    XDATA    BYTE      addr
      0200011EH   SYMBOL    XDATA    BYTE      num
      0200011FH   SYMBOL    XDATA    ---       Data
      01007121H   BLOCK     CODE     NEAR LAB  LVL=1
      01007126H   LINE      ---      ---       #203
      01007126H   LINE      ---      ---       #205
      01007129H   LINE      ---      ---       #206
      01007129H   LINE      ---      ---       #207
      01007133H   LINE      ---      ---       #208
      01007133H   LINE      ---      ---       #210
      01007136H   LINE      ---      ---       #211
      01007136H   LINE      ---      ---       #212
      01007140H   LINE      ---      ---       #213
      01007140H   LINE      ---      ---       #214
      0100714CH   LINE      ---      ---       #215
      0100714CH   LINE      ---      ---       #217
      0100714FH   LINE      ---      ---       #218
      0100714FH   LINE      ---      ---       #219
      01007157H   LINE      ---      ---       #220
      0100715AH   LINE      ---      ---       #221
      0100715CH   LINE      ---      ---       #222
      0100715EH   LINE      ---      ---       #223
      01007160H   LINE      ---      ---       #226
      02000122H   SYMBOL    XDATA    BYTE      i
      ---         BLOCKEND  CODE     ---       LVL=1
      ---         BLOCKEND  CODE     ---       LVL=0

      01007161H   BLOCK     CODE     ---       LVL=0
      01007161H   LINE      ---      ---       #230
      01007161H   LINE      ---      ---       #231
      01007161H   BLOCK     CODE     NEAR LAB  LVL=1
      01007161H   LINE      ---      ---       #236
      01007163H   LINE      ---      ---       #237
      01007168H   LINE      ---      ---       #239
      0100716CH   LINE      ---      ---       #240
      01007170H   LINE      ---      ---       #241
      01007170H   LINE      ---      ---       #242
      0100717BH   LINE      ---      ---       #243
      0100717BH   LINE      ---      ---       #244
      01007180H   LINE      ---      ---       #245
      01007182H   LINE      ---      ---       #246
      01007182H   LINE      ---      ---       #247
      01007189H   LINE      ---      ---       #248
      0100718CH   LINE      ---      ---       #249
      01007192H   LINE      ---      ---       #250
      0100719BH   LINE      ---      ---       #252
      010071A1H   LINE      ---      ---       #253
      010071A1H   LINE      ---      ---       #254
      010071ACH   LINE      ---      ---       #255
      010071ACH   LINE      ---      ---       #256
      010071B2H   LINE      ---      ---       #257
      010071C0H   LINE      ---      ---       #260
LX51 LINKER/LOCATER V4.66.1.0                                                         04/08/2019  16:56:50  PAGE 104


      010071C4H   LINE      ---      ---       #261
      010071CDH   LINE      ---      ---       #263
      010071D3H   LINE      ---      ---       #264
      010071D6H   LINE      ---      ---       #265
      010071E2H   LINE      ---      ---       #269
      010071E4H   LINE      ---      ---       #270
      010071E6H   LINE      ---      ---       #271
      010071EAH   LINE      ---      ---       #272
      010071EEH   LINE      ---      ---       #273
      010071F0H   LINE      ---      ---       #274
      010071FCH   LINE      ---      ---       #278
      01007215H   LINE      ---      ---       #288
      01007215H   LINE      ---      ---       #289
      01007215H   LINE      ---      ---       #290
      01007217H   LINE      ---      ---       #291
      0100721CH   LINE      ---      ---       #292
      02000114H   SYMBOL    XDATA    ---       Rdata
      0200011BH   SYMBOL    XDATA    BYTE      i
      0200011CH   SYMBOL    XDATA    BYTE      Init_State
      ---         BLOCKEND  CODE     ---       LVL=1
      ---         BLOCKEND  CODE     ---       LVL=0

      0100C43FH   BLOCK     CODE     ---       LVL=0
      0100C43FH   LINE      ---      ---       #296
      02000113H   SYMBOL    XDATA    ---       p
      0100C43FH   BLOCK     CODE     NEAR LAB  LVL=1
      0100C448H   LINE      ---      ---       #303
      0100C452H   LINE      ---      ---       #307
      0100C45CH   LINE      ---      ---       #308
      0100C463H   LINE      ---      ---       #309
      0100C46DH   LINE      ---      ---       #317
      0100C477H   LINE      ---      ---       #318
      0100C481H   LINE      ---      ---       #319
      0100C487H   LINE      ---      ---       #320
      0100C494H   LINE      ---      ---       #322
      02000116H   SYMBOL    XDATA    ---       Rdata
      ---         BLOCKEND  CODE     ---       LVL=1
      ---         BLOCKEND  CODE     ---       LVL=0

      0100C4B9H   BLOCK     CODE     ---       LVL=0
      0100C4B9H   LINE      ---      ---       #328
      0100C4BFH   LINE      ---      ---       #329
      0200019AH   SYMBOL    XDATA    ---       p
      0100C4BFH   BLOCK     CODE     NEAR LAB  LVL=1
      0100C4BFH   LINE      ---      ---       #332
      0100C4CCH   LINE      ---      ---       #333
      0100C4D5H   LINE      ---      ---       #337
      0100C4E1H   LINE      ---      ---       #338
      0100C4EBH   LINE      ---      ---       #339
      0100C4F5H   LINE      ---      ---       #359
      0100C4FFH   LINE      ---      ---       #360
      0100C509H   LINE      ---      ---       #361
      0200019DH   SYMBOL    XDATA    ---       Rdata
      ---         BLOCKEND  CODE     ---       LVL=1
      ---         BLOCKEND  CODE     ---       LVL=0

      ---         MODULE    ---      ---       DS18B20
      02000360H   PUBLIC    XDATA    BYTE      Read_18B20_Value2
      0200035FH   PUBLIC    XDATA    BYTE      Read_18B20_Value
      02000123H   PUBLIC    XDATA    BYTE      ?_DS18B20_CheckCrc?BYTE
      0100AB09H   PUBLIC    CODE     ---       _DS18B20_CheckCrc
      01006ACEH   PUBLIC    CODE     ---       _DS18B20_WriteByte
      01006A5DH   PUBLIC    CODE     ---       DS18B20_ReadByte
      00000090H   SFRSYM    DATA     BIT       P10
      000000B0H.7 SFRSYM    DATA     BIT       P37
LX51 LINKER/LOCATER V4.66.1.0                                                         04/08/2019  16:56:50  PAGE 105



      01006A5DH   BLOCK     CODE     ---       LVL=0
      01006A5DH   LINE      ---      ---       #16
      01006A5DH   LINE      ---      ---       #17
      01006A5DH   BLOCK     CODE     NEAR LAB  LVL=1
      01006A5DH   LINE      ---      ---       #21
      01006A62H   LINE      ---      ---       #22
      01006A64H   LINE      ---      ---       #24
      01006A68H   LINE      ---      ---       #25
      01006A68H   LINE      ---      ---       #26
      01006A6FH   LINE      ---      ---       #27
      01006A74H   LINE      ---      ---       #28
      01006A76H   LINE      ---      ---       #29
      01006A78H   LINE      ---      ---       #30
      01006A7CH   LINE      ---      ---       #34
      01006A80H   LINE      ---      ---       #35
      01006A84H   LINE      ---      ---       #36
      01006A87H   LINE      ---      ---       #37
      01006A87H   LINE      ---      ---       #38
      01006A8EH   LINE      ---      ---       #39
      01006A8EH   LINE      ---      ---       #40
      01006A91H   LINE      ---      ---       #41
      01006A91H   LINE      ---      ---       #42
      01006A98H   LINE      ---      ---       #43
      01006A98H   LINE      ---      ---       #44
      01006A9EH   LINE      ---      ---       #45
      01006AA5H   LINE      ---      ---       #47
      02000123H   SYMBOL    XDATA    BYTE      i
      00000020H.1 SYMBOL    BIT      BIT       Wei
      00000020H.2 SYMBOL    BIT      BIT       Wei2
      ---         BLOCKEND  CODE     ---       LVL=1
      ---         BLOCKEND  CODE     ---       LVL=0

      01006AAEH   BLOCK     CODE     ---       LVL=0
      01006ACEH   LINE      ---      ---       #49
      01006AD3H   LINE      ---      ---       #50
      02000123H   SYMBOL    XDATA    BYTE      dat
      01006AD3H   BLOCK     CODE     NEAR LAB  LVL=1
      01006AD3H   LINE      ---      ---       #53
      01006AD6H   LINE      ---      ---       #54
      01006AD6H   LINE      ---      ---       #55
      01006AD8H   LINE      ---      ---       #56
      01006ADAH   LINE      ---      ---       #57
      01006ADCH   LINE      ---      ---       #58
      01006AE3H   LINE      ---      ---       #59
      01006AE3H   LINE      ---      ---       #60
      01006AE5H   LINE      ---      ---       #61
      01006AE7H   LINE      ---      ---       #62
      01006AE9H   LINE      ---      ---       #64
      01006AE9H   LINE      ---      ---       #65
      01006AEBH   LINE      ---      ---       #66
      01006AEDH   LINE      ---      ---       #67
      01006AEDH   LINE      ---      ---       #68
      01006AF1H   LINE      ---      ---       #72
      01006AFBH   LINE      ---      ---       #75
      02000124H   SYMBOL    XDATA    BYTE      i
      ---         BLOCKEND  CODE     ---       LVL=1
      ---         BLOCKEND  CODE     ---       LVL=0

      0100AB09H   BLOCK     CODE     ---       LVL=0
      0100AB09H   LINE      ---      ---       #77
      02000123H   SYMBOL    XDATA    ---       Cdata
      02000126H   SYMBOL    XDATA    BYTE      nbrOfBytes
      02000127H   SYMBOL    XDATA    BYTE      checksum
      0100AB09H   BLOCK     CODE     NEAR LAB  LVL=1
LX51 LINKER/LOCATER V4.66.1.0                                                         04/08/2019  16:56:50  PAGE 106


      0100AB0BH   LINE      ---      ---       #83
      0100AB0DH   LINE      ---      ---       #86
      0100AB12H   LINE      ---      ---       #87
      0100AB12H   LINE      ---      ---       #88
      0100AB16H   LINE      ---      ---       #90
      0100AB18H   LINE      ---      ---       #91
      0100AB18H   LINE      ---      ---       #92
      0100AB24H   LINE      ---      ---       #93
      0100AB24H   LINE      ---      ---       #94
      0100AB28H   LINE      ---      ---       #95
      0100AB2CH   LINE      ---      ---       #96
      0100AB2FH   LINE      ---      ---       #97
      0100AB31H   LINE      ---      ---       #99
      0100AB31H   LINE      ---      ---       #100
      0100AB38H   LINE      ---      ---       #101
      0100AB38H   LINE      ---      ---       #102
      0100AB3FH   LINE      ---      ---       #103
      0100AB44H   LINE      ---      ---       #105
      0100AB47H   LINE      ---      ---       #106
      0100AB55H   LINE      ---      ---       #107
      0100AB55H   LINE      ---      ---       #108
      0100AB57H   LINE      ---      ---       #109
      0100AB57H   LINE      ---      ---       #111
      0100AB57H   LINE      ---      ---       #112
      0100AB57H   LINE      ---      ---       #113
      0100AB57H   LINE      ---      ---       #114
      02000128H   SYMBOL    XDATA    BYTE      crc
      00000005H   SYMBOL    DATA     BYTE      byteCtr
      00000007H   SYMBOL    DATA     BYTE      bit8
      02000129H   SYMBOL    XDATA    BYTE      crc_1byte
      ---         BLOCKEND  CODE     ---       LVL=1
      ---         BLOCKEND  CODE     ---       LVL=0

      ---         MODULE    ---      ---       KEY_DATAS
      0200032EH   PUBLIC    XDATA    BYTE      Key_State_Present
      02000327H   PUBLIC    XDATA    ---       Key_Mute
      02000319H   PUBLIC    XDATA    ---       Key_Mute_Element
      02000318H   PUBLIC    XDATA    BYTE      Key_Mute_Tik
      02000311H   PUBLIC    XDATA    ---       Key_OK
      02000303H   PUBLIC    XDATA    ---       Key_OK_Element
      02000302H   PUBLIC    XDATA    BYTE      Key_OK_Tik
      020002FBH   PUBLIC    XDATA    ---       Key_Down
      020002EDH   PUBLIC    XDATA    ---       Key_Down_Element
      020002ECH   PUBLIC    XDATA    BYTE      Key_Down_Tik
      020002E5H   PUBLIC    XDATA    ---       Key_UP
      020002D7H   PUBLIC    XDATA    ---       Key_UP_Element
      020002D6H   PUBLIC    XDATA    BYTE      Key_UP_Tik
      0100896EH   PUBLIC    CODE     ---       Key_Mute_TikFunc
      01008961H   PUBLIC    CODE     ---       Key_OK_TikFunc
      01008954H   PUBLIC    CODE     ---       Key_Down_TikFunc
      01008947H   PUBLIC    CODE     ---       Key_UP_TikFunc
      0100C526H   SYMBOL    CODE     ---       KeyUpPressShortAction
      0100C52DH   SYMBOL    CODE     ---       KeyUpPressLongFirstAction
      0100C534H   SYMBOL    CODE     ---       KeyUpPressLongRepeatAction
      0100C53BH   SYMBOL    CODE     ---       KeyDownPressShortAction
      0100C542H   SYMBOL    CODE     ---       KeyDownPressLongFirstAction
      0100C549H   SYMBOL    CODE     ---       KeyDownPressLongRepeatAction
      0100C550H   SYMBOL    CODE     ---       KeyOKPressShortAction
      0100C557H   SYMBOL    CODE     ---       KeyOKPressLongFirstAction
      0100C55EH   SYMBOL    CODE     ---       KeyOKPressLongRepeatAction
      0100C376H   SYMBOL    CODE     ---       KeyMutePressShortAction
      0100C565H   SYMBOL    CODE     ---       KeyMutePressLongFirstAction
      0100C56CH   SYMBOL    CODE     ---       KeyMutePressLongRepeatAction

      01008947H   BLOCK     CODE     ---       LVL=0
LX51 LINKER/LOCATER V4.66.1.0                                                         04/08/2019  16:56:50  PAGE 107


      01008947H   LINE      ---      ---       #34
      01008947H   LINE      ---      ---       #35
      01008947H   LINE      ---      ---       #36
      01008950H   LINE      ---      ---       #37
      01008950H   LINE      ---      ---       #38
      01008953H   LINE      ---      ---       #39
      01008953H   LINE      ---      ---       #40
      ---         BLOCKEND  ---      ---       LVL=0

      0100C526H   BLOCK     CODE     ---       LVL=0
      0100C526H   LINE      ---      ---       #42
      0100C526H   LINE      ---      ---       #43
      0100C526H   LINE      ---      ---       #44
      0100C52CH   LINE      ---      ---       #45
      ---         BLOCKEND  ---      ---       LVL=0

      0100C52DH   BLOCK     CODE     ---       LVL=0
      0100C52DH   LINE      ---      ---       #47
      0100C52DH   LINE      ---      ---       #48
      0100C52DH   LINE      ---      ---       #49
      0100C533H   LINE      ---      ---       #50
      ---         BLOCKEND  ---      ---       LVL=0

      0100C534H   BLOCK     CODE     ---       LVL=0
      0100C534H   LINE      ---      ---       #52
      0100C534H   LINE      ---      ---       #53
      0100C534H   LINE      ---      ---       #54
      0100C53AH   LINE      ---      ---       #55
      ---         BLOCKEND  ---      ---       LVL=0

      01008954H   BLOCK     CODE     ---       LVL=0
      01008954H   LINE      ---      ---       #85
      01008954H   LINE      ---      ---       #86
      01008954H   LINE      ---      ---       #87
      0100895DH   LINE      ---      ---       #88
      0100895DH   LINE      ---      ---       #89
      01008960H   LINE      ---      ---       #90
      01008960H   LINE      ---      ---       #91
      ---         BLOCKEND  ---      ---       LVL=0

      0100C53BH   BLOCK     CODE     ---       LVL=0
      0100C53BH   LINE      ---      ---       #94
      0100C53BH   LINE      ---      ---       #95
      0100C53BH   LINE      ---      ---       #96
      0100C541H   LINE      ---      ---       #97
      ---         BLOCKEND  ---      ---       LVL=0

      0100C542H   BLOCK     CODE     ---       LVL=0
      0100C542H   LINE      ---      ---       #99
      0100C542H   LINE      ---      ---       #100
      0100C542H   LINE      ---      ---       #101
      0100C548H   LINE      ---      ---       #102
      ---         BLOCKEND  ---      ---       LVL=0

      0100C549H   BLOCK     CODE     ---       LVL=0
      0100C549H   LINE      ---      ---       #104
      0100C549H   LINE      ---      ---       #105
      0100C549H   LINE      ---      ---       #106
      0100C54FH   LINE      ---      ---       #107
      ---         BLOCKEND  ---      ---       LVL=0

      01008961H   BLOCK     CODE     ---       LVL=0
      01008961H   LINE      ---      ---       #137
      01008961H   LINE      ---      ---       #138
      01008961H   LINE      ---      ---       #139
LX51 LINKER/LOCATER V4.66.1.0                                                         04/08/2019  16:56:50  PAGE 108


      0100896AH   LINE      ---      ---       #140
      0100896AH   LINE      ---      ---       #141
      0100896DH   LINE      ---      ---       #142
      0100896DH   LINE      ---      ---       #143
      ---         BLOCKEND  ---      ---       LVL=0

      0100C550H   BLOCK     CODE     ---       LVL=0
      0100C550H   LINE      ---      ---       #146
      0100C550H   LINE      ---      ---       #147
      0100C550H   LINE      ---      ---       #148
      0100C556H   LINE      ---      ---       #149
      ---         BLOCKEND  ---      ---       LVL=0

      0100C557H   BLOCK     CODE     ---       LVL=0
      0100C557H   LINE      ---      ---       #151
      0100C557H   LINE      ---      ---       #152
      0100C557H   LINE      ---      ---       #153
      0100C55DH   LINE      ---      ---       #154
      ---         BLOCKEND  ---      ---       LVL=0

      0100C55EH   BLOCK     CODE     ---       LVL=0
      0100C55EH   LINE      ---      ---       #156
      0100C55EH   LINE      ---      ---       #157
      0100C55EH   LINE      ---      ---       #158
      0100C564H   LINE      ---      ---       #159
      ---         BLOCKEND  ---      ---       LVL=0

      0100896EH   BLOCK     CODE     ---       LVL=0
      0100896EH   LINE      ---      ---       #190
      0100896EH   LINE      ---      ---       #191
      0100896EH   LINE      ---      ---       #192
      01008977H   LINE      ---      ---       #193
      01008977H   LINE      ---      ---       #194
      0100897AH   LINE      ---      ---       #195
      0100897AH   LINE      ---      ---       #196
      ---         BLOCKEND  ---      ---       LVL=0

      0100C376H   BLOCK     CODE     ---       LVL=0
      0100C376H   LINE      ---      ---       #199
      0100C376H   LINE      ---      ---       #200
      0100C376H   LINE      ---      ---       #201
      0100C37CH   LINE      ---      ---       #203
      0100C382H   LINE      ---      ---       #204
      0100C382H   LINE      ---      ---       #205
      0100C388H   LINE      ---      ---       #206
      0100C388H   LINE      ---      ---       #207
      0100C38AH   LINE      ---      ---       #208
      0100C38CH   LINE      ---      ---       #209
      0100C38CH   LINE      ---      ---       #211
      0100C38CH   LINE      ---      ---       #212
      0100C38EH   LINE      ---      ---       #214
      0100C38EH   LINE      ---      ---       #215
      0100C38EH   LINE      ---      ---       #216
      ---         BLOCKEND  ---      ---       LVL=0

      0100C565H   BLOCK     CODE     ---       LVL=0
      0100C565H   LINE      ---      ---       #218
      0100C565H   LINE      ---      ---       #219
      0100C565H   LINE      ---      ---       #220
      0100C56BH   LINE      ---      ---       #221
      ---         BLOCKEND  ---      ---       LVL=0

      0100C56CH   BLOCK     CODE     ---       LVL=0
      0100C56CH   LINE      ---      ---       #223
      0100C56CH   LINE      ---      ---       #224
LX51 LINKER/LOCATER V4.66.1.0                                                         04/08/2019  16:56:50  PAGE 109


      0100C56CH   LINE      ---      ---       #225
      0100C572H   LINE      ---      ---       #226
      ---         BLOCKEND  ---      ---       LVL=0

      ---         MODULE    ---      ---       KEY_MULTIFUN
      02000362H   PUBLIC    XDATA    BYTE      step_step_times
      02000113H   PUBLIC    XDATA    BYTE      ?Key_Multifun?BYTE
      01008A7FH   PUBLIC    CODE     ---       Key_Multifun

      01008A79H   BLOCK     CODE     ---       LVL=0
      01008A7FH   LINE      ---      ---       #6
      01008A7FH   LINE      ---      ---       #7
      01008A7FH   LINE      ---      ---       #8
      01008A91H   LINE      ---      ---       #9
      01008A91H   LINE      ---      ---       #11
      01008A91H   LINE      ---      ---       #12
      01008A9DH   LINE      ---      ---       #13
      01008A9DH   LINE      ---      ---       #14
      01008AA1H   LINE      ---      ---       #15
      01008AA1H   LINE      ---      ---       #16
      01008AA3H   LINE      ---      ---       #18
      01008AA3H   LINE      ---      ---       #19
      01008AADH   LINE      ---      ---       #21
      01008AADH   LINE      ---      ---       #22
      01008AADH   LINE      ---      ---       #23
      01008AADH   LINE      ---      ---       #24
      01008AB8H   LINE      ---      ---       #25
      01008AB8H   LINE      ---      ---       #26
      01008ABEH   LINE      ---      ---       #28
      01008AC1H   LINE      ---      ---       #29
      01008AC3H   LINE      ---      ---       #30
      01008ACEH   LINE      ---      ---       #31
      01008ACEH   LINE      ---      ---       #32
      01008AE3H   LINE      ---      ---       #33
      01008AE3H   LINE      ---      ---       #34
      01008AEDH   LINE      ---      ---       #36
      01008AF0H   LINE      ---      ---       #37
      01008AF2H   LINE      ---      ---       #39
      01008AF2H   LINE      ---      ---       #40
      01008AF6H   LINE      ---      ---       #41
      01008AF6H   LINE      ---      ---       #42
      01008AF8H   LINE      ---      ---       #44
      01008AF8H   LINE      ---      ---       #45
      01008AFFH   LINE      ---      ---       #46
      01008AFFH   LINE      ---      ---       #47
      01008B01H   LINE      ---      ---       #48
      01008B01H   LINE      ---      ---       #49
      01008B0CH   LINE      ---      ---       #50
      01008B0CH   LINE      ---      ---       #51
      01008B12H   LINE      ---      ---       #53
      01008B16H   LINE      ---      ---       #54
      01008B17H   LINE      ---      ---       #55
      01008B1EH   LINE      ---      ---       #56
      01008B1EH   LINE      ---      ---       #57
      01008B3DH   LINE      ---      ---       #61
      01008B3DH   LINE      ---      ---       #63
      01008B4AH   LINE      ---      ---       #64
      01008B4EH   LINE      ---      ---       #67
      01008B57H   LINE      ---      ---       #68
      01008B57H   LINE      ---      ---       #69
      01008B57H   LINE      ---      ---       #72
      01008B57H   LINE      ---      ---       #73
      01008B61H   LINE      ---      ---       #74
      01008B61H   LINE      ---      ---       #75
      01008B61H   LINE      ---      ---       #76
LX51 LINKER/LOCATER V4.66.1.0                                                         04/08/2019  16:56:50  PAGE 110


      01008B61H   LINE      ---      ---       #77
      01008B61H   LINE      ---      ---       #78
      01008B61H   LINE      ---      ---       #79
      02000113H   SYMBOL    XDATA    ---       Element
      02000121H   SYMBOL    XDATA    ---       Variate
      ---         BLOCKEND  ---      ---       LVL=0

      ---         MODULE    ---      ---       GUI
      0200033CH   PUBLIC    XDATA    BYTE      Display_Temp_Kind
      0100AE3DH   PUBLIC    CODE     ---       HmiScreenSaverModeFunc
      01008934H   PUBLIC    CODE     ---       HmiScreenSaverMode_Tik_Cnt
      0100C21DH   PUBLIC    CODE     ---       HmiSetInExpFunc
      01007981H   PUBLIC    CODE     ---       HmiSetTimeFunc
      0100B5F9H   PUBLIC    CODE     ---       HmiSetTempChamberFunc
      0100B44FH   PUBLIC    CODE     ---       HmiSetTempPatientFunc
      0100C030H   PUBLIC    CODE     ---       HmiRunningFunc
      0100876EH   PUBLIC    CODE     ---       HmiNon_InvasiveSelFunc
      01008988H   PUBLIC    CODE     ---       HmiNon_InvasiveSel_Tik_Cnt
      0100B075H   PUBLIC    CODE     ---       HmiFactoryDefaultFunc
      01008995H   PUBLIC    CODE     ---       HmiFactoryDefault_Tik_Cnt
      01009039H   PUBLIC    CODE     ---       HmiPostFunc
      0100897BH   PUBLIC    CODE     ---       HmiPostFunc_Tik_Cnt
      01008BE6H   PUBLIC    CODE     ---       HmiServiceModeFunc
      01006432H   PUBLIC    CODE     ---       _HmiEnterToWorkStateFunc
      01007857H   PUBLIC    CODE     ---       _DisPlayTime
      000000C1H   SFRSYM    DATA     BYTE      WDT_CONTR
      000000A0H.1 SFRSYM    DATA     BIT       P21
      000000A0H.2 SFRSYM    DATA     BIT       P22
      000000A0H.3 SFRSYM    DATA     BIT       P23
      000000C0H   SFRSYM    DATA     BIT       P40
      0200033DH   SYMBOL    XDATA    BYTE      Tik_POST_Tick_100mS
      0200033EH   SYMBOL    XDATA    BYTE      Tik_HmiFac_Tick_100mS_10S
      0200033FH   SYMBOL    XDATA    BYTE      OK_not_Pressed_flag
      02000340H   SYMBOL    XDATA    BYTE      HmiFac_Mode_Changed
      02000341H   SYMBOL    XDATA    BYTE      Tik_HmiNon_InvasiveSel_Tick_100mS
      02000342H   SYMBOL    XDATA    WORD      Tik_ScreenSaver_Tick_100mS
      02000344H   SYMBOL    XDATA    WORD      Remeber_Temp_Value
      0100AFA5H   SYMBOL    CODE     ---       _Display_SET_Temp
      0100C51BH   SYMBOL    CODE     ---       EnterSetTime
      0100C344H   SYMBOL    CODE     ---       EnterSetInExp
      0100C573H   SYMBOL    CODE     ---       Date_Is_Correct
      0100C19BH   SYMBOL    CODE     ---       _Display_In_Exp_Ratio
      010061E3H   SYMBOL    CODE     ---       _?ix1000
      010061F5H   SYMBOL    CODE     ---       _?ix1001
      01006206H   SYMBOL    CODE     ---       _?ix1002
      0100620DH   SYMBOL    CODE     ---       _?ix1003
      01006213H   SYMBOL    CODE     ---       _?ix1004
      01006222H   SYMBOL    CODE     ---       _?ix1005
      02000346H   SYMBOL    XDATA    BYTE      Tik_HmiFac_Tick_100mS_OK_flash
      01006231H   SYMBOL    CODE     ---       _?ix1006
      01006248H   SYMBOL    CODE     ---       _?ix1007
      0100625FH   SYMBOL    CODE     ---       _?ix1008
      01006271H   SYMBOL    CODE     ---       _?ix1009
      01006280H   SYMBOL    CODE     ---       _?ix1010
      02000347H   SYMBOL    XDATA    BYTE      SetTimeKind
      02000348H   SYMBOL    XDATA    ---       TempTime
      0200034FH   SYMBOL    XDATA    BYTE      In_Exp_Ratio_temp

      0100C19BH   BLOCK     CODE     ---       LVL=0
      0100C19BH   LINE      ---      ---       #27
      0100C1A0H   LINE      ---      ---       #28
      0100C1A0H   LINE      ---      ---       #29
      0100C1A3H   LINE      ---      ---       #30
      0100C1A3H   LINE      ---      ---       #31
      0100C1B3H   LINE      ---      ---       #33
LX51 LINKER/LOCATER V4.66.1.0                                                         04/08/2019  16:56:50  PAGE 111


      0100C1B9H   LINE      ---      ---       #34
      0100C1BDH   LINE      ---      ---       #35
      0100C1C1H   LINE      ---      ---       #36
      0100C1CEH   LINE      ---      ---       #37
      0100C1CEH   LINE      ---      ---       #38
      0100C1D1H   LINE      ---      ---       #39
      0100C1D3H   LINE      ---      ---       #40
      0100C1D5H   LINE      ---      ---       #42
      0100C1D5H   LINE      ---      ---       #43
      0100C1D8H   LINE      ---      ---       #44
      0100C1DDH   LINE      ---      ---       #45
      0100C1DDH   LINE      ---      ---       #46
      0100C1E2H   LINE      ---      ---       #47
      0100C1EEH   LINE      ---      ---       #48
      0100C1F0H   LINE      ---      ---       #50
      0100C1F0H   LINE      ---      ---       #51
      02000199H   SYMBOL    XDATA    BYTE      Dis
      00000005H   SYMBOL    DATA     BYTE      Dp_en
      ---         BLOCKEND  ---      ---       LVL=0

      01007857H   BLOCK     CODE     ---       LVL=0
      01007857H   LINE      ---      ---       #57
      0100785CH   LINE      ---      ---       #58
      02000113H   SYMBOL    XDATA    ---       TempTime
      02000116H   SYMBOL    XDATA    BYTE      TimeKind
      0100785CH   BLOCK     CODE     NEAR LAB  LVL=1
      0100785CH   LINE      ---      ---       #63
      01007862H   LINE      ---      ---       #64
      01007867H   LINE      ---      ---       #65
      01007867H   LINE      ---      ---       #66
      01007874H   LINE      ---      ---       #67
      0100788EH   LINE      ---      ---       #70
      01007890H   LINE      ---      ---       #71
      01007898H   LINE      ---      ---       #72
      01007898H   LINE      ---      ---       #73
      010078BBH   LINE      ---      ---       #77
      010078BDH   LINE      ---      ---       #78
      010078C5H   LINE      ---      ---       #79
      010078C5H   LINE      ---      ---       #80
      010078E0H   LINE      ---      ---       #82
      010078E2H   LINE      ---      ---       #83
      010078EAH   LINE      ---      ---       #84
      010078EAH   LINE      ---      ---       #85
      0100790BH   LINE      ---      ---       #89
      0100790DH   LINE      ---      ---       #90
      01007915H   LINE      ---      ---       #91
      01007915H   LINE      ---      ---       #92
      01007936H   LINE      ---      ---       #96
      01007938H   LINE      ---      ---       #97
      01007940H   LINE      ---      ---       #98
      01007940H   LINE      ---      ---       #99
      0100795DH   LINE      ---      ---       #103
      0100795DH   LINE      ---      ---       #105
      0100795DH   LINE      ---      ---       #107
      0100795DH   LINE      ---      ---       #108
      02000117H   SYMBOL    XDATA    BYTE      i
      02000118H   SYMBOL    XDATA    BYTE      color
      ---         BLOCKEND  CODE     ---       LVL=1
      ---         BLOCKEND  CODE     ---       LVL=0

      0100AFA5H   BLOCK     CODE     ---       LVL=0
      0100AFA5H   LINE      ---      ---       #111
      0100AFA8H   LINE      ---      ---       #112
      0100AFA8H   LINE      ---      ---       #113
      0100AFABH   LINE      ---      ---       #115
LX51 LINKER/LOCATER V4.66.1.0                                                         04/08/2019  16:56:50  PAGE 112


      0100AFCBH   LINE      ---      ---       #118
      02000199H   SYMBOL    XDATA    WORD      Temp
      ---         BLOCKEND  ---      ---       LVL=0

      0100642EH   BLOCK     CODE     ---       LVL=0
      01006432H   LINE      ---      ---       #123
      01006432H   LINE      ---      ---       #124
      01006432H   LINE      ---      ---       #125
      01006455H   LINE      ---      ---       #126
      01006455H   LINE      ---      ---       #127
      01006455H   LINE      ---      ---       #128
      01006455H   LINE      ---      ---       #129
      01006455H   LINE      ---      ---       #130
      01006455H   LINE      ---      ---       #131
      01006455H   LINE      ---      ---       #133
      01006457H   LINE      ---      ---       #134
      01006457H   LINE      ---      ---       #135
      01006457H   LINE      ---      ---       #136
      01006457H   LINE      ---      ---       #137
      0100645CH   LINE      ---      ---       #138
      0100645EH   LINE      ---      ---       #139
      01006460H   LINE      ---      ---       #140
      01006469H   LINE      ---      ---       #141
      01006469H   LINE      ---      ---       #142
      01006469H   LINE      ---      ---       #143
      01006469H   LINE      ---      ---       #144
      01006469H   LINE      ---      ---       #145
      0100646EH   LINE      ---      ---       #146
      01006470H   LINE      ---      ---       #149
      01006470H   LINE      ---      ---       #150
      01006472H   LINE      ---      ---       #152
      01006477H   LINE      ---      ---       #153
      0100647CH   LINE      ---      ---       #155
      0100647EH   LINE      ---      ---       #156
      01006493H   LINE      ---      ---       #157
      01006498H   LINE      ---      ---       #160
      00000007H   SYMBOL    DATA     BYTE      State
      01006498H   BLOCK     CODE     NEAR LAB  LVL=1
      01006498H   LINE      ---      ---       #161
      010064A7H   LINE      ---      ---       #162
      010064BAH   LINE      ---      ---       #163
      010064CDH   LINE      ---      ---       #164
      010064E0H   LINE      ---      ---       #165
      010064EFH   LINE      ---      ---       #166
      010064FEH   LINE      ---      ---       #168
      01006546H   LINE      ---      ---       #177
      01006548H   LINE      ---      ---       #178
      0100655BH   LINE      ---      ---       #181
      01006574H   LINE      ---      ---       #185
      0100658AH   LINE      ---      ---       #186
      0200014BH   SYMBOL    XDATA    ---       str_previousSetting
      0200015DH   SYMBOL    XDATA    ---       str_defaultSetting
      0200016EH   SYMBOL    XDATA    ---       str_select
      02000175H   SYMBOL    XDATA    ---       str_enter
      0200017BH   SYMBOL    XDATA    ---       str_Patient39C
      0200018AH   SYMBOL    XDATA    ---       str_chamber36C
      01006599H   LINE      ---      ---       #190
      010065B2H   LINE      ---      ---       #193
      010065B2H   LINE      ---      ---       #194
      010065B2H   LINE      ---      ---       #195
      010065B2H   LINE      ---      ---       #197
      010065B2H   LINE      ---      ---       #198
      010065B2H   LINE      ---      ---       #199
      010065B7H   LINE      ---      ---       #200
      010065B9H   LINE      ---      ---       #201
LX51 LINKER/LOCATER V4.66.1.0                                                         04/08/2019  16:56:50  PAGE 113


      010065BEH   LINE      ---      ---       #203
      010065C3H   LINE      ---      ---       #204
      010065CEH   LINE      ---      ---       #207
      010065D0H   LINE      ---      ---       #208
      010065D1H   LINE      ---      ---       #209
      010065D1H   LINE      ---      ---       #211
      010065D1H   LINE      ---      ---       #212
      010065D1H   LINE      ---      ---       #214
      010065D3H   LINE      ---      ---       #215
      010065D6H   LINE      ---      ---       #216
      010065DBH   LINE      ---      ---       #217
      010065E0H   LINE      ---      ---       #218
      010065E2H   LINE      ---      ---       #219
      010065E9H   LINE      ---      ---       #220
      010065EAH   LINE      ---      ---       #221
      010065EAH   LINE      ---      ---       #223
      010065EAH   LINE      ---      ---       #224
      010065EAH   LINE      ---      ---       #225
      010065EDH   LINE      ---      ---       #226
      010065EDH   LINE      ---      ---       #227
      010065EDH   LINE      ---      ---       #229
      010065EFH   LINE      ---      ---       #230
      010065EFH   LINE      ---      ---       #232
      010065EFH   LINE      ---      ---       #233
      010065EFH   LINE      ---      ---       #234
      010065F5H   LINE      ---      ---       #235
      010065FAH   LINE      ---      ---       #236
      01006600H   LINE      ---      ---       #237
      01006600H   LINE      ---      ---       #238
      01006600H   LINE      ---      ---       #240
      01006600H   LINE      ---      ---       #241
      01006600H   LINE      ---      ---       #242
      01006603H   LINE      ---      ---       #243
      01006603H   LINE      ---      ---       #244
      01006603H   LINE      ---      ---       #246
      01006603H   LINE      ---      ---       #247
      01006603H   LINE      ---      ---       #249
      01006606H   LINE      ---      ---       #250
      01006606H   LINE      ---      ---       #251
      01006606H   LINE      ---      ---       #252
      01006606H   LINE      ---      ---       #253
      01006606H   LINE      ---      ---       #254
      01006606H   LINE      ---      ---       #255
      01006606H   LINE      CODE     ---       #255
      ---         BLOCKEND  CODE     ---       LVL=0

      01008BE6H   BLOCK     CODE     ---       LVL=0
      01008BE6H   LINE      ---      ---       #258
      01008BE6H   LINE      ---      ---       #259
      01008BE6H   BLOCK     CODE     NEAR LAB  LVL=1
      01008BE6H   LINE      ---      ---       #262
      01008BF0H   LINE      ---      ---       #263
      01008BF0H   LINE      ---      ---       #264
      01008BF7H   LINE      ---      ---       #265
      01008C0AH   LINE      ---      ---       #266
      01008C0FH   LINE      ---      ---       #267
      01008C2CH   LINE      ---      ---       #269
      01008C2EH   LINE      ---      ---       #270
      01008C30H   LINE      ---      ---       #271
      01008C3CH   LINE      ---      ---       #272
      01008C3CH   LINE      ---      ---       #273
      01008C46H   LINE      ---      ---       #274
      01008C46H   LINE      ---      ---       #275
      01008C4EH   LINE      ---      ---       #276
      01008C5FH   LINE      ---      ---       #277
LX51 LINKER/LOCATER V4.66.1.0                                                         04/08/2019  16:56:50  PAGE 114


      01008C65H   LINE      ---      ---       #278
      01008C79H   LINE      ---      ---       #280
      01008C79H   LINE      ---      ---       #281
      01008C7BH   LINE      ---      ---       #282
      01008C87H   LINE      ---      ---       #283
      01008C87H   LINE      ---      ---       #284
      01008C91H   LINE      ---      ---       #285
      01008C91H   LINE      ---      ---       #286
      01008C99H   LINE      ---      ---       #287
      01008CA7H   LINE      ---      ---       #288
      01008CADH   LINE      ---      ---       #289
      01008CC1H   LINE      ---      ---       #291
      01008CC1H   LINE      ---      ---       #292
      01008CC3H   LINE      ---      ---       #293
      01008CCFH   LINE      ---      ---       #294
      01008CCFH   LINE      ---      ---       #295
      01008CD9H   LINE      ---      ---       #296
      01008CD9H   LINE      ---      ---       #297
      01008CE1H   LINE      ---      ---       #298
      01008CEFH   LINE      ---      ---       #299
      01008CF5H   LINE      ---      ---       #300
      01008D11H   LINE      ---      ---       #302
      01008D11H   LINE      ---      ---       #303
      01008D13H   LINE      ---      ---       #304
      01008D1FH   LINE      ---      ---       #305
      01008D1FH   LINE      ---      ---       #306
      01008D26H   LINE      ---      ---       #307
      01008D26H   LINE      ---      ---       #309
      01008D2EH   LINE      ---      ---       #310
      01008D34H   LINE      ---      ---       #312
      01008D4DH   LINE      ---      ---       #316
      01008D54H   LINE      ---      ---       #317
      01008D57H   LINE      ---      ---       #318
      01008D5EH   LINE      ---      ---       #319
      01008D6BH   LINE      ---      ---       #329
      01008D6BH   LINE      ---      ---       #330
      01008D76H   LINE      ---      ---       #331
      01008D78H   LINE      ---      ---       #333
      01008D78H   LINE      ---      ---       #334
      01008D83H   LINE      ---      ---       #335
      01008D83H   LINE      ---      ---       #336
      01008D83H   LINE      ---      ---       #337
      01008D86H   LINE      ---      ---       #338
      01008D88H   LINE      ---      ---       #339
      01008D88H   LINE      ---      ---       #341
      01008D8BH   LINE      ---      ---       #342
      01008D8BH   LINE      ---      ---       #343
      01008D8DH   LINE      ---      ---       #344
      01008D9BH   LINE      ---      ---       #345
      01008D9BH   LINE      ---      ---       #346
      01008DA1H   LINE      ---      ---       #347
      01008DA1H   LINE      ---      ---       #349
      01008DB8H   LINE      ---      ---       #350
      01008DBAH   LINE      ---      ---       #351
      01008DC4H   LINE      ---      ---       #352
      01008DC4H   LINE      ---      ---       #353
      01008DCCH   LINE      ---      ---       #355
      01008DCEH   LINE      ---      ---       #356
      01008DD1H   LINE      ---      ---       #357
      01008DD9H   LINE      ---      ---       #358
      01008DEBH   LINE      ---      ---       #360
      01008DF8H   LINE      ---      ---       #361
      01008E06H   LINE      ---      ---       #362
      01008E0CH   LINE      ---      ---       #363
      01008E19H   LINE      ---      ---       #364
LX51 LINKER/LOCATER V4.66.1.0                                                         04/08/2019  16:56:50  PAGE 115


      01008E39H   LINE      ---      ---       #367
      01008E47H   LINE      ---      ---       #368
      01008E52H   LINE      ---      ---       #369
      01008E60H   LINE      ---      ---       #370
      01008E62H   LINE      ---      ---       #371
      01008E64H   LINE      ---      ---       #373
      01008E64H   LINE      ---      ---       #375
      01008E64H   LINE      ---      ---       #376
      01008E64H   LINE      ---      ---       #377
      01008E70H   LINE      ---      ---       #378
      01008E70H   LINE      ---      ---       #379
      01008E73H   LINE      ---      ---       #381
      01008E76H   LINE      ---      ---       #382
      01008E76H   LINE      ---      ---       #383
      01008E84H   LINE      ---      ---       #384
      01008E84H   LINE      ---      ---       #385
      01008E8AH   LINE      ---      ---       #386
      01008E8CH   LINE      ---      ---       #388
      01008E8CH   LINE      ---      ---       #389
      01008E91H   LINE      ---      ---       #390
      01008E91H   LINE      ---      ---       #391
      01008E9FH   LINE      ---      ---       #392
      01008E9FH   LINE      ---      ---       #393
      01008EA8H   LINE      ---      ---       #394
      01008EB1H   LINE      ---      ---       #395
      01008EB3H   LINE      ---      ---       #397
      01008EB3H   LINE      ---      ---       #398
      01008EB4H   LINE      ---      ---       #399
      01008EB4H   LINE      ---      ---       #400
      01008EB4H   LINE      ---      ---       #401
      01008EB6H   LINE      ---      ---       #403
      01008EB6H   LINE      ---      ---       #404
      01008EBBH   LINE      ---      ---       #405
      01008EC1H   LINE      ---      ---       #406
      01008EC7H   LINE      ---      ---       #407
      01008EC7H   LINE      ---      ---       #409
      01008ECDH   LINE      ---      ---       #410
      01008ECDH   LINE      ---      ---       #411
      01008ED3H   LINE      ---      ---       #412
      01008ED8H   LINE      ---      ---       #413
      01008EDCH   LINE      ---      ---       #414
      01008EDCH   LINE      ---      ---       #415
      01008EDCH   LINE      ---      ---       #417
      01008EDCH   LINE      ---      ---       #419
      01008EDCH   LINE      ---      ---       #420
      01008EE1H   LINE      ---      ---       #421
      0200032FH   SYMBOL    XDATA    INT       ServiceMode_Step
      ---         BLOCKEND  CODE     ---       LVL=1
      ---         BLOCKEND  CODE     ---       LVL=0

      0100897BH   BLOCK     CODE     ---       LVL=0
      0100897BH   LINE      ---      ---       #424
      0100897BH   LINE      ---      ---       #425
      0100897BH   LINE      ---      ---       #426
      01008984H   LINE      ---      ---       #427
      01008984H   LINE      ---      ---       #428
      01008987H   LINE      ---      ---       #429
      01008987H   LINE      ---      ---       #430
      ---         BLOCKEND  ---      ---       LVL=0

      01009039H   BLOCK     CODE     ---       LVL=0
      01009039H   LINE      ---      ---       #432
      01009039H   LINE      ---      ---       #433
      01009039H   BLOCK     CODE     NEAR LAB  LVL=1
      01009039H   LINE      ---      ---       #438
LX51 LINKER/LOCATER V4.66.1.0                                                         04/08/2019  16:56:50  PAGE 116


      01009041H   LINE      ---      ---       #439
      01009041H   LINE      ---      ---       #441
      01009049H   LINE      ---      ---       #442
      0100904DH   LINE      ---      ---       #443
      0100904DH   LINE      ---      ---       #444
      01009053H   LINE      ---      ---       #445
      01009055H   LINE      ---      ---       #446
      0100905EH   LINE      ---      ---       #447
      0100908BH   LINE      ---      ---       #450
      0100908EH   LINE      ---      ---       #451
      01009090H   LINE      ---      ---       #452
      01009091H   LINE      ---      ---       #453
      0100909CH   LINE      ---      ---       #454
      0100909CH   LINE      ---      ---       #455
      0100909EH   LINE      ---      ---       #456
      010090A3H   LINE      ---      ---       #457
      010090A5H   LINE      ---      ---       #458
      010090AEH   LINE      ---      ---       #459
      010090C1H   LINE      ---      ---       #460
      010090C3H   LINE      ---      ---       #461
      010090CCH   LINE      ---      ---       #462
      010090CCH   LINE      ---      ---       #468
      010090D4H   LINE      ---      ---       #469
      010090D4H   LINE      ---      ---       #471
      010090DFH   LINE      ---      ---       #472
      010090DFH   LINE      ---      ---       #473
      010090E5H   LINE      ---      ---       #474
      010090E5H   LINE      ---      ---       #475
      010090E6H   LINE      ---      ---       #476
      010090EBH   LINE      ---      ---       #477
      010090EBH   LINE      ---      ---       #479
      010090F8H   LINE      ---      ---       #481
      010090F8H   LINE      ---      ---       #482
      010090F8H   LINE      ---      ---       #483
      010090FAH   LINE      ---      ---       #485
      010090FAH   LINE      ---      ---       #486
      01009100H   LINE      ---      ---       #487
      01009107H   LINE      ---      ---       #488
      01009107H   LINE      ---      ---       #489
      01009107H   LINE      ---      ---       #490
      0100910FH   LINE      ---      ---       #491
      0100910FH   LINE      ---      ---       #493
      0100911CH   LINE      ---      ---       #502
      0100911CH   LINE      ---      ---       #503
      01009122H   LINE      ---      ---       #504
      01009123H   LINE      ---      ---       #506
      01009123H   LINE      ---      ---       #507
      01009129H   LINE      ---      ---       #508
      01009130H   LINE      ---      ---       #509
      01009130H   LINE      ---      ---       #510
      01009130H   LINE      ---      ---       #511
      01009130H   LINE      ---      ---       #512
      01009132H   LINE      ---      ---       #513
      0100913AH   LINE      ---      ---       #514
      0100913AH   LINE      ---      ---       #516
      0100913FH   LINE      ---      ---       #517
      01009145H   LINE      ---      ---       #518
      01009146H   LINE      ---      ---       #519
      0100914AH   LINE      ---      ---       #520
      0100914AH   LINE      ---      ---       #523
      01009155H   LINE      ---      ---       #524
      01009155H   LINE      ---      ---       #525
      01009161H   LINE      ---      ---       #526
      01009161H   LINE      ---      ---       #527
      01009164H   LINE      ---      ---       #528
LX51 LINKER/LOCATER V4.66.1.0                                                         04/08/2019  16:56:50  PAGE 117


      01009169H   LINE      ---      ---       #529
      0100916AH   LINE      ---      ---       #536
      01009172H   LINE      ---      ---       #537
      01009172H   LINE      ---      ---       #540
      0100917BH   LINE      ---      ---       #541
      0100917BH   LINE      ---      ---       #542
      01009187H   LINE      ---      ---       #543
      01009187H   LINE      ---      ---       #544
      0100918AH   LINE      ---      ---       #545
      010091B7H   LINE      ---      ---       #548
      010091B7H   LINE      ---      ---       #550
      010091B7H   LINE      ---      ---       #551
      010091BAH   LINE      ---      ---       #552
      010091BAH   LINE      ---      ---       #553
      010091BAH   LINE      ---      ---       #554
      010091BBH   LINE      ---      ---       #555
      010091C2H   LINE      ---      ---       #556
      010091C2H   LINE      ---      ---       #558
      010091C8H   LINE      ---      ---       #559
      010091CCH   LINE      ---      ---       #560
      010091CCH   LINE      ---      ---       #561
      010091D3H   LINE      ---      ---       #562
      010091D3H   LINE      ---      ---       #563
      010091D5H   LINE      ---      ---       #564
      010091D5H   LINE      ---      ---       #566
      010091D5H   LINE      ---      ---       #568
      010091D5H   LINE      ---      ---       #569
      02000331H   SYMBOL    XDATA    BYTE      Post_Step
      02000113H   SYMBOL    XDATA    BYTE      i
      ---         BLOCKEND  CODE     ---       LVL=1
      ---         BLOCKEND  CODE     ---       LVL=0

      01008995H   BLOCK     CODE     ---       LVL=0
      01008995H   LINE      ---      ---       #574
      01008995H   LINE      ---      ---       #575
      01008995H   LINE      ---      ---       #576
      0100899EH   LINE      ---      ---       #577
      0100899EH   LINE      ---      ---       #578
      010089A1H   LINE      ---      ---       #579
      010089A1H   LINE      ---      ---       #580
      010089AAH   LINE      ---      ---       #581
      010089AAH   LINE      ---      ---       #582
      010089ADH   LINE      ---      ---       #583
      010089ADH   LINE      ---      ---       #584
      ---         BLOCKEND  ---      ---       LVL=0

      0100B075H   BLOCK     CODE     ---       LVL=0
      0100B075H   LINE      ---      ---       #586
      0100B075H   LINE      ---      ---       #587
      0100B075H   BLOCK     CODE     NEAR LAB  LVL=1
      0100B075H   LINE      ---      ---       #593
      0100B07EH   LINE      ---      ---       #594
      0100B07EH   LINE      ---      ---       #595
      0100B082H   LINE      ---      ---       #596
      0100B082H   LINE      ---      ---       #598
      0100B088H   LINE      ---      ---       #599
      0100B088H   LINE      ---      ---       #600
      0100B091H   LINE      ---      ---       #601
      0100B091H   LINE      ---      ---       #603
      0100B091H   LINE      ---      ---       #604
      0100B096H   LINE      ---      ---       #605
      0100B096H   LINE      ---      ---       #607
      0100B096H   LINE      ---      ---       #608
      0100B09AH   LINE      ---      ---       #609
      0100B09AH   LINE      ---      ---       #610
LX51 LINKER/LOCATER V4.66.1.0                                                         04/08/2019  16:56:50  PAGE 118


      0100B09DH   LINE      ---      ---       #611
      0100B0A7H   LINE      ---      ---       #612
      0100B0AAH   LINE      ---      ---       #613
      0100B0ACH   LINE      ---      ---       #614
      0100B0B5H   LINE      ---      ---       #615
      0100B0B5H   LINE      ---      ---       #616
      0100B0B7H   LINE      ---      ---       #617
      0100B0BAH   LINE      ---      ---       #618
      0100B0C9H   LINE      ---      ---       #619
      0100B0CCH   LINE      ---      ---       #620
      0100B0CEH   LINE      ---      ---       #621
      0100B0CEH   LINE      ---      ---       #623
      0100B0CEH   LINE      ---      ---       #625
      0100B0CEH   LINE      ---      ---       #626
      0100B0CEH   LINE      ---      ---       #629
      0100B0D6H   LINE      ---      ---       #632
      0100B0D6H   LINE      ---      ---       #633
      0100B0DCH   LINE      ---      ---       #634
      0100B0DCH   LINE      ---      ---       #635
      0100B0E1H   LINE      ---      ---       #636
      0100B0E1H   LINE      ---      ---       #637
      0100B0E1H   LINE      ---      ---       #638
      0100B0E3H   LINE      ---      ---       #639
      0100B0EBH   LINE      ---      ---       #641
      0100B0EBH   LINE      ---      ---       #642
      0100B0F3H   LINE      ---      ---       #643
      0100B0F3H   LINE      ---      ---       #644
      0100B0F8H   LINE      ---      ---       #645
      0100B0FDH   LINE      ---      ---       #646
      0100B0FDH   LINE      ---      ---       #647
      0100B0FFH   LINE      ---      ---       #648
      0100B107H   LINE      ---      ---       #650
      0100B107H   LINE      ---      ---       #651
      0100B109H   LINE      ---      ---       #652
      0100B10EH   LINE      ---      ---       #653
      0100B110H   LINE      ---      ---       #654
      0100B11AH   LINE      ---      ---       #655
      0100B11AH   LINE      ---      ---       #656
      0100B11CH   LINE      ---      ---       #657
      0100B11CH   LINE      ---      ---       #658
      0100B11EH   LINE      ---      ---       #660
      0100B11EH   LINE      ---      ---       #661
      0100B121H   LINE      ---      ---       #662
      0100B125H   LINE      ---      ---       #663
      0100B125H   LINE      ---      ---       #664
      0100B125H   LINE      ---      ---       #666
      0100B125H   LINE      ---      ---       #668
      0100B125H   LINE      ---      ---       #670
      0100B12DH   LINE      ---      ---       #671
      0100B12DH   LINE      ---      ---       #672
      0100B12FH   LINE      ---      ---       #674
      0100B133H   LINE      ---      ---       #677
      0100B139H   LINE      ---      ---       #678
      0100B139H   LINE      ---      ---       #679
      0100B13DH   LINE      ---      ---       #682
      0100B140H   LINE      ---      ---       #683
      0100B140H   LINE      ---      ---       #684
      0100B142H   LINE      ---      ---       #686
      0100B142H   LINE      ---      ---       #687
      0100B148H   LINE      ---      ---       #690
      0100B15FH   LINE      ---      ---       #692
      0100B15FH   LINE      ---      ---       #694
      0100B167H   LINE      ---      ---       #695
      0100B167H   LINE      ---      ---       #696
      0100B177H   LINE      ---      ---       #699
LX51 LINKER/LOCATER V4.66.1.0                                                         04/08/2019  16:56:50  PAGE 119


      0100B1BAH   LINE      ---      ---       #705
      0100B1C2H   LINE      ---      ---       #706
      02000113H   SYMBOL    XDATA    WORD      Pre_Disp_Deg_10
      02000115H   SYMBOL    XDATA    WORD      Pre_Disp_Deg_1
      02000117H   SYMBOL    XDATA    WORD      Pre_Disp_Deg_CQK_10
      02000119H   SYMBOL    XDATA    WORD      Pre_Disp_Deg_CQK_1
      0100B1C2H   BLOCK     CODE     NEAR LAB  LVL=2
      0100B1C2H   LINE      ---      ---       #707
      0100B1C7H   LINE      ---      ---       #708
      0100B1C7H   LINE      ---      ---       #709
      0100B1C7H   LINE      ---      ---       #710
      0200011BH   SYMBOL    XDATA    ---       str_modeNoinvasive
      0200011BH   SYMBOL    XDATA    ---       str_modeInvasive
      0100B1C9H   LINE      ---      ---       #712
      0100B1C9H   LINE      CODE     ---       #712
      0100B1C9H   BLOCK     CODE     NEAR LAB  LVL=2
      0100B1C9H   LINE      ---      ---       #713
      0100B1D4H   LINE      ---      ---       #714
      0100B1E5H   LINE      ---      ---       #716
      0200011BH   SYMBOL    XDATA    ---       str_modeInvasive
      0100B1E5H   LINE      ---      ---       #718
      0100B1F7H   LINE      ---      ---       #719
      0100B204H   LINE      ---      ---       #720
      0100B204H   LINE      ---      ---       #721
      0100B217H   LINE      ---      ---       #723
      0100B219H   LINE      ---      ---       #725
      0100B219H   LINE      ---      ---       #726
      0100B22CH   LINE      ---      ---       #727
      0100B241H   LINE      ---      ---       #729
      0100B241H   LINE      ---      ---       #731
      0100B252H   LINE      ---      ---       #732
      0100B25FH   LINE      ---      ---       #733
      0100B25FH   LINE      ---      ---       #734
      0100B275H   LINE      ---      ---       #736
      0100B277H   LINE      ---      ---       #738
      0100B277H   LINE      ---      ---       #739
      0100B28AH   LINE      ---      ---       #740
      0100B2A3H   LINE      ---      ---       #742
      0100B2A3H   LINE      ---      ---       #744
      0100B2ADH   LINE      ---      ---       #745
      0100B2ADH   LINE      ---      ---       #746
      0100B2B3H   LINE      ---      ---       #747
      0100B2B5H   LINE      ---      ---       #749
      0100B2B5H   LINE      ---      ---       #750
      0100B2C3H   LINE      ---      ---       #751
      0100B2E1H   LINE      ---      ---       #752
      0100B2E1H   LINE      ---      ---       #753
      0100B2E3H   LINE      ---      ---       #755
      0100B2E3H   LINE      CODE     ---       #755
      0100B2E3H   BLOCK     CODE     NEAR LAB  LVL=2
      0100B2E3H   LINE      ---      ---       #756
      0100B2EBH   LINE      ---      ---       #757
      0100B2F9H   LINE      ---      ---       #758
      0100B307H   LINE      ---      ---       #761
      0100B311H   LINE      ---      ---       #764
      0100B342H   LINE      ---      ---       #769
      0100B362H   LINE      ---      ---       #774
      0100B37AH   LINE      ---      ---       #778
      0200011BH   SYMBOL    XDATA    ---       str_invasive
      0200012DH   SYMBOL    XDATA    ---       str_patient39C
      0200013CH   SYMBOL    XDATA    ---       str_chamber36C
      0100B37AH   LINE      ---      ---       #779
      0100B37CH   LINE      ---      ---       #780
      0100B37CH   LINE      ---      ---       #781
      0100B381H   LINE      ---      ---       #782
LX51 LINKER/LOCATER V4.66.1.0                                                         04/08/2019  16:56:50  PAGE 120


      0100B381H   LINE      CODE     ---       #782
      ---         BLOCKEND  CODE     ---       LVL=1
      ---         BLOCKEND  CODE     ---       LVL=0

      01008988H   BLOCK     CODE     ---       LVL=0
      01008988H   LINE      ---      ---       #786
      01008988H   LINE      ---      ---       #787
      01008988H   LINE      ---      ---       #788
      01008991H   LINE      ---      ---       #789
      01008991H   LINE      ---      ---       #790
      01008994H   LINE      ---      ---       #791
      01008994H   LINE      ---      ---       #792
      ---         BLOCKEND  ---      ---       LVL=0

      0100876EH   BLOCK     CODE     ---       LVL=0
      0100876EH   LINE      ---      ---       #794
      0100876EH   LINE      ---      ---       #795
      0100876EH   LINE      ---      ---       #796
      01008771H   LINE      ---      ---       #797
      01008771H   LINE      ---      ---       #798
      0100877BH   LINE      ---      ---       #800
      0100877BH   LINE      ---      ---       #802
      01008781H   LINE      ---      ---       #803
      01008781H   LINE      ---      ---       #804
      01008783H   LINE      ---      ---       #805
      01008785H   LINE      ---      ---       #807
      01008785H   LINE      ---      ---       #808
      0100878AH   LINE      ---      ---       #809
      0100878AH   LINE      ---      ---       #811
      01008793H   LINE      ---      ---       #812
      01008793H   LINE      ---      ---       #813
      010087A1H   LINE      ---      ---       #815
      010087A3H   LINE      ---      ---       #816
      010087A3H   LINE      ---      ---       #817
      010087ABH   LINE      ---      ---       #819
      010087ABH   LINE      ---      ---       #821
      010087ADH   LINE      ---      ---       #822
      010087C0H   LINE      ---      ---       #826
      010087C0H   LINE      ---      ---       #827
      010087C2H   LINE      ---      ---       #828
      010087C5H   LINE      ---      ---       #829
      010087C9H   LINE      ---      ---       #830
      010087C9H   LINE      ---      ---       #832
      010087C9H   LINE      ---      ---       #834
      010087C9H   LINE      ---      ---       #835
      010087C9H   LINE      ---      ---       #836
      010087D0H   LINE      ---      ---       #840
      010087D5H   LINE      ---      ---       #841
      ---         BLOCKEND  ---      ---       LVL=0

      0100C030H   BLOCK     CODE     ---       LVL=0
      0100C030H   LINE      ---      ---       #847
      0100C030H   LINE      ---      ---       #848
      0100C030H   BLOCK     CODE     NEAR LAB  LVL=1
      0100C030H   LINE      ---      ---       #850
      0100C03AH   LINE      ---      ---       #852
      0100C03AH   LINE      ---      ---       #853
      0100C03FH   LINE      ---      ---       #854
      0100C045H   LINE      ---      ---       #855
      0100C045H   LINE      ---      ---       #856
      0100C047H   LINE      ---      ---       #857
      0100C050H   LINE      ---      ---       #859
      0100C052H   LINE      ---      ---       #861
      0100C052H   LINE      ---      ---       #862
      0100C057H   LINE      ---      ---       #863
LX51 LINKER/LOCATER V4.66.1.0                                                         04/08/2019  16:56:50  PAGE 121


      0100C060H   LINE      ---      ---       #865
      0100C060H   LINE      ---      ---       #866
      0100C065H   LINE      ---      ---       #867
      0100C067H   LINE      ---      ---       #868
      0100C071H   LINE      ---      ---       #869
      0100C071H   LINE      ---      ---       #870
      0100C074H   LINE      ---      ---       #871
      0100C077H   LINE      ---      ---       #872
      0100C07DH   LINE      ---      ---       #873
      0100C087H   LINE      ---      ---       #874
      0100C091H   LINE      ---      ---       #875
      0100C09BH   LINE      ---      ---       #877
      0100C0A0H   LINE      ---      ---       #878
      0100C0A4H   LINE      ---      ---       #880
      0100C0ABH   LINE      ---      ---       #881
      0100C0ABH   LINE      ---      ---       #882
      0100C0ADH   LINE      ---      ---       #883
      0100C0B3H   LINE      ---      ---       #884
      0100C0B6H   LINE      ---      ---       #885
      0100C0B8H   LINE      ---      ---       #887
      0100C0B8H   LINE      ---      ---       #888
      0100C0BEH   LINE      ---      ---       #889
      0100C0C1H   LINE      ---      ---       #890
      0100C0C7H   LINE      ---      ---       #891
      0100C0C7H   LINE      ---      ---       #892
      0100C0D2H   LINE      ---      ---       #893
      0100C0DDH   LINE      ---      ---       #894
      0100C0E8H   LINE      ---      ---       #895
      0100C0F7H   LINE      ---      ---       #898
      0100C0F9H   LINE      ---      ---       #899
      0100C0FBH   LINE      ---      ---       #900
      0100C103H   LINE      ---      ---       #901
      0100C103H   LINE      ---      ---       #902
      0100C10BH   LINE      ---      ---       #904
      0100C10BH   LINE      ---      ---       #905
      0100C10EH   LINE      ---      ---       #907
      0100C111H   LINE      ---      ---       #908
      0100C113H   LINE      ---      ---       #910
      0100C113H   LINE      ---      ---       #911
      0100C116H   LINE      ---      ---       #912
      0100C11AH   LINE      ---      ---       #913
      0100C11FH   LINE      ---      ---       #914
      0100C11FH   LINE      ---      ---       #915
      0100C121H   LINE      ---      ---       #916
      0100C128H   LINE      ---      ---       #917
      0100C128H   LINE      ---      ---       #918
      0100C12DH   LINE      ---      ---       #920
      0100C12DH   LINE      ---      ---       #921
      0100C133H   LINE      ---      ---       #922
      0100C137H   LINE      ---      ---       #924
      0100C137H   LINE      ---      ---       #925
      0100C139H   LINE      ---      ---       #926
      0100C140H   LINE      ---      ---       #927
      0100C140H   LINE      ---      ---       #928
      0100C151H   LINE      ---      ---       #929
      0100C154H   LINE      ---      ---       #930
      0100C154H   LINE      ---      ---       #932
      0100C154H   LINE      ---      ---       #934
      0100C154H   LINE      ---      ---       #937
      0100C15AH   LINE      ---      ---       #938
      0100C15AH   LINE      ---      ---       #939
      0100C15FH   LINE      ---      ---       #940
      0100C15FH   LINE      ---      ---       #941
      0100C168H   LINE      ---      ---       #942
      0100C168H   LINE      ---      ---       #943
LX51 LINKER/LOCATER V4.66.1.0                                                         04/08/2019  16:56:50  PAGE 122


      0100C16BH   LINE      ---      ---       #944
      0100C16DH   LINE      ---      ---       #946
      0100C16DH   LINE      ---      ---       #947
      0100C174H   LINE      ---      ---       #948
      0100C174H   LINE      ---      ---       #949
      0100C177H   LINE      ---      ---       #950
      0100C17CH   LINE      ---      ---       #951
      0100C185H   LINE      ---      ---       #953
      0100C185H   LINE      ---      ---       #954
      0100C185H   LINE      ---      ---       #955
      0100C18AH   LINE      ---      ---       #956
      02000332H   SYMBOL    XDATA    BYTE      Display_Return_Cnt
      ---         BLOCKEND  CODE     ---       LVL=1
      ---         BLOCKEND  CODE     ---       LVL=0

      0100B44FH   BLOCK     CODE     ---       LVL=0
      0100B44FH   LINE      ---      ---       #960
      0100B44FH   LINE      ---      ---       #961
      0100B44FH   BLOCK     CODE     NEAR LAB  LVL=1
      0100B44FH   LINE      ---      ---       #964
      0100B457H   LINE      ---      ---       #966
      0100B457H   LINE      ---      ---       #967
      0100B459H   LINE      ---      ---       #968
      0100B459H   LINE      ---      ---       #969
      0100B45CH   LINE      ---      ---       #970
      0100B462H   LINE      ---      ---       #971
      0100B462H   LINE      ---      ---       #972
      0100B467H   LINE      ---      ---       #973
      0100B469H   LINE      ---      ---       #974
      0100B470H   LINE      ---      ---       #975
      0100B470H   LINE      ---      ---       #976
      0100B475H   LINE      ---      ---       #977
      0100B475H   LINE      ---      ---       #979
      0100B475H   LINE      ---      ---       #981
      0100B475H   LINE      ---      ---       #984
      0100B483H   LINE      ---      ---       #987
      0100B483H   LINE      ---      ---       #988
      0100B489H   LINE      ---      ---       #989
      0100B489H   LINE      ---      ---       #990
      0100B494H   LINE      ---      ---       #991
      0100B494H   LINE      ---      ---       #992
      0100B494H   LINE      ---      ---       #993
      0100B494H   LINE      ---      ---       #994
      0100B496H   LINE      ---      ---       #996
      0100B496H   LINE      ---      ---       #997
      0100B4A1H   LINE      ---      ---       #998
      0100B4A1H   LINE      ---      ---       #999
      0100B4A3H   LINE      ---      ---       #1000
      0100B4A3H   LINE      ---      ---       #1001
      0100B4A3H   LINE      ---      ---       #1002
      0100B4A3H   LINE      ---      ---       #1003
      0100B4A5H   LINE      ---      ---       #1004
      0100B4B3H   LINE      ---      ---       #1007
      0100B4B3H   LINE      ---      ---       #1008
      0100B4B9H   LINE      ---      ---       #1009
      0100B4B9H   LINE      ---      ---       #1010
      0100B4BDH   LINE      ---      ---       #1011
      0100B4BDH   LINE      ---      ---       #1012
      0100B4BDH   LINE      ---      ---       #1013
      0100B4BDH   LINE      ---      ---       #1014
      0100B4BFH   LINE      ---      ---       #1016
      0100B4BFH   LINE      ---      ---       #1017
      0100B4CAH   LINE      ---      ---       #1018
      0100B4CAH   LINE      ---      ---       #1019
      0100B4CCH   LINE      ---      ---       #1020
LX51 LINKER/LOCATER V4.66.1.0                                                         04/08/2019  16:56:50  PAGE 123


      0100B4CCH   LINE      ---      ---       #1021
      0100B4CCH   LINE      ---      ---       #1022
      0100B4D1H   LINE      ---      ---       #1023
      0100B4D3H   LINE      ---      ---       #1024
      0100B4DAH   LINE      ---      ---       #1025
      0100B4DAH   LINE      ---      ---       #1026
      0100B4E0H   LINE      ---      ---       #1027
      0100B4E4H   LINE      ---      ---       #1028
      0100B4EAH   LINE      ---      ---       #1029
      0100B4EFH   LINE      ---      ---       #1030
      0100B4F4H   LINE      ---      ---       #1031
      0100B4F6H   LINE      ---      ---       #1032
      0100B4FCH   LINE      ---      ---       #1033
      0100B4FCH   LINE      ---      ---       #1034
      0100B50CH   LINE      ---      ---       #1036
      0100B50CH   LINE      ---      ---       #1037
      0100B510H   LINE      ---      ---       #1038
      0100B517H   LINE      ---      ---       #1040
      0100B517H   LINE      ---      ---       #1041
      0100B521H   LINE      ---      ---       #1042
      0100B52BH   LINE      ---      ---       #1044
      0100B539H   LINE      ---      ---       #1045
      0100B539H   LINE      ---      ---       #1046
      0100B53EH   LINE      ---      ---       #1047
      0100B540H   LINE      ---      ---       #1049
      0100B540H   LINE      ---      ---       #1050
      0100B545H   LINE      ---      ---       #1051
      0100B545H   LINE      ---      ---       #1052
      0100B54FH   LINE      ---      ---       #1053
      0100B55AH   LINE      ---      ---       #1054
      0100B55CH   LINE      ---      ---       #1056
      0100B55CH   LINE      ---      ---       #1057
      0100B566H   LINE      ---      ---       #1058
      0100B570H   LINE      ---      ---       #1060
      0100B579H   LINE      ---      ---       #1061
      0100B579H   LINE      ---      ---       #1062
      0100B58DH   LINE      ---      ---       #1063
      0100B58FH   LINE      ---      ---       #1065
      0100B58FH   LINE      ---      ---       #1066
      0100B594H   LINE      ---      ---       #1067
      0100B594H   LINE      ---      ---       #1068
      0100B59EH   LINE      ---      ---       #1069
      0100B5A6H   LINE      ---      ---       #1070
      0100B5A6H   LINE      ---      ---       #1071
      0100B5A6H   LINE      ---      ---       #1073
      0100B5A9H   LINE      ---      ---       #1074
      0100B5B0H   LINE      ---      ---       #1077
      0100B5B5H   LINE      ---      ---       #1078
      0100B5B5H   LINE      ---      ---       #1080
      0100B5B5H   LINE      ---      ---       #1082
      0100B5B5H   LINE      ---      ---       #1086
      0100B5BBH   LINE      ---      ---       #1087
      0100B5BBH   LINE      ---      ---       #1088
      0100B5C0H   LINE      ---      ---       #1089
      0100B5C0H   LINE      ---      ---       #1090
      0100B5C9H   LINE      ---      ---       #1091
      0100B5C9H   LINE      ---      ---       #1092
      0100B5CCH   LINE      ---      ---       #1093
      0100B5CEH   LINE      ---      ---       #1095
      0100B5CEH   LINE      ---      ---       #1096
      0100B5D5H   LINE      ---      ---       #1099
      0100B5DAH   LINE      ---      ---       #1100
      0100B5DAH   LINE      ---      ---       #1101
      0100B5DFH   LINE      ---      ---       #1102
      02000333H   SYMBOL    XDATA    BYTE      Set_Temp_Cnt
LX51 LINKER/LOCATER V4.66.1.0                                                         04/08/2019  16:56:50  PAGE 124


      02000334H   SYMBOL    XDATA    BYTE      Display_Return_Cnt
      ---         BLOCKEND  CODE     ---       LVL=1
      ---         BLOCKEND  CODE     ---       LVL=0

      0100B5F9H   BLOCK     CODE     ---       LVL=0
      0100B5F9H   LINE      ---      ---       #1105
      0100B5F9H   LINE      ---      ---       #1106
      0100B5F9H   BLOCK     CODE     NEAR LAB  LVL=1
      0100B5F9H   LINE      ---      ---       #1109
      0100B601H   LINE      ---      ---       #1111
      0100B601H   LINE      ---      ---       #1112
      0100B603H   LINE      ---      ---       #1113
      0100B603H   LINE      ---      ---       #1114
      0100B606H   LINE      ---      ---       #1115
      0100B60CH   LINE      ---      ---       #1116
      0100B60CH   LINE      ---      ---       #1117
      0100B611H   LINE      ---      ---       #1118
      0100B613H   LINE      ---      ---       #1119
      0100B61AH   LINE      ---      ---       #1120
      0100B61AH   LINE      ---      ---       #1121
      0100B61FH   LINE      ---      ---       #1122
      0100B61FH   LINE      ---      ---       #1124
      0100B61FH   LINE      ---      ---       #1126
      0100B61FH   LINE      ---      ---       #1129
      0100B62DH   LINE      ---      ---       #1132
      0100B62DH   LINE      ---      ---       #1133
      0100B634H   LINE      ---      ---       #1134
      0100B634H   LINE      ---      ---       #1135
      0100B63FH   LINE      ---      ---       #1136
      0100B63FH   LINE      ---      ---       #1137
      0100B63FH   LINE      ---      ---       #1138
      0100B63FH   LINE      ---      ---       #1139
      0100B641H   LINE      ---      ---       #1140
      0100B645H   LINE      ---      ---       #1141
      0100B645H   LINE      ---      ---       #1142
      0100B661H   LINE      ---      ---       #1143
      0100B661H   LINE      ---      ---       #1144
      0100B666H   LINE      ---      ---       #1145
      0100B666H   LINE      ---      ---       #1146
      0100B666H   LINE      ---      ---       #1148
      0100B666H   LINE      ---      ---       #1150
      0100B666H   LINE      ---      ---       #1151
      0100B666H   LINE      ---      ---       #1152
      0100B668H   LINE      ---      ---       #1153
      0100B676H   LINE      ---      ---       #1156
      0100B676H   LINE      ---      ---       #1157
      0100B67DH   LINE      ---      ---       #1158
      0100B67DH   LINE      ---      ---       #1159
      0100B681H   LINE      ---      ---       #1160
      0100B681H   LINE      ---      ---       #1161
      0100B681H   LINE      ---      ---       #1162
      0100B681H   LINE      ---      ---       #1163
      0100B683H   LINE      ---      ---       #1164
      0100B687H   LINE      ---      ---       #1165
      0100B687H   LINE      ---      ---       #1166
      0100B6A1H   LINE      ---      ---       #1167
      0100B6A1H   LINE      ---      ---       #1168
      0100B6A6H   LINE      ---      ---       #1169
      0100B6A6H   LINE      ---      ---       #1170
      0100B6A6H   LINE      ---      ---       #1172
      0100B6A6H   LINE      ---      ---       #1174
      0100B6A6H   LINE      ---      ---       #1175
      0100B6ABH   LINE      ---      ---       #1176
      0100B6ADH   LINE      ---      ---       #1177
      0100B6B1H   LINE      ---      ---       #1178
LX51 LINKER/LOCATER V4.66.1.0                                                         04/08/2019  16:56:50  PAGE 125


      0100B6B1H   LINE      ---      ---       #1179
      0100B6BFH   LINE      ---      ---       #1181
      0100B6BFH   LINE      ---      ---       #1182
      0100B6C3H   LINE      ---      ---       #1183
      0100B6CDH   LINE      ---      ---       #1185
      0100B6CDH   LINE      ---      ---       #1186
      0100B6DAH   LINE      ---      ---       #1187
      0100B6E1H   LINE      ---      ---       #1188
      0100B6E3H   LINE      ---      ---       #1190
      0100B6E3H   LINE      ---      ---       #1191
      0100B6F0H   LINE      ---      ---       #1192
      0100B6F7H   LINE      ---      ---       #1193
      0100B6F7H   LINE      ---      ---       #1195
      0100B6FAH   LINE      ---      ---       #1198
      0100B6FFH   LINE      ---      ---       #1199
      0100B6FFH   LINE      ---      ---       #1200
      0100B6FFH   LINE      ---      ---       #1202
      0100B6FFH   LINE      ---      ---       #1204
      0100B6FFH   LINE      ---      ---       #1206
      0100B702H   LINE      ---      ---       #1209
      0100B708H   LINE      ---      ---       #1210
      0100B708H   LINE      ---      ---       #1211
      0100B70DH   LINE      ---      ---       #1212
      0100B70DH   LINE      ---      ---       #1213
      0100B716H   LINE      ---      ---       #1214
      0100B716H   LINE      ---      ---       #1215
      0100B719H   LINE      ---      ---       #1216
      0100B71BH   LINE      ---      ---       #1218
      0100B71BH   LINE      ---      ---       #1219
      0100B71EH   LINE      ---      ---       #1222
      0100B723H   LINE      ---      ---       #1223
      0100B723H   LINE      ---      ---       #1224
      0100B728H   LINE      ---      ---       #1225
      02000335H   SYMBOL    XDATA    BYTE      Set_Temp_Cnt
      02000336H   SYMBOL    XDATA    BYTE      Display_Return_Cnt
      ---         BLOCKEND  CODE     ---       LVL=1
      ---         BLOCKEND  CODE     ---       LVL=0

      0100C51BH   BLOCK     CODE     ---       LVL=0
      0100C51BH   LINE      ---      ---       #1231
      0100C51BH   LINE      ---      ---       #1232
      0100C51BH   LINE      ---      ---       #1233
      0100C521H   LINE      ---      ---       #1234
      ---         BLOCKEND  ---      ---       LVL=0

      0100C573H   BLOCK     CODE     ---       LVL=0
      0100C573H   LINE      ---      ---       #1238
      0100C573H   LINE      ---      ---       #1239
      0100C573H   BLOCK     CODE     NEAR LAB  LVL=1
      0100C573H   LINE      ---      ---       #1243
      0100C575H   LINE      ---      ---       #1244
      0100C58CH   LINE      ---      ---       #1246
      0100C591H   LINE      ---      ---       #1247
      0100C591H   LINE      ---      ---       #1248
      0100C593H   LINE      ---      ---       #1249
      0100C593H   LINE      ---      ---       #1250
      0100C5AAH   LINE      ---      ---       #1251
      0100C5AAH   LINE      ---      ---       #1252
      0100C5B3H   LINE      ---      ---       #1253
      0100C5B3H   LINE      ---      ---       #1254
      0100C5B6H   LINE      ---      ---       #1255
      0100C5B6H   LINE      ---      ---       #1256
      0100C5B6H   LINE      ---      ---       #1257
      0100C5B9H   LINE      ---      ---       #1258
      0100C5B9H   LINE      ---      ---       #1259
LX51 LINKER/LOCATER V4.66.1.0                                                         04/08/2019  16:56:50  PAGE 126


      0100C5C0H   LINE      ---      ---       #1260
      0100C5C0H   LINE      ---      ---       #1261
      0100C5C9H   LINE      ---      ---       #1262
      0100C5C9H   LINE      ---      ---       #1263
      0100C5CCH   LINE      ---      ---       #1264
      0100C5CCH   LINE      ---      ---       #1265
      0100C5CCH   LINE      ---      ---       #1266
      0100C5CDH   LINE      ---      ---       #1267
      0100C5CDH   LINE      ---      ---       #1268
      0100C5D4H   LINE      ---      ---       #1269
      0100C5D4H   LINE      ---      ---       #1270
      0100C5DDH   LINE      ---      ---       #1271
      0100C5DDH   LINE      ---      ---       #1272
      0100C5E0H   LINE      ---      ---       #1273
      0100C5E0H   LINE      ---      ---       #1274
      0100C5E0H   LINE      ---      ---       #1275
      0100C5E0H   LINE      ---      ---       #1276
      00000006H   SYMBOL    DATA     WORD      temp1
      00000020H.0 SYMBOL    BIT      BIT       Temp_Bit1
      ---         BLOCKEND  CODE     ---       LVL=1
      ---         BLOCKEND  CODE     ---       LVL=0

      01007981H   BLOCK     CODE     ---       LVL=0
      01007981H   LINE      ---      ---       #1279
      01007981H   LINE      ---      ---       #1280
      01007981H   BLOCK     CODE     NEAR LAB  LVL=1
      01007981H   LINE      ---      ---       #1286
      01007989H   LINE      ---      ---       #1288
      01007989H   LINE      ---      ---       #1289
      0100798BH   LINE      ---      ---       #1290
      0100798BH   LINE      ---      ---       #1292
      01007993H   LINE      ---      ---       #1293
      01007993H   LINE      ---      ---       #1294
      01007999H   LINE      ---      ---       #1296
      0100799CH   LINE      ---      ---       #1298
      010079B6H   LINE      ---      ---       #1305
      010079C1H   LINE      ---      ---       #1306
      010079C1H   LINE      ---      ---       #1307
      010079C3H   LINE      ---      ---       #1308
      010079C3H   LINE      ---      ---       #1309
      010079C3H   LINE      ---      ---       #1310
      010079C5H   LINE      ---      ---       #1311
      010079D6H   LINE      ---      ---       #1314
      010079D6H   LINE      ---      ---       #1315
      010079DDH   LINE      ---      ---       #1317
      010079DDH   LINE      ---      ---       #1318
      010079E4H   LINE      ---      ---       #1320
      010079E4H   LINE      ---      ---       #1321
      010079E6H   LINE      ---      ---       #1322
      010079E6H   LINE      ---      ---       #1323
      010079F1H   LINE      ---      ---       #1324
      010079F1H   LINE      ---      ---       #1325
      010079F4H   LINE      ---      ---       #1326
      010079F4H   LINE      ---      ---       #1327
      010079F4H   LINE      ---      ---       #1329
      010079FBH   LINE      ---      ---       #1330
      010079FBH   LINE      ---      ---       #1331
      01007A02H   LINE      ---      ---       #1333
      01007A02H   LINE      ---      ---       #1334
      01007A04H   LINE      ---      ---       #1335
      01007A04H   LINE      ---      ---       #1336
      01007A0DH   LINE      ---      ---       #1337
      01007A0DH   LINE      ---      ---       #1338
      01007A10H   LINE      ---      ---       #1339
      01007A10H   LINE      ---      ---       #1340
LX51 LINKER/LOCATER V4.66.1.0                                                         04/08/2019  16:56:50  PAGE 127


      01007A10H   LINE      ---      ---       #1341
      01007A1BH   LINE      ---      ---       #1342
      01007A1BH   LINE      ---      ---       #1343
      01007A22H   LINE      ---      ---       #1345
      01007A22H   LINE      ---      ---       #1346
      01007A24H   LINE      ---      ---       #1347
      01007A24H   LINE      ---      ---       #1348
      01007A2DH   LINE      ---      ---       #1349
      01007A2DH   LINE      ---      ---       #1350
      01007A30H   LINE      ---      ---       #1351
      01007A30H   LINE      ---      ---       #1352
      01007A30H   LINE      ---      ---       #1353
      01007A36H   LINE      ---      ---       #1354
      01007A36H   LINE      ---      ---       #1355
      01007A36H   LINE      ---      ---       #1356
      01007A3DH   LINE      ---      ---       #1358
      01007A3DH   LINE      ---      ---       #1359
      01007A3FH   LINE      ---      ---       #1360
      01007A3FH   LINE      ---      ---       #1361
      01007A4AH   LINE      ---      ---       #1362
      01007A4AH   LINE      ---      ---       #1363
      01007A4DH   LINE      ---      ---       #1364
      01007A4DH   LINE      ---      ---       #1365
      01007A4DH   LINE      ---      ---       #1366
      01007A57H   LINE      ---      ---       #1367
      01007A57H   LINE      ---      ---       #1368
      01007A5DH   LINE      ---      ---       #1369
      01007A66H   LINE      ---      ---       #1370
      01007A66H   LINE      ---      ---       #1371
      01007A6CH   LINE      ---      ---       #1372
      01007A6CH   LINE      ---      ---       #1373
      01007A77H   LINE      ---      ---       #1374
      01007A77H   LINE      ---      ---       #1375
      01007A77H   LINE      ---      ---       #1376
      01007A77H   LINE      ---      ---       #1377
      01007A80H   LINE      ---      ---       #1378
      01007A80H   LINE      ---      ---       #1379
      01007A87H   LINE      ---      ---       #1381
      01007A87H   LINE      ---      ---       #1382
      01007A89H   LINE      ---      ---       #1383
      01007A89H   LINE      ---      ---       #1384
      01007A94H   LINE      ---      ---       #1385
      01007A94H   LINE      ---      ---       #1386
      01007A97H   LINE      ---      ---       #1387
      01007A97H   LINE      ---      ---       #1388
      01007A99H   LINE      ---      ---       #1390
      01007A99H   LINE      ---      ---       #1392
      01007A99H   LINE      ---      ---       #1393
      01007A99H   LINE      ---      ---       #1394
      01007AAAH   LINE      ---      ---       #1397
      01007AAAH   LINE      ---      ---       #1398
      01007AB9H   LINE      ---      ---       #1400
      01007AB9H   LINE      ---      ---       #1401
      01007ABDH   LINE      ---      ---       #1403
      01007ABDH   LINE      ---      ---       #1404
      01007AC1H   LINE      ---      ---       #1405
      01007AC1H   LINE      ---      ---       #1406
      01007AC1H   LINE      ---      ---       #1407
      01007AD0H   LINE      ---      ---       #1408
      01007AD0H   LINE      ---      ---       #1409
      01007AD4H   LINE      ---      ---       #1411
      01007AD4H   LINE      ---      ---       #1412
      01007AD8H   LINE      ---      ---       #1413
      01007AD8H   LINE      ---      ---       #1414
      01007ADBH   LINE      ---      ---       #1415
LX51 LINKER/LOCATER V4.66.1.0                                                         04/08/2019  16:56:50  PAGE 128


      01007AEDH   LINE      ---      ---       #1416
      01007AEDH   LINE      ---      ---       #1417
      01007AF1H   LINE      ---      ---       #1419
      01007AF1H   LINE      ---      ---       #1420
      01007AF1H   LINE      ---      ---       #1421
      01007AF1H   LINE      ---      ---       #1422
      01007B04H   LINE      ---      ---       #1423
      01007B04H   LINE      ---      ---       #1424
      01007B04H   LINE      ---      ---       #1425
      01007B07H   LINE      ---      ---       #1426
      01007B10H   LINE      ---      ---       #1427
      01007B10H   LINE      ---      ---       #1428
      01007B11H   LINE      ---      ---       #1429
      01007B11H   LINE      ---      ---       #1430
      01007B11H   LINE      ---      ---       #1431
      01007B20H   LINE      ---      ---       #1432
      01007B20H   LINE      ---      ---       #1433
      01007B24H   LINE      ---      ---       #1435
      01007B24H   LINE      ---      ---       #1436
      01007B25H   LINE      ---      ---       #1437
      01007B25H   LINE      ---      ---       #1438
      01007B36H   LINE      ---      ---       #1439
      01007B36H   LINE      ---      ---       #1440
      01007B3AH   LINE      ---      ---       #1442
      01007B3AH   LINE      ---      ---       #1443
      01007B3EH   LINE      ---      ---       #1444
      01007B3EH   LINE      ---      ---       #1445
      01007B40H   LINE      ---      ---       #1447
      01007B40H   LINE      ---      ---       #1449
      01007B40H   LINE      ---      ---       #1450
      01007B40H   LINE      ---      ---       #1451
      01007B47H   LINE      ---      ---       #1452
      01007B47H   LINE      ---      ---       #1453
      01007B4AH   LINE      ---      ---       #1454
      01007B4FH   LINE      ---      ---       #1455
      01007B55H   LINE      ---      ---       #1457
      01007B55H   LINE      ---      ---       #1459
      01007B55H   LINE      ---      ---       #1461
      01007B55H   LINE      ---      ---       #1464
      01007B5CH   LINE      ---      ---       #1465
      01007B5CH   LINE      ---      ---       #1466
      01007B61H   LINE      ---      ---       #1467
      01007B63H   LINE      ---      ---       #1468
      01007B67H   LINE      ---      ---       #1469
      01007B67H   LINE      ---      ---       #1470
      01007B6AH   LINE      ---      ---       #1471
      01007B6AH   LINE      ---      ---       #1473
      01007B6AH   LINE      ---      ---       #1475
      01007B6AH   LINE      ---      ---       #1478
      01007B70H   LINE      ---      ---       #1479
      01007B70H   LINE      ---      ---       #1480
      01007B79H   LINE      ---      ---       #1481
      01007B79H   LINE      ---      ---       #1484
      01007B7FH   LINE      ---      ---       #1485
      01007B7FH   LINE      ---      ---       #1486
      01007B84H   LINE      ---      ---       #1487
      01007B84H   LINE      ---      ---       #1488
      01007B8DH   LINE      ---      ---       #1489
      01007B8DH   LINE      ---      ---       #1490
      01007B90H   LINE      ---      ---       #1491
      01007B92H   LINE      ---      ---       #1493
      01007B92H   LINE      ---      ---       #1494
      01007B98H   LINE      ---      ---       #1498
      01007B98H   LINE      ---      ---       #1501
      01007B9DH   LINE      ---      ---       #1502
LX51 LINKER/LOCATER V4.66.1.0                                                         04/08/2019  16:56:50  PAGE 129


      02000337H   SYMBOL    XDATA    BYTE      Display_Return_Cnt
      02000338H   SYMBOL    XDATA    BYTE      Set_Time_Cnt
      ---         BLOCKEND  CODE     ---       LVL=1
      ---         BLOCKEND  CODE     ---       LVL=0

      0100C344H   BLOCK     CODE     ---       LVL=0
      0100C344H   LINE      ---      ---       #1507
      0100C344H   LINE      ---      ---       #1508
      0100C344H   LINE      ---      ---       #1509
      0100C34DH   LINE      ---      ---       #1510
      ---         BLOCKEND  ---      ---       LVL=0

      0100C21DH   BLOCK     CODE     ---       LVL=0
      0100C21DH   LINE      ---      ---       #1513
      0100C21DH   LINE      ---      ---       #1514
      0100C21DH   BLOCK     CODE     NEAR LAB  LVL=1
      0100C21DH   LINE      ---      ---       #1518
      0100C224H   LINE      ---      ---       #1520
      0100C224H   LINE      ---      ---       #1521
      0100C226H   LINE      ---      ---       #1522
      0100C226H   LINE      ---      ---       #1523
      0100C229H   LINE      ---      ---       #1524
      0100C22FH   LINE      ---      ---       #1525
      0100C22FH   LINE      ---      ---       #1526
      0100C23EH   LINE      ---      ---       #1527
      0100C240H   LINE      ---      ---       #1528
      0100C247H   LINE      ---      ---       #1529
      0100C247H   LINE      ---      ---       #1530
      0100C259H   LINE      ---      ---       #1531
      0100C259H   LINE      ---      ---       #1533
      0100C259H   LINE      ---      ---       #1535
      0100C259H   LINE      ---      ---       #1538
      0100C260H   LINE      ---      ---       #1539
      0100C260H   LINE      ---      ---       #1540
      0100C266H   LINE      ---      ---       #1542
      0100C26DH   LINE      ---      ---       #1543
      0100C26FH   LINE      ---      ---       #1544
      0100C276H   LINE      ---      ---       #1545
      0100C276H   LINE      ---      ---       #1546
      0100C27FH   LINE      ---      ---       #1547
      0100C27FH   LINE      ---      ---       #1548
      0100C282H   LINE      ---      ---       #1549
      0100C282H   LINE      ---      ---       #1550
      0100C284H   LINE      ---      ---       #1551
      0100C286H   LINE      ---      ---       #1552
      0100C28DH   LINE      ---      ---       #1553
      0100C28DH   LINE      ---      ---       #1554
      0100C296H   LINE      ---      ---       #1555
      0100C296H   LINE      ---      ---       #1556
      0100C299H   LINE      ---      ---       #1557
      0100C299H   LINE      ---      ---       #1558
      0100C29DH   LINE      ---      ---       #1559
      0100C29FH   LINE      ---      ---       #1560
      0100C2A6H   LINE      ---      ---       #1561
      0100C2A6H   LINE      ---      ---       #1562
      0100C2A9H   LINE      ---      ---       #1563
      0100C2B4H   LINE      ---      ---       #1565
      0100C2B8H   LINE      ---      ---       #1566
      0100C2C0H   LINE      ---      ---       #1567
      0100C2C3H   LINE      ---      ---       #1568
      0100C2C3H   LINE      ---      ---       #1570
      0100C2C3H   LINE      ---      ---       #1572
      0100C2C3H   LINE      ---      ---       #1576
      0100C2C9H   LINE      ---      ---       #1577
      0100C2C9H   LINE      ---      ---       #1578
LX51 LINKER/LOCATER V4.66.1.0                                                         04/08/2019  16:56:50  PAGE 130


      0100C2CEH   LINE      ---      ---       #1579
      0100C2CEH   LINE      ---      ---       #1580
      0100C2D7H   LINE      ---      ---       #1581
      0100C2D7H   LINE      ---      ---       #1582
      0100C2DAH   LINE      ---      ---       #1583
      0100C2DCH   LINE      ---      ---       #1585
      0100C2DCH   LINE      ---      ---       #1586
      0100C2E3H   LINE      ---      ---       #1588
      0100C2ECH   LINE      ---      ---       #1589
      0100C2ECH   LINE      ---      ---       #1591
      0100C2F1H   LINE      ---      ---       #1592
      02000339H   SYMBOL    XDATA    BYTE      Display_Return_Cnt
      0200033AH   SYMBOL    XDATA    BYTE      Set_InExp_Cnt
      ---         BLOCKEND  CODE     ---       LVL=1
      ---         BLOCKEND  CODE     ---       LVL=0

      01008934H   BLOCK     CODE     ---       LVL=0
      01008934H   LINE      ---      ---       #1597
      01008934H   LINE      ---      ---       #1598
      01008934H   LINE      ---      ---       #1599
      01008943H   LINE      ---      ---       #1600
      01008943H   LINE      ---      ---       #1601
      01008946H   LINE      ---      ---       #1602
      01008946H   LINE      ---      ---       #1603
      ---         BLOCKEND  ---      ---       LVL=0

      0100AE3DH   BLOCK     CODE     ---       LVL=0
      0100AE3DH   LINE      ---      ---       #1605
      0100AE3DH   LINE      ---      ---       #1606
      0100AE3DH   BLOCK     CODE     NEAR LAB  LVL=1
      0100AE3DH   LINE      ---      ---       #1607
      0100AE40H   LINE      ---      ---       #1608
      0100AE42H   LINE      ---      ---       #1612
      0100AE49H   LINE      ---      ---       #1614
      0100AE49H   LINE      ---      ---       #1615
      0100AE4BH   LINE      ---      ---       #1616
      0100AE52H   LINE      ---      ---       #1617
      0100AE52H   LINE      ---      ---       #1618
      0100AE58H   LINE      ---      ---       #1619
      0100AE58H   LINE      ---      ---       #1620
      0100AE58H   LINE      ---      ---       #1622
      0100AE5DH   LINE      ---      ---       #1623
      0100AE5DH   LINE      ---      ---       #1624
      0100AE6CH   LINE      ---      ---       #1625
      0100AE6CH   LINE      ---      ---       #1626
      0100AE72H   LINE      ---      ---       #1627
      0100AE74H   LINE      ---      ---       #1628
      0100AE83H   LINE      ---      ---       #1629
      0100AE89H   LINE      ---      ---       #1630
      0100AE89H   LINE      ---      ---       #1631
      0100AE89H   LINE      ---      ---       #1633
      0100AE89H   LINE      ---      ---       #1635
      0100AE89H   LINE      ---      ---       #1640
      0100AEA3H   LINE      ---      ---       #1642
      0100AEA3H   LINE      ---      ---       #1643
      0100AEA8H   LINE      ---      ---       #1644
      0100AEAEH   LINE      ---      ---       #1645
      0100AEB2H   LINE      ---      ---       #1647
      0100AEB9H   LINE      ---      ---       #1648
      0100AEB9H   LINE      ---      ---       #1649
      0100AEBCH   LINE      ---      ---       #1650
      0100AEC0H   LINE      ---      ---       #1651
      0100AEC2H   LINE      ---      ---       #1652
      0100AEC2H   LINE      ---      ---       #1653
      0100AEC2H   LINE      ---      ---       #1655
LX51 LINKER/LOCATER V4.66.1.0                                                         04/08/2019  16:56:50  PAGE 131


      0100AEC8H   LINE      ---      ---       #1656
      0100AEC8H   LINE      ---      ---       #1658
      0100AECEH   LINE      ---      ---       #1659
      0100AED5H   LINE      ---      ---       #1661
      0100AED5H   LINE      ---      ---       #1662
      0100AEDDH   LINE      ---      ---       #1663
      0100AEEDH   LINE      ---      ---       #1664
      0100AEFFH   LINE      ---      ---       #1666
      0100AEFFH   LINE      ---      ---       #1667
      0100AF01H   LINE      ---      ---       #1669
      0100AF01H   LINE      ---      ---       #1670
      0100AF07H   LINE      ---      ---       #1671
      0100AF13H   LINE      ---      ---       #1672
      0100AF28H   LINE      ---      ---       #1674
      0100AF39H   LINE      ---      ---       #1675
      0100AF39H   LINE      ---      ---       #1676
      0100AF3BH   LINE      ---      ---       #1677
      0100AF3BH   LINE      ---      ---       #1678
      02000113H   SYMBOL    XDATA    WORD      i
      02000115H   SYMBOL    XDATA    BYTE      DispEnable
      0200033BH   SYMBOL    XDATA    BYTE      ReCnt
      ---         BLOCKEND  CODE     ---       LVL=1
      ---         BLOCKEND  CODE     ---       LVL=0

      ---         MODULE    ---      ---       UART_FUN
      02000252H   PUBLIC    XDATA    BYTE      eusartRxCount
      0100AB91H   PUBLIC    CODE     ---       EUSART_Receive_ISR
      0100ABD6H   PUBLIC    CODE     ---       EUSART_Transmit_ISR
      0100AA8DH   PUBLIC    CODE     ---       _EUSART_Write_Str
      0100AAABH   PUBLIC    CODE     ---       _EUSART_Write
      0100AA6FH   PUBLIC    CODE     ---       EUSART_Read
      0100C5E1H   PUBLIC    CODE     ---       EUSART_Initialize
      00000089H   SFRSYM    DATA     BYTE      TMOD
      0000008DH   SFRSYM    DATA     BYTE      TH1
      00000098H.1 SFRSYM    DATA     BIT       TI
      00000088H.6 SFRSYM    DATA     BIT       TR1
      000000E0H   SFRSYM    DATA     BYTE      ACC
      00000087H   SFRSYM    DATA     BYTE      PCON
      00000099H   SFRSYM    DATA     BYTE      SBUF
      000000A8H   SFRSYM    DATA     BYTE      IE
      00000098H   SFRSYM    DATA     BYTE      SCON
      02000253H   SYMBOL    XDATA    BYTE      eusartRxHead
      02000254H   SYMBOL    XDATA    BYTE      eusartRxTail
      02000255H   SYMBOL    XDATA    ---       eusartRxBuffer
      020002D5H   SYMBOL    XDATA    BYTE      Send_uart_busy
      0100AAB1H   SYMBOL    CODE     ---       _send_char_com

      0100C5E1H   BLOCK     CODE     ---       LVL=0
      0100C5E1H   LINE      ---      ---       #42
      0100C5E1H   LINE      ---      ---       #43
      0100C5E1H   LINE      ---      ---       #45
      0100C5E4H   LINE      ---      ---       #46
      0100C5E7H   LINE      ---      ---       #47
      0100C5EAH   LINE      ---      ---       #48
      0100C5EDH   LINE      ---      ---       #49
      0100C5F0H   LINE      ---      ---       #50
      0100C5F2H   LINE      ---      ---       #52
      0100C5F7H   LINE      ---      ---       #53
      0100C5F9H   LINE      ---      ---       #54
      0100C5FDH   LINE      ---      ---       #55
      ---         BLOCKEND  ---      ---       LVL=0

      0100AA6FH   BLOCK     CODE     ---       LVL=0
      0100AA6FH   LINE      ---      ---       #58
      0100AA6FH   LINE      ---      ---       #59
LX51 LINKER/LOCATER V4.66.1.0                                                         04/08/2019  16:56:50  PAGE 132


      0100AA6FH   BLOCK     CODE     NEAR LAB  LVL=1
      0100AA6FH   LINE      ---      ---       #60
      0100AA6FH   LINE      ---      ---       #61
      0100AA75H   LINE      ---      ---       #62
      0100AA7BH   LINE      ---      ---       #63
      0100AA81H   LINE      ---      ---       #64
      0100AA81H   LINE      ---      ---       #65
      0100AA86H   LINE      ---      ---       #66
      0100AA86H   LINE      ---      ---       #67
      0100AA8CH   LINE      ---      ---       #68
      0100AA8CH   LINE      ---      ---       #69
      00000007H   SYMBOL    DATA     BYTE      readValue
      ---         BLOCKEND  CODE     ---       LVL=1
      ---         BLOCKEND  CODE     ---       LVL=0

      0100AAB1H   BLOCK     CODE     ---       LVL=0
      0100AAB1H   LINE      ---      ---       #72
      0100AAB1H   LINE      ---      ---       #73
      0100AAB1H   LINE      ---      ---       #74
      0100AAB2H   LINE      ---      ---       #75
      0100AAB4H   LINE      ---      ---       #76
      0100AABAH   LINE      ---      ---       #77
      00000007H   SYMBOL    DATA     BYTE      Send_ch
      ---         BLOCKEND  ---      ---       LVL=0

      0100AAABH   BLOCK     CODE     ---       LVL=0
      0100AAABH   LINE      ---      ---       #80
      0100AAABH   LINE      ---      ---       #81
      0100AAABH   LINE      ---      ---       #82
      00000007H   SYMBOL    DATA     BYTE      txData
      ---         BLOCKEND  ---      ---       LVL=0

      0100AA8DH   BLOCK     CODE     ---       LVL=0
      0100AA8DH   LINE      ---      ---       #87
      0100AA93H   LINE      ---      ---       #88
      02000117H   SYMBOL    XDATA    ---       stra
      00000005H   SYMBOL    DATA     BYTE      cnt
      0100AA93H   BLOCK     CODE     NEAR LAB  LVL=1
      0100AA93H   LINE      ---      ---       #90
      0100AA9AH   LINE      ---      ---       #91
      0100AA9AH   LINE      ---      ---       #92
      0100AAA7H   LINE      ---      ---       #93
      0100AAAAH   LINE      ---      ---       #94
      00000006H   SYMBOL    DATA     BYTE      i
      ---         BLOCKEND  CODE     ---       LVL=1
      ---         BLOCKEND  CODE     ---       LVL=0

      0100ABD6H   BLOCK     CODE     ---       LVL=0
      0100ABD6H   LINE      ---      ---       #96
      0100ABD6H   LINE      ---      ---       #97
      0100ABD6H   LINE      ---      ---       #98
      0100ABD8H   LINE      ---      ---       #99
      0100ABDDH   LINE      ---      ---       #100
      ---         BLOCKEND  ---      ---       LVL=0

      0100AB91H   BLOCK     CODE     ---       LVL=0
      0100AB91H   LINE      ---      ---       #103
      0100AB91H   LINE      ---      ---       #104
      0100AB91H   LINE      ---      ---       #105
      0100AB97H   LINE      ---      ---       #106
      0100AB9EH   LINE      ---      ---       #108
      0100ABA4H   LINE      ---      ---       #109
      0100ABA4H   LINE      ---      ---       #110
      0100ABA9H   LINE      ---      ---       #111
      0100ABA9H   LINE      ---      ---       #112
LX51 LINKER/LOCATER V4.66.1.0                                                         04/08/2019  16:56:50  PAGE 133


      0100ABAFH   LINE      ---      ---       #113
      ---         BLOCKEND  ---      ---       LVL=0

      ---         MODULE    ---      ---       ?C_STARTUP
      01000000H   PUBLIC    CODE     ---       ?C_STARTUP

      ---         MODULE    ---      ---       ?C?COPY
      01005785H   PUBLIC    CODE     ---       ?C?COPY

      ---         MODULE    ---      ---       ?C?CLDPTR
      010057ABH   PUBLIC    CODE     ---       ?C?CLDPTR

      ---         MODULE    ---      ---       ?C?CLDOPTR
      010057C4H   PUBLIC    CODE     ---       ?C?CLDOPTR

      ---         MODULE    ---      ---       ?C?CSTPTR
      010057F1H   PUBLIC    CODE     ---       ?C?CSTPTR

      ---         MODULE    ---      ---       ?C?CSTOPTR
      01005803H   PUBLIC    CODE     ---       ?C?CSTOPTR

      ---         MODULE    ---      ---       ?C?IMUL
      01005825H   PUBLIC    CODE     ---       ?C?IMUL

      ---         MODULE    ---      ---       ?C?UIDIV
      01005837H   PUBLIC    CODE     ---       ?C?UIDIV

      ---         MODULE    ---      ---       ?C?SIDIV
      0100588CH   PUBLIC    CODE     ---       ?C?SIDIV

      ---         MODULE    ---      ---       ?C?IILDX
      010058C2H   PUBLIC    CODE     ---       ?C?IILDX

      ---         MODULE    ---      ---       ?C?LADD
      010058D8H   PUBLIC    CODE     ---       ?C?LADD

      ---         MODULE    ---      ---       ?C?LSUB
      010058E5H   PUBLIC    CODE     ---       ?C?LSUB

      ---         MODULE    ---      ---       ?C?LMUL
      010058F3H   PUBLIC    CODE     ---       ?C?LMUL

      ---         MODULE    ---      ---       ?C?ULDIV
      0100597EH   PUBLIC    CODE     ---       ?C?ULDIV

      ---         MODULE    ---      ---       ?C?SLDIV
      0100631BH   PUBLIC    CODE     ---       ?C?SLDIV

      ---         MODULE    ---      ---       ?C?LAND
      01005A10H   PUBLIC    CODE     ---       ?C?LAND

      ---         MODULE    ---      ---       ?C?LOR
      01005A1DH   PUBLIC    CODE     ---       ?C?LOR

      ---         MODULE    ---      ---       ?C?LNOT
      01005A2AH   PUBLIC    CODE     ---       ?C?LNOT

      ---         MODULE    ---      ---       ?C?SLCMP
      01005A37H   PUBLIC    CODE     ---       ?C?SLCMP

      ---         MODULE    ---      ---       ?C?ULCMP
      01005A4DH   PUBLIC    CODE     ---       ?C?ULCMP

      ---         MODULE    ---      ---       ?C?ULSHR
      01005A5EH   PUBLIC    CODE     ---       ?C?ULSHR
LX51 LINKER/LOCATER V4.66.1.0                                                         04/08/2019  16:56:50  PAGE 134



      ---         MODULE    ---      ---       ?C?LSHL
      01005A71H   PUBLIC    CODE     ---       ?C?LSHL

      ---         MODULE    ---      ---       ?C?LLDXDATA
      01005A84H   PUBLIC    CODE     ---       ?C?LLDXDATA

      ---         MODULE    ---      ---       ?C?LLDXDATA0
      01005A90H   PUBLIC    CODE     ---       ?C?LLDXDATA0

      ---         MODULE    ---      ---       ?C?LSTXDATA
      01005A9CH   PUBLIC    CODE     ---       ?C?LSTXDATA

      ---         MODULE    ---      ---       ?C?LSTKXDATA
      01005AA8H   PUBLIC    CODE     ---       ?C?LSTKXDATA

      ---         MODULE    ---      ---       ?C?OFFXADD
      01005AD9H   PUBLIC    CODE     ---       ?C?OFFXADD

      ---         MODULE    ---      ---       ?C?PLDXDATA
      01005AE5H   PUBLIC    CODE     ---       ?C?PLDXDATA

      ---         MODULE    ---      ---       ?C?PSTXDATA
      01005AEEH   PUBLIC    CODE     ---       ?C?PSTXDATA

      ---         MODULE    ---      ---       ?C?PLDPTR
      01005AF7H   PUBLIC    CODE     ---       ?C?PLDPTR

      ---         MODULE    ---      ---       ?C?PLDOPTR
      01005B17H   PUBLIC    CODE     ---       ?C?PLDOPTR

      ---         MODULE    ---      ---       ?C?CCASE
      01005B47H   PUBLIC    CODE     ---       ?C?CCASE

      ---         MODULE    ---      ---       ?C?ICALL
      01005B6DH   PUBLIC    CODE     ---       ?C?ICALL
      01005B71H   PUBLIC    CODE     ---       ?C?ICALL2

      ---         MODULE    ---      ---       ABS
      01000016H   PUBLIC    CODE     ---       _ABS

      ---         MODULE    ---      ---       ?C?STRCPY
      01005C3FH   PUBLIC    CODE     ---       ?C?STRCPY

      ---         MODULE    ---      ---       ?C_INIT
      010062D6H   PUBLIC    CODE     ---       ?C_START

      ---         MODULE    ---      ---       ?C?PLDIDATA
      01005C5CH   PUBLIC    CODE     ---       ?C?PLDIDATA

      ---         MODULE    ---      ---       ?C?PLDPDATA
      01005C65H   PUBLIC    CODE     ---       ?C?PLDPDATA

      ---         MODULE    ---      ---       ?C?PLDCODE
      01005C6EH   PUBLIC    CODE     ---       ?C?PLDCODE

Program Size: data=25.3 xdata=867 const=0 code=51526
LX51 RUN COMPLETE.  0 WARNING(S),  0 ERROR(S)
