LX51 LINKER/LOCATER V4.66.93.0                                                          04/11/2019  16:58:21  PAGE 1


LX51 LINKER/LOCATER V4.66.93.0, INVOKED BY:
D:\KEIL_V5\C51\BIN\LX51.EXE ..\OBJ\stc_eeprom.obj, ..\OBJ\delay.obj, ..\OBJ\Main_Tik_Tok.obj, ..\OBJ\WS_Task_Manage.obj,
>>  ..\OBJ\Main_Tik_Function.obj, ..\OBJ\Sub_Tik_Function.obj, ..\OBJ\Normal_Task.obj, ..\OBJ\ActivityFunctions.obj, ..\
>> OBJ\Sound_Type.obj, ..\OBJ\main.obj, ..\OBJ\StcRomCrc16.obj, ..\OBJ\lcd.obj, ..\OBJ\w25x.obj, ..\OBJ\sht21.obj, ..\OB
>> J\RX8010.obj, ..\OBJ\ds18b20.obj, ..\OBJ\key_datas.obj, ..\OBJ\Key_Multifun.obj, ..\OBJ\GUI.obj, ..\OBJ\uart_fun.obj 
>> TO ..\OBJ\VHB15A PRINT (.\VHB15A.map) CLASSES (XDATA (X:0X0-X:0X3FF), HDATA (X:0X0-X:0X3FF), CODE (C:0X0-C:0XEFFF), C
>> ONST (C:0X0-C:0XEFFF), ECODE (C:0X0-C:0XEFFF), HCONST (C:0X0-C:0XEFFF))


CPU MODE:     8051 MODE
MEMORY MODEL: LARGE


INPUT MODULES INCLUDED:
  ..\OBJ\stc_eeprom.obj (STC_EEPROM)
         COMMENT TYPE 0: C51 V9.59.0.0
  ..\OBJ\delay.obj (DELAY)
         COMMENT TYPE 0: C51 V9.59.0.0
  ..\OBJ\Main_Tik_Tok.obj (MAIN_TIK_TOK)
         COMMENT TYPE 0: C51 V9.59.0.0
  ..\OBJ\WS_Task_Manage.obj (WS_TASK_MANAGE)
         COMMENT TYPE 0: C51 V9.59.0.0
  ..\OBJ\Main_Tik_Function.obj (MAIN_TIK_FUNCTION)
         COMMENT TYPE 0: C51 V9.59.0.0
  ..\OBJ\Sub_Tik_Function.obj (SUB_TIK_FUNCTION)
         COMMENT TYPE 0: C51 V9.59.0.0
  ..\OBJ\Normal_Task.obj (NORMAL_TASK)
         COMMENT TYPE 0: C51 V9.59.0.0
  ..\OBJ\ActivityFunctions.obj (ACTIVITYFUNCTIONS)
         COMMENT TYPE 0: C51 V9.59.0.0
  ..\OBJ\Sound_Type.obj (SOUND_TYPE)
         COMMENT TYPE 0: C51 V9.59.0.0
  ..\OBJ\main.obj (MAIN)
         COMMENT TYPE 0: C51 V9.59.0.0
  ..\OBJ\StcRomCrc16.obj (STCROMCRC16)
         COMMENT TYPE 0: C51 V9.59.0.0
  ..\OBJ\lcd.obj (LCD)
         COMMENT TYPE 0: C51 V9.59.0.0
  ..\OBJ\w25x.obj (W25X)
         COMMENT TYPE 0: C51 V9.59.0.0
  ..\OBJ\sht21.obj (SHT21)
         COMMENT TYPE 0: C51 V9.59.0.0
  ..\OBJ\RX8010.obj (RX8010)
         COMMENT TYPE 0: C51 V9.59.0.0
  ..\OBJ\ds18b20.obj (DS18B20)
         COMMENT TYPE 0: C51 V9.59.0.0
  ..\OBJ\key_datas.obj (KEY_DATAS)
         COMMENT TYPE 0: C51 V9.59.0.0
  ..\OBJ\Key_Multifun.obj (KEY_MULTIFUN)
         COMMENT TYPE 0: C51 V9.59.0.0
  ..\OBJ\GUI.obj (GUI)
         COMMENT TYPE 0: C51 V9.59.0.0
  ..\OBJ\uart_fun.obj (UART_FUN)
         COMMENT TYPE 0: C51 V9.59.0.0
  D:\KEIL_V5\C51\LIB\C51L.LIB (?C_STARTUP)
         COMMENT TYPE 1: A51 / ASM51 Assembler
  D:\KEIL_V5\C51\LIB\C51L.LIB (?C?COPY)
         COMMENT TYPE 1: A51 / ASM51 Assembler
  D:\KEIL_V5\C51\LIB\C51L.LIB (?C?CLDPTR)
         COMMENT TYPE 1: A51 / ASM51 Assembler
  D:\KEIL_V5\C51\LIB\C51L.LIB (?C?CLDOPTR)
         COMMENT TYPE 1: A51 / ASM51 Assembler
  D:\KEIL_V5\C51\LIB\C51L.LIB (?C?CSTPTR)
         COMMENT TYPE 1: A51 / ASM51 Assembler
  D:\KEIL_V5\C51\LIB\C51L.LIB (?C?CSTOPTR)
         COMMENT TYPE 1: A51 / ASM51 Assembler
LX51 LINKER/LOCATER V4.66.93.0                                                        04/11/2019  16:58:21  PAGE 2


  D:\KEIL_V5\C51\LIB\C51L.LIB (?C?IMUL)
         COMMENT TYPE 1: A51 / ASM51 Assembler
  D:\KEIL_V5\C51\LIB\C51L.LIB (?C?UIDIV)
         COMMENT TYPE 1: A51 / ASM51 Assembler
  D:\KEIL_V5\C51\LIB\C51L.LIB (?C?SIDIV)
         COMMENT TYPE 1: A51 / ASM51 Assembler
  D:\KEIL_V5\C51\LIB\C51L.LIB (?C?IILDX)
         COMMENT TYPE 1: A51 / ASM51 Assembler
  D:\KEIL_V5\C51\LIB\C51L.LIB (?C?LADD)
         COMMENT TYPE 1: A51 / ASM51 Assembler
  D:\KEIL_V5\C51\LIB\C51L.LIB (?C?LSUB)
         COMMENT TYPE 1: A51 / ASM51 Assembler
  D:\KEIL_V5\C51\LIB\C51L.LIB (?C?LMUL)
         COMMENT TYPE 1: A51 / ASM51 Assembler
  D:\KEIL_V5\C51\LIB\C51L.LIB (?C?ULDIV)
         COMMENT TYPE 1: A51 / ASM51 Assembler
  D:\KEIL_V5\C51\LIB\C51L.LIB (?C?SLDIV)
         COMMENT TYPE 1: A51 / ASM51 Assembler
  D:\KEIL_V5\C51\LIB\C51L.LIB (?C?LAND)
         COMMENT TYPE 1: A51 / ASM51 Assembler
  D:\KEIL_V5\C51\LIB\C51L.LIB (?C?LOR)
         COMMENT TYPE 1: A51 / ASM51 Assembler
  D:\KEIL_V5\C51\LIB\C51L.LIB (?C?LNOT)
         COMMENT TYPE 1: A51 / ASM51 Assembler
  D:\KEIL_V5\C51\LIB\C51L.LIB (?C?SLCMP)
         COMMENT TYPE 1: A51 / ASM51 Assembler
  D:\KEIL_V5\C51\LIB\C51L.LIB (?C?ULCMP)
         COMMENT TYPE 1: A51 / ASM51 Assembler
  D:\KEIL_V5\C51\LIB\C51L.LIB (?C?ULSHR)
         COMMENT TYPE 1: A51 / ASM51 Assembler
  D:\KEIL_V5\C51\LIB\C51L.LIB (?C?LSHL)
         COMMENT TYPE 1: A51 / ASM51 Assembler
  D:\KEIL_V5\C51\LIB\C51L.LIB (?C?LLDXDATA)
         COMMENT TYPE 1: A51 / ASM51 Assembler
  D:\KEIL_V5\C51\LIB\C51L.LIB (?C?LLDXDATA0)
         COMMENT TYPE 1: A51 / ASM51 Assembler
  D:\KEIL_V5\C51\LIB\C51L.LIB (?C?LSTXDATA)
         COMMENT TYPE 1: A51 / ASM51 Assembler
  D:\KEIL_V5\C51\LIB\C51L.LIB (?C?LSTKXDATA)
         COMMENT TYPE 1: A51 / ASM51 Assembler
  D:\KEIL_V5\C51\LIB\C51L.LIB (?C?OFFXADD)
         COMMENT TYPE 1: A51 / ASM51 Assembler
  D:\KEIL_V5\C51\LIB\C51L.LIB (?C?PLDXDATA)
         COMMENT TYPE 1: A51 / ASM51 Assembler
  D:\KEIL_V5\C51\LIB\C51L.LIB (?C?PSTXDATA)
         COMMENT TYPE 1: A51 / ASM51 Assembler
  D:\KEIL_V5\C51\LIB\C51L.LIB (?C?PLDPTR)
         COMMENT TYPE 1: A51 / ASM51 Assembler
  D:\KEIL_V5\C51\LIB\C51L.LIB (?C?PLDOPTR)
         COMMENT TYPE 1: A51 / ASM51 Assembler
  D:\KEIL_V5\C51\LIB\C51L.LIB (?C?CCASE)
         COMMENT TYPE 1: A51 / ASM51 Assembler
  D:\KEIL_V5\C51\LIB\C51L.LIB (?C?ICALL)
         COMMENT TYPE 1: A51 / ASM51 Assembler
  D:\KEIL_V5\C51\LIB\C51L.LIB (ABS)
         COMMENT TYPE 1: A51 / ASM51 Assembler
  D:\KEIL_V5\C51\LIB\C51L.LIB (?C?STRCPY)
         COMMENT TYPE 1: A51 / ASM51 Assembler
  D:\KEIL_V5\C51\LIB\C51L.LIB (?C_INIT)
         COMMENT TYPE 1: A51 / ASM51 Assembler
  D:\KEIL_V5\C51\LIB\C51L.LIB (?C?PLDIDATA)
         COMMENT TYPE 1: A51 / ASM51 Assembler
  D:\KEIL_V5\C51\LIB\C51L.LIB (?C?PLDPDATA)
         COMMENT TYPE 1: A51 / ASM51 Assembler
  D:\KEIL_V5\C51\LIB\C51L.LIB (?C?PLDCODE)
LX51 LINKER/LOCATER V4.66.93.0                                                        04/11/2019  16:58:21  PAGE 3


         COMMENT TYPE 1: A51 / ASM51 Assembler


ACTIVE MEMORY CLASSES OF MODULE:  ..\OBJ\VHB15A (STC_EEPROM)

BASE        START       END         USED      MEMORY CLASS
==========================================================
X:000000H   X:000000H   X:0003FFH   000362H   XDATA
X:000000H   X:000000H   X:0003FFH             HDATA
C:000000H   C:000000H   C:00EFFFH   0070E4H   CODE
C:000000H   C:000000H   C:00EFFFH   005922H   CONST
C:000000H   C:000000H   C:00EFFFH             ECODE
I:800000H   C:000000H   C:00EFFFH             HCONST
I:000000H   I:000000H   I:0000FFH   000001H   IDATA
I:000000H   I:000000H   I:00007FH   000018H   DATA


MEMORY MAP OF MODULE:  ..\OBJ\VHB15A (STC_EEPROM)


START     STOP      LENGTH    ALIGN  RELOC    MEMORY CLASS   SEGMENT NAME
=========================================================================

* * * * * * * * * * *   D A T A   M E M O R Y   * * * * * * * * * * * * *
000000H   000007H   000008H   ---    AT..     DATA           "REG BANK 0"
000008H   00000FH   000008H   ---    AT..     DATA           "REG BANK 1"
000010H   000017H   000008H   ---    AT..     DATA           "REG BANK 2"
000018H   000018H   000001H   BYTE   UNIT     IDATA          ?STACK

* * * * * * * * * * *   C O D E   M E M O R Y   * * * * * * * * * * * * *
000000H   000002H   000003H   ---    OFFS..   CODE           ?CO??C_STARTUP?0
000003H   00000AH   000008H   BYTE   UNIT     CODE           ?L?COM0076
00000BH   00000DH   000003H   BYTE   OFFS..   CODE           ?ACTIVITYFUNCTIONS?0000B
00000EH   000012H   000005H   BYTE   UNIT     CODE           ?PR?_SDCMD?LCD
000013H   000015H   000003H   BYTE   OFFS..   CODE           ?ACTIVITYFUNCTIONS?00013
000016H   000021H   00000CH   BYTE   UNIT     CODE           ?PR?_ABS?ABS
000022H   000022H   000001H   ---    ---      **GAP**
000023H   000025H   000003H   BYTE   OFFS..   CODE           ?ACTIVITYFUNCTIONS?00023
000026H   0005EAH   0005C5H   BYTE   UNIT     CODE           ?C?LIB_CODE
0005EBH   00095FH   000375H   BYTE   UNIT     CODE           ?C_INITSEG
000960H   0009EBH   00008CH   BYTE   UNIT     CODE           ?C_C51STARTUP
0009ECH   000A2FH   000044H   BYTE   UNIT     CODE           ?C?LDIV
000A30H   0060BEH   00568FH   BYTE   UNIT     CONST          ?CO?LCD
0060BFH   006351H   000293H   BYTE   UNIT     CONST          ?CO?GUI
006352H   006367H   000016H   BYTE   UNIT     CODE           ?PR?_STC_IAP_BYTE_READ?STC_EEPROM
006368H   006422H   0000BBH   BYTE   UNIT     CODE           ?PR?MEM_FLASH_RECALL?ACTIVITYFUNCTIONS
006423H   0065F8H   0001D6H   BYTE   UNIT     CODE           ?PR?_HMIENTERTOWORKSTATEFUNC?GUI
0065F9H   006624H   00002CH   BYTE   UNIT     CODE           ?L?COM0005
006625H   006630H   00000CH   BYTE   UNIT     CODE           ?L?COM0036
006631H   0067A8H   000178H   BYTE   UNIT     CODE           ?PR?DRAWWORKWINDOWS?LCD
0067A9H   0067DCH   000034H   BYTE   UNIT     CODE           ?L?COM0010
0067DDH   0067F3H   000017H   BYTE   UNIT     CODE           ?L?COM0027
0067F4H   006803H   000010H   BYTE   UNIT     CODE           ?PR?_STC_IAP_BYTE_PROGRAM?STC_EEPROM
006804H   00680FH   00000CH   BYTE   UNIT     CODE           ?PR?IAP_DISABLE?STC_EEPROM
006810H   00681CH   00000DH   BYTE   UNIT     CODE           ?PR?_STC_IAP_SECTOR_ERASE?STC_EEPROM
00681DH   006823H   000007H   BYTE   UNIT     CODE           ?L?COM01A9
006824H   006834H   000011H   BYTE   UNIT     CODE           ?L?COM00CC
006835H   00689DH   000069H   BYTE   UNIT     CODE           ?PR?SETTING_WRITE_TO_FLASH?ACTIVITYFUNCTIONS
00689EH   006900H   000063H   BYTE   UNIT     CODE           ?PR?HMINON_INVASIVESELFUNC?GUI
006901H   006A22H   000122H   BYTE   UNIT     CODE           ?PR?_DRAW_RECTANGLE?LCD
006A23H   006A4BH   000029H   BYTE   UNIT     CODE           ?PR?_LCD_CRTLWRITE_AREA?LCD
006A4CH   006A56H   00000BH   BYTE   UNIT     CODE           ?L?COM019A
006A57H   006A87H   000031H   BYTE   UNIT     CODE           ?PR?_SDDATA?LCD
006A88H   006B69H   0000E2H   BYTE   UNIT     CODE           ?PR?LCD_INITIAL?LCD
006B6AH   006BF6H   00008DH   BYTE   UNIT     CODE           ?PR?_DRAW_RECTANGLE_REAL?LCD
LX51 LINKER/LOCATER V4.66.93.0                                                        04/11/2019  16:58:21  PAGE 4


006BF7H   006F1FH   000329H   BYTE   UNIT     CODE           ?PR?HMIFACTORYDEFAULTFUNC?GUI
006F20H   006F4FH   000030H   BYTE   UNIT     CODE           ?L?COM0032
006F50H   006F83H   000034H   BYTE   UNIT     CODE           ?PR?_LCD_DRAWPOINT?LCD
006F84H   006F96H   000013H   BYTE   UNIT     CODE           ?PR?_LCD_CTRLWRITE_COLOR?LCD
006F97H   006FAFH   000019H   BYTE   UNIT     CODE           ?PR?_LCD_CTRLWRITE_ILI9328?LCD
006FB0H   006FB4H   000005H   BYTE   UNIT     CODE           ?L?COM0135
006FB5H   006FBCH   000008H   BYTE   UNIT     CODE           ?L?COM013A
006FBDH   006FC8H   00000CH   BYTE   UNIT     CODE           ?L?COM0094
006FC9H   006FD3H   00000BH   BYTE   UNIT     CODE           ?L?COM00DB
006FD4H   006FDFH   00000CH   BYTE   UNIT     CODE           ?L?COM0102
006FE0H   006FE7H   000008H   BYTE   UNIT     CODE           ?L?COM012C
006FE8H   006FEEH   000007H   BYTE   UNIT     CODE           ?L?COM0186
006FEFH   006FF6H   000008H   BYTE   UNIT     CODE           ?L?COM00F8
006FF7H   006FFEH   000008H   BYTE   UNIT     CODE           ?L?COM01DA
006FFFH   007020H   000022H   BYTE   UNIT     CODE           ?PR?_DELAY_US?DELAY
007021H   00726DH   00024DH   BYTE   UNIT     CODE           ?PR?GETTEMP_HPCHAMBERFUNC?ACTIVITYFUNCTIONS
00726EH   0072BAH   00004DH   BYTE   UNIT     CODE           ?PR?DS18B20_READBYTE?DS18B20
0072BBH   0072C2H   000008H   BYTE   UNIT     CODE           ?L?COM00BC
0072C3H   0072FCH   00003AH   BYTE   UNIT     CODE           ?PR?_DS18B20_WRITEBYTE?DS18B20
0072FDH   007357H   00005BH   BYTE   UNIT     CODE           ?PR?_SHT21_READ8BIT?SHT21
007358H   0073D9H   000082H   BYTE   UNIT     CODE           ?PR?_SHT21_WRITE8BIT?SHT21
0073DAH   0073E2H   000009H   BYTE   UNIT     CODE           ?PR?SCL_OUTPUT_LOW?SHT21
0073E3H   0073E9H   000007H   BYTE   UNIT     CODE           ?PR?SCL_INPUT_HIGH?SHT21
0073EAH   0073F0H   000007H   BYTE   UNIT     CODE           ?PR?SDA_INPUT_HIGH?SHT21
0073F1H   0073FCH   00000CH   BYTE   UNIT     CODE           ?PR?SHT21_START?SHT21
0073FDH   007405H   000009H   BYTE   UNIT     CODE           ?L?COM011B
007406H   00740FH   00000AH   BYTE   UNIT     CODE           ?L?COM0077
007410H   00741BH   00000CH   BYTE   UNIT     CODE           ?PR?SHT21_WRITETEMP?SHT21
00741CH   007427H   00000CH   BYTE   UNIT     CODE           ?PR?SHT21_WRITERH?SHT21
007428H   00776BH   000344H   BYTE   UNIT     CODE           ?PR?GETTEMPHUMIDITY_PATIENTFUNC?ACTIVITYFUNCTIONS
00776CH   007777H   00000CH   BYTE   UNIT     CODE           ?L?COM0079
007778H   007796H   00001FH   BYTE   UNIT     CODE           ?L?COM004B
007797H   00779FH   000009H   BYTE   UNIT     CODE           ?PR?SDA_OUTPUT_LOW?SHT21
0077A0H   0077ADH   00000EH   BYTE   UNIT     CODE           ?PR?SHT21_STOP?SHT21
0077AEH   0077BDH   000010H   BYTE   UNIT     CODE           ?L?COM00CF
0077BEH   0077D1H   000014H   BYTE   UNIT     CODE           ?L?COM0014
0077D2H   0077E7H   000016H   BYTE   UNIT     CODE           ?L?COM0068
0077E8H   0077EFH   000008H   BYTE   UNIT     CODE           ?L?COM0154
0077F0H   0077F6H   000007H   BYTE   UNIT     CODE           ?L?COM019F
0077F7H   007800H   00000AH   BYTE   UNIT     CODE           ?L?COM0131
007801H   00782CH   00002CH   BYTE   UNIT     CODE           ?PR?_DELAY_MS?DELAY
00782DH   007B1EH   0002F2H   BYTE   UNIT     CODE           ?PR?HMISERVICEMODEFUNC?GUI
007B1FH   007B39H   00001BH   BYTE   UNIT     CODE           ?L?COM0017
007B3AH   007BFEH   0000C5H   BYTE   UNIT     CODE           ?PR?_LCD_SHOWSTRING?LCD
007BFFH   007D91H   000193H   BYTE   UNIT     CODE           ?PR?HMIPOSTFUNC?GUI
007D92H   007DD4H   000043H   BYTE   UNIT     CODE           ?PR?LCD_SHOW_VERION?LCD
007DD5H   007DDCH   000008H   BYTE   UNIT     CODE           ?L?COM00C3
007DDDH   007DEAH   00000EH   BYTE   UNIT     CODE           ?L?COM005E
007DEBH   007E36H   00004CH   BYTE   UNIT     CODE           ?L?COM0020
007E37H   007EB1H   00007BH   BYTE   UNIT     CODE           ?PR?_DISPLAY_IN_EXP_RATIO?GUI
007EB2H   007EC8H   000017H   BYTE   UNIT     CODE           ?L?COM006D
007EC9H   007F98H   0000D0H   BYTE   UNIT     CODE           ?PR?HMISETINEXPFUNC?GUI
007F99H   007FB8H   000020H   BYTE   UNIT     CODE           ?L?COM001C
007FB9H   007FC1H   000009H   BYTE   UNIT     CODE           ?L?COM0124
007FC2H   007FCDH   00000CH   BYTE   UNIT     CODE           ?L?COM00D3
007FCEH   007FE8H   00001BH   BYTE   UNIT     CODE           ?L?COM0001
007FE9H   007FEFH   000007H   BYTE   UNIT     CODE           ?L?COM01AB
007FF0H   007FF5H   000006H   BYTE   UNIT     CODE           ?L?COM01CF
007FF6H   007FFCH   000007H   BYTE   UNIT     CODE           ?L?COM0125
007FFDH   008012H   000016H   BYTE   UNIT     CODE           ?PR?MAIN_TIK_TOK_INITIAL_FUN?MAIN_TIK_TOK
008013H   00807BH   000069H   BYTE   UNIT     CODE           ?PR?MAIN?MAIN
00807CH   00821FH   0001A4H   BYTE   UNIT     CODE           ?PR?MANAGETASK?NORMAL_TASK
008220H   00822BH   00000CH   BYTE   UNIT     CODE           ?PR?_WS_SETTASKIFG?WS_TASK_MANAGE
00822CH   008318H   0000EDH   BYTE   UNIT     CODE           ?PR?INIT_PORT?ACTIVITYFUNCTIONS
008319H   008325H   00000DH   BYTE   UNIT     CODE           ?L?COM0104
LX51 LINKER/LOCATER V4.66.93.0                                                        04/11/2019  16:58:21  PAGE 5


008326H   00834CH   000027H   BYTE   UNIT     CODE           ?PR?_DISP_FNT10X24?LCD
00834DH   008403H   0000B7H   BYTE   UNIT     CODE           ?PR?_DISP_MONO_GRAP?LCD
008404H   00842CH   000029H   BYTE   UNIT     CODE           ?PR?_DISP_RH_17X40?LCD
00842DH   008606H   0001DAH   BYTE   UNIT     CODE           ?PR?SERVICEMODE_TEMPHUMIDY_DISP?ACTIVITYFUNCTIONS
008607H   008632H   00002CH   BYTE   UNIT     CODE           ?L?COM0009
008633H   008643H   000011H   BYTE   UNIT     CODE           ?L?COM0023
008644H   00866CH   000029H   BYTE   UNIT     CODE           ?PR?_DISP_TEMP_30X56?LCD
00866DH   008682H   000016H   BYTE   UNIT     CODE           ?L?COM0058
008683H   008783H   000101H   BYTE   UNIT     CODE           ?PR?HMISCREENSAVERMODEFUNC?GUI
008784H   0087C2H   00003FH   BYTE   UNIT     CODE           ?PR?_DISP_TEMP_38X64?LCD
0087C3H   0087CAH   000008H   BYTE   UNIT     CODE           ?L?COM00F7
0087CBH   0087D5H   00000BH   BYTE   UNIT     CODE           ?L?COM00B1
0087D6H   0087E0H   00000BH   BYTE   UNIT     CODE           ?L?COM0137
0087E1H   0087E8H   000008H   BYTE   UNIT     CODE           ?L?COM00CD
0087E9H   0087F1H   000009H   BYTE   UNIT     CODE           ?L?COM0174
0087F2H   00880BH   00001AH   BYTE   UNIT     CODE           ?L?COM002E
00880CH   008839H   00002EH   BYTE   UNIT     CODE           ?PR?_DISP_TIME_10X16?LCD
00883AH   008943H   00010AH   BYTE   UNIT     CODE           ?PR?_DISPLAYTIME?GUI
008944H   00894FH   00000CH   BYTE   UNIT     CODE           ?L?COM0064
008950H   008966H   000017H   BYTE   UNIT     CODE           ?L?COM0046
008967H   008B59H   0001F3H   BYTE   UNIT     CODE           ?PR?HMISETTIMEFUNC?GUI
008B5AH   008B62H   000009H   BYTE   UNIT     CODE           ?L?COM009C
008B63H   008B9AH   000038H   BYTE   UNIT     CODE           ?PR?REFRESHRTCTIMEFUNC?ACTIVITYFUNCTIONS
008B9BH   008BA3H   000009H   BYTE   UNIT     CODE           ?L?COM00AE
008BA4H   008C4FH   0000ACH   BYTE   UNIT     CODE           ?PR?_REFRESHRUNTIMEFUNC?ACTIVITYFUNCTIONS
008C50H   008C5DH   00000EH   BYTE   UNIT     CODE           ?L?COM0092
008C5EH   008C64H   000007H   BYTE   UNIT     CODE           ?L?COM0126
008C65H   008C6FH   00000BH   BYTE   UNIT     CODE           ?L?COM00A3
008C70H   008C7AH   00000BH   BYTE   UNIT     CODE           ?L?COM00A4
008C7BH   008C81H   000007H   BYTE   UNIT     CODE           ?L?COM01C3
008C82H   008C90H   00000FH   BYTE   UNIT     CODE           ?L?COM0113
008C91H   008CEEH   00005EH   BYTE   UNIT     CODE           ?PR?_RX8010_SETTIME?RX8010
008CEFH   008D37H   000049H   BYTE   UNIT     CODE           ?PR?_WRITEEEONE?RX8010
008D38H   008DF4H   0000BDH   BYTE   UNIT     CODE           ?PR?RX8010_INITIALIZE?RX8010
008DF5H   008DFEH   00000AH   BYTE   UNIT     CODE           ?L?COM00B5
008DFFH   008E05H   000007H   BYTE   UNIT     CODE           ?L?COM0119
008E06H   008E18H   000013H   BYTE   UNIT     CODE           ?PR?IC_STOP?RX8010
008E19H   008E79H   000061H   BYTE   UNIT     CODE           ?PR?_IC_WRITEBYTE?RX8010
008E7AH   008F00H   000087H   BYTE   UNIT     CODE           ?PR?_READEEONE?RX8010
008F01H   008F09H   000009H   BYTE   UNIT     CODE           ?L?COM00CA
008F0AH   008F46H   00003DH   BYTE   UNIT     CODE           ?PR?IC_READBYTE?RX8010
008F47H   008F4DH   000007H   BYTE   UNIT     CODE           ?PR?SDA_DIR_OUTPUT?RX8010
008F4EH   008F61H   000014H   BYTE   UNIT     CODE           ?PR?IC_START?RX8010
008F62H   008F69H   000008H   BYTE   UNIT     CODE           ?L?COM01B2
008F6AH   008FD4H   00006BH   BYTE   UNIT     CODE           ?PR?_RX8010_GETTIME?RX8010
008FD5H   008FDAH   000006H   BYTE   UNIT     CODE           ?L?COM01A5
008FDBH   008FE1H   000007H   BYTE   UNIT     CODE           ?L?COM01DC
008FE2H   008FE8H   000007H   BYTE   UNIT     CODE           ?PR?SDA_DIR_INPUT?RX8010
008FE9H   008FEFH   000007H   BYTE   UNIT     CODE           ?L?COM0146
008FF0H   008FF8H   000009H   BYTE   UNIT     CODE           ?L?COM01B3
008FF9H   00901FH   000027H   BYTE   UNIT     CODE           ?PR?TIMER_T0_INT_MAIN?MAIN_TIK_TOK
009020H   009024H   000005H   BYTE   UNIT     CODE           ?PR?MAIN_TIK_FUNCTIONS?MAIN_TIK_FUNCTION
009025H   009129H   000105H   BYTE   UNIT     CODE           ?PR?HEATERPLATEWIREDRIVEFBTASK?ACTIVITYFUNCTIONS
00912AH   00913EH   000015H   BYTE   UNIT     CODE           ?PR?SUB_TIK_FUNCTIONS?SUB_TIK_FUNCTION
00913FH   009151H   000013H   BYTE   UNIT     CODE           ?PR?HMISCREENSAVERMODE_TIK_CNT?GUI
009152H   00917EH   00002DH   BYTE   UNIT     CODE           ?PR?SOUND_TYPE_DRIVE?SOUND_TYPE
00917FH   009185H   000007H   BYTE   UNIT     CODE           ?L?COM01DF
009186H   00921DH   000098H   BYTE   UNIT     CODE           ?PR?_DRAW_CIRCLE?LCD
00921EH   009244H   000027H   BYTE   UNIT     CODE           ?L?COM0050
009245H   009251H   00000DH   BYTE   UNIT     CODE           ?L?COM00D1
009252H   009274H   000023H   BYTE   UNIT     CODE           ?L?COM0055
009275H   009281H   00000DH   BYTE   UNIT     CODE           ?L?COM010C
009282H   0092AFH   00002EH   BYTE   UNIT     CODE           ?L?COM004E
0092B0H   0094A3H   0001F4H   BYTE   UNIT     CODE           ?PR?_REFRESHTEMPHUMIDYFUNC?ACTIVITYFUNCTIONS
0094A4H   0094B0H   00000DH   BYTE   UNIT     CODE           ?L?COM008C
LX51 LINKER/LOCATER V4.66.93.0                                                        04/11/2019  16:58:21  PAGE 6


0094B1H   0095E8H   000138H   BYTE   UNIT     CODE           ?PR?HMISETTEMPCHAMBERFUNC?GUI
0095E9H   0095F3H   00000BH   BYTE   UNIT     CODE           ?L?COM00C0
0095F4H   009787H   000194H   BYTE   UNIT     CODE           ?PR?HMISETTEMPPATIENTFUNC?GUI
009788H   0097BEH   000037H   BYTE   UNIT     CODE           ?PR?_DISP_ICO_32X40?LCD
0097BFH   0097CCH   00000EH   BYTE   UNIT     CODE           ?L?COM00E5
0097CDH   0097DBH   00000FH   BYTE   UNIT     CODE           ?L?COM0090
0097DCH   0097E2H   000007H   BYTE   UNIT     CODE           ?L?COM01C4
0097E3H   0097EFH   00000DH   BYTE   UNIT     CODE           ?PR?SOUND_SHORT?SOUND_TYPE
0097F0H   0097F6H   000007H   BYTE   UNIT     CODE           ?L?COM017A
0097F7H   00980AH   000014H   BYTE   UNIT     CODE           ?PR?_WS_DELTASKIFG?WS_TASK_MANAGE
00980BH   00988FH   000085H   BYTE   UNIT     CODE           ?PR?KEYSCANTASK?NORMAL_TASK
009890H   009971H   0000E2H   BYTE   UNIT     CODE           ?PR?KEY_MULTIFUN?KEY_MULTIFUN
009972H   00997BH   00000AH   BYTE   UNIT     CODE           ?L?COM0083
00997CH   009986H   00000BH   BYTE   UNIT     CODE           ?L?COM00BD
009987H   009990H   00000AH   BYTE   UNIT     CODE           ?L?COM0110
009991H   00999BH   00000BH   BYTE   UNIT     CODE           ?L?COM00F1
00999CH   0099A9H   00000EH   BYTE   UNIT     CODE           ?L?COM00D6
0099AAH   0099AFH   000006H   BYTE   UNIT     CODE           ?L?COM0060
0099B0H   0099BFH   000010H   BYTE   UNIT     CODE           ?PR?HMISERVICEMODETASK?NORMAL_TASK
0099C0H   0099E4H   000025H   BYTE   UNIT     CODE           ?PR?_WS_TASKJUDGE?WS_TASK_MANAGE
0099E5H   0099F4H   000010H   BYTE   UNIT     CODE           ?PR?HMIRUNNINGTASK?NORMAL_TASK
0099F5H   009A04H   000010H   BYTE   UNIT     CODE           ?PR?HEATERWIRECONTROLTASK?NORMAL_TASK
009A05H   009A14H   000010H   BYTE   UNIT     CODE           ?PR?LOWPOWERMODETASK?NORMAL_TASK
009A15H   009A23H   00000FH   BYTE   UNIT     CODE           ?PR?HEATERWIREMODEDETTASK?NORMAL_TASK
009A24H   009A33H   000010H   BYTE   UNIT     CODE           ?PR?ALARMERRORTASK?NORMAL_TASK
009A34H   009A43H   000010H   BYTE   UNIT     CODE           ?PR?LOWTEMPDET1STASK?NORMAL_TASK
009A44H   009A52H   00000FH   BYTE   UNIT     CODE           ?PR?SAVEDATETOFLASHTASK?NORMAL_TASK
009A53H   009A61H   00000FH   BYTE   UNIT     CODE           ?PR?UARTRECTASK?NORMAL_TASK
009A62H   009BB4H   000153H   BYTE   UNIT     CODE           ?PR?SAVEDATETOFLASHFUNC?ACTIVITYFUNCTIONS
009BB5H   009BD1H   00001DH   BYTE   UNIT     CODE           ?L?COM007D
009BD2H   009BECH   00001BH   BYTE   UNIT     CODE           ?PR?_SPI_ERASE_SECTOR?W25X
009BEDH   009C0AH   00001EH   BYTE   UNIT     CODE           ?PR?_SPI_SEND_BYTE?W25X
009C0BH   009C38H   00002EH   BYTE   UNIT     CODE           ?PR?_SPI_WRITE_NBYTES?W25X
009C39H   009C43H   00000BH   BYTE   UNIT     CODE           ?L?COM0127
009C44H   009C7EH   00003BH   BYTE   UNIT     CODE           ?PR?_SPI_READ_NBYTES?W25X
009C7FH   009CA7H   000029H   BYTE   UNIT     CODE           ?L?COM0057
009CA8H   009CBBH   000014H   BYTE   UNIT     CODE           ?L?COM00B0
009CBCH   009DABH   0000F0H   BYTE   UNIT     CODE           ?PR?UART_RECDATA_FUNC?ACTIVITYFUNCTIONS
009DACH   009DB8H   00000DH   BYTE   UNIT     CODE           ?L?COM0122
009DB9H   009DC4H   00000CH   BYTE   UNIT     CODE           ?L?COM0107
009DC5H   009DD2H   00000EH   BYTE   UNIT     CODE           ?L?COM00FB
009DD3H   009DDAH   000008H   BYTE   UNIT     CODE           ?L?COM01EE
009DDBH   009DE3H   000009H   BYTE   UNIT     CODE           ?PR?SPI_WRITE_ENABLE?W25X
009DE4H   009DEDH   00000AH   BYTE   UNIT     CODE           ?L?COM01C5
009DEEH   009DF7H   00000AH   BYTE   UNIT     CODE           ?L?COM0197
009DF8H   009E04H   00000DH   BYTE   UNIT     CODE           ?PR?UART_RECBUF_CLEAR_FUN?ACTIVITYFUNCTIONS
009E05H   009E12H   00000EH   BYTE   UNIT     CODE           ?L?COM0160
009E13H   009E21H   00000FH   BYTE   UNIT     CODE           ?L?COM0153
009E22H   009E31H   000010H   BYTE   UNIT     CODE           ?PR?HMIPOSTTASK?NORMAL_TASK
009E32H   009E41H   000010H   BYTE   UNIT     CODE           ?PR?HMIFACTORYDEFAULTSELTASK?NORMAL_TASK
009E42H   009E51H   000010H   BYTE   UNIT     CODE           ?PR?HMINON_INVASIVESELTASK?NORMAL_TASK
009E52H   009E61H   000010H   BYTE   UNIT     CODE           ?PR?HMISETTEMPPATIENTTASK?NORMAL_TASK
009E62H   009E71H   000010H   BYTE   UNIT     CODE           ?PR?HMISETTEMPCHAMBERTASK?NORMAL_TASK
009E72H   009E81H   000010H   BYTE   UNIT     CODE           ?PR?HMISETINEXPTASK?NORMAL_TASK
009E82H   009E91H   000010H   BYTE   UNIT     CODE           ?PR?HMISETTIMETASK?NORMAL_TASK
009E92H   009EA1H   000010H   BYTE   UNIT     CODE           ?PR?HMISCREENSAVERMODETASK?NORMAL_TASK
009EA2H   009EB1H   000010H   BYTE   UNIT     CODE           ?PR?GETTEMP_HPCHAMBERTASK?NORMAL_TASK
009EB2H   009EC1H   000010H   BYTE   UNIT     CODE           ?PR?GETTEMPHUMIDITY_PATIENTTASK?NORMAL_TASK
009EC2H   009ED3H   000012H   BYTE   UNIT     CODE           ?PR?REFRESHTEMPHUMIDYTASK?NORMAL_TASK
009ED4H   009EE5H   000012H   BYTE   UNIT     CODE           ?PR?REFRESHRUNTIMETASK?NORMAL_TASK
009EE6H   009F03H   00001EH   BYTE   UNIT     CODE           ?PR?REFRESHRTCTIMETASK?NORMAL_TASK
009F04H   009F0AH   000007H   BYTE   UNIT     CODE           ?L?COM009E
009F0BH   009F11H   000007H   BYTE   UNIT     CODE           ?L?COM0178
009F12H   009F1BH   00000AH   BYTE   UNIT     CODE           ?L?COM01B4
009F1CH   009F32H   000017H   BYTE   UNIT     CODE           ?L?COM00AA
LX51 LINKER/LOCATER V4.66.93.0                                                        04/11/2019  16:58:21  PAGE 7


009F33H   009F4BH   000019H   BYTE   UNIT     CODE           ?PR?_EUSART_WRITE_STR?UART_FUN
009F4CH   009F51H   000006H   BYTE   UNIT     CODE           ?PR?_EUSART_WRITE?UART_FUN
009F52H   009F5BH   00000AH   BYTE   UNIT     CODE           ?PR?_SEND_CHAR_COM?UART_FUN
009F5CH   009F66H   00000BH   BYTE   UNIT     CODE           ?L?COM00E3
009F67H   009F89H   000023H   BYTE   UNIT     CODE           ?PR?EUSART_READ?UART_FUN
009F8AH   009FD5H   00004CH   BYTE   UNIT     CODE           ?PR?HEATERWIREMODEDETFUNC?ACTIVITYFUNCTIONS
009FD6H   009FDCH   000007H   BYTE   UNIT     CODE           ?L?COM01BB
009FDDH   009FE3H   000007H   BYTE   UNIT     CODE           ?L?COM01BC
009FE4H   009FEAH   000007H   BYTE   UNIT     CODE           ?L?COM01C0
009FEBH   009FF2H   000008H   BYTE   UNIT     CODE           ?L?COM00F2
009FF3H   009FFAH   000008H   BYTE   UNIT     CODE           ?L?COM0189
009FFBH   00A003H   000009H   BYTE   UNIT     CODE           ?L?COM0121
00A004H   00A018H   000015H   BYTE   UNIT     CODE           ?PR?_CLEAR_BIT?ACTIVITYFUNCTIONS
00A019H   00A02CH   000014H   BYTE   UNIT     CODE           ?PR?_SET_BIT?ACTIVITYFUNCTIONS
00A02DH   00A5C3H   000597H   BYTE   UNIT     CODE           ?PR?ALARMERRORFUNC?ACTIVITYFUNCTIONS
00A5C4H   00A5D1H   00000EH   BYTE   UNIT     CODE           ?L?COM0080
00A5D2H   00A5DBH   00000AH   BYTE   UNIT     CODE           ?L?COM00A0
00A5DCH   00A5E8H   00000DH   BYTE   UNIT     CODE           ?L?COM006B
00A5E9H   00A5F7H   00000FH   BYTE   UNIT     CODE           ?PR?_BIT_IS_ONE?ACTIVITYFUNCTIONS
00A5F8H   00A659H   000062H   BYTE   UNIT     CODE           ?PR?_DISP_VHB80_PIC?LCD
00A65AH   00A66EH   000015H   BYTE   UNIT     CODE           ?PR?_DISP_JQK41X16?LCD
00A66FH   00A675H   000007H   BYTE   UNIT     CODE           ?L?COM0162
00A676H   00A685H   000010H   BYTE   UNIT     CODE           ?L?COM0097
00A686H   00A68DH   000008H   BYTE   UNIT     CODE           ?L?COM00F4
00A68EH   00A69BH   00000EH   BYTE   UNIT     CODE           ?L?COM00E7
00A69CH   00A6A2H   000007H   BYTE   UNIT     CODE           ?L?COM01BD
00A6A3H   00A6A9H   000007H   BYTE   UNIT     CODE           ?L?COM01BF
00A6AAH   00A6B1H   000008H   BYTE   UNIT     CODE           ?L?COM018D
00A6B2H   00A6B9H   000008H   BYTE   UNIT     CODE           ?L?COM01E5
00A6BAH   00A6C4H   00000BH   BYTE   UNIT     CODE           ?L?COM0144
00A6C5H   00A72FH   00006BH   BYTE   UNIT     CODE           ?PR?LOWPOWERMODEFUNC?ACTIVITYFUNCTIONS
00A730H   00A737H   000008H   BYTE   UNIT     CODE           ?L?COM018B
00A738H   00A73FH   000008H   BYTE   UNIT     CODE           ?L?COM018E
00A740H   00A747H   000008H   BYTE   UNIT     CODE           ?L?COM01C9
00A748H   00A74FH   000008H   BYTE   UNIT     CODE           ?L?COM01F1
00A750H   00A757H   000008H   BYTE   UNIT     CODE           ?L?COM01F2
00A758H   00A75FH   000008H   BYTE   UNIT     CODE           ?L?COM01F3
00A760H   00A767H   000008H   BYTE   UNIT     CODE           ?L?COM01F5
00A768H   00A771H   00000AH   BYTE   UNIT     CODE           ?L?COM011E
00A772H   00A77BH   00000AH   BYTE   UNIT     CODE           ?L?COM01C1
00A77CH   00A786H   00000BH   BYTE   UNIT     CODE           ?L?COM019D
00A787H   00A793H   00000DH   BYTE   UNIT     CODE           ?L?COM016B
00A794H   00A7A0H   00000DH   BYTE   UNIT     CODE           ?L?COM016C
00A7A1H   00A7AEH   00000EH   BYTE   UNIT     CODE           ?L?COM013D
00A7AFH   00A7C3H   000015H   BYTE   UNIT     CODE           ?PR?_DISP_HEAT_36X24?LCD
00A7C4H   00A7CDH   00000AH   BYTE   UNIT     CODE           ?L?COM009F
00A7CEH   00A7E8H   00001BH   BYTE   UNIT     CODE           ?PR?_DISP_CQK25X24?LCD
00A7E9H   00A7FDH   000015H   BYTE   UNIT     CODE           ?PR?_DISP_VHB80_56X40?LCD
00A7FEH   00A819H   00001CH   BYTE   UNIT     CODE           ?PR?_DISP_RTD28X24?LCD
00A81AH   00A83AH   000021H   BYTE   UNIT     CODE           ?PR?INTERRUPT_EXT1?ACTIVITYFUNCTIONS
00A83BH   00A855H   00001BH   BYTE   UNIT     CODE           ?PR?INTERRUPT_TIME0?ACTIVITYFUNCTIONS
00A856H   00A87BH   000026H   BYTE   UNIT     CODE           ?PR?SERIAL?ACTIVITYFUNCTIONS
00A87CH   00A89EH   000023H   BYTE   UNIT     CODE           ?PR?EUSART_RECEIVE_ISR?UART_FUN
00A89FH   00A8A6H   000008H   BYTE   UNIT     CODE           ?PR?EUSART_TRANSMIT_ISR?UART_FUN
00A8A7H   00A8B1H   00000BH   BYTE   UNIT     CODE           ?L?COM0194
00A8B2H   00AEE3H   000632H   BYTE   UNIT     CODE           ?PR?HEATERPLATEWIRECONTROLFUNC?ACTIVITYFUNCTIONS
00AEE4H   00AFBEH   0000DBH   BYTE   UNIT     CODE           ?PR?_LCD_SHOWXNUM?LCD
00AFBFH   00AFCFH   000011H   BYTE   UNIT     CODE           ?L?COM002A
00AFD0H   00AFDBH   00000CH   BYTE   UNIT     CODE           ?L?COM0074
00AFDCH   00AFE7H   00000CH   BYTE   UNIT     CODE           ?L?COM00A8
00AFE8H   00AFEFH   000008H   BYTE   UNIT     CODE           ?L?COM00C2
00AFF0H   00AFF6H   000007H   BYTE   UNIT     CODE           ?L?COM016E
00AFF7H   00AFFDH   000007H   BYTE   UNIT     CODE           ?L?COM0142
00AFFEH   00B057H   00005AH   BYTE   UNIT     CODE           ?PR?STORE_DATA?ACTIVITYFUNCTIONS
00B058H   00B062H   00000BH   BYTE   UNIT     CODE           ?L?COM013F
LX51 LINKER/LOCATER V4.66.93.0                                                        04/11/2019  16:58:21  PAGE 8


00B063H   00B15FH   0000FDH   BYTE   UNIT     CODE           ?PR?GET_RUNCOUNT?ACTIVITYFUNCTIONS
00B160H   00B166H   000007H   BYTE   UNIT     CODE           ?L?COM01B1
00B167H   00B173H   00000DH   BYTE   UNIT     CODE           ?L?COM016D
00B174H   00B193H   000020H   BYTE   UNIT     CODE           ?L?COM0070
00B194H   00B2D5H   000142H   BYTE   UNIT     CODE           ?PR?_DISP_FNT12X24?LCD
00B2D6H   00B2DDH   000008H   BYTE   UNIT     CODE           ?L?COM011A
00B2DEH   00B39FH   0000C2H   BYTE   UNIT     CODE           ?PR?_DISP_FNT8X16?LCD
00B3A0H   00B3A7H   000008H   BYTE   UNIT     CODE           ?L?COM0182
00B3A8H   00B3AFH   000008H   BYTE   UNIT     CODE           ?L?COM0183
00B3B0H   00B3B7H   000008H   BYTE   UNIT     CODE           ?L?COM0184
00B3B8H   00B3C5H   00000EH   BYTE   UNIT     CODE           ?L?COM00F6
00B3C6H   00B3D8H   000013H   BYTE   UNIT     CODE           ?L?COM0100
00B3D9H   00B3E0H   000008H   BYTE   UNIT     CODE           ?L?COM0181
00B3E1H   00B3EFH   00000FH   BYTE   UNIT     CODE           ?L?COM0151
00B3F0H   00B401H   000012H   BYTE   UNIT     CODE           ?L?COM0133
00B402H   00B42DH   00002CH   BYTE   UNIT     CODE           ?L?COM0039
00B42EH   00B44AH   00001DH   BYTE   UNIT     CODE           ?PR?_DISP_RH14X24?LCD
00B44BH   00B474H   00002AH   BYTE   UNIT     CODE           ?PR?_LCD_SHOWCHAR?LCD
00B475H   00B47CH   000008H   BYTE   UNIT     CODE           ?L?COM01E2
00B47DH   00B48FH   000013H   BYTE   UNIT     CODE           ?L?COM008E
00B490H   00B4A3H   000014H   BYTE   UNIT     CODE           ?L?COM0116
00B4A4H   00B4C4H   000021H   BYTE   UNIT     CODE           ?PR?_DISP_DHM?LCD
00B4C5H   00B4E8H   000024H   BYTE   UNIT     CODE           ?PR?_DISP_ICO_40X40?LCD
00B4E9H   00B4F2H   00000AH   BYTE   UNIT     CODE           ?L?COM00D8
00B4F3H   00B517H   000025H   BYTE   UNIT     CODE           ?PR?_DISP_ICO_52X64?LCD
00B518H   00B66AH   000153H   BYTE   UNIT     CODE           ?PR?HMIRUNNINGFUNC?GUI
00B66BH   00B676H   00000CH   BYTE   UNIT     CODE           ?L?COM00A5
00B677H   00B685H   00000FH   BYTE   UNIT     CODE           ?L?COM00FE
00B686H   00B68DH   000008H   BYTE   UNIT     CODE           ?L?COM01D9
00B68EH   00B69DH   000010H   BYTE   UNIT     CODE           ?L?COM00B3
00B69EH   00B6A5H   000008H   BYTE   UNIT     CODE           ?L?COM01E3
00B6A6H   00B6ADH   000008H   BYTE   UNIT     CODE           ?L?COM01E4
00B6AEH   00B6BAH   00000DH   BYTE   UNIT     CODE           ?L?COM015A
00B6BBH   00B6CDH   000013H   BYTE   UNIT     CODE           ?L?COM0120
00B6CEH   00B6EFH   000022H   BYTE   UNIT     CODE           ?L?COM00B9
00B6F0H   00B713H   000024H   BYTE   UNIT     CODE           ?PR?REFRESH_WORK_MODE?LCD
00B714H   00B721H   00000EH   BYTE   UNIT     CODE           ?PR?_DISP_YOUCHUANG?LCD
00B722H   00B735H   000014H   BYTE   UNIT     CODE           ?PR?_DISP_WUCHUANG?LCD
00B736H   00B740H   00000BH   BYTE   UNIT     CODE           ?L?COM0199
00B741H   00B76DH   00002DH   BYTE   UNIT     CODE           ?L?COM0043
00B76EH   00B7C2H   000055H   BYTE   UNIT     CODE           ?PR?LOAD_SETTINGS_BEFORE_CHOICE?ACTIVITYFUNCTIONS
00B7C3H   00B7CFH   00000DH   BYTE   UNIT     CODE           ?L?COM0165
00B7D0H   00B7D6H   000007H   BYTE   UNIT     CODE           ?L?COM0169
00B7D7H   00B7DDH   000007H   BYTE   UNIT     CODE           ?L?COM016A
00B7DEH   00B7E4H   000007H   BYTE   UNIT     CODE           ?L?COM01A7
00B7E5H   00B7EBH   000007H   BYTE   UNIT     CODE           ?L?COM01D8
00B7ECH   00B7F3H   000008H   BYTE   UNIT     CODE           ?L?COM017B
00B7F4H   00B7FCH   000009H   BYTE   UNIT     CODE           ?L?COM0172
00B7FDH   00B807H   00000BH   BYTE   UNIT     CODE           ?PR?ERR_BASE_HEATERWIRE_DISP_ENABLE?ACTIVITYFUNCTIONS
00B808H   00BADDH   0002D6H   BYTE   UNIT     CODE           ?PR?LOWTEMPDET1SFUNC?ACTIVITYFUNCTIONS
00BADEH   00BAEBH   00000EH   BYTE   UNIT     CODE           ?L?COM0063
00BAECH   00BAF3H   000008H   BYTE   UNIT     CODE           ?L?COM01CA
00BAF4H   00BAFBH   000008H   BYTE   UNIT     CODE           ?L?COM01EF
00BAFCH   00BB03H   000008H   BYTE   UNIT     CODE           ?L?COM01F0
00BB04H   00BB11H   00000EH   BYTE   UNIT     CODE           ?L?COM008A
00BB12H   00BB21H   000010H   BYTE   UNIT     CODE           ?L?COM0040
00BB22H   00BB82H   000061H   BYTE   UNIT     CODE           ?PR?MAIN_INIT?ACTIVITYFUNCTIONS
00BB83H   00BB8AH   000008H   BYTE   UNIT     CODE           ?L?COM0188
00BB8BH   00BB92H   000008H   BYTE   UNIT     CODE           ?L?COM019B
00BB93H   00BD7CH   0001EAH   BYTE   UNIT     CODE           ?PR?PATIENTTEMP_NONEHEATWIRE_ADJ?ACTIVITYFUNCTIONS
00BD7DH   00BE52H   0000D6H   BYTE   UNIT     CODE           ?PR?HEATPLATE_CONTROLER_CALC?ACTIVITYFUNCTIONS
00BE53H   00BE5DH   00000BH   BYTE   UNIT     CODE           ?L?COM00A7
00BE5EH   00BE6FH   000012H   BYTE   UNIT     CODE           ?L?COM00E9
00BE70H   00BE78H   000009H   BYTE   UNIT     CODE           ?L?COM01B8
00BE79H   00BE7FH   000007H   BYTE   UNIT     CODE           ?L?COM01B9
LX51 LINKER/LOCATER V4.66.93.0                                                        04/11/2019  16:58:21  PAGE 9


00BE80H   00BE88H   000009H   BYTE   UNIT     CODE           ?L?COM00BA
00BE89H   00BF48H   0000C0H   BYTE   UNIT     CODE           ?PR?CONTROLER_CALC?ACTIVITYFUNCTIONS
00BF49H   00BF5DH   000015H   BYTE   UNIT     CODE           ?L?COM00EB
00BF5EH   00BF64H   000007H   BYTE   UNIT     CODE           ?L?COM0143
00BF65H   00BF6CH   000008H   BYTE   UNIT     CODE           ?L?COM0129
00BF6DH   00BF74H   000008H   BYTE   UNIT     CODE           ?L?COM018A
00BF75H   00BF7CH   000008H   BYTE   UNIT     CODE           ?L?COM01EB
00BF7DH   00BF84H   000008H   BYTE   UNIT     CODE           ?L?COM01EC
00BF85H   00BF8DH   000009H   BYTE   UNIT     CODE           ?L?COM0157
00BF8EH   00BF96H   000009H   BYTE   UNIT     CODE           ?L?COM0159
00BF97H   00BFA2H   00000CH   BYTE   UNIT     CODE           ?L?COM0168
00BFA3H   00BFB0H   00000EH   BYTE   UNIT     CODE           ?L?COM015E
00BFB1H   00BFC0H   000010H   BYTE   UNIT     CODE           ?L?COM00DE
00BFC1H   00BFC7H   000007H   BYTE   UNIT     CODE           ?L?COM01A4
00BFC8H   00BFCFH   000008H   BYTE   UNIT     CODE           ?L?COM015D
00BFD0H   00BFD7H   000008H   BYTE   UNIT     CODE           ?L?COM01D0
00BFD8H   00BFDFH   000008H   BYTE   UNIT     CODE           ?L?COM01E8
00BFE0H   00BFE7H   000008H   BYTE   UNIT     CODE           ?L?COM01E9
00BFE8H   00BFF2H   00000BH   BYTE   UNIT     CODE           ?L?COM0134
00BFF3H   00C00EH   00001CH   BYTE   UNIT     CODE           ?PR?WRITE_DEFAULT_SETTING_TO_FLASH?ACTIVITYFUNCTIONS
00C00FH   00C016H   000008H   BYTE   UNIT     CODE           ?L?COM0171
00C017H   00C106H   0000F0H   BYTE   UNIT     CODE           ?PR?HEATPLATETEMP_AIM_CONTROLER_CALC?ACTIVITYFUNCTIONS
00C107H   00C10EH   000008H   BYTE   UNIT     CODE           ?L?COM01EA
00C10FH   00C11BH   00000DH   BYTE   UNIT     CODE           ?L?COM0111
00C11CH   00C155H   00003AH   BYTE   UNIT     CODE           ?PR?WIREINOUT_STATE_CONFIRM?ACTIVITYFUNCTIONS
00C156H   00C160H   00000BH   BYTE   UNIT     CODE           ?PR?SOUND_ALARM_PAUSE_ENABLE?SOUND_TYPE
00C161H   00C17EH   00001EH   BYTE   UNIT     CODE           ?PR?KEYMUTEPRESSSHORTACTION?KEY_DATAS
00C17FH   00C186H   000008H   BYTE   UNIT     CODE           ?PR?SOUND_ALARM_PAUSE_DISABLE?SOUND_TYPE
00C187H   00C1BEH   000038H   BYTE   UNIT     CODE           ?PR?_LCD_POW?LCD
00C1BFH   00C1C8H   00000AH   BYTE   UNIT     CODE           ?PR?SPI_WRITE_DISABLE?W25X
00C1C9H   00C1D2H   00000AH   BYTE   UNIT     CODE           ?PR?SPI_INIT?W25X
00C1D3H   00C1F5H   000023H   BYTE   UNIT     CODE           ?PR?SPI_GET_BYTE?W25X
00C1F6H   00C2D8H   0000E3H   BYTE   UNIT     CODE           ?PR?SHT21_READDATA?SHT21
00C2D9H   00C2E4H   00000CH   BYTE   UNIT     CODE           ?L?COM010E
00C2E5H   00C2F1H   00000DH   BYTE   UNIT     CODE           ?L?COM0167
00C2F2H   00C2FFH   00000EH   BYTE   UNIT     CODE           ?L?COM00C4
00C300H   00C37FH   000080H   BYTE   UNIT     CODE           ?PR?_SHT2X_CHECKCRC?SHT21
00C380H   00C386H   000007H   BYTE   UNIT     CODE           ?PR?SCL_DIR_OUTPUT?RX8010
00C387H   00C40AH   000084H   BYTE   UNIT     CODE           ?PR?_DS18B20_CHECKCRC?DS18B20
00C40BH   00C417H   00000DH   BYTE   UNIT     CODE           ?PR?KEY_UP_TIKFUNC?KEY_DATAS
00C418H   00C41EH   000007H   BYTE   UNIT     CODE           ?PR?KEYUPPRESSSHORTACTION?KEY_DATAS
00C41FH   00C425H   000007H   BYTE   UNIT     CODE           ?PR?KEYUPPRESSLONGFIRSTACTION?KEY_DATAS
00C426H   00C42CH   000007H   BYTE   UNIT     CODE           ?PR?KEYUPPRESSLONGREPEATACTION?KEY_DATAS
00C42DH   00C439H   00000DH   BYTE   UNIT     CODE           ?PR?KEY_DOWN_TIKFUNC?KEY_DATAS
00C43AH   00C440H   000007H   BYTE   UNIT     CODE           ?PR?KEYDOWNPRESSSHORTACTION?KEY_DATAS
00C441H   00C447H   000007H   BYTE   UNIT     CODE           ?PR?KEYDOWNPRESSLONGFIRSTACTION?KEY_DATAS
00C448H   00C44EH   000007H   BYTE   UNIT     CODE           ?PR?KEYDOWNPRESSLONGREPEATACTION?KEY_DATAS
00C44FH   00C45BH   00000DH   BYTE   UNIT     CODE           ?PR?KEY_OK_TIKFUNC?KEY_DATAS
00C45CH   00C462H   000007H   BYTE   UNIT     CODE           ?PR?KEYOKPRESSSHORTACTION?KEY_DATAS
00C463H   00C469H   000007H   BYTE   UNIT     CODE           ?PR?KEYOKPRESSLONGFIRSTACTION?KEY_DATAS
00C46AH   00C470H   000007H   BYTE   UNIT     CODE           ?PR?KEYOKPRESSLONGREPEATACTION?KEY_DATAS
00C471H   00C47DH   00000DH   BYTE   UNIT     CODE           ?PR?KEY_MUTE_TIKFUNC?KEY_DATAS
00C47EH   00C484H   000007H   BYTE   UNIT     CODE           ?PR?KEYMUTEPRESSLONGFIRSTACTION?KEY_DATAS
00C485H   00C48BH   000007H   BYTE   UNIT     CODE           ?PR?KEYMUTEPRESSLONGREPEATACTION?KEY_DATAS
00C48CH   00C4BBH   000030H   BYTE   UNIT     CODE           ?PR?_DISPLAY_SET_TEMP?GUI
00C4BCH   00C4C3H   000008H   BYTE   UNIT     CODE           ?L?COM0190
00C4C4H   00C4CCH   000009H   BYTE   UNIT     CODE           ?L?COM0147
00C4CDH   00C4E8H   00001CH   BYTE   UNIT     CODE           ?L?COM0049
00C4E9H   00C4F1H   000009H   BYTE   UNIT     CODE           ?L?COM015B
00C4F2H   00C501H   000010H   BYTE   UNIT     CODE           ?L?COM010A
00C502H   00C50EH   00000DH   BYTE   UNIT     CODE           ?PR?HMIPOSTFUNC_TIK_CNT?GUI
00C50FH   00C527H   000019H   BYTE   UNIT     CODE           ?PR?HMIFACTORYDEFAULT_TIK_CNT?GUI
00C528H   00C534H   00000DH   BYTE   UNIT     CODE           ?PR?HMINON_INVASIVESEL_TIK_CNT?GUI
00C535H   00C540H   00000CH   BYTE   UNIT     CODE           ?PR?ENTERSETTIME?GUI
00C541H   00C5CBH   00008BH   BYTE   UNIT     CODE           ?PR?DATE_IS_CORRECT?GUI
LX51 LINKER/LOCATER V4.66.93.0                                                        04/11/2019  16:58:21  PAGE 10


00C5CCH   00C5D9H   00000EH   BYTE   UNIT     CODE           ?PR?ENTERSETINEXP?GUI
00C5DAH   00C5F6H   00001DH   BYTE   UNIT     CODE           ?PR?EUSART_INITIALIZE?UART_FUN
00C5F7H   00C60FH   000019H   BYTE   UNIT     CODE           ?L?COM0085
00C610H   00C62FH   000020H   BYTE   UNIT     CODE           ?L?COM0088
00C630H   00C649H   00001AH   BYTE   UNIT     CODE           ?L?COM009A
00C64AH   00C65AH   000011H   BYTE   UNIT     CODE           ?L?COM00A1
00C65BH   00C671H   000017H   BYTE   UNIT     CODE           ?L?COM00AC
00C672H   00C685H   000014H   BYTE   UNIT     CODE           ?L?COM00C6
00C686H   00C69DH   000018H   BYTE   UNIT     CODE           ?L?COM00D9
00C69EH   00C6ADH   000010H   BYTE   UNIT     CODE           ?L?COM00DC
00C6AEH   00C6B7H   00000AH   BYTE   UNIT     CODE           ?L?COM00ED
00C6B8H   00C6CAH   000013H   BYTE   UNIT     CODE           ?L?COM00EF
00C6CBH   00C6DBH   000011H   BYTE   UNIT     CODE           ?L?COM00FC
00C6DCH   00C6F1H   000016H   BYTE   UNIT     CODE           ?L?COM0106
00C6F2H   00C6FCH   00000BH   BYTE   UNIT     CODE           ?L?COM0108
00C6FDH   00C711H   000015H   BYTE   UNIT     CODE           ?L?COM0115
00C712H   00C71EH   00000DH   BYTE   UNIT     CODE           ?L?COM011C
00C71FH   00C72AH   00000CH   BYTE   UNIT     CODE           ?L?COM012A
00C72BH   00C734H   00000AH   BYTE   UNIT     CODE           ?L?COM012E
00C735H   00C745H   000011H   BYTE   UNIT     CODE           ?L?COM0139
00C746H   00C756H   000011H   BYTE   UNIT     CODE           ?L?COM013C
00C757H   00C767H   000011H   BYTE   UNIT     CODE           ?L?COM0141
00C768H   00C76FH   000008H   BYTE   UNIT     CODE           ?L?COM0148
00C770H   00C776H   000007H   BYTE   UNIT     CODE           ?L?COM0149
00C777H   00C77FH   000009H   BYTE   UNIT     CODE           ?L?COM014A
00C780H   00C789H   00000AH   BYTE   UNIT     CODE           ?L?COM014B
00C78AH   00C790H   000007H   BYTE   UNIT     CODE           ?L?COM014C
00C791H   00C798H   000008H   BYTE   UNIT     CODE           ?L?COM014E
00C799H   00C7A7H   00000FH   BYTE   UNIT     CODE           ?L?COM0150
00C7A8H   00C7B6H   00000FH   BYTE   UNIT     CODE           ?L?COM0152
00C7B7H   00C7C5H   00000FH   BYTE   UNIT     CODE           ?L?COM0156
00C7C6H   00C7D2H   00000DH   BYTE   UNIT     CODE           ?L?COM0158
00C7D3H   00C7DBH   000009H   BYTE   UNIT     CODE           ?L?COM015C
00C7DCH   00C7E9H   00000EH   BYTE   UNIT     CODE           ?L?COM015F
00C7EAH   00C7F7H   00000EH   BYTE   UNIT     CODE           ?L?COM0161
00C7F8H   00C7FEH   000007H   BYTE   UNIT     CODE           ?L?COM0163
00C7FFH   00C80BH   00000DH   BYTE   UNIT     CODE           ?L?COM0164
00C80CH   00C817H   00000CH   BYTE   UNIT     CODE           ?L?COM0166
00C818H   00C824H   00000DH   BYTE   UNIT     CODE           ?L?COM016F
00C825H   00C82CH   000008H   BYTE   UNIT     CODE           ?L?COM0176
00C82DH   00C838H   00000CH   BYTE   UNIT     CODE           ?L?COM0177
00C839H   00C840H   000008H   BYTE   UNIT     CODE           ?L?COM0179
00C841H   00C848H   000008H   BYTE   UNIT     CODE           ?L?COM017C
00C849H   00C854H   00000CH   BYTE   UNIT     CODE           ?L?COM017D
00C855H   00C860H   00000CH   BYTE   UNIT     CODE           ?L?COM017E
00C861H   00C86CH   00000CH   BYTE   UNIT     CODE           ?L?COM017F
00C86DH   00C878H   00000CH   BYTE   UNIT     CODE           ?L?COM0185
00C879H   00C884H   00000CH   BYTE   UNIT     CODE           ?L?COM0187
00C885H   00C88CH   000008H   BYTE   UNIT     CODE           ?L?COM018C
00C88DH   00C896H   00000AH   BYTE   UNIT     CODE           ?L?COM0193
00C897H   00C8A1H   00000BH   BYTE   UNIT     CODE           ?L?COM0195
00C8A2H   00C8ABH   00000AH   BYTE   UNIT     CODE           ?L?COM0196
00C8ACH   00C8B6H   00000BH   BYTE   UNIT     CODE           ?L?COM0198
00C8B7H   00C8C1H   00000BH   BYTE   UNIT     CODE           ?L?COM019E
00C8C2H   00C8CBH   00000AH   BYTE   UNIT     CODE           ?L?COM01A0
00C8CCH   00C8D4H   000009H   BYTE   UNIT     CODE           ?L?COM01A2
00C8D5H   00C8DEH   00000AH   BYTE   UNIT     CODE           ?L?COM01A3
00C8DFH   00C8E7H   000009H   BYTE   UNIT     CODE           ?L?COM01A6
00C8E8H   00C8EEH   000007H   BYTE   UNIT     CODE           ?L?COM01A8
00C8EFH   00C8F7H   000009H   BYTE   UNIT     CODE           ?L?COM01AA
00C8F8H   00C900H   000009H   BYTE   UNIT     CODE           ?L?COM01AC
00C901H   00C909H   000009H   BYTE   UNIT     CODE           ?L?COM01AD
00C90AH   00C910H   000007H   BYTE   UNIT     CODE           ?L?COM01AE
00C911H   00C919H   000009H   BYTE   UNIT     CODE           ?L?COM01B0
00C91AH   00C923H   00000AH   BYTE   UNIT     CODE           ?L?COM01B7
LX51 LINKER/LOCATER V4.66.93.0                                                        04/11/2019  16:58:21  PAGE 11


00C924H   00C92DH   00000AH   BYTE   UNIT     CODE           ?L?COM01BA
00C92EH   00C937H   00000AH   BYTE   UNIT     CODE           ?L?COM01C2
00C938H   00C941H   00000AH   BYTE   UNIT     CODE           ?L?COM01C6
00C942H   00C949H   000008H   BYTE   UNIT     CODE           ?L?COM01C7
00C94AH   00C951H   000008H   BYTE   UNIT     CODE           ?L?COM01C8
00C952H   00C959H   000008H   BYTE   UNIT     CODE           ?L?COM01CC
00C95AH   00C961H   000008H   BYTE   UNIT     CODE           ?L?COM01CD
00C962H   00C969H   000008H   BYTE   UNIT     CODE           ?L?COM01CE
00C96AH   00C971H   000008H   BYTE   UNIT     CODE           ?L?COM01D2
00C972H   00C979H   000008H   BYTE   UNIT     CODE           ?L?COM01D3
00C97AH   00C981H   000008H   BYTE   UNIT     CODE           ?L?COM01D5
00C982H   00C989H   000008H   BYTE   UNIT     CODE           ?L?COM01D6
00C98AH   00C991H   000008H   BYTE   UNIT     CODE           ?L?COM01D7
00C992H   00C998H   000007H   BYTE   UNIT     CODE           ?L?COM01DB
00C999H   00C9A0H   000008H   BYTE   UNIT     CODE           ?L?COM01DD
00C9A1H   00C9A8H   000008H   BYTE   UNIT     CODE           ?L?COM01E0
00C9A9H   00C9B0H   000008H   BYTE   UNIT     CODE           ?L?COM01E1
00C9B1H   00C9B8H   000008H   BYTE   UNIT     CODE           ?L?COM01E6
00C9B9H   00C9C0H   000008H   BYTE   UNIT     CODE           ?L?COM01E7
00C9C1H   00C9C8H   000008H   BYTE   UNIT     CODE           ?L?COM01ED
00C9C9H   00C9D0H   000008H   BYTE   UNIT     CODE           ?L?COM01F4
00C9D1H   00C9D8H   000008H   BYTE   UNIT     CODE           ?L?COM01F6
00C9D9H   00C9E0H   000008H   BYTE   UNIT     CODE           ?L?COM01F7
00C9E1H   00C9E8H   000008H   BYTE   UNIT     CODE           ?L?COM01F8
00C9E9H   00C9F0H   000008H   BYTE   UNIT     CODE           ?L?COM01F9
00C9F1H   00C9F8H   000008H   BYTE   UNIT     CODE           ?L?COM01FA
00C9F9H   00C9FFH   000007H   BYTE   UNIT     CODE           ?L?COM01FB
00CA00H   00CA06H   000007H   BYTE   UNIT     CODE           ?L?COM01FC

* * * * * * * * * * *  X D A T A   M E M O R Y  * * * * * * * * * * * * *
000000H   00010EH   00010FH   BYTE   UNIT     XDATA          ?XD?ACTIVITYFUNCTIONS
00010FH   0001C9H   0000BBH   BYTE   UNIT     XDATA          _XDATA_GROUP_
0001CAH   00024EH   000085H   BYTE   UNIT     XDATA          ?XD?WS_TASK_MANAGE
00024FH   0002D2H   000084H   BYTE   UNIT     XDATA          ?XD?UART_FUN
0002D3H   00032BH   000059H   BYTE   UNIT     XDATA          ?XD?KEY_DATAS
00032CH   00034CH   000021H   BYTE   UNIT     XDATA          ?XD?GUI
00034DH   000354H   000008H   BYTE   UNIT     XDATA          ?XD?NORMAL_TASK
000355H   000358H   000004H   BYTE   UNIT     XDATA          ?XD?STC_EEPROM
000359H   00035BH   000003H   BYTE   UNIT     XDATA          ?XD?SOUND_TYPE
00035CH   00035DH   000002H   BYTE   UNIT     XDATA          ?XD?MAIN_TIK_TOK
00035EH   00035FH   000002H   BYTE   UNIT     XDATA          ?XD?DS18B20
000360H   000360H   000001H   BYTE   UNIT     XDATA          ?XD?LCD
000361H   000361H   000001H   BYTE   UNIT     XDATA          ?XD?KEY_MULTIFUN



OVERLAY MAP OF MODULE:   ..\OBJ\VHB15A (STC_EEPROM)


FUNCTION/MODULE                               XDATA_GROUP
--> CALLED FUNCTION/MODULE                    START  STOP
=========================================================
INTERRUPT_EXT1/ACTIVITYFUNCTIONS              ----- -----

*** NEW ROOT ********************************

INTERRUPT_TIME0/ACTIVITYFUNCTIONS             ----- -----
  +--> TIMER_T0_INT_MAIN/MAIN_TIK_TOK

TIMER_T0_INT_MAIN/MAIN_TIK_TOK                ----- -----
  +--> MAIN_TIK_FUNCTIONS/MAIN_TIK_FUNCTION
  +--> SOUND_TYPE_DRIVE/SOUND_TYPE
  +--> SUB_TIK_FUNCTIONS/SUB_TIK_FUNCTION

MAIN_TIK_FUNCTIONS/MAIN_TIK_FUNCTION          ----- -----
LX51 LINKER/LOCATER V4.66.93.0                                                        04/11/2019  16:58:21  PAGE 12


  +--> _WS_SETTASKIFG/WS_TASK_MANAGE
  +--> HEATERPLATEWIREDRIVEFBTASK/ACTIVITYFUNCTIONS

_WS_SETTASKIFG/WS_TASK_MANAGE                 ----- -----

HEATERPLATEWIREDRIVEFBTASK/ACTIVITYFUNCT+     ----- -----
... IONS

SOUND_TYPE_DRIVE/SOUND_TYPE                   ----- -----

SUB_TIK_FUNCTIONS/SUB_TIK_FUNCTION            ----- -----
  +--> KEY_UP_TIKFUNC/KEY_DATAS
  +--> KEY_DOWN_TIKFUNC/KEY_DATAS
  +--> KEY_OK_TIKFUNC/KEY_DATAS
  +--> KEY_MUTE_TIKFUNC/KEY_DATAS
  +--> HMIPOSTFUNC_TIK_CNT/GUI
  +--> HMIFACTORYDEFAULT_TIK_CNT/GUI
  +--> HMINON_INVASIVESEL_TIK_CNT/GUI
  +--> HMISCREENSAVERMODE_TIK_CNT/GUI

KEY_UP_TIKFUNC/KEY_DATAS                      ----- -----

KEY_DOWN_TIKFUNC/KEY_DATAS                    ----- -----

KEY_OK_TIKFUNC/KEY_DATAS                      ----- -----

KEY_MUTE_TIKFUNC/KEY_DATAS                    ----- -----

HMIPOSTFUNC_TIK_CNT/GUI                       ----- -----

HMIFACTORYDEFAULT_TIK_CNT/GUI                 ----- -----

HMINON_INVASIVESEL_TIK_CNT/GUI                ----- -----

HMISCREENSAVERMODE_TIK_CNT/GUI                ----- -----

*** NEW ROOT ********************************

SERIAL/ACTIVITYFUNCTIONS                      ----- -----
  +--> EUSART_RECEIVE_ISR/UART_FUN
  +--> EUSART_TRANSMIT_ISR/UART_FUN

EUSART_RECEIVE_ISR/UART_FUN                   ----- -----

EUSART_TRANSMIT_ISR/UART_FUN                  ----- -----

*** NEW ROOT ********************************

?C_C51STARTUP                                 ----- -----
  +--> MAIN/MAIN
  +--> ?C_INITSEG

MAIN/MAIN                                     010FH 010FH
  +--> MAIN_TIK_TOK_INITIAL_FUN/MAIN_TIK_TOK
  +--> INIT_PORT/ACTIVITYFUNCTIONS
  +--> MAIN_INIT/ACTIVITYFUNCTIONS
  +--> _HMIENTERTOWORKSTATEFUNC/GUI
  +--> MANAGETASK/NORMAL_TASK
  +--> KEYSCANTASK/NORMAL_TASK
  +--> HMISERVICEMODETASK/NORMAL_TASK
  +--> HMIPOSTTASK/NORMAL_TASK
  +--> HMIFACTORYDEFAULTSELTASK/NORMAL_TASK
  +--> HMINON_INVASIVESELTASK/NORMAL_TASK
  +--> HMIRUNNINGTASK/NORMAL_TASK
  +--> HMISETTEMPPATIENTTASK/NORMAL_TASK
LX51 LINKER/LOCATER V4.66.93.0                                                        04/11/2019  16:58:21  PAGE 13


  +--> HMISETTEMPCHAMBERTASK/NORMAL_TASK
  +--> HMISETINEXPTASK/NORMAL_TASK
  +--> HMISETTIMETASK/NORMAL_TASK
  +--> HMISCREENSAVERMODETASK/NORMAL_TASK
  +--> GETTEMP_HPCHAMBERTASK/NORMAL_TASK
  +--> GETTEMPHUMIDITY_PATIENTTASK/NORMAL_TASK
  +--> REFRESHTEMPHUMIDYTASK/NORMAL_TASK
  +--> REFRESHRTCTIMETASK/NORMAL_TASK
  +--> REFRESHRUNTIMETASK/NORMAL_TASK
  +--> HEATERWIRECONTROLTASK/NORMAL_TASK
  +--> LOWPOWERMODETASK/NORMAL_TASK
  +--> HEATERWIREMODEDETTASK/NORMAL_TASK
  +--> ALARMERRORTASK/NORMAL_TASK
  +--> LOWTEMPDET1STASK/NORMAL_TASK
  +--> SAVEDATETOFLASHTASK/NORMAL_TASK
  +--> UARTRECTASK/NORMAL_TASK

MAIN_TIK_TOK_INITIAL_FUN/MAIN_TIK_TOK         ----- -----

INIT_PORT/ACTIVITYFUNCTIONS                   0110H 0111H
  +--> EUSART_INITIALIZE/UART_FUN
  +--> SPI_INIT/W25X
  +--> LCD_INITIAL/LCD
  +--> _DRAW_RECTANGLE_REAL/LCD
  +--> _DISP_FNT10X24/LCD
  +--> LCD_SHOW_VERION/LCD

EUSART_INITIALIZE/UART_FUN                    ----- -----

SPI_INIT/W25X                                 ----- -----
  +--> SPI_WRITE_DISABLE/W25X

SPI_WRITE_DISABLE/W25X                        ----- -----
  +--> _SPI_SEND_BYTE/W25X

_SPI_SEND_BYTE/W25X                           ----- -----

LCD_INITIAL/LCD                               ----- -----
  +--> _DELAY_MS/DELAY
  +--> _SDCMD/LCD
  +--> _SDDATA/LCD

_DELAY_MS/DELAY                               ----- -----

_SDCMD/LCD                                    ----- -----

_SDDATA/LCD                                   ----- -----

_DRAW_RECTANGLE_REAL/LCD                      019CH 01A8H
  +--> _LCD_CRTLWRITE_AREA/LCD
  +--> _LCD_CTRLWRITE_COLOR/LCD

_LCD_CRTLWRITE_AREA/LCD                       01C4H 01C9H
  +--> _SDCMD/LCD
  +--> _SDDATA/LCD

_LCD_CTRLWRITE_COLOR/LCD                      ----- -----
  +--> _LCD_CTRLWRITE_ILI9328/LCD

_LCD_CTRLWRITE_ILI9328/LCD                    ----- -----

_DISP_FNT10X24/LCD                            0112H 0116H
  +--> _DISP_MONO_GRAP/LCD

_DISP_MONO_GRAP/LCD                           01A1H 01ADH
LX51 LINKER/LOCATER V4.66.93.0                                                        04/11/2019  16:58:21  PAGE 14


  +--> _LCD_CRTLWRITE_AREA/LCD
  +--> _LCD_CTRLWRITE_COLOR/LCD

LCD_SHOW_VERION/LCD                           ----- -----
  +--> _LCD_SHOWSTRING/LCD

_LCD_SHOWSTRING/LCD                           0197H 01ABH
  +--> _LCD_SHOWCHAR/LCD

_LCD_SHOWCHAR/LCD                             01ACH 01B3H
  +--> _DISP_FNT8X16/LCD
  +--> _DISP_FNT12X24/LCD

_DISP_FNT8X16/LCD                             01B4H 01C2H
  +--> _LCD_CRTLWRITE_AREA/LCD
  +--> _LCD_DRAWPOINT/LCD
  +--> _LCD_CTRLWRITE_COLOR/LCD

_LCD_DRAWPOINT/LCD                            01C4H 01C5H
  +--> _SDCMD/LCD
  +--> _SDDATA/LCD
  +--> _LCD_CTRLWRITE_COLOR/LCD

_DISP_FNT12X24/LCD                            01B4H 01C3H
  +--> _LCD_CRTLWRITE_AREA/LCD
  +--> _LCD_DRAWPOINT/LCD
  +--> _LCD_CTRLWRITE_COLOR/LCD

MAIN_INIT/ACTIVITYFUNCTIONS                   ----- -----
  +--> GET_RUNCOUNT/ACTIVITYFUNCTIONS

GET_RUNCOUNT/ACTIVITYFUNCTIONS                0110H 0118H
  +--> _SPI_READ_NBYTES/W25X
  +--> _DELAY_US/DELAY

_SPI_READ_NBYTES/W25X                         0119H 0121H
  +--> _SPI_SEND_BYTE/W25X
  +--> SPI_GET_BYTE/W25X

SPI_GET_BYTE/W25X                             ----- -----

_DELAY_US/DELAY                               ----- -----

_HMIENTERTOWORKSTATEFUNC/GUI                  0148H 0195H
  +--> _DRAW_RECTANGLE_REAL/LCD
  +--> MEM_FLASH_RECALL/ACTIVITYFUNCTIONS
  +--> _DRAW_RECTANGLE/LCD
  +--> _LCD_SHOWSTRING/LCD
  +--> _DRAW_CIRCLE/LCD
  +--> _DISP_ICO_40X40/LCD
  +--> _DISP_WUCHUANG/LCD
  +--> _DISP_YOUCHUANG/LCD
  +--> DRAWWORKWINDOWS/LCD
  +--> _REFRESHRUNTIMEFUNC/ACTIVITYFUNCTIONS
  +--> _REFRESHTEMPHUMIDYFUNC/ACTIVITYFUNCTIONS
  +--> _DISP_ICO_32X40/LCD
  +--> _DISPLAY_SET_TEMP/GUI
  +--> ENTERSETTIME/GUI
  +--> ENTERSETINEXP/GUI

MEM_FLASH_RECALL/ACTIVITYFUNCTIONS            ----- -----
  +--> _STC_IAP_BYTE_READ/STC_EEPROM
  +--> WRITE_DEFAULT_SETTING_TO_FLASH/ACTIVITYFUNCTIONS

_STC_IAP_BYTE_READ/STC_EEPROM                 ----- -----
LX51 LINKER/LOCATER V4.66.93.0                                                        04/11/2019  16:58:21  PAGE 15


  +--> IAP_DISABLE/STC_EEPROM

IAP_DISABLE/STC_EEPROM                        ----- -----

WRITE_DEFAULT_SETTING_TO_FLASH/ACTIVITYF+     ----- -----
... UNCTIONS
  +--> SETTING_WRITE_TO_FLASH/ACTIVITYFUNCTIONS

SETTING_WRITE_TO_FLASH/ACTIVITYFUNCTIONS      ----- -----
  +--> _STC_IAP_SECTOR_ERASE/STC_EEPROM
  +--> _STC_IAP_BYTE_PROGRAM/STC_EEPROM

_STC_IAP_SECTOR_ERASE/STC_EEPROM              ----- -----
  +--> IAP_DISABLE/STC_EEPROM

_STC_IAP_BYTE_PROGRAM/STC_EEPROM              ----- -----
  +--> IAP_DISABLE/STC_EEPROM

_DRAW_RECTANGLE/LCD                           0196H 01A3H
  +--> _LCD_CRTLWRITE_AREA/LCD
  +--> _LCD_CTRLWRITE_COLOR/LCD

_DRAW_CIRCLE/LCD                              0196H 019FH
  +--> _LCD_DRAWPOINT/LCD

_DISP_ICO_40X40/LCD                           0196H 019AH
  +--> _DISP_MONO_GRAP/LCD

_DISP_WUCHUANG/LCD                            ----- -----
  +--> _DISP_MONO_GRAP/LCD

_DISP_YOUCHUANG/LCD                           ----- -----
  +--> _DISP_MONO_GRAP/LCD

DRAWWORKWINDOWS/LCD                           ----- -----
  +--> _DRAW_RECTANGLE_REAL/LCD
  +--> _DISP_WUCHUANG/LCD
  +--> _DISP_YOUCHUANG/LCD
  +--> _DRAW_RECTANGLE/LCD
  +--> REFRESH_WORK_MODE/LCD
  +--> _DISP_ICO_52X64/LCD
  +--> _DISP_ICO_40X40/LCD
  +--> _DISP_ICO_32X40/LCD
  +--> _DISP_RH14X24/LCD
  +--> _DISP_DHM/LCD
  +--> _DISP_TIME_10X16/LCD

REFRESH_WORK_MODE/LCD                         ----- -----
  +--> _DISP_WUCHUANG/LCD
  +--> _DISP_YOUCHUANG/LCD

_DISP_ICO_52X64/LCD                           0196H 019AH
  +--> _DISP_MONO_GRAP/LCD

_DISP_ICO_32X40/LCD                           0196H 019AH
  +--> _DISP_MONO_GRAP/LCD

_DISP_RH14X24/LCD                             0196H 019AH
  +--> _DISP_MONO_GRAP/LCD

_DISP_DHM/LCD                                 0196H 019AH
  +--> _DISP_MONO_GRAP/LCD

_DISP_TIME_10X16/LCD                          0197H 019BH
  +--> _DISP_MONO_GRAP/LCD
LX51 LINKER/LOCATER V4.66.93.0                                                        04/11/2019  16:58:21  PAGE 16



_REFRESHRUNTIMEFUNC/ACTIVITYFUNCTIONS         0196H 0196H
  +--> _RX8010_GETTIME/RX8010
  +--> _DISP_TIME_10X16/LCD

_RX8010_GETTIME/RX8010                        0197H 01A0H
  +--> _READEEONE/RX8010

_READEEONE/RX8010                             01A1H 01A7H
  +--> IC_START/RX8010
  +--> _IC_WRITEBYTE/RX8010
  +--> IC_STOP/RX8010
  +--> IC_READBYTE/RX8010
  +--> SDA_DIR_OUTPUT/RX8010
  +--> _DELAY_US/DELAY

IC_START/RX8010                               ----- -----
  +--> SCL_DIR_OUTPUT/RX8010
  +--> SDA_DIR_OUTPUT/RX8010
  +--> _DELAY_US/DELAY

SCL_DIR_OUTPUT/RX8010                         ----- -----

SDA_DIR_OUTPUT/RX8010                         ----- -----

_IC_WRITEBYTE/RX8010                          01A8H 01AAH
  +--> SDA_DIR_OUTPUT/RX8010
  +--> _DELAY_US/DELAY
  +--> SDA_DIR_INPUT/RX8010

SDA_DIR_INPUT/RX8010                          ----- -----

IC_STOP/RX8010                                ----- -----
  +--> SDA_DIR_OUTPUT/RX8010
  +--> _DELAY_US/DELAY

IC_READBYTE/RX8010                            01A8H 01A9H
  +--> SDA_DIR_OUTPUT/RX8010
  +--> SDA_DIR_INPUT/RX8010
  +--> _DELAY_US/DELAY

_REFRESHTEMPHUMIDYFUNC/ACTIVITYFUNCTIONS      0196H 019BH
  +--> _BIT_IS_ONE/ACTIVITYFUNCTIONS
  +--> _DRAW_RECTANGLE_REAL/LCD
  +--> _DISP_TEMP_30X56/LCD
  +--> _DISP_RH_17X40/LCD

_BIT_IS_ONE/ACTIVITYFUNCTIONS                 ----- -----

_DISP_TEMP_30X56/LCD                          019CH 01A0H
  +--> _DISP_MONO_GRAP/LCD

_DISP_RH_17X40/LCD                            019CH 01A0H
  +--> _DISP_MONO_GRAP/LCD

_DISPLAY_SET_TEMP/GUI                         0196H 0197H
  +--> _DISP_TEMP_30X56/LCD
  +--> _DRAW_RECTANGLE_REAL/LCD

ENTERSETTIME/GUI                              ----- -----
  +--> _RX8010_GETTIME/RX8010

ENTERSETINEXP/GUI                             ----- -----
  +--> _DISPLAY_IN_EXP_RATIO/GUI

LX51 LINKER/LOCATER V4.66.93.0                                                        04/11/2019  16:58:21  PAGE 17


_DISPLAY_IN_EXP_RATIO/GUI                     0196H 0196H
  +--> _LCD_SHOWSTRING/LCD

MANAGETASK/NORMAL_TASK                        ----- -----
  +--> _WS_TASKJUDGE/WS_TASK_MANAGE
  +--> _WS_DELTASKIFG/WS_TASK_MANAGE
  +--> _WS_SETTASKIFG/WS_TASK_MANAGE

_WS_TASKJUDGE/WS_TASK_MANAGE                  0110H 0110H

_WS_DELTASKIFG/WS_TASK_MANAGE                 ----- -----

KEYSCANTASK/NORMAL_TASK                       ----- -----
  +--> _WS_TASKJUDGE/WS_TASK_MANAGE
  +--> _WS_DELTASKIFG/WS_TASK_MANAGE
  +--> KEY_MULTIFUN/KEY_MULTIFUN

KEY_MULTIFUN/KEY_MULTIFUN                     0110H 0120H

HMISERVICEMODETASK/NORMAL_TASK                ----- -----
  +--> _WS_TASKJUDGE/WS_TASK_MANAGE
  +--> _WS_DELTASKIFG/WS_TASK_MANAGE
  +--> HMISERVICEMODEFUNC/GUI

HMISERVICEMODEFUNC/GUI                        0110H 0110H
  +--> _DRAW_RECTANGLE_REAL/LCD
  +--> _LCD_SHOWSTRING/LCD
  +--> _SPI_ERASE_SECTOR/W25X
  +--> _DELAY_MS/DELAY
  +--> _SPI_WRITE_NBYTES/W25X
  +--> _SPI_READ_NBYTES/W25X
  +--> LCD_SHOW_VERION/LCD
  +--> _DISP_ICO_52X64/LCD
  +--> _DISP_ICO_32X40/LCD
  +--> _DISP_ICO_40X40/LCD
  +--> _DISP_RH14X24/LCD
  +--> _DISP_HEAT_36X24/LCD
  +--> SERVICEMODE_TEMPHUMIDY_DISP/ACTIVITYFUNCTIONS
  +--> _HMIENTERTOWORKSTATEFUNC/GUI

_SPI_ERASE_SECTOR/W25X                        0118H 011BH
  +--> SPI_WRITE_ENABLE/W25X
  +--> _SPI_SEND_BYTE/W25X

SPI_WRITE_ENABLE/W25X                         ----- -----
  +--> _SPI_SEND_BYTE/W25X

_SPI_WRITE_NBYTES/W25X                        0119H 0122H
  +--> SPI_WRITE_ENABLE/W25X
  +--> _SPI_SEND_BYTE/W25X

_DISP_HEAT_36X24/LCD                          ----- -----
  +--> _DISP_MONO_GRAP/LCD

SERVICEMODE_TEMPHUMIDY_DISP/ACTIVITYFUNC+     0111H 0114H
... TIONS
  +--> _DISP_TEMP_30X56/LCD
  +--> _DRAW_RECTANGLE_REAL/LCD
  +--> _DISP_RH_17X40/LCD

HMIPOSTTASK/NORMAL_TASK                       ----- -----
  +--> _WS_TASKJUDGE/WS_TASK_MANAGE
  +--> _WS_DELTASKIFG/WS_TASK_MANAGE
  +--> HMIPOSTFUNC/GUI

LX51 LINKER/LOCATER V4.66.93.0                                                        04/11/2019  16:58:21  PAGE 18


HMIPOSTFUNC/GUI                               0110H 0110H
  +--> RX8010_INITIALIZE/RX8010
  +--> _DRAW_RECTANGLE_REAL/LCD
  +--> _LCD_SHOWSTRING/LCD
  +--> _SPI_READ_NBYTES/W25X
  +--> _SPI_ERASE_SECTOR/W25X
  +--> _SPI_WRITE_NBYTES/W25X
  +--> _DELAY_MS/DELAY
  +--> _HMIENTERTOWORKSTATEFUNC/GUI

RX8010_INITIALIZE/RX8010                      0111H 0119H
  +--> _READEEONE/RX8010
  +--> _DELAY_MS/DELAY
  +--> _BIT_IS_ONE/ACTIVITYFUNCTIONS
  +--> _WRITEEEONE/RX8010

_WRITEEEONE/RX8010                            011AH 011FH
  +--> IC_START/RX8010
  +--> _IC_WRITEBYTE/RX8010
  +--> IC_STOP/RX8010
  +--> _DELAY_US/DELAY

HMIFACTORYDEFAULTSELTASK/NORMAL_TASK          ----- -----
  +--> _WS_TASKJUDGE/WS_TASK_MANAGE
  +--> _WS_DELTASKIFG/WS_TASK_MANAGE
  +--> HMIFACTORYDEFAULTFUNC/GUI

HMIFACTORYDEFAULTFUNC/GUI                     0110H 0147H
  +--> _DISP_ICO_40X40/LCD
  +--> SOUND_SHORT/SOUND_TYPE
  +--> LOAD_SETTINGS_BEFORE_CHOICE/ACTIVITYFUNCTIONS
  +--> _HMIENTERTOWORKSTATEFUNC/GUI
  +--> _DRAW_RECTANGLE/LCD
  +--> _DRAW_RECTANGLE_REAL/LCD
  +--> _LCD_SHOWSTRING/LCD
  +--> _LCD_SHOWXNUM/LCD
  +--> _DRAW_CIRCLE/LCD

SOUND_SHORT/SOUND_TYPE                        ----- -----

LOAD_SETTINGS_BEFORE_CHOICE/ACTIVITYFUNC+     ----- -----
... TIONS
  +--> WRITE_DEFAULT_SETTING_TO_FLASH/ACTIVITYFUNCTIONS

_LCD_SHOWXNUM/LCD                             0148H 0156H
  +--> _LCD_POW/LCD
  +--> _LCD_SHOWCHAR/LCD

_LCD_POW/LCD                                  0157H 015CH

HMINON_INVASIVESELTASK/NORMAL_TASK            ----- -----
  +--> _WS_TASKJUDGE/WS_TASK_MANAGE
  +--> _WS_DELTASKIFG/WS_TASK_MANAGE
  +--> HMINON_INVASIVESELFUNC/GUI

HMINON_INVASIVESELFUNC/GUI                    ----- -----
  +--> _DRAW_RECTANGLE/LCD
  +--> _HMIENTERTOWORKSTATEFUNC/GUI
  +--> SETTING_WRITE_TO_FLASH/ACTIVITYFUNCTIONS

HMIRUNNINGTASK/NORMAL_TASK                    ----- -----
  +--> _WS_TASKJUDGE/WS_TASK_MANAGE
  +--> _WS_DELTASKIFG/WS_TASK_MANAGE
  +--> HMIRUNNINGFUNC/GUI

LX51 LINKER/LOCATER V4.66.93.0                                                        04/11/2019  16:58:21  PAGE 19


HMIRUNNINGFUNC/GUI                            ----- -----
  +--> _DISP_ICO_52X64/LCD
  +--> _DISPLAY_IN_EXP_RATIO/GUI
  +--> _REFRESHTEMPHUMIDYFUNC/ACTIVITYFUNCTIONS
  +--> SOUND_SHORT/SOUND_TYPE
  +--> SETTING_WRITE_TO_FLASH/ACTIVITYFUNCTIONS
  +--> REFRESH_WORK_MODE/LCD
  +--> _HMIENTERTOWORKSTATEFUNC/GUI
  +--> _DRAW_RECTANGLE_REAL/LCD
  +--> WIREINOUT_STATE_CONFIRM/ACTIVITYFUNCTIONS

WIREINOUT_STATE_CONFIRM/ACTIVITYFUNCTION+     ----- -----
... S

HMISETTEMPPATIENTTASK/NORMAL_TASK             ----- -----
  +--> _WS_TASKJUDGE/WS_TASK_MANAGE
  +--> _WS_DELTASKIFG/WS_TASK_MANAGE
  +--> HMISETTEMPPATIENTFUNC/GUI

HMISETTEMPPATIENTFUNC/GUI                     ----- -----
  +--> _DISP_ICO_32X40/LCD
  +--> _DISPLAY_SET_TEMP/GUI
  +--> _HMIENTERTOWORKSTATEFUNC/GUI
  +--> _REFRESHTEMPHUMIDYFUNC/ACTIVITYFUNCTIONS
  +--> SOUND_SHORT/SOUND_TYPE
  +--> SETTING_WRITE_TO_FLASH/ACTIVITYFUNCTIONS

HMISETTEMPCHAMBERTASK/NORMAL_TASK             ----- -----
  +--> _WS_TASKJUDGE/WS_TASK_MANAGE
  +--> _WS_DELTASKIFG/WS_TASK_MANAGE
  +--> HMISETTEMPCHAMBERFUNC/GUI

HMISETTEMPCHAMBERFUNC/GUI                     ----- -----
  +--> _DISP_ICO_32X40/LCD
  +--> _DISPLAY_SET_TEMP/GUI
  +--> SOUND_SHORT/SOUND_TYPE
  +--> _REFRESHTEMPHUMIDYFUNC/ACTIVITYFUNCTIONS
  +--> SETTING_WRITE_TO_FLASH/ACTIVITYFUNCTIONS

HMISETINEXPTASK/NORMAL_TASK                   ----- -----
  +--> _WS_TASKJUDGE/WS_TASK_MANAGE
  +--> _WS_DELTASKIFG/WS_TASK_MANAGE
  +--> HMISETINEXPFUNC/GUI

HMISETINEXPFUNC/GUI                           ----- -----
  +--> _LCD_SHOWSTRING/LCD
  +--> _HMIENTERTOWORKSTATEFUNC/GUI
  +--> _DISPLAY_IN_EXP_RATIO/GUI
  +--> SOUND_SHORT/SOUND_TYPE
  +--> SETTING_WRITE_TO_FLASH/ACTIVITYFUNCTIONS

HMISETTIMETASK/NORMAL_TASK                    ----- -----
  +--> _WS_TASKJUDGE/WS_TASK_MANAGE
  +--> _WS_DELTASKIFG/WS_TASK_MANAGE
  +--> HMISETTIMEFUNC/GUI

HMISETTIMEFUNC/GUI                            ----- -----
  +--> _DISPLAYTIME/GUI
  +--> DATE_IS_CORRECT/GUI
  +--> SOUND_SHORT/SOUND_TYPE
  +--> _RX8010_SETTIME/RX8010

_DISPLAYTIME/GUI                              0110H 0115H
  +--> _DISP_TIME_10X16/LCD

LX51 LINKER/LOCATER V4.66.93.0                                                        04/11/2019  16:58:21  PAGE 20


DATE_IS_CORRECT/GUI                           0110H 0110H

_RX8010_SETTIME/RX8010                        0110H 0119H
  +--> _WRITEEEONE/RX8010

HMISCREENSAVERMODETASK/NORMAL_TASK            ----- -----
  +--> _WS_TASKJUDGE/WS_TASK_MANAGE
  +--> _WS_DELTASKIFG/WS_TASK_MANAGE
  +--> HMISCREENSAVERMODEFUNC/GUI

HMISCREENSAVERMODEFUNC/GUI                    0110H 0112H
  +--> _DRAW_RECTANGLE_REAL/LCD
  +--> _HMIENTERTOWORKSTATEFUNC/GUI
  +--> ERR_BASE_HEATERWIRE_DISP_ENABLE/ACTIVITYFUNCTIONS
  +--> _DISP_TEMP_38X64/LCD
  +--> _DISP_ICO_32X40/LCD

ERR_BASE_HEATERWIRE_DISP_ENABLE/ACTIVITY+     ----- -----
... FUNCTIONS

_DISP_TEMP_38X64/LCD                          0113H 0117H
  +--> _DISP_MONO_GRAP/LCD

GETTEMP_HPCHAMBERTASK/NORMAL_TASK             ----- -----
  +--> _WS_TASKJUDGE/WS_TASK_MANAGE
  +--> _WS_DELTASKIFG/WS_TASK_MANAGE
  +--> GETTEMP_HPCHAMBERFUNC/ACTIVITYFUNCTIONS

GETTEMP_HPCHAMBERFUNC/ACTIVITYFUNCTIONS       0110H 0120H
  +--> _DELAY_US/DELAY
  +--> _DS18B20_WRITEBYTE/DS18B20
  +--> DS18B20_READBYTE/DS18B20
  +--> _DS18B20_CHECKCRC/DS18B20

_DS18B20_WRITEBYTE/DS18B20                    0121H 0122H
  +--> _DELAY_US/DELAY

DS18B20_READBYTE/DS18B20                      0121H 0121H
  +--> _DELAY_US/DELAY

_DS18B20_CHECKCRC/DS18B20                     0121H 0128H

GETTEMPHUMIDITY_PATIENTTASK/NORMAL_TASK       ----- -----
  +--> _WS_TASKJUDGE/WS_TASK_MANAGE
  +--> _WS_DELTASKIFG/WS_TASK_MANAGE
  +--> GETTEMPHUMIDITY_PATIENTFUNC/ACTIVITYFUNCTIONS

GETTEMPHUMIDITY_PATIENTFUNC/ACTIVITYFUNC+     0110H 0117H
... TIONS
  +--> SHT21_WRITETEMP/SHT21
  +--> SHT21_READDATA/SHT21
  +--> SHT21_WRITERH/SHT21

SHT21_WRITETEMP/SHT21                         ----- -----
  +--> SHT21_START/SHT21
  +--> _SHT21_WRITE8BIT/SHT21
  +--> SCL_INPUT_HIGH/SHT21

SHT21_START/SHT21                             ----- -----
  +--> SCL_INPUT_HIGH/SHT21
  +--> SDA_INPUT_HIGH/SHT21
  +--> _DELAY_US/DELAY
  +--> SDA_OUTPUT_LOW/SHT21
  +--> SCL_OUTPUT_LOW/SHT21

LX51 LINKER/LOCATER V4.66.93.0                                                        04/11/2019  16:58:21  PAGE 21


SCL_INPUT_HIGH/SHT21                          ----- -----

SDA_INPUT_HIGH/SHT21                          ----- -----

SDA_OUTPUT_LOW/SHT21                          ----- -----

SCL_OUTPUT_LOW/SHT21                          ----- -----

_SHT21_WRITE8BIT/SHT21                        0118H 011BH
  +--> SCL_OUTPUT_LOW/SHT21
  +--> SDA_INPUT_HIGH/SHT21
  +--> SDA_OUTPUT_LOW/SHT21
  +--> _DELAY_US/DELAY
  +--> SCL_INPUT_HIGH/SHT21

SHT21_READDATA/SHT21                          0118H 0123H
  +--> _SHT21_READ8BIT/SHT21
  +--> SHT21_STOP/SHT21
  +--> _SHT2X_CHECKCRC/SHT21

_SHT21_READ8BIT/SHT21                         0124H 0126H
  +--> SDA_INPUT_HIGH/SHT21
  +--> SCL_INPUT_HIGH/SHT21
  +--> _DELAY_US/DELAY
  +--> SCL_OUTPUT_LOW/SHT21
  +--> SDA_OUTPUT_LOW/SHT21

SHT21_STOP/SHT21                              ----- -----
  +--> SCL_OUTPUT_LOW/SHT21
  +--> SDA_OUTPUT_LOW/SHT21
  +--> SCL_INPUT_HIGH/SHT21
  +--> _DELAY_US/DELAY
  +--> SDA_INPUT_HIGH/SHT21

_SHT2X_CHECKCRC/SHT21                         0124H 012CH

SHT21_WRITERH/SHT21                           ----- -----
  +--> SHT21_START/SHT21
  +--> _SHT21_WRITE8BIT/SHT21
  +--> SCL_INPUT_HIGH/SHT21

REFRESHTEMPHUMIDYTASK/NORMAL_TASK             ----- -----
  +--> _WS_TASKJUDGE/WS_TASK_MANAGE
  +--> _WS_DELTASKIFG/WS_TASK_MANAGE
  +--> _REFRESHTEMPHUMIDYFUNC/ACTIVITYFUNCTIONS

REFRESHRTCTIMETASK/NORMAL_TASK                ----- -----
  +--> _WS_TASKJUDGE/WS_TASK_MANAGE
  +--> _WS_DELTASKIFG/WS_TASK_MANAGE
  +--> REFRESHRTCTIMEFUNC/ACTIVITYFUNCTIONS

REFRESHRTCTIMEFUNC/ACTIVITYFUNCTIONS          ----- -----
  +--> _RX8010_GETTIME/RX8010
  +--> _DISPLAYTIME/GUI

REFRESHRUNTIMETASK/NORMAL_TASK                ----- -----
  +--> _WS_TASKJUDGE/WS_TASK_MANAGE
  +--> _WS_DELTASKIFG/WS_TASK_MANAGE
  +--> _REFRESHRUNTIMEFUNC/ACTIVITYFUNCTIONS

HEATERWIRECONTROLTASK/NORMAL_TASK             ----- -----
  +--> _WS_TASKJUDGE/WS_TASK_MANAGE
  +--> _WS_DELTASKIFG/WS_TASK_MANAGE
  +--> HEATERPLATEWIRECONTROLFUNC/ACTIVITYFUNCTIONS

LX51 LINKER/LOCATER V4.66.93.0                                                        04/11/2019  16:58:21  PAGE 22


HEATERPLATEWIRECONTROLFUNC/ACTIVITYFUNCT+     0110H 0115H
... IONS
  +--> _LCD_SHOWXNUM/LCD
  +--> _ABS/ABS
  +--> CONTROLER_CALC/ACTIVITYFUNCTIONS
  +--> HEATPLATETEMP_AIM_CONTROLER_CALC/ACTIVITYFUNCTIONS
  +--> HEATPLATE_CONTROLER_CALC/ACTIVITYFUNCTIONS
  +--> PATIENTTEMP_NONEHEATWIRE_ADJ/ACTIVITYFUNCTIONS

_ABS/ABS                                      ----- -----

CONTROLER_CALC/ACTIVITYFUNCTIONS              ----- -----

HEATPLATETEMP_AIM_CONTROLER_CALC/ACTIVIT+     ----- -----
... YFUNCTIONS

HEATPLATE_CONTROLER_CALC/ACTIVITYFUNCTIO+     ----- -----
... NS

PATIENTTEMP_NONEHEATWIRE_ADJ/ACTIVITYFUN+     0116H 0119H
... CTIONS
  +--> HEATPLATE_CONTROLER_CALC/ACTIVITYFUNCTIONS
  +--> _LCD_SHOWXNUM/LCD
  +--> _ABS/ABS

LOWPOWERMODETASK/NORMAL_TASK                  ----- -----
  +--> _WS_TASKJUDGE/WS_TASK_MANAGE
  +--> _WS_DELTASKIFG/WS_TASK_MANAGE
  +--> LOWPOWERMODEFUNC/ACTIVITYFUNCTIONS

LOWPOWERMODEFUNC/ACTIVITYFUNCTIONS            ----- -----
  +--> _BIT_IS_ONE/ACTIVITYFUNCTIONS

HEATERWIREMODEDETTASK/NORMAL_TASK             ----- -----
  +--> _WS_TASKJUDGE/WS_TASK_MANAGE
  +--> _WS_DELTASKIFG/WS_TASK_MANAGE
  +--> HEATERWIREMODEDETFUNC/ACTIVITYFUNCTIONS

HEATERWIREMODEDETFUNC/ACTIVITYFUNCTIONS       ----- -----

ALARMERRORTASK/NORMAL_TASK                    ----- -----
  +--> _WS_TASKJUDGE/WS_TASK_MANAGE
  +--> _WS_DELTASKIFG/WS_TASK_MANAGE
  +--> ALARMERRORFUNC/ACTIVITYFUNCTIONS

ALARMERRORFUNC/ACTIVITYFUNCTIONS              0110H 0112H
  +--> _SET_BIT/ACTIVITYFUNCTIONS
  +--> _CLEAR_BIT/ACTIVITYFUNCTIONS
  +--> _BIT_IS_ONE/ACTIVITYFUNCTIONS
  +--> _DRAW_RECTANGLE_REAL/LCD
  +--> SOUND_ALARM_PAUSE_DISABLE/SOUND_TYPE
  +--> _DISP_VHB80_PIC/LCD
  +--> _DISP_CQK25X24/LCD
  +--> _DISP_RTD28X24/LCD
  +--> _DISP_HEAT_36X24/LCD

_SET_BIT/ACTIVITYFUNCTIONS                    ----- -----

_CLEAR_BIT/ACTIVITYFUNCTIONS                  ----- -----

SOUND_ALARM_PAUSE_DISABLE/SOUND_TYPE          ----- -----

_DISP_VHB80_PIC/LCD                           0113H 0113H
  +--> _DISP_VHB80_56X40/LCD
  +--> _DISP_HEAT_36X24/LCD
LX51 LINKER/LOCATER V4.66.93.0                                                        04/11/2019  16:58:21  PAGE 23


  +--> _DISP_CQK25X24/LCD
  +--> _DRAW_RECTANGLE_REAL/LCD
  +--> _DISP_RTD28X24/LCD
  +--> _DISP_JQK41X16/LCD

_DISP_VHB80_56X40/LCD                         ----- -----
  +--> _DISP_MONO_GRAP/LCD

_DISP_CQK25X24/LCD                            ----- -----
  +--> _DISP_MONO_GRAP/LCD

_DISP_RTD28X24/LCD                            ----- -----
  +--> _DISP_MONO_GRAP/LCD

_DISP_JQK41X16/LCD                            ----- -----
  +--> _DISP_MONO_GRAP/LCD

LOWTEMPDET1STASK/NORMAL_TASK                  ----- -----
  +--> _WS_TASKJUDGE/WS_TASK_MANAGE
  +--> _WS_DELTASKIFG/WS_TASK_MANAGE
  +--> LOWTEMPDET1SFUNC/ACTIVITYFUNCTIONS

LOWTEMPDET1SFUNC/ACTIVITYFUNCTIONS            0110H 0115H
  +--> _LCD_SHOWXNUM/LCD
  +--> _CLEAR_BIT/ACTIVITYFUNCTIONS
  +--> _SET_BIT/ACTIVITYFUNCTIONS

SAVEDATETOFLASHTASK/NORMAL_TASK               ----- -----
  +--> _WS_TASKJUDGE/WS_TASK_MANAGE
  +--> _WS_DELTASKIFG/WS_TASK_MANAGE
  +--> SAVEDATETOFLASHFUNC/ACTIVITYFUNCTIONS

SAVEDATETOFLASHFUNC/ACTIVITYFUNCTIONS         0110H 0117H
  +--> _RX8010_GETTIME/RX8010
  +--> _SPI_WRITE_NBYTES/W25X
  +--> STORE_DATA/ACTIVITYFUNCTIONS
  +--> _SPI_ERASE_SECTOR/W25X

STORE_DATA/ACTIVITYFUNCTIONS                  0118H 0118H
  +--> _SPI_WRITE_NBYTES/W25X

UARTRECTASK/NORMAL_TASK                       ----- -----
  +--> _WS_TASKJUDGE/WS_TASK_MANAGE
  +--> _WS_DELTASKIFG/WS_TASK_MANAGE
  +--> UART_RECDATA_FUNC/ACTIVITYFUNCTIONS

UART_RECDATA_FUNC/ACTIVITYFUNCTIONS           0110H 0114H
  +--> EUSART_READ/UART_FUN
  +--> UART_RECBUF_CLEAR_FUN/ACTIVITYFUNCTIONS
  +--> _SPI_READ_NBYTES/W25X
  +--> _EUSART_WRITE_STR/UART_FUN

EUSART_READ/UART_FUN                          ----- -----

UART_RECBUF_CLEAR_FUN/ACTIVITYFUNCTIONS       ----- -----

_EUSART_WRITE_STR/UART_FUN                    0115H 0117H
  +--> _EUSART_WRITE/UART_FUN

_EUSART_WRITE/UART_FUN                        ----- -----
  +--> _SEND_CHAR_COM/UART_FUN

_SEND_CHAR_COM/UART_FUN                       ----- -----

?C_INITSEG                                    ----- -----
LX51 LINKER/LOCATER V4.66.93.0                                                        04/11/2019  16:58:21  PAGE 24


  +--> KEYUPPRESSSHORTACTION/KEY_DATAS
  +--> KEYUPPRESSLONGFIRSTACTION/KEY_DATAS
  +--> KEYUPPRESSLONGREPEATACTION/KEY_DATAS
  +--> KEYDOWNPRESSSHORTACTION/KEY_DATAS
  +--> KEYDOWNPRESSLONGFIRSTACTION/KEY_DATAS
  +--> KEYDOWNPRESSLONGREPEATACTION/KEY_DATAS
  +--> KEYOKPRESSSHORTACTION/KEY_DATAS
  +--> KEYOKPRESSLONGFIRSTACTION/KEY_DATAS
  +--> KEYOKPRESSLONGREPEATACTION/KEY_DATAS
  +--> KEYMUTEPRESSSHORTACTION/KEY_DATAS
  +--> KEYMUTEPRESSLONGFIRSTACTION/KEY_DATAS
  +--> KEYMUTEPRESSLONGREPEATACTION/KEY_DATAS

KEYUPPRESSSHORTACTION/KEY_DATAS               ----- -----

KEYUPPRESSLONGFIRSTACTION/KEY_DATAS           ----- -----

KEYUPPRESSLONGREPEATACTION/KEY_DATAS          ----- -----

KEYDOWNPRESSSHORTACTION/KEY_DATAS             ----- -----

KEYDOWNPRESSLONGFIRSTACTION/KEY_DATAS         ----- -----

KEYDOWNPRESSLONGREPEATACTION/KEY_DATAS        ----- -----

KEYOKPRESSSHORTACTION/KEY_DATAS               ----- -----

KEYOKPRESSLONGFIRSTACTION/KEY_DATAS           ----- -----

KEYOKPRESSLONGREPEATACTION/KEY_DATAS          ----- -----

KEYMUTEPRESSSHORTACTION/KEY_DATAS             ----- -----
  +--> SOUND_ALARM_PAUSE_ENABLE/SOUND_TYPE
  +--> SOUND_ALARM_PAUSE_DISABLE/SOUND_TYPE

SOUND_ALARM_PAUSE_ENABLE/SOUND_TYPE           ----- -----

KEYMUTEPRESSLONGFIRSTACTION/KEY_DATAS         ----- -----

KEYMUTEPRESSLONGREPEATACTION/KEY_DATAS        ----- -----



PUBLIC SYMBOLS OF MODULE:  ..\OBJ\VHB15A (STC_EEPROM)


      VALUE       CLASS    TYPE      PUBLIC SYMBOL NAME
      =================================================
      02000196H   XDATA    BYTE      ?_DISP_DHM?BYTE
      02000112H   XDATA    BYTE      ?_DISP_FNT10X24?BYTE
      020001B4H   XDATA    BYTE      ?_DISP_FNT12X24?BYTE
      020001B4H   XDATA    BYTE      ?_DISP_FNT8X16?BYTE
      02000196H   XDATA    BYTE      ?_DISP_ICO_32X40?BYTE
      02000196H   XDATA    BYTE      ?_DISP_ICO_40X40?BYTE
      02000196H   XDATA    BYTE      ?_DISP_ICO_52X64?BYTE
      02000196H   XDATA    BYTE      ?_DISP_RH14X24?BYTE
      0200019CH   XDATA    BYTE      ?_DISP_RH_17X40?BYTE
      0200019CH   XDATA    BYTE      ?_DISP_TEMP_30X56?BYTE
      02000113H   XDATA    BYTE      ?_DISP_TEMP_38X64?BYTE
      02000197H   XDATA    BYTE      ?_DISP_TIME_10X16?BYTE
      02000196H   XDATA    BYTE      ?_Draw_Circle?BYTE
      02000196H   XDATA    BYTE      ?_Draw_Rectangle?BYTE
      0200019CH   XDATA    BYTE      ?_Draw_Rectangle_Real?BYTE
      02000121H   XDATA    BYTE      ?_DS18B20_CheckCrc?BYTE
      020001C4H   XDATA    BYTE      ?_LCD_CrtlWrite_Area?BYTE
LX51 LINKER/LOCATER V4.66.93.0                                                        04/11/2019  16:58:21  PAGE 25


      020001ACH   XDATA    BYTE      ?_LCD_ShowChar?BYTE
      02000197H   XDATA    BYTE      ?_LCD_ShowString?BYTE
      02000148H   XDATA    BYTE      ?_LCD_ShowxNum?BYTE
      02000119H   XDATA    BYTE      ?_SPI_Read_nBytes?BYTE
      02000119H   XDATA    BYTE      ?_SPI_Write_nBytes?BYTE
      010004B8H   CODE     ---       ?C?CCASE
      01000135H   CODE     ---       ?C?CLDOPTR
      0100011CH   CODE     ---       ?C?CLDPTR
      00000000H   NUMBER   ---       ?C?CODESEG
      010000F6H   CODE     ---       ?C?COPY
      01000174H   CODE     ---       ?C?CSTOPTR
      01000162H   CODE     ---       ?C?CSTPTR
      010004DEH   CODE     ---       ?C?ICALL
      010004E2H   CODE     ---       ?C?ICALL2
      01000233H   CODE     ---       ?C?IILDX
      01000196H   CODE     ---       ?C?IMUL
      01000249H   CODE     ---       ?C?LADD
      01000381H   CODE     ---       ?C?LAND
      010003F5H   CODE     ---       ?C?LLDXDATA
      01000401H   CODE     ---       ?C?LLDXDATA0
      01000264H   CODE     ---       ?C?LMUL
      0100039BH   CODE     ---       ?C?LNOT
      0100038EH   CODE     ---       ?C?LOR
      010003E2H   CODE     ---       ?C?LSHL
      01000419H   CODE     ---       ?C?LSTKXDATA
      0100040DH   CODE     ---       ?C?LSTXDATA
      01000256H   CODE     ---       ?C?LSUB
      0100044AH   CODE     ---       ?C?OFFXADD
      010005DFH   CODE     ---       ?C?PLDCODE
      010005CDH   CODE     ---       ?C?PLDIDATA
      01000488H   CODE     ---       ?C?PLDOPTR
      010005D6H   CODE     ---       ?C?PLDPDATA
      01000468H   CODE     ---       ?C?PLDPTR
      01000456H   CODE     ---       ?C?PLDXDATA
      0100045FH   CODE     ---       ?C?PSTXDATA
      010001FDH   CODE     ---       ?C?SIDIV
      010003A8H   CODE     ---       ?C?SLCMP
      010009ECH   CODE     ---       ?C?SLDIV
      010005B0H   CODE     ---       ?C?STRCPY
      010001A8H   CODE     ---       ?C?UIDIV
      010003BEH   CODE     ---       ?C?ULCMP
      010002EFH   CODE     ---       ?C?ULDIV
      010003CFH   CODE     ---       ?C?ULSHR
      00000000H   NUMBER   ---       ?C?XDATASEG
      010009A7H   CODE     ---       ?C_START
      01000000H   CODE     ---       ?C_STARTUP
      02000110H   XDATA    BYTE      ?Key_Multifun?BYTE
      01000016H   CODE     ---       _ABS
      0100A5E9H   CODE     ---       _Bit_is_one
      01007801H   CODE     ---       _delay_ms
      0100700BH   CODE     ---       _delay_us
      0100A7D4H   CODE     ---       _DISP_CQK25X24
      0100B4A8H   CODE     ---       _DISP_DHM
      01008326H   CODE     ---       _DISP_FNT10X24
      0100B194H   CODE     ---       _DISP_FNT12X24
      0100B2DEH   CODE     ---       _DISP_FNT8X16
      0100A7AFH   CODE     ---       _DISP_HEAT_36X24
      010097A0H   CODE     ---       _DISP_ICO_32X40
      0100B4CCH   CODE     ---       _DISP_ICO_40X40
      0100B4F3H   CODE     ---       _DISP_ICO_52X64
      0100A65AH   CODE     ---       _DISP_JQK41X16
      0100B42EH   CODE     ---       _DISP_RH14X24
      0100840AH   CODE     ---       _DISP_RH_17X40
      0100A804H   CODE     ---       _DISP_RTD28X24
      0100864AH   CODE     ---       _DISP_TEMP_30X56
LX51 LINKER/LOCATER V4.66.93.0                                                        04/11/2019  16:58:21  PAGE 26


      01008792H   CODE     ---       _DISP_TEMP_38X64
      01008810H   CODE     ---       _DISP_TIME_10X16
      0100A7E9H   CODE     ---       _DISP_VHB80_56X40
      0100A5FBH   CODE     ---       _DISP_VHB80_PIC
      0100B728H   CODE     ---       _Disp_WuChuang
      0100B714H   CODE     ---       _Disp_YouChuang
      0100883AH   CODE     ---       _DisPlayTime
      0100918AH   CODE     ---       _Draw_Circle
      0100690AH   CODE     ---       _Draw_Rectangle
      01006B6EH   CODE     ---       _Draw_Rectangle_Real
      0100C387H   CODE     ---       _DS18B20_CheckCrc
      010072CBH   CODE     ---       _DS18B20_WriteByte
      01009F4CH   CODE     ---       _EUSART_Write
      01009F33H   CODE     ---       _EUSART_Write_Str
      01006427H   CODE     ---       _HmiEnterToWorkStateFunc
      01006A23H   CODE     ---       _LCD_CrtlWrite_Area
      01006F84H   CODE     ---       _LCD_CtrlWrite_Color
      01006F97H   CODE     ---       _LCD_CtrlWrite_ILI9328
      0100B44BH   CODE     ---       _LCD_ShowChar
      01007B44H   CODE     ---       _LCD_ShowString
      0100AEEAH   CODE     ---       _LCD_ShowxNum
      01008E7AH   CODE     ---       _readEEone
      01008BA4H   CODE     ---       _RefreshRunTimeFunc
      010092B0H   CODE     ---       _RefreshTempHumidyFunc
      01008F6AH   CODE     ---       _RX8010_GetTime
      01008C91H   CODE     ---       _RX8010_SetTime
      01009BD2H   CODE     ---       _SPI_Erase_Sector
      01009C48H   CODE     ---       _SPI_Read_nBytes
      01009BEDH   CODE     ---       _SPI_Send_Byte
      01009C0BH   CODE     ---       _SPI_Write_nBytes
      010067F4H   CODE     ---       _STC_IAP_Byte_Program
      01006352H   CODE     ---       _STC_IAP_Byte_Read
      01006810H   CODE     ---       _STC_IAP_Sector_Erase
      010097FCH   CODE     ---       _WS_DelTaskIfg
      01008220H   CODE     ---       _WS_SetTaskIfg
      010099C0H   CODE     ---       _WS_TaskJudge
*SFR* 000000E0H   DATA     BYTE      ACC
      0100A02DH   CODE     ---       AlarmErrorFunc
      01009A24H   CODE     ---       AlarmErrorTask
      020000A0H   XDATA    BYTE      AlarmInfoIndex
      0200009FH   XDATA    BYTE      AlarmSoundPauseStatus
*SFR* 0000008EH   DATA     BYTE      AUXR
      02000360H   XDATA    BYTE      Back_Color
      02000071H   XDATA    LONG      CQK_Temp
      02000082H   XDATA    BYTE      CQK_Temp_Reach_Set_Cnt
      02000046H   XDATA    ---       data_flash
      0200004FH   XDATA    BYTE      defalut_mode
      02000083H   XDATA    WORD      Diplay_RTtemp
      02000339H   XDATA    BYTE      Display_Temp_Kind
      01006631H   CODE     ---       DrawWorkWindows
      0100726EH   CODE     ---       DS18B20_ReadByte
*SFR* 000000A8H.7 DATA     BIT       EA
      0100B7FDH   CODE     ---       Err_Base_HeaterWire_DISP_Enable
      0200008AH   XDATA    BYTE      ERR_Kind
*SFR* 000000A8H.1 DATA     BIT       ET0
      0100C5DAH   CODE     ---       EUSART_Initialize
      01009F67H   CODE     ---       EUSART_Read
      0100A87CH   CODE     ---       EUSART_Receive_ISR
      0100A89FH   CODE     ---       EUSART_Transmit_ISR
      0200024FH   XDATA    BYTE      eusartRxCount
*SFR* 000000A8H.2 DATA     BIT       EX1
      01007021H   CODE     ---       GetTemp_HpChamberFunc
      01009EA2H   CODE     ---       GetTemp_HpChamberTask
      01007428H   CODE     ---       GetTempHumidity_PatientFunc
      01009EB2H   CODE     ---       GetTempHumidity_PatientTask
LX51 LINKER/LOCATER V4.66.93.0                                                        04/11/2019  16:58:21  PAGE 27


      01000E34H   CONST    ---       gImage_FANEM
      01001668H   CONST    ---       gImage_LAN_SEL_EN
      010018BAH   CONST    ---       gImage_LAN_SEL_ES
      010019CEH   CONST    ---       gImage_LAN_SEL_FR
      0100175EH   CONST    ---       gImage_LAN_SEL_PT
      01000C99H   CONST    ---       gImage_LOGO1
      01000CF9H   CONST    ---       gImage_LOGO2
      01000D65H   CONST    ---       gImage_LOGO3
      01000DCBH   CONST    ---       gImage_LOGO4
      01000E04H   CONST    ---       gImage_LOGO5
      02000087H   XDATA    BYTE      HeaterPlate_State
      0100A8B2H   CODE     ---       HeaterPlateWireControlFunc
      01009025H   CODE     ---       HeaterPlateWireDriveFbTask
      010099F5H   CODE     ---       HeaterWireControlTask
      01009F8AH   CODE     ---       HeaterWireModeDetFunc
      01009A15H   CODE     ---       HeaterWireModeDetTask
      0100C50FH   CODE     ---       HmiFactoryDefault_Tik_Cnt
      01006BF7H   CODE     ---       HmiFactoryDefaultFunc
      01009E32H   CODE     ---       HmiFactoryDefaultSelTask
      0100C528H   CODE     ---       HmiNon_InvasiveSel_Tik_Cnt
      0100689EH   CODE     ---       HmiNon_InvasiveSelFunc
      01009E42H   CODE     ---       HmiNon_InvasiveSelTask
      01007BFFH   CODE     ---       HmiPostFunc
      0100C502H   CODE     ---       HmiPostFunc_Tik_Cnt
      01009E22H   CODE     ---       HmiPostTask
      0100B518H   CODE     ---       HmiRunningFunc
      010099E5H   CODE     ---       HmiRunningTask
      0100913FH   CODE     ---       HmiScreenSaverMode_Tik_Cnt
      01008683H   CODE     ---       HmiScreenSaverModeFunc
      01009E92H   CODE     ---       HmiScreenSaverModeTask
      0100782DH   CODE     ---       HmiServiceModeFunc
      010099B0H   CODE     ---       HmiServiceModeTask
      01007EC9H   CODE     ---       HmiSetInExpFunc
      01009E72H   CODE     ---       HmiSetInExpTask
      010094B1H   CODE     ---       HmiSetTempChamberFunc
      01009E62H   CODE     ---       HmiSetTempChamberTask
      010095F4H   CODE     ---       HmiSetTempPatientFunc
      01009E52H   CODE     ---       HmiSetTempPatientTask
      01008967H   CODE     ---       HmiSetTimeFunc
      01009E82H   CODE     ---       HmiSetTimeTask
      02000088H   XDATA    WORD      HP_CNT_Int
      0200008CH   XDATA    WORD      HP_CNT_Int_End_Rem
*SFR* 000000C3H   DATA     BYTE      IAP_ADDRH
*SFR* 000000C4H   DATA     BYTE      IAP_ADDRL
*SFR* 000000C5H   DATA     BYTE      IAP_CMD
*SFR* 000000C7H   DATA     BYTE      IAP_CONTR
*SFR* 000000C2H   DATA     BYTE      IAP_DATA
*SFR* 000000C6H   DATA     BYTE      IAP_TRIG
      01001500H   CONST    ---       ICO24X24
*SFR* 000000A8H   DATA     BYTE      IE
      02000067H   XDATA    BYTE      In_Exp_Ratio
      0100822CH   CODE     ---       Init_port
*SFR* 00000088H.2 DATA     BIT       IT1
      0200006FH   XDATA    INT       JEP_Temp
      020002F8H   XDATA    ---       Key_Down
      020002EAH   XDATA    ---       Key_Down_Element
      020002E9H   XDATA    BYTE      Key_Down_Tik
      0100C42DH   CODE     ---       Key_Down_TikFunc
      01009896H   CODE     ---       Key_Multifun
      02000324H   XDATA    ---       Key_Mute
      02000316H   XDATA    ---       Key_Mute_Element
      02000315H   XDATA    BYTE      Key_Mute_Tik
      0100C471H   CODE     ---       Key_Mute_TikFunc
      0200030EH   XDATA    ---       Key_OK
      02000300H   XDATA    ---       Key_OK_Element
LX51 LINKER/LOCATER V4.66.93.0                                                        04/11/2019  16:58:21  PAGE 28


      020002FFH   XDATA    BYTE      Key_OK_Tik
      0100C44FH   CODE     ---       Key_OK_TikFunc
      0200032BH   XDATA    BYTE      Key_State_Present
      020002E2H   XDATA    ---       Key_UP
      020002D4H   XDATA    ---       Key_UP_Element
      020002D3H   XDATA    BYTE      Key_UP_Tik
      0100C40BH   CODE     ---       Key_UP_TikFunc
      0100980BH   CODE     ---       KeyScanTask
      02000354H   XDATA    BYTE      KeyToFuncVal
      01006A88H   CODE     ---       LCD_Initial
      01007D92H   CODE     ---       LCD_Show_Verion
      0100B76EH   CODE     ---       Load_Settings_Before_Choice
      0100A6C5H   CODE     ---       LowPowerModeFunc
      01009A05H   CODE     ---       LowPowerModeTask
      0100B808H   CODE     ---       LowTempDet1SFunc
      01009A34H   CODE     ---       LowTempDet1STask
      01008013H   CODE     ---       main
      0100BB22H   CODE     ---       Main_Init
      01009020H   CODE     ---       Main_Tik_FunctionS
      01007FFDH   CODE     ---       Main_Tik_Tok_Initial_Fun
      0100807CH   CODE     ---       ManageTask
      01006368H   CODE     ---       Mem_Flash_Recall
      02000069H   XDATA    WORD      Micro_Temp_In
      0200006BH   XDATA    WORD      Micro_Temp_Out
      02000068H   XDATA    BYTE      Micro_Temp_Val
      020000A1H   XDATA    BYTE      No_HeatSensor_Times
      010012A8H   CONST    ---       Num8X16
      01001398H   CONST    ---       Num8X24
*SFR* 00000080H   DATA     BYTE      P0
*SFR* 00000090H.0 DATA     BIT       P10
*SFR* 00000090H.1 DATA     BIT       P11
*SFR* 00000090H.2 DATA     BIT       P12
*SFR* 00000090H.3 DATA     BIT       P13
*SFR* 00000090H.4 DATA     BIT       P14
*SFR* 00000090H.5 DATA     BIT       P15
*SFR* 00000090H.6 DATA     BIT       P16
*SFR* 00000090H.7 DATA     BIT       P17
*SFR* 00000092H   DATA     BYTE      P1M0
*SFR* 00000091H   DATA     BYTE      P1M1
*SFR* 000000A0H.0 DATA     BIT       P20
*SFR* 000000A0H.1 DATA     BIT       P21
*SFR* 000000A0H.2 DATA     BIT       P22
*SFR* 000000A0H.3 DATA     BIT       P23
*SFR* 000000A0H.5 DATA     BIT       P25
*SFR* 000000A0H.6 DATA     BIT       P26
*SFR* 000000A0H.7 DATA     BIT       P27
*SFR* 00000096H   DATA     BYTE      P2M0
*SFR* 00000095H   DATA     BYTE      P2M1
*SFR* 000000B0H.2 DATA     BIT       P32
*SFR* 000000B0H.4 DATA     BIT       P34
*SFR* 000000B0H.5 DATA     BIT       P35
*SFR* 000000B0H.6 DATA     BIT       P36
*SFR* 000000B0H.7 DATA     BIT       P37
*SFR* 000000B2H   DATA     BYTE      P3M0
*SFR* 000000B1H   DATA     BYTE      P3M1
*SFR* 000000C0H.0 DATA     BIT       P40
*SFR* 000000C0H.1 DATA     BIT       P41
*SFR* 000000C0H.2 DATA     BIT       P42
*SFR* 000000C0H.3 DATA     BIT       P43
*SFR* 000000C0H.4 DATA     BIT       P44
*SFR* 000000C0H.5 DATA     BIT       P45
*SFR* 000000C0H.6 DATA     BIT       P46
*SFR* 000000B4H   DATA     BYTE      P4M0
*SFR* 000000B3H   DATA     BYTE      P4M1
*SFR* 000000BBH   DATA     BYTE      P4SW
LX51 LINKER/LOCATER V4.66.93.0                                                        04/11/2019  16:58:21  PAGE 29


*SFR* 00000087H   DATA     BYTE      PCON
      0200035EH   XDATA    BYTE      Read_18B20_Value
      0200035FH   XDATA    BYTE      Read_18B20_Value2
      0100B6F0H   CODE     ---       Refresh_Work_Mode
      01008B63H   CODE     ---       RefreshRTCTimeFunc
      01009EE6H   CODE     ---       RefreshRTCTimeTask
      01009ED4H   CODE     ---       RefreshRunTimeTask
      01009EC2H   CODE     ---       RefreshTempHumidyTask
*SFR* 00000098H.0 DATA     BIT       RI
      0200006DH   XDATA    INT       RT_Temp
      02000081H   XDATA    BYTE      RT_Temp_Reach_Set_Cnt
      01008D38H   CODE     ---       RX8010_Initialize
      0200008EH   XDATA    ---       SaveData
      01009A62H   CODE     ---       SaveDateToFlashFunc
      01009A44H   CODE     ---       SaveDateToFlashTask
*SFR* 00000099H   DATA     BYTE      SBUF
*SFR* 00000098H   DATA     BYTE      SCON
      0100842DH   CODE     ---       ServiceMode_TempHumidy_Disp
      0200007BH   XDATA    WORD      Set_CQK_Temp
      0200007DH   XDATA    WORD      Set_CQK_WCTemp
      0200007FH   XDATA    WORD      Set_CQK_YCTemp
      02000075H   XDATA    INT       Set_RT_Temp
      02000077H   XDATA    WORD      Set_RT_WCTemp
      02000079H   XDATA    WORD      Set_RT_YCTemp
      01006839H   CODE     ---       Setting_write_to_flash
      01000A49H   CONST    ---       Shangbiao8
      02000050H   XDATA    ---       show_str
      0100C1F6H   CODE     ---       SHT21_ReadData
      0100741CH   CODE     ---       SHT21_WriteRH
      01007410H   CODE     ---       SHT21_WriteTemp
      0100C17FH   CODE     ---       Sound_Alarm_Pause_Disable
      0100C156H   CODE     ---       Sound_Alarm_Pause_Enable
      010097E3H   CODE     ---       Sound_Short
      01009152H   CODE     ---       Sound_Type_Drive
      0100C1D3H   CODE     ---       SPI_Get_Byte
      0100C1C9H   CODE     ---       SPI_init
      0100C1BFH   CODE     ---       SPI_Write_Disable
      01009DDBH   CODE     ---       SPI_Write_Enable
      0100912AH   CODE     ---       Sub_Tik_FunctionS
      0200009EH   XDATA    BYTE      Test_Mode_Dis_Jrp_Ctl
*SFR* 00000088H.5 DATA     BIT       TF0
*SFR* 0000008CH   DATA     BYTE      TH0
*SFR* 0000008DH   DATA     BYTE      TH1
*SFR* 00000098H.1 DATA     BIT       TI
      01008FF9H   CODE     ---       Timer_T0_INT_Main
*SFR* 0000008AH   DATA     BYTE      TL0
*SFR* 00000089H   DATA     BYTE      TMOD
*SFR* 00000088H.4 DATA     BIT       TR0
*SFR* 00000088H.6 DATA     BIT       TR1
      01009CBCH   CODE     ---       UART_RecData_Func
      01009A53H   CODE     ---       UartRecTask
*SFR* 000000C1H   DATA     BYTE      WDT_CONTR
      0200008BH   XDATA    BYTE      Wire_Mode_Mismatch
      02000085H   XDATA    BYTE      WireIn_State
      0100C11CH   CODE     ---       WireInOut_State_Confirm
      02000086H   XDATA    BYTE      WireOut_State
      0200004EH   XDATA    BYTE      Work_Mode
      02000353H   XDATA    BYTE      Work_State
      020000A2H   XDATA    WORD      Working_Normal
      020001CAH   XDATA    DWORD     WS_TaskIfg
      020001CEH   XDATA    ---       WS_TaskMap
      0200024EH   XDATA    BYTE      WS_TaskState



LX51 LINKER/LOCATER V4.66.93.0                                                        04/11/2019  16:58:21  PAGE 30


LINKER CODE PACKING SYMBOLS OF MODULE:  ..\OBJ\VHB15A (STC_EEPROM)


      VALUE       CLASS    TYPE      SYMBOL NAME
      ==========================================
      01007FCEH   CODE     PART      ?L?COM0001
      01007FCEH   CODE     END       ?L?COM0002
      01007FCEH   CODE     END       ?L?COM0003
      01007FCEH   CODE     END       ?L?COM0004
      010065F9H   CODE     PART      ?L?COM0005
      010065F9H   CODE     END       ?L?COM0006
      010065F9H   CODE     END       ?L?COM0007
      010065F9H   CODE     END       ?L?COM0008
      01008607H   CODE     PART      ?L?COM0009
      01008607H   CODE     END       ?L?COM000A
      01008607H   CODE     END       ?L?COM000B
      01008607H   CODE     END       ?L?COM000C
      01008607H   CODE     END       ?L?COM000D
      01008607H   CODE     END       ?L?COM000E
      01008607H   CODE     END       ?L?COM000F
      010067A9H   CODE     PART      ?L?COM0010
      010067A9H   CODE     END       ?L?COM0011
      010067A9H   CODE     END       ?L?COM0012
      010067A9H   CODE     END       ?L?COM0013
      010077BEH   CODE     PART      ?L?COM0014
      010077BEH   CODE     END       ?L?COM0015
      010077BEH   CODE     END       ?L?COM0016
      01007B1FH   CODE     PART      ?L?COM0017
      01007B1FH   CODE     END       ?L?COM0018
      01007B1FH   CODE     END       ?L?COM0019
      01007B1FH   CODE     END       ?L?COM001A
      01007B1FH   CODE     END       ?L?COM001B
      01007F99H   CODE     PART      ?L?COM001C
      01007F99H   CODE     END       ?L?COM001D
      01007F99H   CODE     END       ?L?COM001E
      01007F99H   CODE     END       ?L?COM001F
      01007DEBH   CODE     PART      ?L?COM0020
      01007DEBH   CODE     END       ?L?COM0021
      01007DEBH   CODE     END       ?L?COM0022
      01008633H   CODE     PART      ?L?COM0023
      01008633H   CODE     END       ?L?COM0024
      01008633H   CODE     END       ?L?COM0025
      01008633H   CODE     END       ?L?COM0026
      010067DDH   CODE     PART      ?L?COM0027
      010067DDH   CODE     END       ?L?COM0028
      010067DDH   CODE     END       ?L?COM0029
      0100AFBFH   CODE     PART      ?L?COM002A
      0100AFBFH   CODE     END       ?L?COM002B
      0100AFBFH   CODE     END       ?L?COM002C
      0100AFBFH   CODE     END       ?L?COM002D
      010087F2H   CODE     PART      ?L?COM002E
      010087F2H   CODE     END       ?L?COM002F
      010087F2H   CODE     END       ?L?COM0030
      010097F7H   CODE     BEGIN     ?L?COM0031
      01006F20H   CODE     PART      ?L?COM0032
      01006F20H   CODE     END       ?L?COM0033
      01006F20H   CODE     END       ?L?COM0034
      01006F20H   CODE     END       ?L?COM0035
      01006625H   CODE     PART      ?L?COM0036
      01006625H   CODE     END       ?L?COM0037
      01006625H   CODE     END       ?L?COM0038
      0100B402H   CODE     PART      ?L?COM0039
      0100B402H   CODE     END       ?L?COM003A
      0100B402H   CODE     END       ?L?COM003B
      01009788H   CODE     BEGIN     ?L?COM003C
LX51 LINKER/LOCATER V4.66.93.0                                                        04/11/2019  16:58:21  PAGE 31


      01009788H   CODE     END       ?L?COM003D
      01009788H   CODE     END       ?L?COM003E
      01009788H   CODE     END       ?L?COM003F
      0100BB12H   CODE     PART      ?L?COM0040
      0100BB12H   CODE     END       ?L?COM0041
      0100BB12H   CODE     END       ?L?COM0042
      0100B741H   CODE     PART      ?L?COM0043
      0100B741H   CODE     END       ?L?COM0044
      0100B741H   CODE     END       ?L?COM0045
      01008950H   CODE     PART      ?L?COM0046
      01008950H   CODE     END       ?L?COM0047
      01008950H   CODE     END       ?L?COM0048
      0100C4CDH   CODE     PART      ?L?COM0049
      0100C4CDH   CODE     END       ?L?COM004A
      01007778H   CODE     PART      ?L?COM004B
      01007778H   CODE     END       ?L?COM004C
      01007778H   CODE     END       ?L?COM004D
      01009282H   CODE     PART      ?L?COM004E
      01009282H   CODE     END       ?L?COM004F
      0100921EH   CODE     PART      ?L?COM0050
      0100921EH   CODE     END       ?L?COM0051
      0100921EH   CODE     END       ?L?COM0052
      0100921EH   CODE     END       ?L?COM0053
      01006A57H   CODE     BEGIN     ?L?COM0054
      01009252H   CODE     PART      ?L?COM0055
      01009252H   CODE     END       ?L?COM0056
      01009C7FH   CODE     PART      ?L?COM0057
      0100866DH   CODE     PART      ?L?COM0058
      0100866DH   CODE     END       ?L?COM0059
      0100866DH   CODE     END       ?L?COM005A
      01006FFFH   CODE     BEGIN     ?L?COM005B
      01006FFFH   CODE     END       ?L?COM005C
      01006FFFH   CODE     END       ?L?COM005D
      01007DDDH   CODE     PART      ?L?COM005E
      01007DDDH   CODE     END       ?L?COM005F
      010099AAH   CODE     PART      ?L?COM0060
      01006F50H   CODE     BEGIN     ?L?COM0061
      01006F50H   CODE     END       ?L?COM0062
      0100BADEH   CODE     PART      ?L?COM0063
      01008944H   CODE     PART      ?L?COM0064
      01008944H   CODE     END       ?L?COM0065
      01008944H   CODE     END       ?L?COM0066
      01008944H   CODE     END       ?L?COM0067
      010077D2H   CODE     PART      ?L?COM0068
      010077D2H   CODE     END       ?L?COM0069
      010077D2H   CODE     END       ?L?COM006A
      0100A5DCH   CODE     PART      ?L?COM006B
      0100A5DCH   CODE     END       ?L?COM006C
      01007EB2H   CODE     PART      ?L?COM006D
      01007EB2H   CODE     END       ?L?COM006E
      01007EB2H   CODE     END       ?L?COM006F
      0100B174H   CODE     PART      ?L?COM0070
      0100B174H   CODE     END       ?L?COM0071
      0100B174H   CODE     END       ?L?COM0072
      0100B174H   CODE     END       ?L?COM0073
      0100AFD0H   CODE     PART      ?L?COM0074
      0100AFD0H   CODE     END       ?L?COM0075
      01000003H   CODE     PART      ?L?COM0076
      01007406H   CODE     PART      ?L?COM0077
      01007406H   CODE     END       ?L?COM0078
      0100776CH   CODE     PART      ?L?COM0079
      0100776CH   CODE     END       ?L?COM007A
      0100776CH   CODE     END       ?L?COM007B
      0100776CH   CODE     END       ?L?COM007C
      01009BB5H   CODE     PART      ?L?COM007D
LX51 LINKER/LOCATER V4.66.93.0                                                        04/11/2019  16:58:21  PAGE 32


      01009BB5H   CODE     END       ?L?COM007E
      01009BB5H   CODE     END       ?L?COM007F
      0100A5C4H   CODE     PART      ?L?COM0080
      0100A5C4H   CODE     END       ?L?COM0081
      0100A5C4H   CODE     END       ?L?COM0082
      01009972H   CODE     PART      ?L?COM0083
      01009972H   CODE     END       ?L?COM0084
      0100C5F7H   CODE     PART      ?L?COM0085
      0100C5F7H   CODE     END       ?L?COM0086
      0100C5F7H   CODE     END       ?L?COM0087
      0100C610H   CODE     PART      ?L?COM0088
      0100C610H   CODE     END       ?L?COM0089
      0100BB04H   CODE     PART      ?L?COM008A
      0100BB04H   CODE     END       ?L?COM008B
      010094A4H   CODE     PART      ?L?COM008C
      010094A4H   CODE     END       ?L?COM008D
      0100B47DH   CODE     PART      ?L?COM008E
      0100B47DH   CODE     END       ?L?COM008F
      010097CDH   CODE     PART      ?L?COM0090
      010097CDH   CODE     END       ?L?COM0091
      01008C50H   CODE     PART      ?L?COM0092
      01008C50H   CODE     END       ?L?COM0093
      01006FBDH   CODE     PART      ?L?COM0094
      01006FBDH   CODE     END       ?L?COM0095
      01006FBDH   CODE     END       ?L?COM0096
      0100A676H   CODE     PART      ?L?COM0097
      0100A676H   CODE     END       ?L?COM0098
      0100A676H   CODE     END       ?L?COM0099
      0100C630H   CODE     PART      ?L?COM009A
      0100C630H   CODE     END       ?L?COM009B
      01008B5AH   CODE     PART      ?L?COM009C
      01008B5AH   CODE     END       ?L?COM009D
      01009F04H   CODE     PART      ?L?COM009E
      0100A7C4H   CODE     PART      ?L?COM009F
      0100A5D2H   CODE     PART      ?L?COM00A0
      0100C64AH   CODE     PART      ?L?COM00A1
      0100C64AH   CODE     END       ?L?COM00A2
      01008C65H   CODE     PART      ?L?COM00A3
      01008C70H   CODE     PART      ?L?COM00A4
      0100B66BH   CODE     PART      ?L?COM00A5
      0100B66BH   CODE     END       ?L?COM00A6
      0100BE53H   CODE     PART      ?L?COM00A7
      0100AFDCH   CODE     PART      ?L?COM00A8
      0100AFDCH   CODE     END       ?L?COM00A9
      01009F1CH   CODE     PART      ?L?COM00AA
      01009F1CH   CODE     END       ?L?COM00AB
      0100C65BH   CODE     PART      ?L?COM00AC
      0100C65BH   CODE     END       ?L?COM00AD
      01008B9BH   CODE     PART      ?L?COM00AE
      01008B9BH   CODE     END       ?L?COM00AF
      01009CA8H   CODE     PART      ?L?COM00B0
      010087CBH   CODE     PART      ?L?COM00B1
      010087CBH   CODE     END       ?L?COM00B2
      0100B68EH   CODE     PART      ?L?COM00B3
      0100B68EH   CODE     END       ?L?COM00B4
      01008DF5H   CODE     PART      ?L?COM00B5
      01008DF5H   CODE     END       ?L?COM00B6
      01008DF5H   CODE     END       ?L?COM00B7
      01008DF5H   CODE     END       ?L?COM00B8
      0100B6CEH   CODE     PART      ?L?COM00B9
      0100BE80H   CODE     PART      ?L?COM00BA
      0100BE80H   CODE     END       ?L?COM00BB
      010072BBH   CODE     PART      ?L?COM00BC
      0100997CH   CODE     PART      ?L?COM00BD
      0100997CH   CODE     END       ?L?COM00BE
LX51 LINKER/LOCATER V4.66.93.0                                                        04/11/2019  16:58:21  PAGE 33


      0100997CH   CODE     END       ?L?COM00BF
      010095E9H   CODE     PART      ?L?COM00C0
      010095E9H   CODE     END       ?L?COM00C1
      0100AFE8H   CODE     PART      ?L?COM00C2
      01007DD5H   CODE     PART      ?L?COM00C3
      0100C2F2H   CODE     PART      ?L?COM00C4
      0100C2F2H   CODE     END       ?L?COM00C5
      0100C672H   CODE     PART      ?L?COM00C6
      0100C672H   CODE     END       ?L?COM00C7
      01008784H   CODE     BEGIN     ?L?COM00C8
      01008784H   CODE     END       ?L?COM00C9
      01008F01H   CODE     PART      ?L?COM00CA
      01008F01H   CODE     END       ?L?COM00CB
      01006824H   CODE     PART      ?L?COM00CC
      010087E1H   CODE     PART      ?L?COM00CD
      010087E1H   CODE     END       ?L?COM00CE
      010077AEH   CODE     PART      ?L?COM00CF
      010077AEH   CODE     END       ?L?COM00D0
      01009245H   CODE     PART      ?L?COM00D1
      01009245H   CODE     END       ?L?COM00D2
      01007FC2H   CODE     PART      ?L?COM00D3
      01007FC2H   CODE     END       ?L?COM00D4
      01007FC2H   CODE     END       ?L?COM00D5
      0100999CH   CODE     PART      ?L?COM00D6
      0100999CH   CODE     END       ?L?COM00D7
      0100B4E9H   CODE     PART      ?L?COM00D8
      0100C686H   CODE     PART      ?L?COM00D9
      0100C686H   CODE     END       ?L?COM00DA
      01006FC9H   CODE     PART      ?L?COM00DB
      0100C69EH   CODE     PART      ?L?COM00DC
      0100C69EH   CODE     END       ?L?COM00DD
      0100BFB1H   CODE     PART      ?L?COM00DE
      0100BFB1H   CODE     END       ?L?COM00DF
      0100BFB1H   CODE     END       ?L?COM00E0
      01008644H   CODE     BEGIN     ?L?COM00E1
      01008644H   CODE     END       ?L?COM00E2
      01009F5CH   CODE     PART      ?L?COM00E3
      01009F5CH   CODE     END       ?L?COM00E4
      010097BFH   CODE     PART      ?L?COM00E5
      010097BFH   CODE     END       ?L?COM00E6
      0100A68EH   CODE     PART      ?L?COM00E7
      0100A68EH   CODE     END       ?L?COM00E8
      0100BE5EH   CODE     PART      ?L?COM00E9
      0100BE5EH   CODE     END       ?L?COM00EA
      0100BF49H   CODE     PART      ?L?COM00EB
      0100BF49H   CODE     END       ?L?COM00EC
      0100C6AEH   CODE     PART      ?L?COM00ED
      0100C6AEH   CODE     END       ?L?COM00EE
      0100C6B8H   CODE     PART      ?L?COM00EF
      0100C6B8H   CODE     END       ?L?COM00F0
      01009991H   CODE     PART      ?L?COM00F1
      01009FEBH   CODE     PART      ?L?COM00F2
      01009FEBH   CODE     END       ?L?COM00F3
      0100A686H   CODE     PART      ?L?COM00F4
      0100A686H   CODE     END       ?L?COM00F5
      0100B3B8H   CODE     PART      ?L?COM00F6
      010087C3H   CODE     PART      ?L?COM00F7
      01006FEFH   CODE     PART      ?L?COM00F8
      01006B6AH   CODE     BEGIN     ?L?COM00F9
      0100880CH   CODE     BEGIN     ?L?COM00FA
      01009DC5H   CODE     PART      ?L?COM00FB
      0100C6CBH   CODE     PART      ?L?COM00FC
      0100C6CBH   CODE     END       ?L?COM00FD
      0100B677H   CODE     PART      ?L?COM00FE
      0100B677H   CODE     END       ?L?COM00FF
LX51 LINKER/LOCATER V4.66.93.0                                                        04/11/2019  16:58:21  PAGE 34


      0100B3C6H   CODE     PART      ?L?COM0100
      0100B3C6H   CODE     END       ?L?COM0101
      01006FD4H   CODE     PART      ?L?COM0102
      01006FD4H   CODE     END       ?L?COM0103
      01008319H   CODE     PART      ?L?COM0104
      01008319H   CODE     END       ?L?COM0105
      0100C6DCH   CODE     PART      ?L?COM0106
      01009DB9H   CODE     PART      ?L?COM0107
      0100C6F2H   CODE     PART      ?L?COM0108
      0100C6F2H   CODE     END       ?L?COM0109
      0100C4F2H   CODE     PART      ?L?COM010A
      0100C4F2H   CODE     END       ?L?COM010B
      01009275H   CODE     PART      ?L?COM010C
      01006901H   CODE     BEGIN     ?L?COM010D
      0100C2D9H   CODE     PART      ?L?COM010E
      01009890H   CODE     BEGIN     ?L?COM010F
      01009987H   CODE     PART      ?L?COM0110
      0100C10FH   CODE     PART      ?L?COM0111
      0100C10FH   CODE     END       ?L?COM0112
      01008C82H   CODE     PART      ?L?COM0113
      01008C82H   CODE     END       ?L?COM0114
      0100C6FDH   CODE     PART      ?L?COM0115
      0100B490H   CODE     PART      ?L?COM0116
      01007B3AH   CODE     BEGIN     ?L?COM0117
      01007B3AH   CODE     END       ?L?COM0118
      01008DFFH   CODE     PART      ?L?COM0119
      0100B2D6H   CODE     PART      ?L?COM011A
      010073FDH   CODE     PART      ?L?COM011B
      0100C712H   CODE     PART      ?L?COM011C
      0100C712H   CODE     END       ?L?COM011D
      0100A768H   CODE     PART      ?L?COM011E
      0100A768H   CODE     END       ?L?COM011F
      0100B6BBH   CODE     PART      ?L?COM0120
      01009FFBH   CODE     PART      ?L?COM0121
      01009DACH   CODE     PART      ?L?COM0122
      01009DACH   CODE     END       ?L?COM0123
      01007FB9H   CODE     PART      ?L?COM0124
      01007FF6H   CODE     PART      ?L?COM0125
      01008C5EH   CODE     PART      ?L?COM0126
      01009C39H   CODE     PART      ?L?COM0127
      01009C39H   CODE     END       ?L?COM0128
      0100BF65H   CODE     PART      ?L?COM0129
      0100C71FH   CODE     PART      ?L?COM012A
      0100C71FH   CODE     END       ?L?COM012B
      01006FE0H   CODE     PART      ?L?COM012C
      01006FE0H   CODE     END       ?L?COM012D
      0100C72BH   CODE     PART      ?L?COM012E
      0100C72BH   CODE     END       ?L?COM012F
      0100C72BH   CODE     END       ?L?COM0130
      010077F7H   CODE     PART      ?L?COM0131
      010077F7H   CODE     END       ?L?COM0132
      0100B3F0H   CODE     PART      ?L?COM0133
      0100BFE8H   CODE     PART      ?L?COM0134
      01006FB0H   CODE     PART      ?L?COM0135
      01006FB0H   CODE     END       ?L?COM0136
      010087D6H   CODE     PART      ?L?COM0137
      010087D6H   CODE     END       ?L?COM0138
      0100C735H   CODE     PART      ?L?COM0139
      01006FB5H   CODE     PART      ?L?COM013A
      01006FB5H   CODE     END       ?L?COM013B
      0100C746H   CODE     PART      ?L?COM013C
      0100A7A1H   CODE     PART      ?L?COM013D
      0100A7A1H   CODE     END       ?L?COM013E
      0100B058H   CODE     PART      ?L?COM013F
      0100B058H   CODE     END       ?L?COM0140
LX51 LINKER/LOCATER V4.66.93.0                                                        04/11/2019  16:58:21  PAGE 35


      0100C757H   CODE     PART      ?L?COM0141
      0100AFF7H   CODE     PART      ?L?COM0142
      0100BF5EH   CODE     PART      ?L?COM0143
      0100A6BAH   CODE     PART      ?L?COM0144
      0100A6BAH   CODE     END       ?L?COM0145
      01008FE9H   CODE     PART      ?L?COM0146
      0100C4C4H   CODE     PART      ?L?COM0147
      0100C768H   CODE     PART      ?L?COM0148
      0100C770H   CODE     PART      ?L?COM0149
      0100C777H   CODE     PART      ?L?COM014A
      0100C780H   CODE     PART      ?L?COM014B
      0100C78AH   CODE     PART      ?L?COM014C
      0100AEE4H   CODE     BEGIN     ?L?COM014D
      0100C791H   CODE     PART      ?L?COM014E
      0100C791H   CODE     END       ?L?COM014F
      0100C799H   CODE     PART      ?L?COM0150
      0100B3E1H   CODE     PART      ?L?COM0151
      0100C7A8H   CODE     PART      ?L?COM0152
      01009E13H   CODE     PART      ?L?COM0153
      010077E8H   CODE     PART      ?L?COM0154
      010077E8H   CODE     END       ?L?COM0155
      0100C7B7H   CODE     PART      ?L?COM0156
      0100BF85H   CODE     PART      ?L?COM0157
      0100C7C6H   CODE     PART      ?L?COM0158
      0100BF8EH   CODE     PART      ?L?COM0159
      0100B6AEH   CODE     PART      ?L?COM015A
      0100C4E9H   CODE     PART      ?L?COM015B
      0100C7D3H   CODE     PART      ?L?COM015C
      0100BFC8H   CODE     PART      ?L?COM015D
      0100BFA3H   CODE     PART      ?L?COM015E
      0100C7DCH   CODE     PART      ?L?COM015F
      01009E05H   CODE     PART      ?L?COM0160
      0100C7EAH   CODE     PART      ?L?COM0161
      0100A66FH   CODE     PART      ?L?COM0162
      0100C7F8H   CODE     PART      ?L?COM0163
      0100C7FFH   CODE     PART      ?L?COM0164
      0100B7C3H   CODE     PART      ?L?COM0165
      0100C80CH   CODE     PART      ?L?COM0166
      0100C2E5H   CODE     PART      ?L?COM0167
      0100BF97H   CODE     PART      ?L?COM0168
      0100B7D0H   CODE     PART      ?L?COM0169
      0100B7D7H   CODE     PART      ?L?COM016A
      0100A787H   CODE     PART      ?L?COM016B
      0100A794H   CODE     PART      ?L?COM016C
      0100B167H   CODE     PART      ?L?COM016D
      0100AFF0H   CODE     PART      ?L?COM016E
      0100C818H   CODE     PART      ?L?COM016F
      010072C3H   CODE     BEGIN     ?L?COM0170
      0100C00FH   CODE     PART      ?L?COM0171
      0100B7F4H   CODE     PART      ?L?COM0172
      0100B7F4H   CODE     END       ?L?COM0173
      010087E9H   CODE     PART      ?L?COM0174
      010087E9H   CODE     END       ?L?COM0175
      0100C825H   CODE     PART      ?L?COM0176
      0100C82DH   CODE     PART      ?L?COM0177
      01009F0BH   CODE     PART      ?L?COM0178
      0100C839H   CODE     PART      ?L?COM0179
      010097F0H   CODE     PART      ?L?COM017A
      0100B7ECH   CODE     PART      ?L?COM017B
      0100C841H   CODE     PART      ?L?COM017C
      0100C849H   CODE     PART      ?L?COM017D
      0100C855H   CODE     PART      ?L?COM017E
      0100C861H   CODE     PART      ?L?COM017F
      01007358H   CODE     BEGIN     ?L?COM0180
      0100B3D9H   CODE     PART      ?L?COM0181
LX51 LINKER/LOCATER V4.66.93.0                                                        04/11/2019  16:58:21  PAGE 36


      0100B3A0H   CODE     PART      ?L?COM0182
      0100B3A8H   CODE     PART      ?L?COM0183
      0100B3B0H   CODE     PART      ?L?COM0184
      0100C86DH   CODE     PART      ?L?COM0185
      01006FE8H   CODE     PART      ?L?COM0186
      0100C879H   CODE     PART      ?L?COM0187
      0100BB83H   CODE     PART      ?L?COM0188
      01009FF3H   CODE     PART      ?L?COM0189
      0100BF6DH   CODE     PART      ?L?COM018A
      0100A730H   CODE     PART      ?L?COM018B
      0100C885H   CODE     PART      ?L?COM018C
      0100A6AAH   CODE     PART      ?L?COM018D
      0100A738H   CODE     PART      ?L?COM018E
      01009C44H   CODE     BEGIN     ?L?COM018F
      0100C4BCH   CODE     PART      ?L?COM0190
      0100C4BCH   CODE     END       ?L?COM0191
      0100B4C5H   CODE     BEGIN     ?L?COM0192
      0100C88DH   CODE     PART      ?L?COM0193
      0100A8A7H   CODE     PART      ?L?COM0194
      0100C897H   CODE     PART      ?L?COM0195
      0100C8A2H   CODE     PART      ?L?COM0196
      01009DEEH   CODE     PART      ?L?COM0197
      0100C8ACH   CODE     PART      ?L?COM0198
      0100B736H   CODE     PART      ?L?COM0199
      01006A4CH   CODE     PART      ?L?COM019A
      0100BB8BH   CODE     PART      ?L?COM019B
      0100BB8BH   CODE     END       ?L?COM019C
      0100A77CH   CODE     PART      ?L?COM019D
      0100C8B7H   CODE     PART      ?L?COM019E
      010077F0H   CODE     PART      ?L?COM019F
      0100C8C2H   CODE     PART      ?L?COM01A0
      01008404H   CODE     BEGIN     ?L?COM01A1
      0100C8CCH   CODE     PART      ?L?COM01A2
      0100C8D5H   CODE     PART      ?L?COM01A3
      0100BFC1H   CODE     PART      ?L?COM01A4
      01008FD5H   CODE     PART      ?L?COM01A5
      0100C8DFH   CODE     PART      ?L?COM01A6
      0100B7DEH   CODE     PART      ?L?COM01A7
      0100C8E8H   CODE     PART      ?L?COM01A8
      0100681DH   CODE     PART      ?L?COM01A9
      0100C8EFH   CODE     PART      ?L?COM01AA
      01007FE9H   CODE     PART      ?L?COM01AB
      0100C8F8H   CODE     PART      ?L?COM01AC
      0100C901H   CODE     PART      ?L?COM01AD
      0100C90AH   CODE     PART      ?L?COM01AE
      0100B722H   CODE     BEGIN     ?L?COM01AF
      0100C911H   CODE     PART      ?L?COM01B0
      0100B160H   CODE     PART      ?L?COM01B1
      01008F62H   CODE     PART      ?L?COM01B2
      01008FF0H   CODE     PART      ?L?COM01B3
      01009F12H   CODE     PART      ?L?COM01B4
      0100A7FEH   CODE     BEGIN     ?L?COM01B5
      0100A7CEH   CODE     BEGIN     ?L?COM01B6
      0100C91AH   CODE     PART      ?L?COM01B7
      0100BE70H   CODE     PART      ?L?COM01B8
      0100BE79H   CODE     PART      ?L?COM01B9
      0100C924H   CODE     PART      ?L?COM01BA
      01009FD6H   CODE     PART      ?L?COM01BB
      01009FDDH   CODE     PART      ?L?COM01BC
      0100A69CH   CODE     PART      ?L?COM01BD
      0100A5F8H   CODE     BEGIN     ?L?COM01BE
      0100A6A3H   CODE     PART      ?L?COM01BF
      01009FE4H   CODE     PART      ?L?COM01C0
      0100A772H   CODE     PART      ?L?COM01C1
      0100C92EH   CODE     PART      ?L?COM01C2
LX51 LINKER/LOCATER V4.66.93.0                                                        04/11/2019  16:58:21  PAGE 37


      01008C7BH   CODE     PART      ?L?COM01C3
      010097DCH   CODE     PART      ?L?COM01C4
      01009DE4H   CODE     PART      ?L?COM01C5
      0100C938H   CODE     PART      ?L?COM01C6
      0100C942H   CODE     PART      ?L?COM01C7
      0100C94AH   CODE     PART      ?L?COM01C8
      0100A740H   CODE     PART      ?L?COM01C9
      0100BAECH   CODE     PART      ?L?COM01CA
      01006835H   CODE     BEGIN     ?L?COM01CB
      0100C952H   CODE     PART      ?L?COM01CC
      0100C95AH   CODE     PART      ?L?COM01CD
      0100C962H   CODE     PART      ?L?COM01CE
      01007FF0H   CODE     PART      ?L?COM01CF
      0100BFD0H   CODE     PART      ?L?COM01D0
      01009186H   CODE     BEGIN     ?L?COM01D1
      0100C96AH   CODE     PART      ?L?COM01D2
      0100C972H   CODE     PART      ?L?COM01D3
      01006423H   CODE     BEGIN     ?L?COM01D4
      0100C97AH   CODE     PART      ?L?COM01D5
      0100C982H   CODE     PART      ?L?COM01D6
      0100C98AH   CODE     PART      ?L?COM01D7
      0100B7E5H   CODE     PART      ?L?COM01D8
      0100B686H   CODE     PART      ?L?COM01D9
      01006FF7H   CODE     PART      ?L?COM01DA
      0100C992H   CODE     PART      ?L?COM01DB
      01008FDBH   CODE     PART      ?L?COM01DC
      0100C999H   CODE     PART      ?L?COM01DD
      0100B4A4H   CODE     BEGIN     ?L?COM01DE
      0100917FH   CODE     PART      ?L?COM01DF
      0100C9A1H   CODE     PART      ?L?COM01E0
      0100C9A9H   CODE     PART      ?L?COM01E1
      0100B475H   CODE     PART      ?L?COM01E2
      0100B69EH   CODE     PART      ?L?COM01E3
      0100B6A6H   CODE     PART      ?L?COM01E4
      0100A6B2H   CODE     PART      ?L?COM01E5
      0100C9B1H   CODE     PART      ?L?COM01E6
      0100C9B9H   CODE     PART      ?L?COM01E7
      0100BFD8H   CODE     PART      ?L?COM01E8
      0100BFE0H   CODE     PART      ?L?COM01E9
      0100C107H   CODE     PART      ?L?COM01EA
      0100BF75H   CODE     PART      ?L?COM01EB
      0100BF7DH   CODE     PART      ?L?COM01EC
      0100C9C1H   CODE     PART      ?L?COM01ED
      01009DD3H   CODE     PART      ?L?COM01EE
      0100BAF4H   CODE     PART      ?L?COM01EF
      0100BAFCH   CODE     PART      ?L?COM01F0
      0100A748H   CODE     PART      ?L?COM01F1
      0100A750H   CODE     PART      ?L?COM01F2
      0100A758H   CODE     PART      ?L?COM01F3
      0100C9C9H   CODE     PART      ?L?COM01F4
      0100A760H   CODE     PART      ?L?COM01F5
      0100C9D1H   CODE     PART      ?L?COM01F6
      0100C9D9H   CODE     PART      ?L?COM01F7
      0100C9E1H   CODE     PART      ?L?COM01F8
      0100C9E9H   CODE     PART      ?L?COM01F9
      0100C9F1H   CODE     PART      ?L?COM01FA
      0100C9F9H   CODE     PART      ?L?COM01FB
      0100CA00H   CODE     PART      ?L?COM01FC



SYMBOL TABLE OF MODULE:  ..\OBJ\VHB15A (STC_EEPROM)

      VALUE       REP       CLASS    TYPE      SYMBOL NAME
      ====================================================
LX51 LINKER/LOCATER V4.66.93.0                                                        04/11/2019  16:58:21  PAGE 38


      ---         MODULE    ---      ---       STC_EEPROM
      01006810H   PUBLIC    CODE     ---       _STC_IAP_Sector_Erase
      010067F4H   PUBLIC    CODE     ---       _STC_IAP_Byte_Program
      01006352H   PUBLIC    CODE     ---       _STC_IAP_Byte_Read
      000000C2H   SFRSYM    DATA     BYTE      IAP_DATA
      000000C3H   SFRSYM    DATA     BYTE      IAP_ADDRH
      000000C4H   SFRSYM    DATA     BYTE      IAP_ADDRL
      000000C5H   SFRSYM    DATA     BYTE      IAP_CMD
      000000C6H   SFRSYM    DATA     BYTE      IAP_TRIG
      000000C7H   SFRSYM    DATA     BYTE      IAP_CONTR
      02000355H   SYMBOL    XDATA    ---       my_unTemp16
      01006804H   SYMBOL    CODE     ---       IAP_Disable

      01006352H   BLOCK     CODE     ---       LVL=0
      01006352H   LINE      ---      ---       #33
      01006352H   LINE      ---      ---       #34
      01006352H   LINE      ---      ---       #35
      01006355H   LINE      ---      ---       #36
      01006358H   LINE      ---      ---       #37
      0100635BH   LINE      ---      ---       #39
      0100635EH   LINE      ---      ---       #43
      01006361H   LINE      ---      ---       #45
      01006362H   LINE      ---      ---       #47
      01006365H   LINE      ---      ---       #49
      01006367H   LINE      ---      ---       #50
      00000006H   SYMBOL    DATA     WORD      add
      ---         BLOCKEND  ---      ---       LVL=0

      010067F4H   BLOCK     CODE     ---       LVL=0
      010067F4H   LINE      ---      ---       #52
      010067F4H   LINE      ---      ---       #53
      010067F4H   LINE      ---      ---       #54
      010067F7H   LINE      ---      ---       #55
      010067FAH   LINE      ---      ---       #57
      010067FDH   LINE      ---      ---       #61
      01006800H   LINE      ---      ---       #63
      01006803H   LINE      ---      ---       #65
      00000006H   SYMBOL    DATA     WORD      add
      00000005H   SYMBOL    DATA     BYTE      ch
      ---         BLOCKEND  ---      ---       LVL=0

      01006810H   BLOCK     CODE     ---       LVL=0
      01006810H   LINE      ---      ---       #70
      01006810H   LINE      ---      ---       #71
      01006810H   LINE      ---      ---       #72
      01006813H   LINE      ---      ---       #73
      01006816H   LINE      ---      ---       #75
      01006818H   LINE      ---      ---       #79
      0100681AH   LINE      ---      ---       #81
      0100681BH   LINE      ---      ---       #83
      00000006H   SYMBOL    DATA     WORD      add
      ---         BLOCKEND  ---      ---       LVL=0

      01006804H   BLOCK     CODE     ---       LVL=0
      01006804H   LINE      ---      ---       #86
      01006804H   LINE      ---      ---       #87
      01006804H   LINE      ---      ---       #88
      01006807H   LINE      ---      ---       #89
      01006809H   LINE      ---      ---       #90
      0100680BH   LINE      ---      ---       #91
      0100680DH   LINE      ---      ---       #92
      0100680FH   LINE      ---      ---       #93
      ---         BLOCKEND  ---      ---       LVL=0

      ---         MODULE    ---      ---       DELAY
LX51 LINKER/LOCATER V4.66.93.0                                                        04/11/2019  16:58:21  PAGE 39


      01007801H   PUBLIC    CODE     ---       _delay_ms
      0100700BH   PUBLIC    CODE     ---       _delay_us

      01006FFFH   BLOCK     CODE     ---       LVL=0
      0100700BH   LINE      ---      ---       #4
      0100700BH   LINE      ---      ---       #5
      0100700BH   LINE      ---      ---       #6
      0100701DH   LINE      ---      ---       #7
      0100701DH   LINE      ---      ---       #8
      0100701EH   LINE      ---      ---       #9
      01007020H   LINE      ---      ---       #10
      01006FFFH   SYMBOL    CODE     NEAR LAB  ?L?COM005B
      00000006H   SYMBOL    DATA     WORD      t
      ---         BLOCKEND  ---      ---       LVL=0

      01007801H   BLOCK     CODE     ---       LVL=0
      01007801H   LINE      ---      ---       #13
      01007801H   LINE      ---      ---       #14
      00000006H   SYMBOL    DATA     WORD      t
      01007801H   BLOCK     CODE     NEAR LAB  LVL=1
      01007801H   LINE      ---      ---       #16
      01007813H   LINE      ---      ---       #17
      01007813H   LINE      ---      ---       #18
      01007817H   LINE      ---      ---       #19
      01007829H   LINE      ---      ---       #20
      01007829H   LINE      ---      ---       #21
      0100782AH   LINE      ---      ---       #22
      0100782CH   LINE      ---      ---       #23
      0100782CH   LINE      ---      ---       #24
      00000004H   SYMBOL    DATA     WORD      i
      ---         BLOCKEND  CODE     ---       LVL=1
      ---         BLOCKEND  CODE     ---       LVL=0

      ---         MODULE    ---      ---       MAIN_TIK_TOK
      01008FF9H   PUBLIC    CODE     ---       Timer_T0_INT_Main
      01007FFDH   PUBLIC    CODE     ---       Main_Tik_Tok_Initial_Fun
      0000008EH   SFRSYM    DATA     BYTE      AUXR
      00000089H   SFRSYM    DATA     BYTE      TMOD
      0000008AH   SFRSYM    DATA     BYTE      TL0
      0000008CH   SFRSYM    DATA     BYTE      TH0
      000000A8H.1 SFRSYM    DATA     BIT       ET0
      00000088H.5 SFRSYM    DATA     BIT       TF0
      00000088H.4 SFRSYM    DATA     BIT       TR0

      01007FFDH   BLOCK     CODE     ---       LVL=0
      01007FFDH   LINE      ---      ---       #19
      01007FFDH   LINE      ---      ---       #20
      01007FFDH   LINE      ---      ---       #21
      01008000H   LINE      ---      ---       #22
      01008003H   LINE      ---      ---       #23
      01008006H   LINE      ---      ---       #24
      01008009H   LINE      ---      ---       #25
      0100800CH   LINE      ---      ---       #26
      0100800EH   LINE      ---      ---       #27
      01008010H   LINE      ---      ---       #28
      01008012H   LINE      ---      ---       #29
      ---         BLOCKEND  ---      ---       LVL=0

      01008FF9H   BLOCK     CODE     ---       LVL=0
      01008FF9H   LINE      ---      ---       #33
      01008FF9H   LINE      ---      ---       #34
      01008FF9H   BLOCK     CODE     NEAR LAB  LVL=1
      01008FF9H   LINE      ---      ---       #36
      01008FFCH   LINE      ---      ---       #37
      01008FFFH   LINE      ---      ---       #39
LX51 LINKER/LOCATER V4.66.93.0                                                        04/11/2019  16:58:21  PAGE 40


      01009002H   LINE      ---      ---       #40
      01009004H   LINE      ---      ---       #41
      0100900AH   LINE      ---      ---       #42
      01009019H   LINE      ---      ---       #43
      01009019H   LINE      ---      ---       #44
      0100901DH   LINE      ---      ---       #45
      0100901FH   LINE      ---      ---       #46
      0100901FH   LINE      ---      ---       #47
      0200035CH   SYMBOL    XDATA    WORD      Sub_1_TikCount
      ---         BLOCKEND  CODE     ---       LVL=1
      ---         BLOCKEND  CODE     ---       LVL=0

      ---         MODULE    ---      ---       WS_TASK_MANAGE
      0200024EH   PUBLIC    XDATA    BYTE      WS_TaskState
      020001CEH   PUBLIC    XDATA    ---       WS_TaskMap
      020001CAH   PUBLIC    XDATA    DWORD     WS_TaskIfg
      010099C0H   PUBLIC    CODE     ---       _WS_TaskJudge
      010097FCH   PUBLIC    CODE     ---       _WS_DelTaskIfg
      01008220H   PUBLIC    CODE     ---       _WS_SetTaskIfg

      01008220H   BLOCK     CODE     ---       LVL=0
      01008220H   LINE      ---      ---       #48
      01008220H   LINE      ---      ---       #49
      01008220H   LINE      ---      ---       #50
      00000007H   SYMBOL    DATA     BYTE      Setprio
      ---         BLOCKEND  ---      ---       LVL=0

      010097F7H   BLOCK     CODE     ---       LVL=0
      010097FCH   LINE      ---      ---       #54
      010097FCH   LINE      ---      ---       #55
      010097FCH   LINE      ---      ---       #56
      010097F7H   SYMBOL    CODE     NEAR LAB  ?L?COM0031
      00000007H   SYMBOL    DATA     BYTE      DelPrio
      ---         BLOCKEND  ---      ---       LVL=0

      010099C0H   BLOCK     CODE     ---       LVL=0
      010099C0H   LINE      ---      ---       #60
      010099C0H   LINE      ---      ---       #61
      00000007H   SYMBOL    DATA     BYTE      AllPrio
      010099C0H   BLOCK     CODE     NEAR LAB  LVL=1
      010099C0H   LINE      ---      ---       #62
      010099C5H   LINE      ---      ---       #63
      010099D6H   LINE      ---      ---       #64
      010099D6H   LINE      ---      ---       #65
      010099D8H   LINE      ---      ---       #66
      010099DAH   LINE      ---      ---       #68
      010099DAH   LINE      ---      ---       #69
      010099DFH   LINE      ---      ---       #70
      010099DFH   LINE      ---      ---       #71
      010099E4H   LINE      ---      ---       #72
      02000110H   SYMBOL    XDATA    BYTE      res
      ---         BLOCKEND  CODE     ---       LVL=1
      ---         BLOCKEND  CODE     ---       LVL=0

      ---         MODULE    ---      ---       MAIN_TIK_FUNCTION
      01009020H   PUBLIC    CODE     ---       Main_Tik_FunctionS

      01009020H   BLOCK     CODE     ---       LVL=0
      01009020H   LINE      ---      ---       #6
      01009020H   LINE      ---      ---       #7
      01009020H   LINE      ---      ---       #8
      ---         BLOCKEND  ---      ---       LVL=0

      ---         MODULE    ---      ---       SUB_TIK_FUNCTION
      0100912AH   PUBLIC    CODE     ---       Sub_Tik_FunctionS
LX51 LINKER/LOCATER V4.66.93.0                                                        04/11/2019  16:58:21  PAGE 41



      0100912AH   BLOCK     CODE     ---       LVL=0
      0100912AH   LINE      ---      ---       #8
      0100912AH   LINE      ---      ---       #9
      0100912AH   LINE      ---      ---       #10
      0100912DH   LINE      ---      ---       #11
      01009130H   LINE      ---      ---       #12
      01009133H   LINE      ---      ---       #13
      01009136H   LINE      ---      ---       #15
      01009139H   LINE      ---      ---       #16
      0100913CH   LINE      ---      ---       #17
      ---         BLOCKEND  ---      ---       LVL=0

      ---         MODULE    ---      ---       NORMAL_TASK
      02000354H   PUBLIC    XDATA    BYTE      KeyToFuncVal
      02000353H   PUBLIC    XDATA    BYTE      Work_State
      01009A53H   PUBLIC    CODE     ---       UartRecTask
      01009A44H   PUBLIC    CODE     ---       SaveDateToFlashTask
      01009A34H   PUBLIC    CODE     ---       LowTempDet1STask
      01009A24H   PUBLIC    CODE     ---       AlarmErrorTask
      01009A15H   PUBLIC    CODE     ---       HeaterWireModeDetTask
      01009A05H   PUBLIC    CODE     ---       LowPowerModeTask
      010099F5H   PUBLIC    CODE     ---       HeaterWireControlTask
      01009EE6H   PUBLIC    CODE     ---       RefreshRTCTimeTask
      01009ED4H   PUBLIC    CODE     ---       RefreshRunTimeTask
      01009EC2H   PUBLIC    CODE     ---       RefreshTempHumidyTask
      01009EB2H   PUBLIC    CODE     ---       GetTempHumidity_PatientTask
      01009EA2H   PUBLIC    CODE     ---       GetTemp_HpChamberTask
      01009E92H   PUBLIC    CODE     ---       HmiScreenSaverModeTask
      01009E82H   PUBLIC    CODE     ---       HmiSetTimeTask
      01009E72H   PUBLIC    CODE     ---       HmiSetInExpTask
      01009E62H   PUBLIC    CODE     ---       HmiSetTempChamberTask
      01009E52H   PUBLIC    CODE     ---       HmiSetTempPatientTask
      010099E5H   PUBLIC    CODE     ---       HmiRunningTask
      01009E42H   PUBLIC    CODE     ---       HmiNon_InvasiveSelTask
      01009E32H   PUBLIC    CODE     ---       HmiFactoryDefaultSelTask
      01009E22H   PUBLIC    CODE     ---       HmiPostTask
      010099B0H   PUBLIC    CODE     ---       HmiServiceModeTask
      0100980BH   PUBLIC    CODE     ---       KeyScanTask
      0100807CH   PUBLIC    CODE     ---       ManageTask
      000000A0H.0 SFRSYM    DATA     BIT       P20
      000000A0H.1 SFRSYM    DATA     BIT       P21
      000000A0H.2 SFRSYM    DATA     BIT       P22
      000000A0H.3 SFRSYM    DATA     BIT       P23

      0100807CH   BLOCK     CODE     ---       LVL=0
      0100807CH   LINE      ---      ---       #12
      0100807CH   LINE      ---      ---       #13
      0100807CH   BLOCK     CODE     NEAR LAB  LVL=1
      0100807CH   LINE      ---      ---       #18
      01008087H   LINE      ---      ---       #20
      01008087H   LINE      ---      ---       #21
      0100808AH   LINE      ---      ---       #22
      0100808AH   LINE      ---      ---       #24
      0100808EH   LINE      ---      ---       #25
      01008092H   LINE      ---      ---       #27
      0100809DH   LINE      ---      ---       #28
      0100809DH   LINE      ---      ---       #29
      010080A0H   LINE      ---      ---       #30
      010080A0H   LINE      ---      ---       #31
      010080A4H   LINE      ---      ---       #32
      010080A8H   LINE      ---      ---       #33
      010080A8H   LINE      ---      ---       #35
      010080AEH   LINE      ---      ---       #36
      010080C1H   LINE      ---      ---       #37
LX51 LINKER/LOCATER V4.66.93.0                                                        04/11/2019  16:58:21  PAGE 42


      010080C1H   LINE      ---      ---       #38
      010080C9H   LINE      ---      ---       #41
      010080C9H   LINE      ---      ---       #42
      010080CBH   LINE      ---      ---       #43
      010080CDH   LINE      ---      ---       #44
      010080D5H   LINE      ---      ---       #45
      010080D5H   LINE      ---      ---       #46
      010080D7H   LINE      ---      ---       #47
      010080D9H   LINE      ---      ---       #48
      010080E1H   LINE      ---      ---       #49
      010080E1H   LINE      ---      ---       #50
      010080E3H   LINE      ---      ---       #51
      010080E5H   LINE      ---      ---       #52
      010080EDH   LINE      ---      ---       #53
      010080EDH   LINE      ---      ---       #54
      010080EFH   LINE      ---      ---       #55
      010080F1H   LINE      ---      ---       #56
      010080F9H   LINE      ---      ---       #57
      010080F9H   LINE      ---      ---       #58
      010080FBH   LINE      ---      ---       #59
      010080FDH   LINE      ---      ---       #60
      01008105H   LINE      ---      ---       #61
      01008105H   LINE      ---      ---       #62
      01008107H   LINE      ---      ---       #63
      01008109H   LINE      ---      ---       #64
      01008111H   LINE      ---      ---       #65
      01008111H   LINE      ---      ---       #66
      01008113H   LINE      ---      ---       #67
      01008115H   LINE      ---      ---       #68
      0100811DH   LINE      ---      ---       #69
      0100811DH   LINE      ---      ---       #70
      0100811FH   LINE      ---      ---       #71
      01008121H   LINE      ---      ---       #72
      01008129H   LINE      ---      ---       #73
      01008129H   LINE      ---      ---       #74
      0100812DH   LINE      ---      ---       #75
      0100812DH   LINE      ---      ---       #77
      0100812DH   LINE      ---      ---       #79
      0100812DH   LINE      ---      ---       #81
      01008147H   LINE      ---      ---       #86
      01008147H   LINE      ---      ---       #87
      0100814BH   LINE      ---      ---       #88
      0100814BH   LINE      ---      ---       #91
      01008164H   LINE      ---      ---       #96
      01008164H   LINE      ---      ---       #97
      01008170H   LINE      ---      ---       #99
      01008170H   LINE      ---      ---       #100
      01008174H   LINE      ---      ---       #101
      01008174H   LINE      ---      ---       #102
      01008174H   LINE      ---      ---       #103
      01008174H   LINE      ---      ---       #106
      0100817AH   LINE      ---      ---       #107
      0100818BH   LINE      ---      ---       #108
      0100818BH   LINE      ---      ---       #109
      0100818FH   LINE      ---      ---       #110
      0100819EH   LINE      ---      ---       #113
      0100819EH   LINE      ---      ---       #114
      010081AAH   LINE      ---      ---       #116
      010081AAH   LINE      ---      ---       #117
      010081AEH   LINE      ---      ---       #118
      010081AEH   LINE      ---      ---       #119
      010081AEH   LINE      ---      ---       #121
      010081C8H   LINE      ---      ---       #126
      010081C8H   LINE      ---      ---       #127
      010081CCH   LINE      ---      ---       #128
LX51 LINKER/LOCATER V4.66.93.0                                                        04/11/2019  16:58:21  PAGE 43


      010081CCH   LINE      ---      ---       #129
      010081CCH   LINE      ---      ---       #132
      010081D2H   LINE      ---      ---       #133
      010081E3H   LINE      ---      ---       #134
      010081E3H   LINE      ---      ---       #135
      010081E7H   LINE      ---      ---       #136
      01008207H   LINE      ---      ---       #142
      01008207H   LINE      ---      ---       #143
      0100820BH   LINE      ---      ---       #144
      0100820FH   LINE      ---      ---       #145
      01008213H   LINE      ---      ---       #146
      01008217H   LINE      ---      ---       #147
      0100821BH   LINE      ---      ---       #148
      0100821FH   LINE      ---      ---       #149
      0100821FH   LINE      ---      ---       #150
      0100821FH   LINE      ---      ---       #151
      0100821FH   LINE      ---      ---       #152
      0100821FH   LINE      ---      ---       #153
      0100821FH   LINE      ---      ---       #154
      0200034DH   SYMBOL    XDATA    INT       Manage_Tik_100mS_Cnt
      0200034FH   SYMBOL    XDATA    INT       Manage_Tik_250mS_Cnt
      02000351H   SYMBOL    XDATA    INT       Manage_Tik_1000mS_Cnt
      ---         BLOCKEND  CODE     ---       LVL=1
      ---         BLOCKEND  CODE     ---       LVL=0

      0100980BH   BLOCK     CODE     ---       LVL=0
      0100980BH   LINE      ---      ---       #157
      0100980BH   LINE      ---      ---       #158
      0100980BH   BLOCK     CODE     NEAR LAB  LVL=1
      0100980BH   LINE      ---      ---       #160
      01009814H   LINE      ---      ---       #162
      01009814H   LINE      ---      ---       #163
      01009817H   LINE      ---      ---       #164
      01009817H   LINE      ---      ---       #165
      0100981BH   LINE      ---      ---       #166
      01009820H   LINE      ---      ---       #167
      01009820H   LINE      ---      ---       #168
      01009822H   LINE      ---      ---       #169
      01009824H   LINE      ---      ---       #171
      01009824H   LINE      ---      ---       #172
      01009827H   LINE      ---      ---       #173
      01009827H   LINE      ---      ---       #174
      01009835H   LINE      ---      ---       #176
      01009839H   LINE      ---      ---       #177
      0100983EH   LINE      ---      ---       #178
      0100983EH   LINE      ---      ---       #179
      01009840H   LINE      ---      ---       #180
      01009842H   LINE      ---      ---       #182
      01009842H   LINE      ---      ---       #183
      01009845H   LINE      ---      ---       #184
      01009845H   LINE      ---      ---       #186
      01009853H   LINE      ---      ---       #188
      01009857H   LINE      ---      ---       #189
      0100985CH   LINE      ---      ---       #190
      0100985CH   LINE      ---      ---       #191
      0100985EH   LINE      ---      ---       #192
      01009860H   LINE      ---      ---       #194
      01009860H   LINE      ---      ---       #195
      01009863H   LINE      ---      ---       #196
      01009863H   LINE      ---      ---       #198
      01009871H   LINE      ---      ---       #200
      01009875H   LINE      ---      ---       #201
      0100987AH   LINE      ---      ---       #202
      0100987AH   LINE      ---      ---       #203
      0100987CH   LINE      ---      ---       #204
LX51 LINKER/LOCATER V4.66.93.0                                                        04/11/2019  16:58:21  PAGE 44


      0100987EH   LINE      ---      ---       #206
      0100987EH   LINE      ---      ---       #207
      01009881H   LINE      ---      ---       #208
      01009881H   LINE      ---      ---       #210
      0100988FH   LINE      ---      ---       #211
      0100988FH   LINE      ---      ---       #212
      0100988FH   LINE      ---      ---       #213
      00000007H   SYMBOL    DATA     BYTE      bit_status
      ---         BLOCKEND  CODE     ---       LVL=1
      ---         BLOCKEND  CODE     ---       LVL=0

      010099B0H   BLOCK     CODE     ---       LVL=0
      010099B0H   LINE      ---      ---       #215
      010099B0H   LINE      ---      ---       #216
      010099B0H   LINE      ---      ---       #217
      010099B9H   LINE      ---      ---       #219
      010099B9H   LINE      ---      ---       #220
      010099BCH   LINE      ---      ---       #221
      010099BCH   LINE      ---      ---       #222
      010099BFH   LINE      ---      ---       #223
      010099BFH   LINE      ---      ---       #224
      010099BFH   LINE      ---      ---       #225
      ---         BLOCKEND  ---      ---       LVL=0

      01009E22H   BLOCK     CODE     ---       LVL=0
      01009E22H   LINE      ---      ---       #227
      01009E22H   LINE      ---      ---       #228
      01009E22H   LINE      ---      ---       #229
      01009E2BH   LINE      ---      ---       #231
      01009E2BH   LINE      ---      ---       #232
      01009E2EH   LINE      ---      ---       #233
      01009E2EH   LINE      ---      ---       #234
      01009E31H   LINE      ---      ---       #235
      01009E31H   LINE      ---      ---       #236
      01009E31H   LINE      ---      ---       #237
      ---         BLOCKEND  ---      ---       LVL=0

      01009E32H   BLOCK     CODE     ---       LVL=0
      01009E32H   LINE      ---      ---       #239
      01009E32H   LINE      ---      ---       #240
      01009E32H   LINE      ---      ---       #241
      01009E3BH   LINE      ---      ---       #243
      01009E3BH   LINE      ---      ---       #244
      01009E3EH   LINE      ---      ---       #245
      01009E3EH   LINE      ---      ---       #246
      01009E41H   LINE      ---      ---       #248
      01009E41H   LINE      ---      ---       #249
      01009E41H   LINE      ---      ---       #250
      ---         BLOCKEND  ---      ---       LVL=0

      01009E42H   BLOCK     CODE     ---       LVL=0
      01009E42H   LINE      ---      ---       #252
      01009E42H   LINE      ---      ---       #253
      01009E42H   LINE      ---      ---       #254
      01009E4BH   LINE      ---      ---       #256
      01009E4BH   LINE      ---      ---       #257
      01009E4EH   LINE      ---      ---       #258
      01009E4EH   LINE      ---      ---       #259
      01009E51H   LINE      ---      ---       #260
      01009E51H   LINE      ---      ---       #261
      01009E51H   LINE      ---      ---       #262
      ---         BLOCKEND  ---      ---       LVL=0

      010099E5H   BLOCK     CODE     ---       LVL=0
      010099E5H   LINE      ---      ---       #264
LX51 LINKER/LOCATER V4.66.93.0                                                        04/11/2019  16:58:21  PAGE 45


      010099E5H   LINE      ---      ---       #265
      010099E5H   LINE      ---      ---       #266
      010099EEH   LINE      ---      ---       #268
      010099EEH   LINE      ---      ---       #269
      010099F1H   LINE      ---      ---       #270
      010099F1H   LINE      ---      ---       #271
      010099F4H   LINE      ---      ---       #272
      010099F4H   LINE      ---      ---       #273
      010099F4H   LINE      ---      ---       #274
      ---         BLOCKEND  ---      ---       LVL=0

      01009E52H   BLOCK     CODE     ---       LVL=0
      01009E52H   LINE      ---      ---       #276
      01009E52H   LINE      ---      ---       #277
      01009E52H   LINE      ---      ---       #278
      01009E5BH   LINE      ---      ---       #280
      01009E5BH   LINE      ---      ---       #281
      01009E5EH   LINE      ---      ---       #282
      01009E5EH   LINE      ---      ---       #283
      01009E61H   LINE      ---      ---       #284
      01009E61H   LINE      ---      ---       #285
      01009E61H   LINE      ---      ---       #286
      ---         BLOCKEND  ---      ---       LVL=0

      01009E62H   BLOCK     CODE     ---       LVL=0
      01009E62H   LINE      ---      ---       #288
      01009E62H   LINE      ---      ---       #289
      01009E62H   LINE      ---      ---       #290
      01009E6BH   LINE      ---      ---       #292
      01009E6BH   LINE      ---      ---       #293
      01009E6EH   LINE      ---      ---       #294
      01009E6EH   LINE      ---      ---       #295
      01009E71H   LINE      ---      ---       #296
      01009E71H   LINE      ---      ---       #297
      01009E71H   LINE      ---      ---       #298
      ---         BLOCKEND  ---      ---       LVL=0

      01009E72H   BLOCK     CODE     ---       LVL=0
      01009E72H   LINE      ---      ---       #300
      01009E72H   LINE      ---      ---       #301
      01009E72H   LINE      ---      ---       #302
      01009E7BH   LINE      ---      ---       #304
      01009E7BH   LINE      ---      ---       #305
      01009E7EH   LINE      ---      ---       #306
      01009E7EH   LINE      ---      ---       #307
      01009E81H   LINE      ---      ---       #308
      01009E81H   LINE      ---      ---       #309
      01009E81H   LINE      ---      ---       #310
      ---         BLOCKEND  ---      ---       LVL=0

      01009E82H   BLOCK     CODE     ---       LVL=0
      01009E82H   LINE      ---      ---       #312
      01009E82H   LINE      ---      ---       #313
      01009E82H   LINE      ---      ---       #314
      01009E8BH   LINE      ---      ---       #316
      01009E8BH   LINE      ---      ---       #317
      01009E8EH   LINE      ---      ---       #318
      01009E8EH   LINE      ---      ---       #319
      01009E91H   LINE      ---      ---       #320
      01009E91H   LINE      ---      ---       #321
      01009E91H   LINE      ---      ---       #322
      ---         BLOCKEND  ---      ---       LVL=0

      01009E92H   BLOCK     CODE     ---       LVL=0
      01009E92H   LINE      ---      ---       #324
LX51 LINKER/LOCATER V4.66.93.0                                                        04/11/2019  16:58:21  PAGE 46


      01009E92H   LINE      ---      ---       #325
      01009E92H   LINE      ---      ---       #326
      01009E9BH   LINE      ---      ---       #328
      01009E9BH   LINE      ---      ---       #329
      01009E9EH   LINE      ---      ---       #330
      01009E9EH   LINE      ---      ---       #331
      01009EA1H   LINE      ---      ---       #332
      01009EA1H   LINE      ---      ---       #333
      01009EA1H   LINE      ---      ---       #334
      ---         BLOCKEND  ---      ---       LVL=0

      01009EA2H   BLOCK     CODE     ---       LVL=0
      01009EA2H   LINE      ---      ---       #336
      01009EA2H   LINE      ---      ---       #337
      01009EA2H   LINE      ---      ---       #338
      01009EABH   LINE      ---      ---       #340
      01009EABH   LINE      ---      ---       #341
      01009EAEH   LINE      ---      ---       #342
      01009EAEH   LINE      ---      ---       #343
      01009EB1H   LINE      ---      ---       #344
      01009EB1H   LINE      ---      ---       #345
      01009EB1H   LINE      ---      ---       #346
      ---         BLOCKEND  ---      ---       LVL=0

      01009EB2H   BLOCK     CODE     ---       LVL=0
      01009EB2H   LINE      ---      ---       #348
      01009EB2H   LINE      ---      ---       #349
      01009EB2H   LINE      ---      ---       #350
      01009EBBH   LINE      ---      ---       #352
      01009EBBH   LINE      ---      ---       #353
      01009EBEH   LINE      ---      ---       #354
      01009EBEH   LINE      ---      ---       #355
      01009EC1H   LINE      ---      ---       #356
      01009EC1H   LINE      ---      ---       #357
      01009EC1H   LINE      ---      ---       #358
      ---         BLOCKEND  ---      ---       LVL=0

      01009EC2H   BLOCK     CODE     ---       LVL=0
      01009EC2H   LINE      ---      ---       #360
      01009EC2H   LINE      ---      ---       #361
      01009EC2H   LINE      ---      ---       #362
      01009ECBH   LINE      ---      ---       #364
      01009ECBH   LINE      ---      ---       #365
      01009ECEH   LINE      ---      ---       #366
      01009ECEH   LINE      ---      ---       #367
      01009ED3H   LINE      ---      ---       #368
      01009ED3H   LINE      ---      ---       #369
      01009ED3H   LINE      ---      ---       #370
      ---         BLOCKEND  ---      ---       LVL=0

      01009ED4H   BLOCK     CODE     ---       LVL=0
      01009ED4H   LINE      ---      ---       #372
      01009ED4H   LINE      ---      ---       #373
      01009ED4H   LINE      ---      ---       #374
      01009EDDH   LINE      ---      ---       #376
      01009EDDH   LINE      ---      ---       #377
      01009EE0H   LINE      ---      ---       #378
      01009EE0H   LINE      ---      ---       #379
      01009EE5H   LINE      ---      ---       #380
      01009EE5H   LINE      ---      ---       #381
      01009EE5H   LINE      ---      ---       #382
      ---         BLOCKEND  ---      ---       LVL=0

      01009EE6H   BLOCK     CODE     ---       LVL=0
      01009EE6H   LINE      ---      ---       #384
LX51 LINKER/LOCATER V4.66.93.0                                                        04/11/2019  16:58:21  PAGE 47


      01009EE6H   LINE      ---      ---       #385
      01009EE6H   LINE      ---      ---       #386
      01009EEFH   LINE      ---      ---       #388
      01009EEFH   LINE      ---      ---       #389
      01009EF2H   LINE      ---      ---       #390
      01009EF2H   LINE      ---      ---       #391
      01009F00H   LINE      ---      ---       #393
      01009F00H   LINE      ---      ---       #394
      01009F03H   LINE      ---      ---       #395
      01009F03H   LINE      ---      ---       #397
      01009F03H   LINE      ---      ---       #398
      01009F03H   LINE      ---      ---       #399
      ---         BLOCKEND  ---      ---       LVL=0

      010099F5H   BLOCK     CODE     ---       LVL=0
      010099F5H   LINE      ---      ---       #401
      010099F5H   LINE      ---      ---       #402
      010099F5H   LINE      ---      ---       #403
      010099FEH   LINE      ---      ---       #405
      010099FEH   LINE      ---      ---       #406
      01009A01H   LINE      ---      ---       #407
      01009A01H   LINE      ---      ---       #408
      01009A04H   LINE      ---      ---       #409
      01009A04H   LINE      ---      ---       #410
      01009A04H   LINE      ---      ---       #411
      ---         BLOCKEND  ---      ---       LVL=0

      01009A05H   BLOCK     CODE     ---       LVL=0
      01009A05H   LINE      ---      ---       #413
      01009A05H   LINE      ---      ---       #414
      01009A05H   LINE      ---      ---       #415
      01009A0EH   LINE      ---      ---       #417
      01009A0EH   LINE      ---      ---       #418
      01009A11H   LINE      ---      ---       #419
      01009A11H   LINE      ---      ---       #420
      01009A14H   LINE      ---      ---       #421
      01009A14H   LINE      ---      ---       #422
      01009A14H   LINE      ---      ---       #423
      ---         BLOCKEND  ---      ---       LVL=0

      01009A15H   BLOCK     CODE     ---       LVL=0
      01009A15H   LINE      ---      ---       #425
      01009A15H   LINE      ---      ---       #426
      01009A15H   LINE      ---      ---       #427
      01009A1EH   LINE      ---      ---       #429
      01009A1EH   LINE      ---      ---       #430
      01009A21H   LINE      ---      ---       #431
      01009A21H   LINE      ---      ---       #432
      01009A23H   LINE      ---      ---       #433
      01009A23H   LINE      ---      ---       #434
      01009A23H   LINE      ---      ---       #435
      ---         BLOCKEND  ---      ---       LVL=0

      01009A24H   BLOCK     CODE     ---       LVL=0
      01009A24H   LINE      ---      ---       #437
      01009A24H   LINE      ---      ---       #438
      01009A24H   LINE      ---      ---       #439
      01009A2DH   LINE      ---      ---       #441
      01009A2DH   LINE      ---      ---       #442
      01009A30H   LINE      ---      ---       #443
      01009A30H   LINE      ---      ---       #444
      01009A33H   LINE      ---      ---       #445
      01009A33H   LINE      ---      ---       #446
      01009A33H   LINE      ---      ---       #447
      ---         BLOCKEND  ---      ---       LVL=0
LX51 LINKER/LOCATER V4.66.93.0                                                        04/11/2019  16:58:21  PAGE 48



      01009A34H   BLOCK     CODE     ---       LVL=0
      01009A34H   LINE      ---      ---       #449
      01009A34H   LINE      ---      ---       #450
      01009A34H   LINE      ---      ---       #451
      01009A3DH   LINE      ---      ---       #453
      01009A3DH   LINE      ---      ---       #454
      01009A40H   LINE      ---      ---       #455
      01009A40H   LINE      ---      ---       #456
      01009A43H   LINE      ---      ---       #457
      01009A43H   LINE      ---      ---       #458
      01009A43H   LINE      ---      ---       #459
      ---         BLOCKEND  ---      ---       LVL=0

      01009A44H   BLOCK     CODE     ---       LVL=0
      01009A44H   LINE      ---      ---       #461
      01009A44H   LINE      ---      ---       #462
      01009A44H   LINE      ---      ---       #463
      01009A4DH   LINE      ---      ---       #465
      01009A4DH   LINE      ---      ---       #466
      01009A50H   LINE      ---      ---       #467
      01009A50H   LINE      ---      ---       #468
      01009A52H   LINE      ---      ---       #469
      01009A52H   LINE      ---      ---       #470
      01009A52H   LINE      ---      ---       #471
      ---         BLOCKEND  ---      ---       LVL=0

      01009A53H   BLOCK     CODE     ---       LVL=0
      01009A53H   LINE      ---      ---       #473
      01009A53H   LINE      ---      ---       #474
      01009A53H   LINE      ---      ---       #475
      01009A5CH   LINE      ---      ---       #477
      01009A5CH   LINE      ---      ---       #478
      01009A5FH   LINE      ---      ---       #479
      01009A61H   LINE      ---      ---       #480
      01009A61H   LINE      ---      ---       #481
      ---         BLOCKEND  ---      ---       LVL=0

      ---         MODULE    ---      ---       ACTIVITYFUNCTIONS
      020000A2H   PUBLIC    XDATA    WORD      Working_Normal
      020000A1H   PUBLIC    XDATA    BYTE      No_HeatSensor_Times
      020000A0H   PUBLIC    XDATA    BYTE      AlarmInfoIndex
      0200009FH   PUBLIC    XDATA    BYTE      AlarmSoundPauseStatus
      0200009EH   PUBLIC    XDATA    BYTE      Test_Mode_Dis_Jrp_Ctl
      0200008EH   PUBLIC    XDATA    ---       SaveData
      0200008CH   PUBLIC    XDATA    WORD      HP_CNT_Int_End_Rem
      0200008BH   PUBLIC    XDATA    BYTE      Wire_Mode_Mismatch
      0200008AH   PUBLIC    XDATA    BYTE      ERR_Kind
      02000088H   PUBLIC    XDATA    WORD      HP_CNT_Int
      02000087H   PUBLIC    XDATA    BYTE      HeaterPlate_State
      02000086H   PUBLIC    XDATA    BYTE      WireOut_State
      02000085H   PUBLIC    XDATA    BYTE      WireIn_State
      02000083H   PUBLIC    XDATA    WORD      Diplay_RTtemp
      02000082H   PUBLIC    XDATA    BYTE      CQK_Temp_Reach_Set_Cnt
      02000081H   PUBLIC    XDATA    BYTE      RT_Temp_Reach_Set_Cnt
      0200007FH   PUBLIC    XDATA    WORD      Set_CQK_YCTemp
      0200007DH   PUBLIC    XDATA    WORD      Set_CQK_WCTemp
      0200007BH   PUBLIC    XDATA    WORD      Set_CQK_Temp
      02000079H   PUBLIC    XDATA    WORD      Set_RT_YCTemp
      02000077H   PUBLIC    XDATA    WORD      Set_RT_WCTemp
      02000075H   PUBLIC    XDATA    INT       Set_RT_Temp
      02000071H   PUBLIC    XDATA    LONG      CQK_Temp
      0200006FH   PUBLIC    XDATA    INT       JEP_Temp
      0200006DH   PUBLIC    XDATA    INT       RT_Temp
      0200006BH   PUBLIC    XDATA    WORD      Micro_Temp_Out
LX51 LINKER/LOCATER V4.66.93.0                                                        04/11/2019  16:58:21  PAGE 49


      02000069H   PUBLIC    XDATA    WORD      Micro_Temp_In
      02000068H   PUBLIC    XDATA    BYTE      Micro_Temp_Val
      02000067H   PUBLIC    XDATA    BYTE      In_Exp_Ratio
      02000050H   PUBLIC    XDATA    ---       show_str
      0200004FH   PUBLIC    XDATA    BYTE      defalut_mode
      0200004EH   PUBLIC    XDATA    BYTE      Work_Mode
      02000046H   PUBLIC    XDATA    ---       data_flash
      01009025H   PUBLIC    CODE     ---       HeaterPlateWireDriveFbTask
      0100C11CH   PUBLIC    CODE     ---       WireInOut_State_Confirm
      0100A6C5H   PUBLIC    CODE     ---       LowPowerModeFunc
      0100B76EH   PUBLIC    CODE     ---       Load_Settings_Before_Choice
      01006368H   PUBLIC    CODE     ---       Mem_Flash_Recall
      01006839H   PUBLIC    CODE     ---       Setting_write_to_flash
      0100842DH   PUBLIC    CODE     ---       ServiceMode_TempHumidy_Disp
      0100BB22H   PUBLIC    CODE     ---       Main_Init
      0100822CH   PUBLIC    CODE     ---       Init_port
      01009A62H   PUBLIC    CODE     ---       SaveDateToFlashFunc
      0100B808H   PUBLIC    CODE     ---       LowTempDet1SFunc
      0100A02DH   PUBLIC    CODE     ---       AlarmErrorFunc
      0100B7FDH   PUBLIC    CODE     ---       Err_Base_HeaterWire_DISP_Enable
      0100A8B2H   PUBLIC    CODE     ---       HeaterPlateWireControlFunc
      01007021H   PUBLIC    CODE     ---       GetTemp_HpChamberFunc
      01007428H   PUBLIC    CODE     ---       GetTempHumidity_PatientFunc
      01008B63H   PUBLIC    CODE     ---       RefreshRTCTimeFunc
      01008BA4H   PUBLIC    CODE     ---       _RefreshRunTimeFunc
      010092B0H   PUBLIC    CODE     ---       _RefreshTempHumidyFunc
      01009F8AH   PUBLIC    CODE     ---       HeaterWireModeDetFunc
      01009CBCH   PUBLIC    CODE     ---       UART_RecData_Func
      0100A5E9H   PUBLIC    CODE     ---       _Bit_is_one
      000000B4H   SFRSYM    DATA     BYTE      P4M0
      000000B3H   SFRSYM    DATA     BYTE      P4M1
      000000BBH   SFRSYM    DATA     BYTE      P4SW
      000000C1H   SFRSYM    DATA     BYTE      WDT_CONTR
      000000A8H.7 SFRSYM    DATA     BIT       EA
      000000A8H.2 SFRSYM    DATA     BIT       EX1
      000000A8H.1 SFRSYM    DATA     BIT       ET0
      00000092H   SFRSYM    DATA     BYTE      P1M0
      00000091H   SFRSYM    DATA     BYTE      P1M1
      00000090H.0 SFRSYM    DATA     BIT       P10
      00000090H.2 SFRSYM    DATA     BIT       P12
      00000090H.3 SFRSYM    DATA     BIT       P13
      00000090H.7 SFRSYM    DATA     BIT       P17
      000000A0H.0 SFRSYM    DATA     BIT       P20
      000000A0H.1 SFRSYM    DATA     BIT       P21
      000000A0H.2 SFRSYM    DATA     BIT       P22
      000000A0H.7 SFRSYM    DATA     BIT       P27
      00000096H   SFRSYM    DATA     BYTE      P2M0
      00000095H   SFRSYM    DATA     BYTE      P2M1
      000000B0H.2 SFRSYM    DATA     BIT       P32
      000000B0H.4 SFRSYM    DATA     BIT       P34
      000000B0H.5 SFRSYM    DATA     BIT       P35
      000000B0H.6 SFRSYM    DATA     BIT       P36
      000000B0H.7 SFRSYM    DATA     BIT       P37
      000000B2H   SFRSYM    DATA     BYTE      P3M0
      000000B1H   SFRSYM    DATA     BYTE      P3M1
      000000C0H.0 SFRSYM    DATA     BIT       P40
      000000C0H.3 SFRSYM    DATA     BIT       P43
      00000098H.1 SFRSYM    DATA     BIT       TI
      00000098H.0 SFRSYM    DATA     BIT       RI
      00000088H.4 SFRSYM    DATA     BIT       TR0
      00000088H.2 SFRSYM    DATA     BIT       IT1
      0100A81AH   SYMBOL    CODE     ---       Interrupt_EXT1
      0100A83BH   SYMBOL    CODE     ---       Interrupt_Time0
      0100A856H   SYMBOL    CODE     ---       Serial
      020000A4H   SYMBOL    XDATA    BYTE      Wire_Mode_Sel
LX51 LINKER/LOCATER V4.66.93.0                                                        04/11/2019  16:58:21  PAGE 50


      020000A5H   SYMBOL    XDATA    BYTE      JRP_Sensor_Err
      020000A6H   SYMBOL    XDATA    BYTE      CQK_Sensor_Err
      020000A7H   SYMBOL    XDATA    BYTE      RTD_Sensor_Err
      020000A8H   SYMBOL    XDATA    BYTE      SHIDU_Sensor_Err
      020000A9H   SYMBOL    XDATA    BYTE      HiTemp_Count
      020000AAH   SYMBOL    XDATA    BYTE      LoTemp_Count
      020000ABH   SYMBOL    XDATA    BYTE      LoTemp_CQK_Count
      020000ACH   SYMBOL    XDATA    BYTE      LoHumity_Count
      020000ADH   SYMBOL    XDATA    WORD      No_CQKSensor_Times
      020000AFH   SYMBOL    XDATA    WORD      CQKSensor_Hithen800_Times
      020000B1H   SYMBOL    XDATA    WORD      JRP_Sensor_Temp_No_Change_Times
      020000B3H   SYMBOL    XDATA    WORD      CQK_Sensor_Temp_No_Change_Times
      020000B5H   SYMBOL    XDATA    BYTE      ERR_RT_Temp_Times
      020000B6H   SYMBOL    XDATA    BYTE      No_ReadData_SHIDU_Times
      020000B7H   SYMBOL    XDATA    WORD      RT_Temp_Not_Updated_10mS
      020000B9H   SYMBOL    XDATA    BYTE      No_ReadData_Temp_Times
      020000BAH   SYMBOL    XDATA    WORD      Nochange_Times
      020000BCH   SYMBOL    XDATA    WORD      Run_Count
      020000BEH   SYMBOL    XDATA    WORD      RT_SHIDU
      020000C0H   SYMBOL    XDATA    WORD      CONTROL_RT_SHIDU
      020000C2H   SYMBOL    XDATA    INT       JEP_Temp_Aim
      020000C4H   SYMBOL    XDATA    WORD      Wire_Warm_Up_Sec
      020000C6H   SYMBOL    XDATA    WORD      Plate_Warm_Up_Sec
      020000C8H   SYMBOL    XDATA    WORD      Humidity_No_Change_Sec
      020000CAH   SYMBOL    XDATA    WORD      Low_Power_Mode_Flag
      020000CCH   SYMBOL    XDATA    BYTE      Micro_Adj_Mode_Test
      020000CDH   SYMBOL    XDATA    BYTE      Enable_Save_Data
      020000CEH   SYMBOL    XDATA    ---       Controler_temp
      020000D8H   SYMBOL    XDATA    ---       Controler_temp2
      020000E2H   SYMBOL    XDATA    ---       Controler_temp3
      020000ECH   SYMBOL    XDATA    ---       NowTime
      0100AFFEH   SYMBOL    CODE     ---       Store_Data
      0100B063H   SYMBOL    CODE     ---       Get_RunCount
      0100BFF3H   SYMBOL    CODE     ---       Write_Default_Setting_to_flash
      0100BB93H   SYMBOL    CODE     ---       PatientTemp_NoneHeatWire_Adj
      0100BE89H   SYMBOL    CODE     ---       Controler_Calc
      0100C017H   SYMBOL    CODE     ---       HeatPlateTemp_Aim_Controler_Calc
      0100BD7DH   SYMBOL    CODE     ---       HeatPlate_Controler_Calc
      0100A004H   SYMBOL    CODE     ---       _Clear_bit
      0100A019H   SYMBOL    CODE     ---       _Set_bit
      020000F3H   SYMBOL    XDATA    ---       UART_Rec_Buf
      01009DF8H   SYMBOL    CODE     ---       UART_RecBuf_Clear_Fun
      02000107H   SYMBOL    XDATA    INT       Temp2_Int
      02000109H   SYMBOL    XDATA    WORD      NoneWire_Heat_Sec
      0200010BH   SYMBOL    XDATA    INT       Set_CQK_Temp_Comp
      0200010DH   SYMBOL    XDATA    BYTE      Wire_Mode_Sel_Rem
      0200010EH   SYMBOL    XDATA    BYTE      Disp_ERR_VHB80_Code

      0100A004H   BLOCK     CODE     ---       LVL=0
      0100A004H   LINE      ---      ---       #184
      0100A004H   LINE      ---      ---       #185
      00000001H   SYMBOL    DATA     ---       Value
      00000004H   SYMBOL    DATA     INT       bit_num
      0100A004H   BLOCK     CODE     NEAR LAB  LVL=1
      0100A004H   LINE      ---      ---       #186
      0100A004H   LINE      ---      ---       #187
      00000001H   SYMBOL    DATA     ---       pV
      ---         BLOCKEND  CODE     ---       LVL=1
      ---         BLOCKEND  CODE     ---       LVL=0

      0100A019H   BLOCK     CODE     ---       LVL=0
      0100A019H   LINE      ---      ---       #189
      0100A019H   LINE      ---      ---       #190
      00000001H   SYMBOL    DATA     ---       Value
      00000004H   SYMBOL    DATA     INT       bit_num
LX51 LINKER/LOCATER V4.66.93.0                                                        04/11/2019  16:58:21  PAGE 51


      0100A019H   BLOCK     CODE     NEAR LAB  LVL=1
      0100A019H   LINE      ---      ---       #191
      0100A019H   LINE      ---      ---       #192
      00000001H   SYMBOL    DATA     ---       pV
      ---         BLOCKEND  CODE     ---       LVL=1
      ---         BLOCKEND  CODE     ---       LVL=0

      0100A5E9H   BLOCK     CODE     ---       LVL=0
      0100A5E9H   LINE      ---      ---       #195
      0100A5E9H   LINE      ---      ---       #196
      0100A5E9H   LINE      ---      ---       #197
      0100A5F7H   LINE      ---      ---       #198
      00000007H   SYMBOL    DATA     BYTE      Value
      00000004H   SYMBOL    DATA     INT       bit_num
      ---         BLOCKEND  ---      ---       LVL=0

      0100A81AH   BLOCK     CODE     ---       LVL=0
      0100A827H   LINE      ---      ---       #202
      0100A827H   LINE      ---      ---       #204
      0100A82DH   LINE      ---      ---       #205
      ---         BLOCKEND  ---      ---       LVL=0

      0100A83BH   BLOCK     CODE     ---       LVL=0
      0100A848H   LINE      ---      ---       #207
      0100A848H   LINE      ---      ---       #210
      0100A84BH   LINE      ---      ---       #212
      ---         BLOCKEND  ---      ---       LVL=0

      0100A856H   BLOCK     CODE     ---       LVL=0
      0100A863H   LINE      ---      ---       #214
      0100A863H   LINE      ---      ---       #216
      0100A866H   LINE      ---      ---       #217
      0100A866H   LINE      ---      ---       #218
      0100A868H   LINE      ---      ---       #220
      0100A86AH   LINE      ---      ---       #221
      0100A86AH   LINE      ---      ---       #223
      0100A86DH   LINE      ---      ---       #224
      0100A86DH   LINE      ---      ---       #225
      0100A86FH   LINE      ---      ---       #226
      0100A871H   LINE      ---      ---       #227
      0100A871H   LINE      ---      ---       #228
      ---         BLOCKEND  ---      ---       LVL=0

      01009DF8H   BLOCK     CODE     ---       LVL=0
      01009DF8H   LINE      ---      ---       #245
      01009DF8H   LINE      ---      ---       #246
      01009DF8H   BLOCK     CODE     NEAR LAB  LVL=1
      01009DF8H   LINE      ---      ---       #249
      01009DFAH   LINE      ---      ---       #250
      01009DFAH   LINE      ---      ---       #251
      01009E04H   LINE      ---      ---       #252
      01009E04H   LINE      ---      ---       #253
      00000006H   SYMBOL    DATA     INT       i
      ---         BLOCKEND  CODE     ---       LVL=1
      ---         BLOCKEND  CODE     ---       LVL=0

      01009CBCH   BLOCK     CODE     ---       LVL=0
      01009CBCH   LINE      ---      ---       #257
      01009CBCH   LINE      ---      ---       #258
      01009CBCH   BLOCK     CODE     NEAR LAB  LVL=1
      01009CBCH   LINE      ---      ---       #266
      01009CC1H   LINE      ---      ---       #275
      01009CC9H   LINE      ---      ---       #276
      01009CC9H   LINE      ---      ---       #277
      01009CCDH   LINE      ---      ---       #279
LX51 LINKER/LOCATER V4.66.93.0                                                        04/11/2019  16:58:21  PAGE 52


      01009CD5H   LINE      ---      ---       #280
      01009CD5H   LINE      ---      ---       #281
      01009CDBH   LINE      ---      ---       #282
      01009CE4H   LINE      ---      ---       #283
      01009CE4H   LINE      ---      ---       #284
      01009CE6H   LINE      ---      ---       #285
      01009CE8H   LINE      ---      ---       #286
      01009CEDH   LINE      ---      ---       #287
      01009CF3H   LINE      ---      ---       #289
      01009CF5H   LINE      ---      ---       #290
      01009CFBH   LINE      ---      ---       #291
      01009CFBH   LINE      ---      ---       #292
      01009D04H   LINE      ---      ---       #293
      01009D0AH   LINE      ---      ---       #294
      01009D0AH   LINE      ---      ---       #296
      01009D16H   LINE      ---      ---       #297
      01009D16H   LINE      ---      ---       #299
      01009D1CH   LINE      ---      ---       #300
      01009D1EH   LINE      ---      ---       #301
      01009D23H   LINE      ---      ---       #302
      01009D25H   LINE      ---      ---       #304
      01009D25H   LINE      ---      ---       #305
      01009D2BH   LINE      ---      ---       #306
      01009D2DH   LINE      ---      ---       #307
      01009D2DH   LINE      ---      ---       #308
      01009D45H   LINE      ---      ---       #309
      01009D4CH   LINE      ---      ---       #310
      01009D4CH   LINE      ---      ---       #311
      01009D4CH   LINE      ---      ---       #312
      01009D4CH   LINE      ---      ---       #313
      01009D54H   LINE      ---      ---       #314
      01009D54H   LINE      ---      ---       #315
      01009D60H   LINE      ---      ---       #317
      01009D66H   LINE      ---      ---       #318
      01009D66H   LINE      ---      ---       #319
      01009D6CH   LINE      ---      ---       #320
      01009D6CH   LINE      ---      ---       #321
      01009D6CH   LINE      ---      ---       #323
      01009D6CH   LINE      ---      ---       #325
      01009D6CH   LINE      ---      ---       #327
      01009D76H   LINE      ---      ---       #328
      01009D76H   LINE      ---      ---       #329
      01009D77H   LINE      ---      ---       #331
      01009DA3H   LINE      ---      ---       #335
      01009DA9H   LINE      ---      ---       #336
      01009DA9H   LINE      ---      ---       #337
      01009DA9H   LINE      ---      ---       #338
      01009DABH   LINE      ---      ---       #339
      02000110H   SYMBOL    XDATA    BYTE      UART_RecState
      02000000H   SYMBOL    XDATA    BYTE      UART_Rec_Cnt
      00000007H   SYMBOL    DATA     BYTE      i
      00000005H   SYMBOL    DATA     BYTE      uart_data
      02000111H   SYMBOL    XDATA    DWORD     Adress
      ---         BLOCKEND  CODE     ---       LVL=1
      ---         BLOCKEND  CODE     ---       LVL=0

      01009F8AH   BLOCK     CODE     ---       LVL=0
      01009F8AH   LINE      ---      ---       #341
      01009F8AH   LINE      ---      ---       #342
      01009F8AH   LINE      ---      ---       #343
      01009F93H   LINE      ---      ---       #344
      01009F93H   LINE      ---      ---       #345
      01009F9DH   LINE      ---      ---       #346
      01009F9DH   LINE      ---      ---       #347
      01009F9DH   LINE      ---      ---       #348
LX51 LINKER/LOCATER V4.66.93.0                                                        04/11/2019  16:58:21  PAGE 53


      01009F9FH   LINE      ---      ---       #354
      01009FA5H   LINE      ---      ---       #355
      01009FA5H   LINE      ---      ---       #356
      01009FB2H   LINE      ---      ---       #357
      01009FB2H   LINE      ---      ---       #358
      01009FB2H   LINE      ---      ---       #359
      01009FB4H   LINE      ---      ---       #361
      01009FB4H   LINE      ---      ---       #362
      01009FB4H   LINE      ---      ---       #363
      01009FB4H   LINE      ---      ---       #364
      01009FB6H   LINE      ---      ---       #365
      01009FBAH   LINE      ---      ---       #366
      01009FBAH   LINE      ---      ---       #367
      01009FC9H   LINE      ---      ---       #368
      01009FC9H   LINE      ---      ---       #369
      01009FCFH   LINE      ---      ---       #370
      01009FD0H   LINE      ---      ---       #372
      01009FD0H   LINE      ---      ---       #373
      01009FD5H   LINE      ---      ---       #374
      01009FD5H   LINE      ---      ---       #375
      01009FD5H   LINE      ---      ---       #377
      01009FD5H   LINE      ---      ---       #379
      01009FD5H   LINE      ---      ---       #380
      ---         BLOCKEND  ---      ---       LVL=0

      010092B0H   BLOCK     CODE     ---       LVL=0
      010092B0H   LINE      ---      ---       #382
      010092B0H   LINE      ---      ---       #383
      00000007H   SYMBOL    DATA     BYTE      Refresh_En
      010092B0H   BLOCK     CODE     NEAR LAB  LVL=1
      010092B0H   LINE      ---      ---       #387
      010092B7H   LINE      ---      ---       #392
      010092BDH   LINE      ---      ---       #393
      010092C3H   LINE      ---      ---       #394
      010092C3H   LINE      ---      ---       #395
      010092C5H   LINE      ---      ---       #396
      010092C5H   LINE      ---      ---       #398
      010092CDH   LINE      ---      ---       #400
      010092CDH   LINE      ---      ---       #401
      010092CFH   LINE      ---      ---       #402
      010092CFH   LINE      ---      ---       #405
      010092D2H   LINE      ---      ---       #406
      010092D4H   LINE      ---      ---       #409
      010092D7H   LINE      ---      ---       #410
      010092D7H   LINE      ---      ---       #411
      010092DFH   LINE      ---      ---       #412
      010092DFH   LINE      ---      ---       #414
      010092EFH   LINE      ---      ---       #417
      010092EFH   LINE      ---      ---       #418
      010092F9H   LINE      ---      ---       #421
      010092F9H   LINE      ---      ---       #422
      010092FCH   LINE      ---      ---       #423
      010092FCH   LINE      ---      ---       #424
      010092FEH   LINE      ---      ---       #426
      01009318H   LINE      ---      ---       #427
      01009318H   LINE      ---      ---       #428
      0100931EH   LINE      ---      ---       #431
      0100931EH   LINE      ---      ---       #432
      01009327H   LINE      ---      ---       #433
      01009327H   LINE      ---      ---       #434
      01009329H   LINE      ---      ---       #436
      01009329H   LINE      ---      ---       #437
      0100932FH   LINE      ---      ---       #438
      0100932FH   LINE      ---      ---       #439
      01009332H   LINE      ---      ---       #440
LX51 LINKER/LOCATER V4.66.93.0                                                        04/11/2019  16:58:21  PAGE 54


      01009332H   LINE      ---      ---       #441
      01009332H   LINE      ---      ---       #443
      01009340H   LINE      ---      ---       #444
      01009340H   LINE      ---      ---       #445
      01009349H   LINE      ---      ---       #446
      01009349H   LINE      ---      ---       #447
      0100934FH   LINE      ---      ---       #448
      01009354H   LINE      ---      ---       #449
      01009356H   LINE      ---      ---       #450
      01009359H   LINE      ---      ---       #451
      01009359H   LINE      ---      ---       #452
      01009368H   LINE      ---      ---       #453
      0100936DH   LINE      ---      ---       #454
      0100936DH   LINE      ---      ---       #456
      0100936DH   LINE      ---      ---       #458
      0100936DH   LINE      ---      ---       #460
      01009370H   LINE      ---      ---       #461
      01009370H   LINE      ---      ---       #462
      010093A6H   LINE      ---      ---       #467
      010093A8H   LINE      ---      ---       #468
      010093B4H   LINE      ---      ---       #469
      010093B4H   LINE      ---      ---       #470
      010093CDH   LINE      ---      ---       #473
      010093D6H   LINE      ---      ---       #474
      010093D8H   LINE      ---      ---       #476
      010093D8H   LINE      ---      ---       #477
      010093FFH   LINE      ---      ---       #480
      01009413H   LINE      ---      ---       #481
      01009413H   LINE      ---      ---       #482
      01009413H   LINE      ---      ---       #485
      0100941DH   LINE      ---      ---       #487
      0100941DH   LINE      ---      ---       #488
      01009423H   LINE      ---      ---       #491
      01009423H   LINE      ---      ---       #492
      0100942CH   LINE      ---      ---       #493
      0100942CH   LINE      ---      ---       #494
      0100942EH   LINE      ---      ---       #496
      0100942EH   LINE      ---      ---       #497
      01009434H   LINE      ---      ---       #498
      01009434H   LINE      ---      ---       #499
      01009437H   LINE      ---      ---       #500
      01009437H   LINE      ---      ---       #501
      01009437H   LINE      ---      ---       #503
      01009443H   LINE      ---      ---       #504
      01009443H   LINE      ---      ---       #505
      01009449H   LINE      ---      ---       #506
      01009449H   LINE      ---      ---       #507
      0100947EH   LINE      ---      ---       #510
      0100947EH   LINE      ---      ---       #512
      0100947EH   LINE      ---      ---       #513
      01009492H   LINE      ---      ---       #514
      010094A3H   LINE      ---      ---       #515
      010094A3H   LINE      ---      ---       #516
      010094A3H   LINE      ---      ---       #517
      02000001H   SYMBOL    XDATA    BYTE      Refresh_WenDu_Cnt
      02000002H   SYMBOL    XDATA    BYTE      Alarm_WenDu_Cnt
      02000196H   SYMBOL    XDATA    WORD      Disp
      02000198H   SYMBOL    XDATA    WORD      color
      0200019AH   SYMBOL    XDATA    WORD      Temp_Dis_En
      00000003H   SYMBOL    DATA     BYTE      Disp_Err
      ---         BLOCKEND  CODE     ---       LVL=1
      ---         BLOCKEND  CODE     ---       LVL=0

      01008BA4H   BLOCK     CODE     ---       LVL=0
      01008BA4H   LINE      ---      ---       #520
LX51 LINKER/LOCATER V4.66.93.0                                                        04/11/2019  16:58:21  PAGE 55


      01008BA9H   LINE      ---      ---       #522
      02000196H   SYMBOL    XDATA    BYTE      Refresh_En
      01008BA9H   BLOCK     CODE     NEAR LAB  LVL=1
      01008BA9H   LINE      ---      ---       #523
      01008BABH   LINE      ---      ---       #531
      01008BAFH   LINE      ---      ---       #534
      01008BB6H   LINE      ---      ---       #535
      01008BB6H   LINE      ---      ---       #536
      01008BB8H   LINE      ---      ---       #537
      01008BC1H   LINE      ---      ---       #538
      01008BC1H   LINE      ---      ---       #539
      01008BC1H   LINE      ---      ---       #540
      01008BC3H   LINE      ---      ---       #542
      01008BC3H   LINE      ---      ---       #543
      01008BC8H   LINE      ---      ---       #544
      01008BCAH   LINE      ---      ---       #546
      01008BCFH   LINE      ---      ---       #547
      01008BD5H   LINE      ---      ---       #549
      01008BDEH   LINE      ---      ---       #550
      01008BDEH   LINE      ---      ---       #551
      01008BDEH   LINE      ---      ---       #552
      01008BE0H   LINE      ---      ---       #554
      01008BE0H   LINE      ---      ---       #555
      01008BE5H   LINE      ---      ---       #556
      01008BEEH   LINE      ---      ---       #557
      01008BEEH   LINE      ---      ---       #558
      01008BEEH   LINE      ---      ---       #559
      01008BF0H   LINE      ---      ---       #560
      01008BF0H   LINE      ---      ---       #561
      01008BF5H   LINE      ---      ---       #562
      01008BFEH   LINE      ---      ---       #563
      01008BFEH   LINE      ---      ---       #564
      01008C01H   LINE      ---      ---       #565
      01008C01H   LINE      ---      ---       #566
      01008C01H   LINE      ---      ---       #567
      01008C01H   LINE      ---      ---       #568
      01008C01H   LINE      ---      ---       #569
      01008C01H   LINE      ---      ---       #571
      01008C0BH   LINE      ---      ---       #572
      01008C0BH   LINE      ---      ---       #574
      01008C10H   LINE      ---      ---       #575
      01008C10H   LINE      ---      ---       #576
      01008C13H   LINE      ---      ---       #577
      01008C1EH   LINE      ---      ---       #578
      01008C27H   LINE      ---      ---       #579
      01008C32H   LINE      ---      ---       #580
      01008C3BH   LINE      ---      ---       #581
      01008C46H   LINE      ---      ---       #582
      01008C4FH   LINE      ---      ---       #583
      01008C4FH   LINE      ---      ---       #584
      01008C4FH   LINE      ---      ---       #585
      00000007H   SYMBOL    DATA     BYTE      t
      02000003H   SYMBOL    XDATA    BYTE      Last_Sec
      02000004H   SYMBOL    XDATA    BYTE      Work_Min
      02000005H   SYMBOL    XDATA    BYTE      Work_Sec
      02000006H   SYMBOL    XDATA    BYTE      Work_Day
      02000007H   SYMBOL    XDATA    BYTE      Work_Hour
      ---         BLOCKEND  CODE     ---       LVL=1
      ---         BLOCKEND  CODE     ---       LVL=0

      01008B63H   BLOCK     CODE     ---       LVL=0
      01008B63H   LINE      ---      ---       #588
      01008B63H   LINE      ---      ---       #589
      01008B63H   BLOCK     CODE     NEAR LAB  LVL=1
      01008B63H   LINE      ---      ---       #592
LX51 LINKER/LOCATER V4.66.93.0                                                        04/11/2019  16:58:21  PAGE 56


      01008B65H   LINE      ---      ---       #597
      01008B69H   LINE      ---      ---       #599
      01008B70H   LINE      ---      ---       #600
      01008B70H   LINE      ---      ---       #601
      01008B72H   LINE      ---      ---       #603
      01008B7EH   LINE      ---      ---       #604
      01008B7EH   LINE      ---      ---       #605
      01008B80H   LINE      ---      ---       #606
      01008B80H   LINE      ---      ---       #608
      01008B9AH   LINE      ---      ---       #614
      01008B9AH   LINE      ---      ---       #615
      02000008H   SYMBOL    XDATA    BYTE      Last_Min
      00000007H   SYMBOL    DATA     BYTE      t
      02000009H   SYMBOL    XDATA    BYTE      Last_Sec
      ---         BLOCKEND  CODE     ---       LVL=1
      ---         BLOCKEND  CODE     ---       LVL=0

      01007428H   BLOCK     CODE     ---       LVL=0
      01007428H   LINE      ---      ---       #617
      01007428H   LINE      ---      ---       #618
      01007428H   BLOCK     CODE     NEAR LAB  LVL=1
      01007428H   LINE      ---      ---       #621
      0100742DH   LINE      ---      ---       #632
      01007433H   LINE      ---      ---       #633
      01007439H   LINE      ---      ---       #634
      01007439H   LINE      ---      ---       #635
      0100743BH   LINE      ---      ---       #636
      01007445H   LINE      ---      ---       #637
      01007450H   LINE      ---      ---       #638
      0100745FH   LINE      ---      ---       #639
      0100747DH   LINE      ---      ---       #640
      0100747DH   LINE      ---      ---       #653
      0100748CH   LINE      ---      ---       #654
      0100748CH   LINE      ---      ---       #655
      0100748EH   LINE      ---      ---       #656
      0100748EH   LINE      ---      ---       #658
      0100748EH   LINE      ---      ---       #659
      01007494H   LINE      ---      ---       #660
      01007494H   LINE      ---      ---       #661
      0100749BH   LINE      ---      ---       #662
      0100749DH   LINE      ---      ---       #663
      0100749DH   LINE      ---      ---       #664
      0100749DH   LINE      ---      ---       #665
      0100749FH   LINE      ---      ---       #667
      0100749FH   LINE      ---      ---       #668
      010074A4H   LINE      ---      ---       #669
      010074A4H   LINE      ---      ---       #670
      010074A4H   LINE      ---      ---       #671
      010074A6H   LINE      ---      ---       #672
      010074B0H   LINE      ---      ---       #673
      010074B0H   LINE      ---      ---       #675
      010074B7H   LINE      ---      ---       #677
      010074B7H   LINE      ---      ---       #678
      010074B9H   LINE      ---      ---       #683
      010074CDH   LINE      ---      ---       #684
      010074CDH   LINE      ---      ---       #686
      010074D2H   LINE      ---      ---       #687
      010074D4H   LINE      ---      ---       #689
      010074D4H   LINE      ---      ---       #690
      010074D9H   LINE      ---      ---       #691
      010074E4H   LINE      ---      ---       #694
      010074E4H   LINE      ---      ---       #695
      010074EAH   LINE      ---      ---       #696
      010074EAH   LINE      ---      ---       #697
      01007515H   LINE      ---      ---       #698
LX51 LINKER/LOCATER V4.66.93.0                                                        04/11/2019  16:58:21  PAGE 57


      01007517H   LINE      ---      ---       #700
      01007517H   LINE      ---      ---       #701
      01007544H   LINE      ---      ---       #702
      01007544H   LINE      ---      ---       #705
      01007551H   LINE      ---      ---       #706
      01007551H   LINE      ---      ---       #707
      01007587H   LINE      ---      ---       #708
      01007587H   LINE      ---      ---       #711
      01007594H   LINE      ---      ---       #712
      01007594H   LINE      ---      ---       #713
      010075A7H   LINE      ---      ---       #714
      010075A7H   LINE      ---      ---       #715
      010075ADH   LINE      ---      ---       #716
      010075ADH   LINE      ---      ---       #717
      010075AFH   LINE      ---      ---       #719
      010075AFH   LINE      ---      ---       #720
      010075B4H   LINE      ---      ---       #721
      010075B4H   LINE      ---      ---       #722
      010075B4H   LINE      ---      ---       #723
      010075B4H   LINE      ---      ---       #724
      010075B6H   LINE      ---      ---       #726
      010075B6H   LINE      ---      ---       #727
      010075C3H   LINE      ---      ---       #729
      010075C3H   LINE      ---      ---       #730
      010075C3H   LINE      ---      ---       #731
      010075C5H   LINE      ---      ---       #733
      010075C5H   LINE      ---      ---       #735
      010075C5H   LINE      ---      ---       #738
      010075C5H   LINE      ---      ---       #739
      010075CCH   LINE      ---      ---       #740
      010075CCH   LINE      ---      ---       #741
      010075D3H   LINE      ---      ---       #742
      010075D8H   LINE      ---      ---       #743
      010075D8H   LINE      ---      ---       #744
      010075D8H   LINE      ---      ---       #745
      010075DAH   LINE      ---      ---       #747
      010075DAH   LINE      ---      ---       #748
      010075DDH   LINE      ---      ---       #749
      010075E2H   LINE      ---      ---       #750
      010075E2H   LINE      ---      ---       #751
      010075E4H   LINE      ---      ---       #752
      010075EEH   LINE      ---      ---       #753
      010075EEH   LINE      ---      ---       #755
      010075F5H   LINE      ---      ---       #757
      010075F5H   LINE      ---      ---       #759
      010075F7H   LINE      ---      ---       #762
      0100760BH   LINE      ---      ---       #763
      0100760BH   LINE      ---      ---       #764
      01007614H   LINE      ---      ---       #765
      01007614H   LINE      ---      ---       #766
      01007617H   LINE      ---      ---       #767
      01007617H   LINE      ---      ---       #768
      0100761EH   LINE      ---      ---       #769
      01007624H   LINE      ---      ---       #771
      01007626H   LINE      ---      ---       #773
      01007626H   LINE      ---      ---       #774
      0100762BH   LINE      ---      ---       #775
      01007636H   LINE      ---      ---       #776
      0100763BH   LINE      ---      ---       #777
      01007647H   LINE      ---      ---       #778
      01007647H   LINE      ---      ---       #779
      01007651H   LINE      ---      ---       #780
      01007651H   LINE      ---      ---       #781
      0100765BH   LINE      ---      ---       #782
      01007666H   LINE      ---      ---       #785
LX51 LINKER/LOCATER V4.66.93.0                                                        04/11/2019  16:58:21  PAGE 58


      01007666H   LINE      ---      ---       #786
      01007674H   LINE      ---      ---       #787
      01007674H   LINE      ---      ---       #788
      01007681H   LINE      ---      ---       #789
      01007681H   LINE      ---      ---       #790
      0100769EH   LINE      ---      ---       #791
      010076A6H   LINE      ---      ---       #792
      010076A6H   LINE      ---      ---       #793
      010076AFH   LINE      ---      ---       #794
      010076AFH   LINE      ---      ---       #795
      010076B1H   LINE      ---      ---       #797
      010076B1H   LINE      ---      ---       #798
      010076B4H   LINE      ---      ---       #799
      010076B4H   LINE      ---      ---       #800
      010076C4H   LINE      ---      ---       #801
      010076C6H   LINE      ---      ---       #803
      010076C6H   LINE      ---      ---       #804
      010076D0H   LINE      ---      ---       #806
      010076D0H   LINE      ---      ---       #808
      010076DFH   LINE      ---      ---       #809
      010076DFH   LINE      ---      ---       #810
      010076F5H   LINE      ---      ---       #811
      010076F5H   LINE      ---      ---       #812
      010076F5H   LINE      ---      ---       #814
      010076F5H   LINE      ---      ---       #816
      010076F5H   LINE      ---      ---       #817
      010076FBH   LINE      ---      ---       #818
      0100770AH   LINE      ---      ---       #819
      0100770AH   LINE      ---      ---       #820
      01007711H   LINE      ---      ---       #821
      01007711H   LINE      ---      ---       #822
      01007711H   LINE      ---      ---       #823
      01007711H   LINE      ---      ---       #825
      01007711H   LINE      ---      ---       #827
      01007711H   LINE      ---      ---       #830
      01007711H   LINE      ---      ---       #832
      01007711H   LINE      ---      ---       #834
      01007711H   LINE      ---      ---       #836
      01007721H   LINE      ---      ---       #837
      01007721H   LINE      ---      ---       #838
      0100772AH   LINE      ---      ---       #839
      0100772AH   LINE      ---      ---       #840
      0100772DH   LINE      ---      ---       #841
      0100772DH   LINE      ---      ---       #842
      01007736H   LINE      ---      ---       #843
      01007736H   LINE      ---      ---       #844
      01007739H   LINE      ---      ---       #845
      01007739H   LINE      ---      ---       #847
      0100773BH   LINE      ---      ---       #849
      0100773BH   LINE      ---      ---       #850
      01007740H   LINE      ---      ---       #851
      01007744H   LINE      ---      ---       #852
      01007744H   LINE      ---      ---       #854
      0100774AH   LINE      ---      ---       #855
      01007750H   LINE      ---      ---       #856
      01007750H   LINE      ---      ---       #857
      01007752H   LINE      ---      ---       #858
      01007758H   LINE      ---      ---       #859
      01007758H   LINE      ---      ---       #860
      0100775AH   LINE      ---      ---       #861
      0100775BH   LINE      ---      ---       #862
      0100775FH   LINE      ---      ---       #863
      0100775FH   LINE      ---      ---       #864
      01007765H   LINE      ---      ---       #865
      01007766H   LINE      ---      ---       #867
LX51 LINKER/LOCATER V4.66.93.0                                                        04/11/2019  16:58:21  PAGE 59


      01007766H   LINE      ---      ---       #868
      0100776BH   LINE      ---      ---       #869
      0100776BH   LINE      ---      ---       #870
      0100776BH   LINE      ---      ---       #871
      0100776BH   LINE      ---      ---       #872
      0200000AH   SYMBOL    XDATA    BYTE      Get_time_out
      0200000BH   SYMBOL    XDATA    BYTE      Read_Order
      02000110H   SYMBOL    XDATA    BYTE      Read_SHT21_Err
      02000111H   SYMBOL    XDATA    BYTE      Read_SCL_CONF
      02000112H   SYMBOL    XDATA    DWORD     TempLong
      02000116H   SYMBOL    XDATA    WORD      Temp2
      0200000CH   SYMBOL    XDATA    WORD      RT_Temp_Mem_L1
      0200000EH   SYMBOL    XDATA    WORD      RT_Temp_Mem_L2
      02000010H   SYMBOL    XDATA    WORD      RT_Temp_Mem_L3
      02000012H   SYMBOL    XDATA    BYTE      ReCnt
      ---         BLOCKEND  CODE     ---       LVL=1
      ---         BLOCKEND  CODE     ---       LVL=0

      01007021H   BLOCK     CODE     ---       LVL=0
      01007021H   LINE      ---      ---       #875
      01007021H   LINE      ---      ---       #876
      01007021H   BLOCK     CODE     NEAR LAB  LVL=1
      01007021H   LINE      ---      ---       #878
      01007026H   LINE      ---      ---       #895
      0100702AH   LINE      ---      ---       #896
      0100702CH   LINE      ---      ---       #899
      01007032H   LINE      ---      ---       #904
      01007038H   LINE      ---      ---       #905
      0100703EH   LINE      ---      ---       #906
      0100703EH   LINE      ---      ---       #907
      01007040H   LINE      ---      ---       #908
      01007040H   LINE      ---      ---       #910
      0100704FH   LINE      ---      ---       #911
      0100704FH   LINE      ---      ---       #912
      01007051H   LINE      ---      ---       #913
      01007051H   LINE      ---      ---       #914
      0100705AH   LINE      ---      ---       #915
      0100705AH   LINE      ---      ---       #916
      0100705DH   LINE      ---      ---       #917
      0100705DH   LINE      ---      ---       #919
      01007063H   LINE      ---      ---       #920
      01007063H   LINE      ---      ---       #921
      01007066H   LINE      ---      ---       #929
      01007068H   LINE      ---      ---       #931
      0100706CH   LINE      ---      ---       #932
      0100706CH   LINE      ---      ---       #933
      01007076H   LINE      ---      ---       #935
      01007076H   LINE      ---      ---       #936
      01007079H   LINE      ---      ---       #943
      01007081H   LINE      ---      ---       #944
      01007083H   LINE      ---      ---       #946
      01007087H   LINE      ---      ---       #947
      01007089H   LINE      ---      ---       #948
      01007090H   LINE      ---      ---       #950
      01007098H   LINE      ---      ---       #951
      0100709FH   LINE      ---      ---       #953
      010070A7H   LINE      ---      ---       #955
      010070AFH   LINE      ---      ---       #956
      010070AFH   LINE      ---      ---       #957
      010070B7H   LINE      ---      ---       #958
      010070E2H   LINE      ---      ---       #975
      010070F6H   LINE      ---      ---       #977
      010070F9H   LINE      ---      ---       #978
      010070F9H   LINE      ---      ---       #979
      010070FCH   LINE      ---      ---       #980
LX51 LINKER/LOCATER V4.66.93.0                                                        04/11/2019  16:58:21  PAGE 60


      010070FCH   LINE      ---      ---       #982
      01007104H   LINE      ---      ---       #983
      01007104H   LINE      ---      ---       #984
      01007109H   LINE      ---      ---       #985
      0100710FH   LINE      ---      ---       #988
      01007112H   LINE      ---      ---       #989
      01007112H   LINE      ---      ---       #990
      01007117H   LINE      ---      ---       #992
      01007119H   LINE      ---      ---       #994
      01007119H   LINE      ---      ---       #995
      0100711CH   LINE      ---      ---       #996
      01007122H   LINE      ---      ---       #997
      01007122H   LINE      ---      ---       #999
      01007139H   LINE      ---      ---       #1000
      01007139H   LINE      ---      ---       #1001
      0100713EH   LINE      ---      ---       #1002
      0100714DH   LINE      ---      ---       #1003
      0100714DH   LINE      ---      ---       #1004
      01007154H   LINE      ---      ---       #1005
      01007154H   LINE      ---      ---       #1006
      01007156H   LINE      ---      ---       #1008
      01007156H   LINE      ---      ---       #1009
      0100715DH   LINE      ---      ---       #1010
      0100715DH   LINE      ---      ---       #1012
      0100716CH   LINE      ---      ---       #1013
      0100716CH   LINE      ---      ---       #1015
      0100716CH   LINE      ---      ---       #1017
      0100716CH   LINE      ---      ---       #1018
      01007173H   LINE      ---      ---       #1019
      01007173H   LINE      ---      ---       #1022
      010071B4H   LINE      ---      ---       #1023
      010071B4H   LINE      ---      ---       #1024
      010071C9H   LINE      ---      ---       #1025
      010071C9H   LINE      ---      ---       #1026
      010071D2H   LINE      ---      ---       #1027
      010071D6H   LINE      ---      ---       #1028
      010071D6H   LINE      ---      ---       #1029
      010071F4H   LINE      ---      ---       #1030
      010071F4H   LINE      ---      ---       #1031
      010071F4H   LINE      ---      ---       #1032
      010071F4H   LINE      ---      ---       #1034
      010071F4H   LINE      ---      ---       #1036
      010071F4H   LINE      ---      ---       #1037
      01007203H   LINE      ---      ---       #1038
      01007203H   LINE      ---      ---       #1039
      01007203H   LINE      ---      ---       #1046
      01007203H   LINE      ---      ---       #1047
      0100720AH   LINE      ---      ---       #1048
      0100720AH   LINE      ---      ---       #1050
      0100720FH   LINE      ---      ---       #1051
      01007215H   LINE      ---      ---       #1061
      01007218H   LINE      ---      ---       #1062
      01007218H   LINE      ---      ---       #1063
      0100721DH   LINE      ---      ---       #1065
      0100721FH   LINE      ---      ---       #1067
      0100721FH   LINE      ---      ---       #1068
      01007222H   LINE      ---      ---       #1069
      01007228H   LINE      ---      ---       #1070
      01007228H   LINE      ---      ---       #1073
      01007236H   LINE      ---      ---       #1074
      01007236H   LINE      ---      ---       #1075
      0100723BH   LINE      ---      ---       #1076
      0100724AH   LINE      ---      ---       #1077
      0100724AH   LINE      ---      ---       #1078
      01007251H   LINE      ---      ---       #1079
LX51 LINKER/LOCATER V4.66.93.0                                                        04/11/2019  16:58:21  PAGE 61


      01007251H   LINE      ---      ---       #1080
      01007253H   LINE      ---      ---       #1082
      01007253H   LINE      ---      ---       #1083
      0100725AH   LINE      ---      ---       #1084
      0100725AH   LINE      ---      ---       #1085
      01007264H   LINE      ---      ---       #1087
      0100726DH   LINE      ---      ---       #1096
      0100726DH   LINE      ---      ---       #1097
      0100726DH   LINE      ---      ---       #1099
      0100726DH   LINE      ---      ---       #1101
      0100726DH   LINE      ---      ---       #1102
      02000110H   SYMBOL    XDATA    BYTE      CQKSensorExist
      02000111H   SYMBOL    XDATA    BYTE      T18B20_L
      02000112H   SYMBOL    XDATA    BYTE      T18B20_H
      02000113H   SYMBOL    XDATA    BYTE      CQK_T18B20_L
      02000114H   SYMBOL    XDATA    BYTE      CQK_T18B20_H
      00000005H   SYMBOL    DATA     BYTE      T18B20_H_GET
      00000004H   SYMBOL    DATA     BYTE      T18B20_L_GET
      00000005H   SYMBOL    DATA     BYTE      CQK_T18B20_H_GET
      00000004H   SYMBOL    DATA     BYTE      CQK_T18B20_L_GET
      02000013H   SYMBOL    XDATA    WORD      CQK_Temp_Last
      02000115H   SYMBOL    XDATA    BYTE      CRC8_error
      02000116H   SYMBOL    XDATA    BYTE      checksum
      02000117H   SYMBOL    XDATA    ---       DS18B20_Cdata
      0200011FH   SYMBOL    XDATA    WORD      temp
      02000015H   SYMBOL    XDATA    WORD      JRP_Temp_Last
      02000017H   SYMBOL    XDATA    BYTE      Get_Temp_Cnt
      ---         BLOCKEND  CODE     ---       LVL=1
      ---         BLOCKEND  CODE     ---       LVL=0

      0100A8B2H   BLOCK     CODE     ---       LVL=0
      0100A8B2H   LINE      ---      ---       #1108
      0100A8B2H   LINE      ---      ---       #1109
      0100A8B2H   BLOCK     CODE     NEAR LAB  LVL=1
      0100A8B2H   LINE      ---      ---       #1111
      0100A8B5H   LINE      ---      ---       #1122
      0100A8C3H   LINE      ---      ---       #1123
      0100A8C3H   LINE      ---      ---       #1124
      0100A8C6H   LINE      ---      ---       #1125
      0100A9AAH   LINE      ---      ---       #1146
      0100A9B2H   LINE      ---      ---       #1147
      0100A9B2H   LINE      ---      ---       #1148
      0100A9CFH   LINE      ---      ---       #1151
      0100A9DEH   LINE      ---      ---       #1152
      0100A9DEH   LINE      ---      ---       #1153
      0100A9E7H   LINE      ---      ---       #1154
      0100A9E9H   LINE      ---      ---       #1156
      0100A9E9H   LINE      ---      ---       #1157
      0100A9F9H   LINE      ---      ---       #1158
      0100A9F9H   LINE      ---      ---       #1161
      0100AA0BH   LINE      ---      ---       #1164
      0100AA1AH   LINE      ---      ---       #1165
      0100AA1AH   LINE      ---      ---       #1166
      0100AA23H   LINE      ---      ---       #1167
      0100AA25H   LINE      ---      ---       #1169
      0100AA25H   LINE      ---      ---       #1170
      0100AA35H   LINE      ---      ---       #1171
      0100AA35H   LINE      ---      ---       #1174
      0100AA49H   LINE      ---      ---       #1175
      0100AA4BH   LINE      ---      ---       #1177
      0100AA4BH   LINE      ---      ---       #1178
      0100AA68H   LINE      ---      ---       #1180
      0100AA68H   LINE      ---      ---       #1182
      0100AABFH   LINE      ---      ---       #1188
      0100AABFH   LINE      ---      ---       #1195
LX51 LINKER/LOCATER V4.66.93.0                                                        04/11/2019  16:58:21  PAGE 62


      0100AAD8H   LINE      ---      ---       #1196
      0100AAD8H   LINE      ---      ---       #1197
      0100AADFH   LINE      ---      ---       #1199
      0100AAE4H   LINE      ---      ---       #1201
      0100AAEBH   LINE      ---      ---       #1203
      0100AAEEH   LINE      ---      ---       #1204
      0100AAEEH   LINE      ---      ---       #1206
      0100AAEEH   LINE      ---      ---       #1209
      0100AAF7H   LINE      ---      ---       #1210
      0100AAF7H   LINE      ---      ---       #1211
      0100AAFEH   LINE      ---      ---       #1212
      0100AB00H   LINE      ---      ---       #1213
      0100AB00H   LINE      ---      ---       #1214
      0100AB07H   LINE      ---      ---       #1215
      0100AB07H   LINE      ---      ---       #1217
      0100AB09H   LINE      ---      ---       #1219
      0100AB15H   LINE      ---      ---       #1220
      0100AB15H   LINE      ---      ---       #1221
      0100AB1DH   LINE      ---      ---       #1222
      0100AB1DH   LINE      ---      ---       #1223
      0100AB22H   LINE      ---      ---       #1224
      0100AB22H   LINE      ---      ---       #1225
      0100AB29H   LINE      ---      ---       #1226
      0100AB2BH   LINE      ---      ---       #1228
      0100AB2BH   LINE      ---      ---       #1229
      0100AB3BH   LINE      ---      ---       #1230
      0100AB3BH   LINE      ---      ---       #1231
      0100AB4DH   LINE      ---      ---       #1232
      0100AB4DH   LINE      ---      ---       #1233
      0100AB52H   LINE      ---      ---       #1234
      0100AB52H   LINE      ---      ---       #1238
      0100AB6AH   LINE      ---      ---       #1239
      0100AB6DH   LINE      ---      ---       #1240
      0100AB77H   LINE      ---      ---       #1242
      0100AB7DH   LINE      ---      ---       #1243
      0100AB7DH   LINE      ---      ---       #1244
      0100AB97H   LINE      ---      ---       #1245
      0100AB97H   LINE      ---      ---       #1247
      0100AB97H   LINE      ---      ---       #1248
      0100ABA5H   LINE      ---      ---       #1249
      0100ABA5H   LINE      ---      ---       #1251
      0100ABA5H   LINE      ---      ---       #1252
      0100ABADH   LINE      ---      ---       #1253
      0100ABADH   LINE      ---      ---       #1255
      0100ABADH   LINE      ---      ---       #1256
      0100ABBAH   LINE      ---      ---       #1257
      0100ABBAH   LINE      ---      ---       #1259
      0100ABBAH   LINE      ---      ---       #1261
      0100ABBAH   LINE      ---      ---       #1262
      0100ABBAH   LINE      ---      ---       #1263
      0100ABBAH   LINE      ---      ---       #1264
      0100ABBCH   LINE      ---      ---       #1266
      0100ABBCH   LINE      ---      ---       #1267
      0100ABBCH   LINE      ---      ---       #1268
      0100ABBCH   LINE      ---      ---       #1269
      0100ABBEH   LINE      ---      ---       #1271
      0100ABBEH   LINE      ---      ---       #1272
      0100ABC0H   LINE      ---      ---       #1273
      0100ABC0H   LINE      ---      ---       #1275
      0100ABC5H   LINE      ---      ---       #1276
      0100ABC5H   LINE      ---      ---       #1278
      0100ABC5H   LINE      ---      ---       #1280
      0100ABC5H   LINE      ---      ---       #1281
      0100ABD0H   LINE      ---      ---       #1282
      0100ABD0H   LINE      ---      ---       #1283
LX51 LINKER/LOCATER V4.66.93.0                                                        04/11/2019  16:58:21  PAGE 63


      0100ABD6H   LINE      ---      ---       #1284
      0100ABD6H   LINE      ---      ---       #1285
      0100ABD6H   LINE      ---      ---       #1288
      0100ABE1H   LINE      ---      ---       #1290
      0100ABE3H   LINE      ---      ---       #1291
      0100ABE9H   LINE      ---      ---       #1292
      0100ABE9H   LINE      ---      ---       #1293
      0100ABE9H   LINE      ---      ---       #1294
      0100AC00H   LINE      ---      ---       #1295
      0100AC08H   LINE      ---      ---       #1296
      0100AC08H   LINE      ---      ---       #1297
      0100AC0DH   LINE      ---      ---       #1298
      0100AC0DH   LINE      ---      ---       #1299
      0100AC13H   LINE      ---      ---       #1300
      0100AC13H   LINE      ---      ---       #1301
      0100AC1DH   LINE      ---      ---       #1302
      0100AC1DH   LINE      ---      ---       #1303
      0100AC36H   LINE      ---      ---       #1304
      0100AC36H   LINE      ---      ---       #1305
      0100AC36H   LINE      ---      ---       #1306
      0100AC40H   LINE      ---      ---       #1307
      0100AC40H   LINE      ---      ---       #1308
      0100AC40H   LINE      ---      ---       #1309
      0100AC40H   LINE      ---      ---       #1310
      0100AC40H   LINE      ---      ---       #1311
      0100AC42H   LINE      ---      ---       #1313
      0100AC42H   LINE      ---      ---       #1314
      0100AC44H   LINE      ---      ---       #1315
      0100AC44H   LINE      ---      ---       #1316
      0100AC4FH   LINE      ---      ---       #1317
      0100AC4FH   LINE      ---      ---       #1322
      0100AC58H   LINE      ---      ---       #1323
      0100AC58H   LINE      ---      ---       #1324
      0100AC63H   LINE      ---      ---       #1326
      0100AC63H   LINE      ---      ---       #1327
      0100AC69H   LINE      ---      ---       #1328
      0100AC69H   LINE      ---      ---       #1329
      0100AC6BH   LINE      ---      ---       #1331
      0100AC6BH   LINE      ---      ---       #1332
      0100AC72H   LINE      ---      ---       #1333
      0100AC72H   LINE      ---      ---       #1335
      0100AC87H   LINE      ---      ---       #1337
      0100AC87H   LINE      ---      ---       #1338
      0100AC8DH   LINE      ---      ---       #1339
      0100AC8DH   LINE      ---      ---       #1341
      0100AC99H   LINE      ---      ---       #1342
      0100AC99H   LINE      ---      ---       #1343
      0100AC9CH   LINE      ---      ---       #1344
      0100AC9CH   LINE      ---      ---       #1345
      0100ACABH   LINE      ---      ---       #1347
      0100ACBAH   LINE      ---      ---       #1348
      0100ACBAH   LINE      ---      ---       #1349
      0100ACC1H   LINE      ---      ---       #1350
      0100ACC8H   LINE      ---      ---       #1352
      0100ACC8H   LINE      ---      ---       #1354
      0100ACDDH   LINE      ---      ---       #1355
      0100ACDDH   LINE      ---      ---       #1356
      0100ACE4H   LINE      ---      ---       #1358
      0100ACE5H   LINE      ---      ---       #1360
      0100ACEDH   LINE      ---      ---       #1361
      0100ACEDH   LINE      ---      ---       #1362
      0100ACF9H   LINE      ---      ---       #1363
      0100ACF9H   LINE      ---      ---       #1364
      0100AD00H   LINE      ---      ---       #1365
      0100AD00H   LINE      ---      ---       #1366
LX51 LINKER/LOCATER V4.66.93.0                                                        04/11/2019  16:58:21  PAGE 64


      0100AD02H   LINE      ---      ---       #1367
      0100AD08H   LINE      ---      ---       #1368
      0100AD0AH   LINE      ---      ---       #1370
      0100AD0AH   LINE      ---      ---       #1371
      0100AD1BH   LINE      ---      ---       #1374
      0100AD1BH   LINE      ---      ---       #1375
      0100AD26H   LINE      ---      ---       #1376
      0100AD26H   LINE      ---      ---       #1378
      0100AD2AH   LINE      ---      ---       #1379
      0100AD2AH   LINE      ---      ---       #1380
      0100AD2CH   LINE      ---      ---       #1382
      0100AD2CH   LINE      ---      ---       #1383
      0100AD37H   LINE      ---      ---       #1384
      0100AD37H   LINE      ---      ---       #1385
      0100AD44H   LINE      ---      ---       #1386
      0100AD44H   LINE      ---      ---       #1387
      0100AD44H   LINE      ---      ---       #1389
      0100AD53H   LINE      ---      ---       #1390
      0100AD53H   LINE      ---      ---       #1392
      0100AD67H   LINE      ---      ---       #1393
      0100AD67H   LINE      ---      ---       #1395
      0100AD6EH   LINE      ---      ---       #1396
      0100AD6EH   LINE      ---      ---       #1398
      0100AD7FH   LINE      ---      ---       #1399
      0100AD7FH   LINE      ---      ---       #1400
      0100AD86H   LINE      ---      ---       #1401
      0100AD86H   LINE      ---      ---       #1402
      0100AD88H   LINE      ---      ---       #1404
      0100AD88H   LINE      ---      ---       #1405
      0100AD99H   LINE      ---      ---       #1406
      0100AD99H   LINE      ---      ---       #1407
      0100AD9CH   LINE      ---      ---       #1408
      0100AD9CH   LINE      ---      ---       #1409
      0100AD9CH   LINE      ---      ---       #1414
      0100ADB7H   LINE      ---      ---       #1415
      0100ADB7H   LINE      ---      ---       #1416
      0100ADBEH   LINE      ---      ---       #1417
      0100ADC0H   LINE      ---      ---       #1419
      0100ADC0H   LINE      ---      ---       #1420
      0100ADC6H   LINE      ---      ---       #1421
      0100ADD7H   LINE      ---      ---       #1422
      0100ADD7H   LINE      ---      ---       #1423
      0100ADEFH   LINE      ---      ---       #1425
      0100ADF2H   LINE      ---      ---       #1427
      0100AE00H   LINE      ---      ---       #1429
      0100AE07H   LINE      ---      ---       #1430
      0100AE07H   LINE      ---      ---       #1431
      0100AE14H   LINE      ---      ---       #1432
      0100AE14H   LINE      ---      ---       #1433
      0100AE1BH   LINE      ---      ---       #1434
      0100AE1BH   LINE      ---      ---       #1435
      0100AE1DH   LINE      ---      ---       #1437
      0100AE1DH   LINE      ---      ---       #1438
      0100AE2AH   LINE      ---      ---       #1439
      0100AE2AH   LINE      ---      ---       #1440
      0100AE31H   LINE      ---      ---       #1441
      0100AE31H   LINE      ---      ---       #1442
      0100AE31H   LINE      ---      ---       #1444
      0100AE36H   LINE      ---      ---       #1446
      0100AE36H   LINE      ---      ---       #1447
      0100AE43H   LINE      ---      ---       #1448
      0100AE43H   LINE      ---      ---       #1449
      0100AE4AH   LINE      ---      ---       #1450
      0100AE4AH   LINE      ---      ---       #1451
      0100AE4CH   LINE      ---      ---       #1453
LX51 LINKER/LOCATER V4.66.93.0                                                        04/11/2019  16:58:21  PAGE 65


      0100AE4CH   LINE      ---      ---       #1454
      0100AE59H   LINE      ---      ---       #1455
      0100AE59H   LINE      ---      ---       #1456
      0100AE5CH   LINE      ---      ---       #1457
      0100AE5CH   LINE      ---      ---       #1458
      0100AE5CH   LINE      ---      ---       #1459
      0100AE5CH   LINE      ---      ---       #1460
      0100AE5CH   LINE      ---      ---       #1463
      0100AE72H   LINE      ---      ---       #1467
      0100AE94H   LINE      ---      ---       #1468
      0100AE94H   LINE      ---      ---       #1469
      0100AE9FH   LINE      ---      ---       #1470
      0100AE9FH   LINE      ---      ---       #1471
      0100AEA5H   LINE      ---      ---       #1472
      0100AEA5H   LINE      ---      ---       #1473
      0100AEB0H   LINE      ---      ---       #1474
      0100AEB0H   LINE      ---      ---       #1475
      0100AEB0H   LINE      ---      ---       #1476
      0100AEB0H   LINE      ---      ---       #1478
      0100AEB0H   LINE      ---      ---       #1480
      0100AEB0H   LINE      ---      ---       #1482
      0100AEB0H   LINE      ---      ---       #1483
      0100AEB0H   LINE      ---      ---       #1484
      0100AEB0H   LINE      ---      ---       #1487
      0100AEBCH   LINE      ---      ---       #1488
      0100AEBCH   LINE      ---      ---       #1489
      0100AEC2H   LINE      ---      ---       #1490
      0100AEC2H   LINE      ---      ---       #1491
      0100AECCH   LINE      ---      ---       #1492
      0100AECCH   LINE      ---      ---       #1493
      0100AED5H   LINE      ---      ---       #1494
      0100AED5H   LINE      ---      ---       #1496
      0100AED6H   LINE      ---      ---       #1497
      0100AEE0H   LINE      ---      ---       #1498
      0100AEE0H   LINE      ---      ---       #1499
      0100AEE3H   LINE      ---      ---       #1501
      0100AEE3H   LINE      ---      ---       #1503
      0100AEE3H   LINE      ---      ---       #1505
      0100AEE3H   LINE      ---      ---       #1507
      0100AEE3H   LINE      ---      ---       #1508
      02000110H   SYMBOL    XDATA    WORD      Val_Calc
      02000112H   SYMBOL    XDATA    INT       Humidity_Err
      02000114H   SYMBOL    XDATA    INT       Humidity_Comp
      02000018H   SYMBOL    XDATA    WORD      Last_Rem_Humidity
      0200001AH   SYMBOL    XDATA    WORD      Aim_SHIDU
      0200001CH   SYMBOL    XDATA    INT       Temp1_Int
      0200001EH   SYMBOL    XDATA    WORD      WarmUp_S_Cnt
      ---         BLOCKEND  CODE     ---       LVL=1
      ---         BLOCKEND  CODE     ---       LVL=0

      0100AFFEH   BLOCK     CODE     ---       LVL=0
      0100AFFEH   LINE      ---      ---       #1511
      0100AFFEH   LINE      ---      ---       #1512
      0100AFFEH   BLOCK     CODE     NEAR LAB  LVL=1
      0100AFFEH   LINE      ---      ---       #1515
      0100B00DH   LINE      ---      ---       #1516
      0100B00DH   LINE      ---      ---       #1518
      0100B00DH   LINE      ---      ---       #1520
      0100B00DH   LINE      ---      ---       #1521
      0100B029H   LINE      ---      ---       #1522
      0100B02DH   LINE      ---      ---       #1523
      0100B03AH   LINE      ---      ---       #1524
      0100B03AH   LINE      ---      ---       #1525
      0100B03CH   LINE      ---      ---       #1526
      0100B03CH   LINE      ---      ---       #1527
LX51 LINKER/LOCATER V4.66.93.0                                                        04/11/2019  16:58:21  PAGE 66


      0100B057H   LINE      ---      ---       #1531
      0100B057H   LINE      ---      ---       #1532
      00000006H   SYMBOL    DATA     WORD      i
      00000005H   SYMBOL    DATA     BYTE      N
      02000118H   SYMBOL    XDATA    BYTE      j
      ---         BLOCKEND  CODE     ---       LVL=1
      ---         BLOCKEND  CODE     ---       LVL=0

      0100B063H   BLOCK     CODE     ---       LVL=0
      0100B063H   LINE      ---      ---       #1534
      0100B063H   LINE      ---      ---       #1535
      0100B063H   BLOCK     CODE     NEAR LAB  LVL=1
      0100B063H   LINE      ---      ---       #1538
      0100B068H   LINE      ---      ---       #1539
      0100B06FH   LINE      ---      ---       #1540
      0100B073H   LINE      ---      ---       #1541
      0100B073H   LINE      ---      ---       #1542
      0100B08EH   LINE      ---      ---       #1544
      0100B095H   LINE      ---      ---       #1545
      0100B09CH   LINE      ---      ---       #1546
      0100B09CH   LINE      ---      ---       #1547
      0100B0ABH   LINE      ---      ---       #1548
      0100B0ADH   LINE      ---      ---       #1549
      0100B0ADH   LINE      ---      ---       #1550
      0100B0BDH   LINE      ---      ---       #1551
      0100B0DEH   LINE      ---      ---       #1552
      0100B0EEH   LINE      ---      ---       #1553
      0100B0F6H   LINE      ---      ---       #1554
      0100B0F6H   LINE      ---      ---       #1556
      0100B0F6H   LINE      ---      ---       #1557
      0100B0FCH   LINE      ---      ---       #1558
      0100B101H   LINE      ---      ---       #1559
      0100B101H   LINE      ---      ---       #1560
      0100B101H   LINE      ---      ---       #1561
      0100B10BH   LINE      ---      ---       #1562
      0100B138H   LINE      ---      ---       #1564
      0100B138H   LINE      ---      ---       #1565
      0100B14EH   LINE      ---      ---       #1566
      0100B14EH   LINE      ---      ---       #1567
      0100B14EH   LINE      ---      ---       #1568
      0100B14EH   LINE      ---      ---       #1569
      0100B152H   LINE      ---      ---       #1570
      02000110H   SYMBOL    XDATA    WORD      Start1
      02000112H   SYMBOL    XDATA    WORD      Start2
      02000114H   SYMBOL    XDATA    WORD      StartAdr
      02000116H   SYMBOL    XDATA    BYTE      N
      02000117H   SYMBOL    XDATA    BYTE      K
      02000118H   SYMBOL    XDATA    BYTE      j
      ---         BLOCKEND  CODE     ---       LVL=1
      ---         BLOCKEND  CODE     ---       LVL=0

      0100B7FDH   BLOCK     CODE     ---       LVL=0
      0100B7FDH   LINE      ---      ---       #1602
      0100B7FDH   LINE      ---      ---       #1603
      0100B7FDH   LINE      ---      ---       #1604
      0100B803H   LINE      ---      ---       #1605
      0100B807H   LINE      ---      ---       #1606
      ---         BLOCKEND  ---      ---       LVL=0

      0100A02DH   BLOCK     CODE     ---       LVL=0
      0100A02DH   LINE      ---      ---       #1609
      0100A02DH   LINE      ---      ---       #1610
      0100A02DH   BLOCK     CODE     NEAR LAB  LVL=1
      0100A02DH   LINE      ---      ---       #1611
      0100A030H   LINE      ---      ---       #1614
LX51 LINKER/LOCATER V4.66.93.0                                                        04/11/2019  16:58:21  PAGE 67


      0100A032H   LINE      ---      ---       #1618
      0100A03AH   LINE      ---      ---       #1620
      0100A03AH   LINE      ---      ---       #1621
      0100A03CH   LINE      ---      ---       #1622
      0100A03CH   LINE      ---      ---       #1623
      0100A041H   LINE      ---      ---       #1624
      0100A044H   LINE      ---      ---       #1631
      0100A077H   LINE      ---      ---       #1633
      0100A077H   LINE      ---      ---       #1634
      0100A081H   LINE      ---      ---       #1636
      0100A08CH   LINE      ---      ---       #1639
      0100A08EH   LINE      ---      ---       #1641
      0100A08EH   LINE      ---      ---       #1642
      0100A099H   LINE      ---      ---       #1644
      0100A099H   LINE      ---      ---       #1646
      0100A0A9H   LINE      ---      ---       #1647
      0100A0A9H   LINE      ---      ---       #1648
      0100A0AFH   LINE      ---      ---       #1649
      0100A0B6H   LINE      ---      ---       #1651
      0100A0BFH   LINE      ---      ---       #1656
      0100A0C1H   LINE      ---      ---       #1658
      0100A0C1H   LINE      ---      ---       #1659
      0100A0CCH   LINE      ---      ---       #1661
      0100A0CCH   LINE      ---      ---       #1664
      0100A0E4H   LINE      ---      ---       #1665
      0100A0E4H   LINE      ---      ---       #1666
      0100A0EAH   LINE      ---      ---       #1667
      0100A0F3H   LINE      ---      ---       #1668
      0100A0F3H   LINE      ---      ---       #1669
      0100A0F6H   LINE      ---      ---       #1671
      0100A0F6H   LINE      ---      ---       #1672
      0100A0FAH   LINE      ---      ---       #1675
      0100A0FCH   LINE      ---      ---       #1676
      0100A0FEH   LINE      ---      ---       #1678
      0100A0FEH   LINE      ---      ---       #1679
      0100A103H   LINE      ---      ---       #1680
      0100A103H   LINE      ---      ---       #1683
      0100A11AH   LINE      ---      ---       #1684
      0100A11AH   LINE      ---      ---       #1685
      0100A120H   LINE      ---      ---       #1686
      0100A12BH   LINE      ---      ---       #1687
      0100A12DH   LINE      ---      ---       #1689
      0100A12DH   LINE      ---      ---       #1690
      0100A138H   LINE      ---      ---       #1692
      0100A138H   LINE      ---      ---       #1693
      0100A142H   LINE      ---      ---       #1694
      0100A142H   LINE      ---      ---       #1695
      0100A144H   LINE      ---      ---       #1696
      0100A146H   LINE      ---      ---       #1698
      0100A146H   LINE      ---      ---       #1699
      0100A148H   LINE      ---      ---       #1700
      0100A148H   LINE      ---      ---       #1703
      0100A152H   LINE      ---      ---       #1704
      0100A152H   LINE      ---      ---       #1705
      0100A154H   LINE      ---      ---       #1706
      0100A156H   LINE      ---      ---       #1708
      0100A156H   LINE      ---      ---       #1709
      0100A158H   LINE      ---      ---       #1710
      0100A158H   LINE      ---      ---       #1713
      0100A15CH   LINE      ---      ---       #1714
      0100A15CH   LINE      ---      ---       #1715
      0100A164H   LINE      ---      ---       #1716
      0100A166H   LINE      ---      ---       #1718
      0100A166H   LINE      ---      ---       #1719
      0100A16CH   LINE      ---      ---       #1720
LX51 LINKER/LOCATER V4.66.93.0                                                        04/11/2019  16:58:21  PAGE 68


      0100A16CH   LINE      ---      ---       #1721
      0100A170H   LINE      ---      ---       #1722
      0100A170H   LINE      ---      ---       #1723
      0100A170H   LINE      ---      ---       #1737
      0100A177H   LINE      ---      ---       #1738
      0100A177H   LINE      ---      ---       #1739
      0100A185H   LINE      ---      ---       #1740
      0100A185H   LINE      ---      ---       #1741
      0100A198H   LINE      ---      ---       #1742
      0100A198H   LINE      ---      ---       #1743
      0100A19FH   LINE      ---      ---       #1744
      0100A19FH   LINE      ---      ---       #1745
      0100A1B0H   LINE      ---      ---       #1746
      0100A1B0H   LINE      ---      ---       #1747
      0100A1B7H   LINE      ---      ---       #1748
      0100A1B7H   LINE      ---      ---       #1749
      0100A1C8H   LINE      ---      ---       #1750
      0100A1C8H   LINE      ---      ---       #1751
      0100A1CCH   LINE      ---      ---       #1752
      0100A1CCH   LINE      ---      ---       #1753
      0100A1D9H   LINE      ---      ---       #1754
      0100A1D9H   LINE      ---      ---       #1755
      0100A1DDH   LINE      ---      ---       #1756
      0100A1DDH   LINE      ---      ---       #1757
      0100A1EEH   LINE      ---      ---       #1758
      0100A1EEH   LINE      ---      ---       #1759
      0100A1F2H   LINE      ---      ---       #1760
      0100A1F2H   LINE      ---      ---       #1761
      0100A203H   LINE      ---      ---       #1762
      0100A203H   LINE      ---      ---       #1763
      0100A209H   LINE      ---      ---       #1764
      0100A209H   LINE      ---      ---       #1765
      0100A219H   LINE      ---      ---       #1766
      0100A219H   LINE      ---      ---       #1767
      0100A220H   LINE      ---      ---       #1768
      0100A220H   LINE      ---      ---       #1769
      0100A231H   LINE      ---      ---       #1770
      0100A231H   LINE      ---      ---       #1771
      0100A235H   LINE      ---      ---       #1772
      0100A235H   LINE      ---      ---       #1773
      0100A249H   LINE      ---      ---       #1774
      0100A249H   LINE      ---      ---       #1775
      0100A249H   LINE      ---      ---       #1778
      0100A24FH   LINE      ---      ---       #1779
      0100A24FH   LINE      ---      ---       #1780
      0100A254H   LINE      ---      ---       #1781
      0100A256H   LINE      ---      ---       #1782
      0100A25AH   LINE      ---      ---       #1783
      0100A25AH   LINE      ---      ---       #1784
      0100A260H   LINE      ---      ---       #1785
      0100A262H   LINE      ---      ---       #1786
      0100A270H   LINE      ---      ---       #1787
      0100A270H   LINE      ---      ---       #1788
      0100A276H   LINE      ---      ---       #1789
      0100A278H   LINE      ---      ---       #1790
      0100A283H   LINE      ---      ---       #1791
      0100A283H   LINE      ---      ---       #1792
      0100A289H   LINE      ---      ---       #1793
      0100A28BH   LINE      ---      ---       #1794
      0100A292H   LINE      ---      ---       #1795
      0100A292H   LINE      ---      ---       #1796
      0100A298H   LINE      ---      ---       #1797
      0100A29AH   LINE      ---      ---       #1798
      0100A29EH   LINE      ---      ---       #1799
      0100A29EH   LINE      ---      ---       #1800
LX51 LINKER/LOCATER V4.66.93.0                                                        04/11/2019  16:58:21  PAGE 69


      0100A2A4H   LINE      ---      ---       #1801
      0100A2A6H   LINE      ---      ---       #1802
      0100A2ACH   LINE      ---      ---       #1803
      0100A2ACH   LINE      ---      ---       #1804
      0100A2B2H   LINE      ---      ---       #1805
      0100A2B4H   LINE      ---      ---       #1806
      0100A2BBH   LINE      ---      ---       #1807
      0100A2BBH   LINE      ---      ---       #1808
      0100A2C1H   LINE      ---      ---       #1809
      0100A2C3H   LINE      ---      ---       #1811
      0100A2C3H   LINE      ---      ---       #1812
      0100A2C8H   LINE      ---      ---       #1813
      0100A2CCH   LINE      ---      ---       #1814
      0100A2CCH   LINE      ---      ---       #1816
      0100A2D8H   LINE      ---      ---       #1817
      0100A2D8H   LINE      ---      ---       #1818
      0100A2DDH   LINE      ---      ---       #1819
      0100A2E0H   LINE      ---      ---       #1820
      0100A2E0H   LINE      ---      ---       #1822
      0100A2E8H   LINE      ---      ---       #1826
      0100A2EFH   LINE      ---      ---       #1827
      0100A305H   LINE      ---      ---       #1828
      0100A305H   LINE      ---      ---       #1829
      0100A30CH   LINE      ---      ---       #1830
      0100A30CH   LINE      ---      ---       #1832
      0100A317H   LINE      ---      ---       #1833
      0100A317H   LINE      ---      ---       #1834
      0100A31DH   LINE      ---      ---       #1835
      0100A31DH   LINE      ---      ---       #1836
      0100A31FH   LINE      ---      ---       #1838
      0100A324H   LINE      ---      ---       #1839
      0100A324H   LINE      ---      ---       #1840
      0100A32CH   LINE      ---      ---       #1841
      0100A32CH   LINE      ---      ---       #1842
      0100A330H   LINE      ---      ---       #1845
      0100A334H   LINE      ---      ---       #1846
      0100A334H   LINE      ---      ---       #1847
      0100A339H   LINE      ---      ---       #1848
      0100A339H   LINE      ---      ---       #1849
      0100A33EH   LINE      ---      ---       #1850
      0100A33EH   LINE      ---      ---       #1851
      0100A34CH   LINE      ---      ---       #1853
      0100A34CH   LINE      ---      ---       #1854
      0100A34CH   LINE      ---      ---       #1856
      0100A355H   LINE      ---      ---       #1857
      0100A355H   LINE      ---      ---       #1858
      0100A35AH   LINE      ---      ---       #1859
      0100A35AH   LINE      ---      ---       #1860
      0100A36EH   LINE      ---      ---       #1863
      0100A36EH   LINE      ---      ---       #1864
      0100A36EH   LINE      ---      ---       #1865
      0100A36EH   LINE      ---      ---       #1866
      0100A371H   LINE      ---      ---       #1867
      0100A371H   LINE      ---      ---       #1868
      0100A377H   LINE      ---      ---       #1869
      0100A377H   LINE      ---      ---       #1870
      0100A37BH   LINE      ---      ---       #1871
      0100A37DH   LINE      ---      ---       #1872
      0100A386H   LINE      ---      ---       #1873
      0100A386H   LINE      ---      ---       #1874
      0100A388H   LINE      ---      ---       #1875
      0100A388H   LINE      ---      ---       #1877
      0100A388H   LINE      ---      ---       #1879
      0100A388H   LINE      ---      ---       #1882
      0100A388H   LINE      ---      ---       #1883
LX51 LINKER/LOCATER V4.66.93.0                                                        04/11/2019  16:58:21  PAGE 70


      0100A38AH   LINE      ---      ---       #1885
      0100A38AH   LINE      ---      ---       #1886
      0100A38FH   LINE      ---      ---       #1887
      0100A38FH   LINE      ---      ---       #1888
      0100A390H   LINE      ---      ---       #1889
      0100A394H   LINE      ---      ---       #1891
      0100A394H   LINE      ---      ---       #1893
      0100A39CH   LINE      ---      ---       #1894
      0100A39CH   LINE      ---      ---       #1895
      0100A39FH   LINE      ---      ---       #1896
      0100A3A2H   LINE      ---      ---       #1897
      0100A3A2H   LINE      ---      ---       #1898
      0100A3A8H   LINE      ---      ---       #1899
      0100A3A8H   LINE      ---      ---       #1900
      0100A3ACH   LINE      ---      ---       #1901
      0100A3AEH   LINE      ---      ---       #1902
      0100A3B5H   LINE      ---      ---       #1903
      0100A3B5H   LINE      ---      ---       #1904
      0100A3BBH   LINE      ---      ---       #1905
      0100A3BBH   LINE      ---      ---       #1907
      0100A3BBH   LINE      ---      ---       #1909
      0100A3BBH   LINE      ---      ---       #1910
      0100A3CBH   LINE      ---      ---       #1912
      0100A3CDH   LINE      ---      ---       #1914
      0100A3EEH   LINE      ---      ---       #1917
      0100A3EEH   LINE      ---      ---       #1919
      0100A3F6H   LINE      ---      ---       #1920
      0100A3F6H   LINE      ---      ---       #1921
      0100A3F9H   LINE      ---      ---       #1922
      0100A3FDH   LINE      ---      ---       #1923
      0100A3FDH   LINE      ---      ---       #1925
      0100A403H   LINE      ---      ---       #1926
      0100A403H   LINE      ---      ---       #1927
      0100A407H   LINE      ---      ---       #1928
      0100A409H   LINE      ---      ---       #1929
      0100A410H   LINE      ---      ---       #1930
      0100A410H   LINE      ---      ---       #1931
      0100A412H   LINE      ---      ---       #1932
      0100A412H   LINE      ---      ---       #1934
      0100A412H   LINE      ---      ---       #1936
      0100A412H   LINE      ---      ---       #1939
      0100A412H   LINE      ---      ---       #1941
      0100A41CH   LINE      ---      ---       #1942
      0100A41CH   LINE      ---      ---       #1943
      0100A421H   LINE      ---      ---       #1944
      0100A423H   LINE      ---      ---       #1945
      0100A423H   LINE      ---      ---       #1946
      0100A427H   LINE      ---      ---       #1947
      0100A427H   LINE      ---      ---       #1948
      0100A437H   LINE      ---      ---       #1949
      0100A437H   LINE      ---      ---       #1950
      0100A43CH   LINE      ---      ---       #1951
      0100A43EH   LINE      ---      ---       #1952
      0100A43EH   LINE      ---      ---       #1953
      0100A442H   LINE      ---      ---       #1954
      0100A442H   LINE      ---      ---       #1955
      0100A446H   LINE      ---      ---       #1956
      0100A446H   LINE      ---      ---       #1958
      0100A446H   LINE      ---      ---       #1960
      0100A446H   LINE      ---      ---       #1961
      0100A446H   LINE      ---      ---       #1962
      0100A448H   LINE      ---      ---       #1964
      0100A448H   LINE      ---      ---       #1965
      0100A448H   LINE      ---      ---       #1966
      0100A44AH   LINE      ---      ---       #1967
LX51 LINKER/LOCATER V4.66.93.0                                                        04/11/2019  16:58:21  PAGE 71


      0100A454H   LINE      ---      ---       #1969
      0100A454H   LINE      ---      ---       #1970
      0100A456H   LINE      ---      ---       #1972
      0100A456H   LINE      ---      ---       #1973
      0100A45EH   LINE      ---      ---       #1974
      0100A45EH   LINE      ---      ---       #1975
      0100A461H   LINE      ---      ---       #1976
      0100A465H   LINE      ---      ---       #1977
      0100A465H   LINE      ---      ---       #1980
      0100A472H   LINE      ---      ---       #1981
      0100A472H   LINE      ---      ---       #1982
      0100A475H   LINE      ---      ---       #1983
      0100A477H   LINE      ---      ---       #1985
      0100A477H   LINE      ---      ---       #1986
      0100A47AH   LINE      ---      ---       #1987
      0100A47AH   LINE      ---      ---       #1988
      0100A47EH   LINE      ---      ---       #1989
      0100A47EH   LINE      ---      ---       #1990
      0100A47EH   LINE      ---      ---       #1991
      0100A483H   LINE      ---      ---       #1992
      0100A483H   LINE      ---      ---       #1995
      0100A4A3H   LINE      ---      ---       #1997
      0100A4A3H   LINE      ---      ---       #1998
      0100A4A3H   LINE      ---      ---       #2000
      0100A4A3H   LINE      ---      ---       #2001
      0100A4A8H   LINE      ---      ---       #2002
      0100A4A8H   LINE      ---      ---       #2003
      0100A4A8H   LINE      ---      ---       #2005
      0100A4A8H   LINE      ---      ---       #2007
      0100A4A8H   LINE      ---      ---       #2009
      0100A4BBH   LINE      ---      ---       #2014
      0100A4C8H   LINE      ---      ---       #2015
      0100A4C8H   LINE      ---      ---       #2016
      0100A4CBH   LINE      ---      ---       #2017
      0100A4CDH   LINE      ---      ---       #2019
      0100A4CDH   LINE      ---      ---       #2020
      0100A4D0H   LINE      ---      ---       #2021
      0100A4D0H   LINE      ---      ---       #2022
      0100A4D4H   LINE      ---      ---       #2023
      0100A4D4H   LINE      ---      ---       #2024
      0100A4D4H   LINE      ---      ---       #2025
      0100A4D9H   LINE      ---      ---       #2026
      0100A4D9H   LINE      ---      ---       #2029
      0100A4F8H   LINE      ---      ---       #2031
      0100A4F8H   LINE      ---      ---       #2032
      0100A4F8H   LINE      ---      ---       #2034
      0100A4F8H   LINE      ---      ---       #2035
      0100A4FDH   LINE      ---      ---       #2036
      0100A4FDH   LINE      ---      ---       #2037
      0100A4FDH   LINE      ---      ---       #2039
      0100A4FDH   LINE      ---      ---       #2041
      0100A4FDH   LINE      ---      ---       #2043
      0100A517H   LINE      ---      ---       #2046
      0100A517H   LINE      ---      ---       #2047
      0100A517H   LINE      ---      ---       #2048
      0100A51DH   LINE      ---      ---       #2049
      0100A51DH   LINE      ---      ---       #2050
      0100A51FH   LINE      ---      ---       #2052
      0100A527H   LINE      ---      ---       #2053
      0100A527H   LINE      ---      ---       #2054
      0100A52AH   LINE      ---      ---       #2055
      0100A52DH   LINE      ---      ---       #2056
      0100A52DH   LINE      ---      ---       #2057
      0100A533H   LINE      ---      ---       #2058
      0100A533H   LINE      ---      ---       #2060
LX51 LINKER/LOCATER V4.66.93.0                                                        04/11/2019  16:58:21  PAGE 72


      0100A539H   LINE      ---      ---       #2061
      0100A53BH   LINE      ---      ---       #2063
      0100A542H   LINE      ---      ---       #2064
      0100A542H   LINE      ---      ---       #2065
      0100A544H   LINE      ---      ---       #2066
      0100A544H   LINE      ---      ---       #2068
      0100A544H   LINE      ---      ---       #2070
      0100A544H   LINE      ---      ---       #2071
      0100A551H   LINE      ---      ---       #2073
      0100A551H   LINE      ---      ---       #2074
      0100A55AH   LINE      ---      ---       #2075
      0100A55AH   LINE      ---      ---       #2077
      0100A55FH   LINE      ---      ---       #2078
      0100A55FH   LINE      ---      ---       #2079
      0100A567H   LINE      ---      ---       #2080
      0100A567H   LINE      ---      ---       #2081
      0100A56BH   LINE      ---      ---       #2083
      0100A56BH   LINE      ---      ---       #2086
      0100A570H   LINE      ---      ---       #2087
      0100A570H   LINE      ---      ---       #2088
      0100A574H   LINE      ---      ---       #2089
      0100A574H   LINE      ---      ---       #2090
      0100A579H   LINE      ---      ---       #2091
      0100A579H   LINE      ---      ---       #2092
      0100A582H   LINE      ---      ---       #2095
      0100A582H   LINE      ---      ---       #2096
      0100A582H   LINE      ---      ---       #2097
      0100A582H   LINE      ---      ---       #2098
      0100A584H   LINE      ---      ---       #2099
      0100A588H   LINE      ---      ---       #2100
      0100A588H   LINE      ---      ---       #2101
      0100A59EH   LINE      ---      ---       #2104
      0100A5B3H   LINE      ---      ---       #2107
      0100A5B3H   LINE      ---      ---       #2109
      0100A5B3H   LINE      ---      ---       #2111
      0100A5B3H   LINE      ---      ---       #2112
      0100A5B3H   LINE      ---      ---       #2113
      0100A5B6H   LINE      ---      ---       #2114
      0100A5B6H   LINE      ---      ---       #2115
      0100A5B6H   LINE      ---      ---       #2116
      0100A5B7H   LINE      ---      ---       #2118
      0100A5B7H   LINE      ---      ---       #2119
      0100A5BDH   LINE      ---      ---       #2120
      0100A5BDH   LINE      ---      ---       #2121
      0100A5BFH   LINE      ---      ---       #2122
      0100A5C3H   LINE      ---      ---       #2123
      0100A5C3H   LINE      ---      ---       #2124
      0100A5C3H   LINE      ---      ---       #2125
      0100A5C3H   LINE      ---      ---       #2128
      02000110H   SYMBOL    XDATA    BYTE      color
      02000020H   SYMBOL    XDATA    BYTE      Err_Event_Cnt
      02000111H   SYMBOL    XDATA    BYTE      Err_Event_1
      02000112H   SYMBOL    XDATA    BYTE      Err_Event_2
      02000021H   SYMBOL    XDATA    BYTE      AlarmInfoRem
      ---         BLOCKEND  CODE     ---       LVL=1
      ---         BLOCKEND  CODE     ---       LVL=0

      0100B808H   BLOCK     CODE     ---       LVL=0
      0100B808H   LINE      ---      ---       #2131
      0100B808H   LINE      ---      ---       #2132
      0100B808H   BLOCK     CODE     NEAR LAB  LVL=1
      0100B808H   LINE      ---      ---       #2133
      0100B80AH   LINE      ---      ---       #2139
      0100B819H   LINE      ---      ---       #2140
      0100B819H   LINE      ---      ---       #2141
LX51 LINKER/LOCATER V4.66.93.0                                                        04/11/2019  16:58:21  PAGE 73


      0100B81CH   LINE      ---      ---       #2142
      0100B81CH   LINE      ---      ---       #2145
      0100B825H   LINE      ---      ---       #2146
      0100B825H   LINE      ---      ---       #2147
      0100B84EH   LINE      ---      ---       #2149
      0100B84EH   LINE      ---      ---       #2152
      0100B85DH   LINE      ---      ---       #2153
      0100B85DH   LINE      ---      ---       #2154
      0100B860H   LINE      ---      ---       #2155
      0100B860H   LINE      ---      ---       #2157
      0100B86FH   LINE      ---      ---       #2158
      0100B86FH   LINE      ---      ---       #2159
      0100B872H   LINE      ---      ---       #2160
      0100B872H   LINE      ---      ---       #2161
      0100B878H   LINE      ---      ---       #2163
      0100B87FH   LINE      ---      ---       #2164
      0100B87FH   LINE      ---      ---       #2165
      0100B8A7H   LINE      ---      ---       #2166
      0100B8A7H   LINE      ---      ---       #2167
      0100B8B3H   LINE      ---      ---       #2168
      0100B8B3H   LINE      ---      ---       #2169
      0100B8B6H   LINE      ---      ---       #2170
      0100B8B6H   LINE      ---      ---       #2171
      0100B8B8H   LINE      ---      ---       #2173
      0100B8B8H   LINE      ---      ---       #2174
      0100B8BAH   LINE      ---      ---       #2175
      0100B8BAH   LINE      ---      ---       #2179
      0100B8C2H   LINE      ---      ---       #2180
      0100B8CCH   LINE      ---      ---       #2181
      0100B8CEH   LINE      ---      ---       #2183
      0100B8CEH   LINE      ---      ---       #2184
      0100B8D0H   LINE      ---      ---       #2185
      0100B8D0H   LINE      ---      ---       #2191
      0100B8D3H   LINE      ---      ---       #2192
      0100B8D3H   LINE      ---      ---       #2194
      0100B8D3H   LINE      ---      ---       #2196
      0100B8D3H   LINE      ---      ---       #2197
      0100B8DCH   LINE      ---      ---       #2198
      0100B8DCH   LINE      ---      ---       #2200
      0100B8E9H   LINE      ---      ---       #2201
      0100B8E9H   LINE      ---      ---       #2202
      0100B8F1H   LINE      ---      ---       #2204
      0100B8F1H   LINE      ---      ---       #2205
      0100B8F4H   LINE      ---      ---       #2206
      0100B8F4H   LINE      ---      ---       #2207
      0100B8F6H   LINE      ---      ---       #2209
      0100B8F6H   LINE      ---      ---       #2210
      0100B8FFH   LINE      ---      ---       #2211
      0100B8FFH   LINE      ---      ---       #2212
      0100B901H   LINE      ---      ---       #2213
      0100B901H   LINE      ---      ---       #2214
      0100B901H   LINE      ---      ---       #2218
      0100B905H   LINE      ---      ---       #2219
      0100B905H   LINE      ---      ---       #2220
      0100B90DH   LINE      ---      ---       #2221
      0100B90DH   LINE      ---      ---       #2222
      0100B916H   LINE      ---      ---       #2223
      0100B916H   LINE      ---      ---       #2224
      0100B919H   LINE      ---      ---       #2225
      0100B919H   LINE      ---      ---       #2226
      0100B923H   LINE      ---      ---       #2227
      0100B923H   LINE      ---      ---       #2228
      0100B923H   LINE      ---      ---       #2229
      0100B923H   LINE      ---      ---       #2230
      0100B925H   LINE      ---      ---       #2232
LX51 LINKER/LOCATER V4.66.93.0                                                        04/11/2019  16:58:21  PAGE 74


      0100B925H   LINE      ---      ---       #2233
      0100B92AH   LINE      ---      ---       #2234
      0100B92AH   LINE      ---      ---       #2235
      0100B933H   LINE      ---      ---       #2236
      0100B933H   LINE      ---      ---       #2237
      0100B93DH   LINE      ---      ---       #2238
      0100B93DH   LINE      ---      ---       #2239
      0100B93DH   LINE      ---      ---       #2241
      0100B94CH   LINE      ---      ---       #2242
      0100B94CH   LINE      ---      ---       #2243
      0100B959H   LINE      ---      ---       #2245
      0100B959H   LINE      ---      ---       #2251
      0100B959H   LINE      ---      ---       #2252
      0100B96EH   LINE      ---      ---       #2253
      0100B96EH   LINE      ---      ---       #2254
      0100B974H   LINE      ---      ---       #2255
      0100B979H   LINE      ---      ---       #2256
      0100B979H   LINE      ---      ---       #2257
      0100B97CH   LINE      ---      ---       #2258
      0100B97CH   LINE      ---      ---       #2259
      0100B97EH   LINE      ---      ---       #2261
      0100B97EH   LINE      ---      ---       #2262
      0100B987H   LINE      ---      ---       #2263
      0100B987H   LINE      ---      ---       #2264
      0100B989H   LINE      ---      ---       #2265
      0100B989H   LINE      ---      ---       #2266
      0100B989H   LINE      ---      ---       #2267
      0100B989H   LINE      ---      ---       #2269
      0100B990H   LINE      ---      ---       #2270
      0100B990H   LINE      ---      ---       #2271
      0100B999H   LINE      ---      ---       #2272
      0100B9A2H   LINE      ---      ---       #2273
      0100B9A2H   LINE      ---      ---       #2274
      0100B9A4H   LINE      ---      ---       #2275
      0100B9A6H   LINE      ---      ---       #2277
      0100B9A6H   LINE      ---      ---       #2278
      0100B9ADH   LINE      ---      ---       #2279
      0100B9ADH   LINE      ---      ---       #2281
      0100B9B3H   LINE      ---      ---       #2282
      0100B9B5H   LINE      ---      ---       #2283
      0100B9B9H   LINE      ---      ---       #2284
      0100B9B9H   LINE      ---      ---       #2285
      0100B9C0H   LINE      ---      ---       #2286
      0100B9C9H   LINE      ---      ---       #2287
      0100B9C9H   LINE      ---      ---       #2288
      0100B9CCH   LINE      ---      ---       #2289
      0100B9CEH   LINE      ---      ---       #2291
      0100B9CEH   LINE      ---      ---       #2292
      0100B9D0H   LINE      ---      ---       #2293
      0100B9D0H   LINE      ---      ---       #2295
      0100B9DAH   LINE      ---      ---       #2296
      0100B9DAH   LINE      ---      ---       #2298
      0100B9DAH   LINE      ---      ---       #2300
      0100B9DAH   LINE      ---      ---       #2302
      0100B9F0H   LINE      ---      ---       #2303
      0100B9F0H   LINE      ---      ---       #2304
      0100B9F8H   LINE      ---      ---       #2305
      0100B9F8H   LINE      ---      ---       #2306
      0100B9FBH   LINE      ---      ---       #2307
      0100B9FBH   LINE      ---      ---       #2308
      0100B9FDH   LINE      ---      ---       #2309
      0100B9FDH   LINE      ---      ---       #2310
      0100BA02H   LINE      ---      ---       #2311
      0100BA02H   LINE      ---      ---       #2322
      0100BA06H   LINE      ---      ---       #2323
LX51 LINKER/LOCATER V4.66.93.0                                                        04/11/2019  16:58:21  PAGE 75


      0100BA06H   LINE      ---      ---       #2326
      0100BA1DH   LINE      ---      ---       #2327
      0100BA1DH   LINE      ---      ---       #2328
      0100BA32H   LINE      ---      ---       #2331
      0100BA32H   LINE      ---      ---       #2332
      0100BA3AH   LINE      ---      ---       #2333
      0100BA3AH   LINE      ---      ---       #2334
      0100BA3EH   LINE      ---      ---       #2335
      0100BA3EH   LINE      ---      ---       #2336
      0100BA40H   LINE      ---      ---       #2338
      0100BA40H   LINE      ---      ---       #2340
      0100BA40H   LINE      ---      ---       #2341
      0100BA40H   LINE      ---      ---       #2342
      0100BA4CH   LINE      ---      ---       #2343
      0100BA4CH   LINE      ---      ---       #2344
      0100BA5BH   LINE      ---      ---       #2345
      0100BA5BH   LINE      ---      ---       #2346
      0100BA63H   LINE      ---      ---       #2347
      0100BA63H   LINE      ---      ---       #2348
      0100BA66H   LINE      ---      ---       #2349
      0100BA66H   LINE      ---      ---       #2350
      0100BA66H   LINE      ---      ---       #2351
      0100BA68H   LINE      ---      ---       #2358
      0100BA68H   LINE      ---      ---       #2359
      0100BA6DH   LINE      ---      ---       #2360
      0100BA6DH   LINE      ---      ---       #2364
      0100BA71H   LINE      ---      ---       #2365
      0100BA71H   LINE      ---      ---       #2366
      0100BA85H   LINE      ---      ---       #2367
      0100BA85H   LINE      ---      ---       #2368
      0100BA8EH   LINE      ---      ---       #2369
      0100BA8EH   LINE      ---      ---       #2370
      0100BA91H   LINE      ---      ---       #2371
      0100BA91H   LINE      ---      ---       #2372
      0100BA93H   LINE      ---      ---       #2379
      0100BA93H   LINE      ---      ---       #2380
      0100BA98H   LINE      ---      ---       #2381
      0100BA98H   LINE      ---      ---       #2385
      0100BA9FH   LINE      ---      ---       #2386
      0100BA9FH   LINE      ---      ---       #2387
      0100BAA7H   LINE      ---      ---       #2389
      0100BAA7H   LINE      ---      ---       #2390
      0100BAAAH   LINE      ---      ---       #2391
      0100BAAAH   LINE      ---      ---       #2392
      0100BAACH   LINE      ---      ---       #2394
      0100BAACH   LINE      ---      ---       #2395
      0100BAB0H   LINE      ---      ---       #2396
      0100BAB0H   LINE      ---      ---       #2397
      0100BAB2H   LINE      ---      ---       #2398
      0100BAB2H   LINE      ---      ---       #2399
      0100BAB2H   LINE      ---      ---       #2401
      0100BAB6H   LINE      ---      ---       #2402
      0100BAB6H   LINE      ---      ---       #2404
      0100BAC4H   LINE      ---      ---       #2405
      0100BAC4H   LINE      ---      ---       #2406
      0100BACDH   LINE      ---      ---       #2407
      0100BACDH   LINE      ---      ---       #2408
      0100BACFH   LINE      ---      ---       #2409
      0100BACFH   LINE      ---      ---       #2411
      0100BACFH   LINE      ---      ---       #2412
      0100BACFH   LINE      ---      ---       #2414
      0100BACFH   LINE      ---      ---       #2415
      0100BAD5H   LINE      ---      ---       #2416
      0100BAD5H   LINE      ---      ---       #2417
      0100BAD5H   LINE      ---      ---       #2418
LX51 LINKER/LOCATER V4.66.93.0                                                        04/11/2019  16:58:21  PAGE 76


      0100BAD6H   LINE      ---      ---       #2420
      0100BAD6H   LINE      ---      ---       #2421
      0100BAD6H   LINE      ---      ---       #2422
      0100BAD6H   LINE      ---      ---       #2423
      0100BAD8H   LINE      ---      ---       #2425
      0100BAD8H   LINE      ---      ---       #2426
      0100BADDH   LINE      ---      ---       #2427
      0100BADDH   LINE      ---      ---       #2428
      02000110H   SYMBOL    XDATA    WORD      a
      02000112H   SYMBOL    XDATA    WORD      b
      02000114H   SYMBOL    XDATA    WORD      c
      02000022H   SYMBOL    XDATA    BYTE      No_Water_Times
      02000023H   SYMBOL    XDATA    BYTE      RT_SHIDU_More_then_90_Cnt
      02000024H   SYMBOL    XDATA    WORD      Last1s_RThumity
      02000026H   SYMBOL    XDATA    WORD      Last1s_RTtemp
      ---         BLOCKEND  CODE     ---       LVL=1
      ---         BLOCKEND  CODE     ---       LVL=0

      01009A62H   BLOCK     CODE     ---       LVL=0
      01009A62H   LINE      ---      ---       #2430
      01009A62H   LINE      ---      ---       #2431
      01009A62H   BLOCK     CODE     NEAR LAB  LVL=1
      01009A62H   LINE      ---      ---       #2435
      01009A64H   LINE      ---      ---       #2436
      01009A6DH   LINE      ---      ---       #2437
      01009A6DH   LINE      ---      ---       #2438
      01009A71H   LINE      ---      ---       #2440
      01009A71H   LINE      ---      ---       #2441
      01009A73H   LINE      ---      ---       #2442
      01009A73H   LINE      ---      ---       #2443
      01009A73H   LINE      ---      ---       #2444
      01009A7BH   LINE      ---      ---       #2445
      01009A7BH   LINE      ---      ---       #2446
      01009A82H   LINE      ---      ---       #2447
      01009A82H   LINE      ---      ---       #2449
      01009A8AH   LINE      ---      ---       #2453
      01009A8AH   LINE      ---      ---       #2454
      01009A8CH   LINE      ---      ---       #2455
      01009A96H   LINE      ---      ---       #2456
      01009A96H   LINE      ---      ---       #2457
      01009AA1H   LINE      ---      ---       #2461
      01009AA1H   LINE      ---      ---       #2462
      01009AA6H   LINE      ---      ---       #2466
      01009ACCH   LINE      ---      ---       #2467
      01009ACEH   LINE      ---      ---       #2471
      01009AD3H   LINE      ---      ---       #2472
      01009AD3H   LINE      ---      ---       #2473
      01009AD5H   LINE      ---      ---       #2474
      01009AD9H   LINE      ---      ---       #2475
      01009ADBH   LINE      ---      ---       #2477
      01009ADBH   LINE      ---      ---       #2478
      01009ADDH   LINE      ---      ---       #2479
      01009ADDH   LINE      ---      ---       #2480
      01009AE4H   LINE      ---      ---       #2481
      01009AE9H   LINE      ---      ---       #2482
      01009AFBH   LINE      ---      ---       #2485
      01009AFBH   LINE      ---      ---       #2487
      01009B03H   LINE      ---      ---       #2488
      01009B09H   LINE      ---      ---       #2489
      01009B09H   LINE      ---      ---       #2490
      01009B10H   LINE      ---      ---       #2491
      01009B10H   LINE      ---      ---       #2492
      01009B16H   LINE      ---      ---       #2493
      01009B16H   LINE      ---      ---       #2494
      01009B1DH   LINE      ---      ---       #2495
LX51 LINKER/LOCATER V4.66.93.0                                                        04/11/2019  16:58:21  PAGE 77


      01009B1DH   LINE      ---      ---       #2496
      01009B23H   LINE      ---      ---       #2497
      01009B23H   LINE      ---      ---       #2498
      01009B2AH   LINE      ---      ---       #2499
      01009B2AH   LINE      ---      ---       #2504
      01009B3AH   LINE      ---      ---       #2509
      01009B47H   LINE      ---      ---       #2510
      01009B5FH   LINE      ---      ---       #2520
      01009B6AH   LINE      ---      ---       #2523
      01009B6EH   LINE      ---      ---       #2529
      01009B79H   LINE      ---      ---       #2531
      01009B79H   LINE      ---      ---       #2532
      01009B80H   LINE      ---      ---       #2533
      01009B80H   LINE      ---      ---       #2534
      01009B83H   LINE      ---      ---       #2535
      01009B83H   LINE      ---      ---       #2536
      01009B8AH   LINE      ---      ---       #2537
      01009B8AH   LINE      ---      ---       #2539
      01009B8EH   LINE      ---      ---       #2540
      01009B8EH   LINE      ---      ---       #2541
      01009B98H   LINE      ---      ---       #2542
      01009B98H   LINE      ---      ---       #2543
      01009B98H   LINE      ---      ---       #2544
      01009B9FH   LINE      ---      ---       #2545
      01009B9FH   LINE      ---      ---       #2547
      01009BA3H   LINE      ---      ---       #2548
      01009BA3H   LINE      ---      ---       #2549
      01009BADH   LINE      ---      ---       #2550
      01009BB4H   LINE      ---      ---       #2551
      01009BB4H   LINE      ---      ---       #2552
      01009BB4H   LINE      ---      ---       #2553
      01009BB4H   LINE      ---      ---       #2554
      01009BB4H   LINE      ---      ---       #2556
      01009BB4H   LINE      ---      ---       #2558
      01009BB4H   LINE      ---      ---       #2560
      01009BB4H   LINE      ---      ---       #2561
      00000002H   SYMBOL    DATA     WORD      a
      02000110H   SYMBOL    XDATA    WORD      b
      00000004H   SYMBOL    DATA     WORD      c
      02000112H   SYMBOL    XDATA    DWORD     Adress
      02000116H   SYMBOL    XDATA    INT       tmp
      ---         BLOCKEND  CODE     ---       LVL=1
      ---         BLOCKEND  CODE     ---       LVL=0

      0100822CH   BLOCK     CODE     ---       LVL=0
      0100822CH   LINE      ---      ---       #2564
      0100822CH   LINE      ---      ---       #2565
      0100822CH   BLOCK     CODE     NEAR LAB  LVL=1
      0100822CH   LINE      ---      ---       #2566
      0100822FH   LINE      ---      ---       #2568
      01008232H   LINE      ---      ---       #2569
      01008234H   LINE      ---      ---       #2570
      01008237H   LINE      ---      ---       #2571
      0100823AH   LINE      ---      ---       #2572
      0100823DH   LINE      ---      ---       #2573
      01008240H   LINE      ---      ---       #2574
      01008242H   LINE      ---      ---       #2575
      01008245H   LINE      ---      ---       #2576
      01008248H   LINE      ---      ---       #2578
      0100824BH   LINE      ---      ---       #2579
      0100824DH   LINE      ---      ---       #2581
      0100824FH   LINE      ---      ---       #2582
      01008251H   LINE      ---      ---       #2583
      01008253H   LINE      ---      ---       #2584
      01008255H   LINE      ---      ---       #2585
LX51 LINKER/LOCATER V4.66.93.0                                                        04/11/2019  16:58:21  PAGE 78


      01008257H   LINE      ---      ---       #2586
      01008259H   LINE      ---      ---       #2587
      0100825BH   LINE      ---      ---       #2588
      0100825DH   LINE      ---      ---       #2589
      01008263H   LINE      ---      ---       #2590
      01008265H   LINE      ---      ---       #2592
      01008268H   LINE      ---      ---       #2593
      0100826BH   LINE      ---      ---       #2594
      0100826EH   LINE      ---      ---       #2597
      01008274H   LINE      ---      ---       #2598
      01008274H   LINE      ---      ---       #2599
      0100827AH   LINE      ---      ---       #2600
      0100827CH   LINE      ---      ---       #2602
      0100827CH   LINE      ---      ---       #2603
      01008282H   LINE      ---      ---       #2604
      01008282H   LINE      ---      ---       #2607
      0100828CH   LINE      ---      ---       #2608
      0100828CH   LINE      ---      ---       #2609
      01008292H   LINE      ---      ---       #2612
      01008295H   LINE      ---      ---       #2614
      0100829EH   LINE      ---      ---       #2616
      010082A4H   LINE      ---      ---       #2617
      010082A4H   LINE      ---      ---       #2618
      010082B6H   LINE      ---      ---       #2619
      010082C8H   LINE      ---      ---       #2620
      010082DFH   LINE      ---      ---       #2621
      010082DFH   LINE      ---      ---       #2622
      010082EEH   LINE      ---      ---       #2623
      010082F6H   LINE      ---      ---       #2624
      0100830EH   LINE      ---      ---       #2629
      01008311H   LINE      ---      ---       #2630
      01008313H   LINE      ---      ---       #2631
      01008313H   LINE      ---      ---       #2633
      01008318H   LINE      ---      ---       #2634
      02000110H   SYMBOL    XDATA    WORD      j
      ---         BLOCKEND  CODE     ---       LVL=1
      ---         BLOCKEND  CODE     ---       LVL=0

      0100BB22H   BLOCK     CODE     ---       LVL=0
      0100BB22H   LINE      ---      ---       #2636
      0100BB22H   LINE      ---      ---       #2637
      0100BB22H   LINE      ---      ---       #2638
      0100BB25H   LINE      ---      ---       #2640
      0100BB2FH   LINE      ---      ---       #2642
      0100BB34H   LINE      ---      ---       #2643
      0100BB36H   LINE      ---      ---       #2644
      0100BB3AH   LINE      ---      ---       #2645
      0100BB3EH   LINE      ---      ---       #2647
      0100BB44H   LINE      ---      ---       #2649
      0100BB49H   LINE      ---      ---       #2650
      0100BB4DH   LINE      ---      ---       #2652
      0100BB51H   LINE      ---      ---       #2653
      0100BB55H   LINE      ---      ---       #2655
      0100BB5AH   LINE      ---      ---       #2658
      0100BB63H   LINE      ---      ---       #2659
      0100BB65H   LINE      ---      ---       #2661
      0100BB78H   LINE      ---      ---       #2662
      0100BB7EH   LINE      ---      ---       #2665
      0100BB82H   LINE      ---      ---       #2666
      ---         BLOCKEND  ---      ---       LVL=0

      0100842DH   BLOCK     CODE     ---       LVL=0
      0100842DH   LINE      ---      ---       #2672
      0100842DH   LINE      ---      ---       #2673
      0100842DH   BLOCK     CODE     NEAR LAB  LVL=1
LX51 LINKER/LOCATER V4.66.93.0                                                        04/11/2019  16:58:21  PAGE 79


      0100842DH   LINE      ---      ---       #2676
      01008430H   LINE      ---      ---       #2679
      01008448H   LINE      ---      ---       #2680
      01008448H   LINE      ---      ---       #2681
      01008452H   LINE      ---      ---       #2683
      01008454H   LINE      ---      ---       #2685
      01008454H   LINE      ---      ---       #2686
      01008459H   LINE      ---      ---       #2687
      01008459H   LINE      ---      ---       #2689
      01008462H   LINE      ---      ---       #2690
      01008462H   LINE      ---      ---       #2691
      0100846BH   LINE      ---      ---       #2693
      0100846DH   LINE      ---      ---       #2695
      0100846DH   LINE      ---      ---       #2696
      01008472H   LINE      ---      ---       #2697
      01008472H   LINE      ---      ---       #2699
      01008483H   LINE      ---      ---       #2700
      01008483H   LINE      ---      ---       #2701
      01008489H   LINE      ---      ---       #2702
      0100848CH   LINE      ---      ---       #2704
      0100848EH   LINE      ---      ---       #2706
      0100848EH   LINE      ---      ---       #2707
      01008493H   LINE      ---      ---       #2708
      01008493H   LINE      ---      ---       #2711
      0100849CH   LINE      ---      ---       #2712
      0100849CH   LINE      ---      ---       #2713
      010084A2H   LINE      ---      ---       #2714
      010084A9H   LINE      ---      ---       #2715
      010084ABH   LINE      ---      ---       #2717
      010084ABH   LINE      ---      ---       #2718
      010084B0H   LINE      ---      ---       #2719
      010084B0H   LINE      ---      ---       #2723
      010084B0H   LINE      ---      ---       #2724
      010084BCH   LINE      ---      ---       #2726
      010084BCH   LINE      ---      ---       #2727
      010084C3H   LINE      ---      ---       #2729
      010084CBH   LINE      ---      ---       #2730
      010084CBH   LINE      ---      ---       #2731
      010084D4H   LINE      ---      ---       #2732
      010084DCH   LINE      ---      ---       #2733
      010084E0H   LINE      ---      ---       #2734
      010084E9H   LINE      ---      ---       #2735
      010084EBH   LINE      ---      ---       #2737
      010084EBH   LINE      ---      ---       #2738
      010084F6H   LINE      ---      ---       #2739
      010084FCH   LINE      ---      ---       #2740
      01008505H   LINE      ---      ---       #2741
      01008519H   LINE      ---      ---       #2742
      01008519H   LINE      ---      ---       #2745
      01008522H   LINE      ---      ---       #2747
      01008522H   LINE      ---      ---       #2748
      0100853CH   LINE      ---      ---       #2751
      01008545H   LINE      ---      ---       #2752
      01008547H   LINE      ---      ---       #2754
      01008547H   LINE      ---      ---       #2755
      01008566H   LINE      ---      ---       #2758
      0100857AH   LINE      ---      ---       #2759
      0100857AH   LINE      ---      ---       #2762
      01008588H   LINE      ---      ---       #2764
      01008588H   LINE      ---      ---       #2765
      0100859DH   LINE      ---      ---       #2768
      010085AFH   LINE      ---      ---       #2769
      010085B1H   LINE      ---      ---       #2771
      010085B1H   LINE      ---      ---       #2772
      010085CBH   LINE      ---      ---       #2775
LX51 LINKER/LOCATER V4.66.93.0                                                        04/11/2019  16:58:21  PAGE 80


      010085DFH   LINE      ---      ---       #2776
      010085DFH   LINE      ---      ---       #2779
      010085DFH   LINE      ---      ---       #2780
      010085F4H   LINE      ---      ---       #2781
      02000111H   SYMBOL    XDATA    WORD      Disp
      02000113H   SYMBOL    XDATA    WORD      color
      ---         BLOCKEND  CODE     ---       LVL=1
      ---         BLOCKEND  CODE     ---       LVL=0

      01006835H   BLOCK     CODE     ---       LVL=0
      01006839H   LINE      ---      ---       #2787
      01006839H   LINE      ---      ---       #2788
      01006839H   LINE      ---      ---       #2789
      0100683FH   LINE      ---      ---       #2790
      0100684AH   LINE      ---      ---       #2791
      01006856H   LINE      ---      ---       #2792
      01006862H   LINE      ---      ---       #2793
      0100686EH   LINE      ---      ---       #2794
      0100687AH   LINE      ---      ---       #2795
      01006886H   LINE      ---      ---       #2796
      01006892H   LINE      ---      ---       #2797
      01006835H   SYMBOL    CODE     NEAR LAB  ?L?COM01CB
      ---         BLOCKEND  ---      ---       LVL=0

      0100BFF3H   BLOCK     CODE     ---       LVL=0
      0100BFF3H   LINE      ---      ---       #2801
      0100BFF3H   LINE      ---      ---       #2802
      0100BFF3H   LINE      ---      ---       #2803
      0100BFF9H   LINE      ---      ---       #2804
      0100BFFDH   LINE      ---      ---       #2805
      0100C001H   LINE      ---      ---       #2806
      0100C004H   LINE      ---      ---       #2808
      0100C008H   LINE      ---      ---       #2809
      0100C00CH   LINE      ---      ---       #2812
      ---         BLOCKEND  ---      ---       LVL=0

      01006368H   BLOCK     CODE     ---       LVL=0
      01006368H   LINE      ---      ---       #2816
      01006368H   LINE      ---      ---       #2817
      01006368H   LINE      ---      ---       #2818
      01006372H   LINE      ---      ---       #2819
      0100637DH   LINE      ---      ---       #2820
      01006388H   LINE      ---      ---       #2821
      01006393H   LINE      ---      ---       #2822
      0100639EH   LINE      ---      ---       #2823
      010063A9H   LINE      ---      ---       #2824
      010063B4H   LINE      ---      ---       #2825
      010063BFH   LINE      ---      ---       #2840
      0100641AH   LINE      ---      ---       #2842
      0100641AH   LINE      ---      ---       #2843
      0100641FH   LINE      ---      ---       #2844
      01006422H   LINE      ---      ---       #2845
      01006422H   LINE      ---      ---       #2846
      ---         BLOCKEND  ---      ---       LVL=0

      0100B76EH   BLOCK     CODE     ---       LVL=0
      0100B76EH   LINE      ---      ---       #2850
      0100B76EH   LINE      ---      ---       #2851
      0100B76EH   LINE      ---      ---       #2852
      0100B775H   LINE      ---      ---       #2853
      0100B775H   LINE      ---      ---       #2854
      0100B778H   LINE      ---      ---       #2855
      0100B778H   LINE      ---      ---       #2857
      0100B781H   LINE      ---      ---       #2858
      0100B78BH   LINE      ---      ---       #2859
LX51 LINKER/LOCATER V4.66.93.0                                                        04/11/2019  16:58:21  PAGE 81


      0100B795H   LINE      ---      ---       #2860
      0100B79FH   LINE      ---      ---       #2861
      0100B7A9H   LINE      ---      ---       #2862
      0100B7B1H   LINE      ---      ---       #2864
      0100B7B4H   LINE      ---      ---       #2865
      0100B7B4H   LINE      ---      ---       #2866
      0100B7B9H   LINE      ---      ---       #2867
      0100B7BCH   LINE      ---      ---       #2868
      0100B7BEH   LINE      ---      ---       #2870
      0100B7BEH   LINE      ---      ---       #2871
      0100B7C0H   LINE      ---      ---       #2872
      ---         BLOCKEND  ---      ---       LVL=0

      0100A6C5H   BLOCK     CODE     ---       LVL=0
      0100A6C5H   LINE      ---      ---       #2885
      0100A6C5H   LINE      ---      ---       #2886
      0100A6C5H   LINE      ---      ---       #2887
      0100A6D3H   LINE      ---      ---       #2888
      0100A6D3H   LINE      ---      ---       #2893
      0100A6E9H   LINE      ---      ---       #2894
      0100A6E9H   LINE      ---      ---       #2895
      0100A6E9H   LINE      ---      ---       #2897
      0100A6E9H   LINE      ---      ---       #2898
      0100A6EFH   LINE      ---      ---       #2899
      0100A6EFH   LINE      ---      ---       #2900
      0100A6F6H   LINE      ---      ---       #2901
      0100A704H   LINE      ---      ---       #2902
      0100A704H   LINE      ---      ---       #2903
      0100A70AH   LINE      ---      ---       #2904
      0100A70CH   LINE      ---      ---       #2906
      0100A70CH   LINE      ---      ---       #2907
      0100A711H   LINE      ---      ---       #2908
      0100A711H   LINE      ---      ---       #2909
      0100A71AH   LINE      ---      ---       #2910
      0100A721H   LINE      ---      ---       #2911
      0100A727H   LINE      ---      ---       #2912
      0100A728H   LINE      ---      ---       #2920
      0100A728H   LINE      ---      ---       #2921
      0100A72FH   LINE      ---      ---       #2922
      0100A72FH   LINE      ---      ---       #2924
      ---         BLOCKEND  ---      ---       LVL=0

      0100BE89H   BLOCK     CODE     ---       LVL=0
      0100BE89H   LINE      ---      ---       #2944
      0100BE89H   LINE      ---      ---       #2945
      0100BE89H   BLOCK     CODE     NEAR LAB  LVL=1
      0100BE89H   LINE      ---      ---       #2952
      0100BE9AH   LINE      ---      ---       #2953
      0100BE9AH   LINE      ---      ---       #2954
      0100BE9CH   LINE      ---      ---       #2955
      0100BE9CH   LINE      ---      ---       #2956
      0100BEADH   LINE      ---      ---       #2957
      0100BEADH   LINE      ---      ---       #2958
      0100BEAFH   LINE      ---      ---       #2959
      0100BEAFH   LINE      ---      ---       #2961
      0100BEBCH   LINE      ---      ---       #2962
      0100BECDH   LINE      ---      ---       #2963
      0100BECDH   LINE      ---      ---       #2964
      0100BECFH   LINE      ---      ---       #2965
      0100BECFH   LINE      ---      ---       #2966
      0100BECFH   LINE      ---      ---       #2967
      0100BECFH   LINE      ---      ---       #2969
      0100BECFH   LINE      ---      ---       #2970
      0100BEE3H   LINE      ---      ---       #2974
      0100BF0EH   LINE      ---      ---       #2975
LX51 LINKER/LOCATER V4.66.93.0                                                        04/11/2019  16:58:21  PAGE 82


      0100BF13H   LINE      ---      ---       #2976
      0100BF1CH   LINE      ---      ---       #2979
      0100BF1CH   LINE      ---      ---       #2980
      0100BF21H   LINE      ---      ---       #2981
      0100BF23H   LINE      ---      ---       #2982
      0100BF2EH   LINE      ---      ---       #2983
      0100BF2EH   LINE      ---      ---       #2984
      0100BF32H   LINE      ---      ---       #2985
      0100BF32H   LINE      ---      ---       #2987
      0100BF32H   LINE      ---      ---       #2989
      0100BF32H   LINE      ---      ---       #2991
      0100BF3FH   LINE      ---      ---       #2993
      0100BF44H   LINE      ---      ---       #2994
      00000002H   SYMBOL    DATA     INT       Vlaue1
      00000006H   SYMBOL    DATA     INT       tmp
      02000028H   SYMBOL    XDATA    INT       Controler_Kp
      0200002AH   SYMBOL    XDATA    INT       Controler_Ki
      0200002CH   SYMBOL    XDATA    INT       Controler_Kd
      ---         BLOCKEND  CODE     ---       LVL=1
      ---         BLOCKEND  CODE     ---       LVL=0

      0100BD7DH   BLOCK     CODE     ---       LVL=0
      0100BD7DH   LINE      ---      ---       #2999
      0100BD7DH   LINE      ---      ---       #3000
      0100BD7DH   BLOCK     CODE     NEAR LAB  LVL=1
      0100BD7DH   LINE      ---      ---       #3008
      0100BD8EH   LINE      ---      ---       #3009
      0100BD8EH   LINE      ---      ---       #3010
      0100BD90H   LINE      ---      ---       #3011
      0100BD90H   LINE      ---      ---       #3012
      0100BDA1H   LINE      ---      ---       #3013
      0100BDA1H   LINE      ---      ---       #3014
      0100BDA3H   LINE      ---      ---       #3015
      0100BDA3H   LINE      ---      ---       #3017
      0100BDB0H   LINE      ---      ---       #3018
      0100BDC1H   LINE      ---      ---       #3019
      0100BDC1H   LINE      ---      ---       #3020
      0100BDC3H   LINE      ---      ---       #3021
      0100BDC3H   LINE      ---      ---       #3022
      0100BDD4H   LINE      ---      ---       #3023
      0100BDD4H   LINE      ---      ---       #3024
      0100BDDBH   LINE      ---      ---       #3025
      0100BDDBH   LINE      ---      ---       #3027
      0100BDEFH   LINE      ---      ---       #3031
      0100BE1AH   LINE      ---      ---       #3032
      0100BE1FH   LINE      ---      ---       #3033
      0100BE28H   LINE      ---      ---       #3036
      0100BE28H   LINE      ---      ---       #3037
      0100BE2DH   LINE      ---      ---       #3038
      0100BE2FH   LINE      ---      ---       #3039
      0100BE3AH   LINE      ---      ---       #3040
      0100BE3AH   LINE      ---      ---       #3041
      0100BE3EH   LINE      ---      ---       #3042
      0100BE3EH   LINE      ---      ---       #3044
      0100BE3EH   LINE      ---      ---       #3046
      0100BE3EH   LINE      ---      ---       #3048
      0100BE4BH   LINE      ---      ---       #3050
      0100BE50H   LINE      ---      ---       #3051
      00000002H   SYMBOL    DATA     INT       Vlaue1
      00000006H   SYMBOL    DATA     INT       tmp
      0200002EH   SYMBOL    XDATA    INT       Controler_Kp2
      02000030H   SYMBOL    XDATA    INT       Controler_Ki2
      02000032H   SYMBOL    XDATA    INT       Controler_Kd2
      ---         BLOCKEND  CODE     ---       LVL=1
      ---         BLOCKEND  CODE     ---       LVL=0
LX51 LINKER/LOCATER V4.66.93.0                                                        04/11/2019  16:58:21  PAGE 83



      0100C017H   BLOCK     CODE     ---       LVL=0
      0100C017H   LINE      ---      ---       #3056
      0100C017H   LINE      ---      ---       #3057
      0100C017H   BLOCK     CODE     NEAR LAB  LVL=1
      0100C017H   LINE      ---      ---       #3064
      0100C028H   LINE      ---      ---       #3065
      0100C028H   LINE      ---      ---       #3066
      0100C02BH   LINE      ---      ---       #3067
      0100C02BH   LINE      ---      ---       #3068
      0100C03CH   LINE      ---      ---       #3069
      0100C03CH   LINE      ---      ---       #3070
      0100C03FH   LINE      ---      ---       #3071
      0100C03FH   LINE      ---      ---       #3073
      0100C04AH   LINE      ---      ---       #3074
      0100C05BH   LINE      ---      ---       #3075
      0100C05BH   LINE      ---      ---       #3076
      0100C062H   LINE      ---      ---       #3077
      0100C062H   LINE      ---      ---       #3078
      0100C073H   LINE      ---      ---       #3079
      0100C073H   LINE      ---      ---       #3080
      0100C07AH   LINE      ---      ---       #3081
      0100C07AH   LINE      ---      ---       #3083
      0100C093H   LINE      ---      ---       #3087
      0100C099H   LINE      ---      ---       #3089
      0100C0B6H   LINE      ---      ---       #3090
      0100C0B9H   LINE      ---      ---       #3091
      0100C0BFH   LINE      ---      ---       #3093
      0100C0C9H   LINE      ---      ---       #3094
      0100C0C9H   LINE      ---      ---       #3095
      0100C0D3H   LINE      ---      ---       #3096
      0100C0D5H   LINE      ---      ---       #3097
      0100C0E6H   LINE      ---      ---       #3098
      0100C0E6H   LINE      ---      ---       #3099
      0100C0EDH   LINE      ---      ---       #3100
      0100C0EDH   LINE      ---      ---       #3102
      0100C0EDH   LINE      ---      ---       #3104
      0100C0EDH   LINE      ---      ---       #3106
      0100C0FBH   LINE      ---      ---       #3108
      0100C101H   LINE      ---      ---       #3109
      00000002H   SYMBOL    DATA     INT       Vlaue1
      00000006H   SYMBOL    DATA     INT       tmp
      02000034H   SYMBOL    XDATA    INT       Controler_Kp3
      02000036H   SYMBOL    XDATA    INT       Controler_Ki3
      02000038H   SYMBOL    XDATA    INT       Controler_Kd3
      ---         BLOCKEND  CODE     ---       LVL=1
      ---         BLOCKEND  CODE     ---       LVL=0

      0100BB93H   BLOCK     CODE     ---       LVL=0
      0100BB93H   LINE      ---      ---       #3115
      0100BB93H   LINE      ---      ---       #3116
      0100BB93H   BLOCK     CODE     NEAR LAB  LVL=1
      0100BB93H   LINE      ---      ---       #3121
      0100BB96H   LINE      ---      ---       #3125
      0100BB9CH   LINE      ---      ---       #3126
      0100BB9CH   LINE      ---      ---       #3130
      0100BBBBH   LINE      ---      ---       #3133
      0100BBBFH   LINE      ---      ---       #3135
      0100BBC9H   LINE      ---      ---       #3137
      0100BBCAH   LINE      ---      ---       #3139
      0100BBCAH   LINE      ---      ---       #3140
      0100BBD0H   LINE      ---      ---       #3141
      0100BBDFH   LINE      ---      ---       #3142
      0100BBDFH   LINE      ---      ---       #3143
      0100BBE6H   LINE      ---      ---       #3144
LX51 LINKER/LOCATER V4.66.93.0                                                        04/11/2019  16:58:21  PAGE 84


      0100BBE6H   LINE      ---      ---       #3145
      0100BBF5H   LINE      ---      ---       #3146
      0100BBF5H   LINE      ---      ---       #3148
      0100BC1BH   LINE      ---      ---       #3149
      0100BC1BH   LINE      ---      ---       #3150
      0100BC20H   LINE      ---      ---       #3151
      0100BC20H   LINE      ---      ---       #3152
      0100BC20H   LINE      ---      ---       #3153
      0100BC22H   LINE      ---      ---       #3155
      0100BC22H   LINE      ---      ---       #3156
      0100BC3DH   LINE      ---      ---       #3157
      0100BC47H   LINE      ---      ---       #3158
      0100BC47H   LINE      ---      ---       #3159
      0100BC50H   LINE      ---      ---       #3160
      0100BC52H   LINE      ---      ---       #3161
      0100BC63H   LINE      ---      ---       #3162
      0100BC63H   LINE      ---      ---       #3163
      0100BC6AH   LINE      ---      ---       #3164
      0100BC6AH   LINE      ---      ---       #3166
      0100BC6AH   LINE      ---      ---       #3168
      0100BC6AH   LINE      ---      ---       #3172
      0100BC73H   LINE      ---      ---       #3173
      0100BC73H   LINE      ---      ---       #3174
      0100BC76H   LINE      ---      ---       #3175
      0100BC7EH   LINE      ---      ---       #3176
      0100BC7EH   LINE      ---      ---       #3177
      0100BC87H   LINE      ---      ---       #3178
      0100BC89H   LINE      ---      ---       #3180
      0100BC89H   LINE      ---      ---       #3181
      0100BC99H   LINE      ---      ---       #3182
      0100BC99H   LINE      ---      ---       #3183
      0100BCB4H   LINE      ---      ---       #3184
      0100BCB4H   LINE      ---      ---       #3186
      0100BCBAH   LINE      ---      ---       #3187
      0100BCCBH   LINE      ---      ---       #3188
      0100BCCBH   LINE      ---      ---       #3189
      0100BCCFH   LINE      ---      ---       #3191
      0100BCDEH   LINE      ---      ---       #3195
      0100BD35H   LINE      ---      ---       #3197
      0100BD3FH   LINE      ---      ---       #3198
      0100BD3FH   LINE      ---      ---       #3199
      0100BD44H   LINE      ---      ---       #3200
      0100BD44H   LINE      ---      ---       #3202
      0100BD4EH   LINE      ---      ---       #3203
      0100BD4EH   LINE      ---      ---       #3204
      0100BD4EH   LINE      ---      ---       #3207
      0100BD67H   LINE      ---      ---       #3210
      0100BD70H   LINE      ---      ---       #3211
      0100BD70H   LINE      ---      ---       #3212
      0100BD71H   LINE      ---      ---       #3214
      0100BD73H   LINE      ---      ---       #3216
      0100BD73H   LINE      ---      ---       #3217
      0100BD7CH   LINE      ---      ---       #3218
      0100BD7CH   LINE      ---      ---       #3219
      0100BD7CH   LINE      ---      ---       #3220
      0100BD7CH   LINE      ---      ---       #3221
      0200003AH   SYMBOL    XDATA    WORD      NoneWire_Warm_Up_Sec
      0200003CH   SYMBOL    XDATA    INT       err_sum
      0200003EH   SYMBOL    XDATA    INT       RT_Temp_Mem
      02000116H   SYMBOL    XDATA    INT       Calc_int
      02000118H   SYMBOL    XDATA    WORD      Val_Calc
      ---         BLOCKEND  CODE     ---       LVL=1
      ---         BLOCKEND  CODE     ---       LVL=0

      0100C11CH   BLOCK     CODE     ---       LVL=0
LX51 LINKER/LOCATER V4.66.93.0                                                        04/11/2019  16:58:21  PAGE 85


      0100C11CH   LINE      ---      ---       #3224
      0100C11CH   LINE      ---      ---       #3225
      0100C11CH   LINE      ---      ---       #3226
      0100C12DH   LINE      ---      ---       #3227
      0100C12DH   LINE      ---      ---       #3228
      0100C132H   LINE      ---      ---       #3229
      0100C133H   LINE      ---      ---       #3230
      0100C13FH   LINE      ---      ---       #3231
      0100C13FH   LINE      ---      ---       #3232
      0100C144H   LINE      ---      ---       #3233
      0100C145H   LINE      ---      ---       #3234
      0100C14FH   LINE      ---      ---       #3235
      0100C14FH   LINE      ---      ---       #3236
      0100C155H   LINE      ---      ---       #3237
      0100C155H   LINE      ---      ---       #3239
      0100C155H   LINE      ---      ---       #3241
      0100C155H   LINE      ---      ---       #3242
      ---         BLOCKEND  ---      ---       LVL=0

      01009025H   BLOCK     CODE     ---       LVL=0
      01009025H   LINE      ---      ---       #3244
      01009025H   LINE      ---      ---       #3245
      01009025H   BLOCK     CODE     NEAR LAB  LVL=1
      01009025H   LINE      ---      ---       #3253
      0100902BH   LINE      ---      ---       #3254
      01009031H   LINE      ---      ---       #3255
      01009031H   LINE      ---      ---       #3256
      01009033H   LINE      ---      ---       #3259
      01009043H   LINE      ---      ---       #3260
      0100904AH   LINE      ---      ---       #3261
      0100904AH   LINE      ---      ---       #3262
      01009050H   LINE      ---      ---       #3263
      01009056H   LINE      ---      ---       #3264
      01009056H   LINE      ---      ---       #3265
      01009059H   LINE      ---      ---       #3266
      0100905EH   LINE      ---      ---       #3267
      0100905EH   LINE      ---      ---       #3268
      01009060H   LINE      ---      ---       #3270
      01009060H   LINE      ---      ---       #3271
      01009065H   LINE      ---      ---       #3272
      0100906AH   LINE      ---      ---       #3273
      0100906AH   LINE      ---      ---       #3274
      01009071H   LINE      ---      ---       #3275
      01009071H   LINE      ---      ---       #3278
      0100907EH   LINE      ---      ---       #3279
      0100907EH   LINE      ---      ---       #3280
      01009080H   LINE      ---      ---       #3281
      01009082H   LINE      ---      ---       #3283
      01009082H   LINE      ---      ---       #3284
      01009084H   LINE      ---      ---       #3285
      01009084H   LINE      ---      ---       #3288
      01009093H   LINE      ---      ---       #3289
      01009093H   LINE      ---      ---       #3290
      01009095H   LINE      ---      ---       #3291
      01009097H   LINE      ---      ---       #3292
      01009099H   LINE      ---      ---       #3294
      01009099H   LINE      ---      ---       #3295
      0100909CH   LINE      ---      ---       #3296
      0100909CH   LINE      ---      ---       #3297
      0100909EH   LINE      ---      ---       #3298
      010090A0H   LINE      ---      ---       #3299
      010090A0H   LINE      ---      ---       #3300
      010090A0H   LINE      ---      ---       #3301
      010090A2H   LINE      ---      ---       #3303
      010090A2H   LINE      ---      ---       #3304
LX51 LINKER/LOCATER V4.66.93.0                                                        04/11/2019  16:58:21  PAGE 86


      010090A8H   LINE      ---      ---       #3305
      010090ABH   LINE      ---      ---       #3306
      010090ABH   LINE      ---      ---       #3307
      010090B1H   LINE      ---      ---       #3308
      010090B1H   LINE      ---      ---       #3309
      010090BAH   LINE      ---      ---       #3310
      010090BAH   LINE      ---      ---       #3311
      010090C2H   LINE      ---      ---       #3312
      010090C2H   LINE      ---      ---       #3313
      010090C7H   LINE      ---      ---       #3314
      010090C9H   LINE      ---      ---       #3316
      010090C9H   LINE      ---      ---       #3317
      010090CFH   LINE      ---      ---       #3318
      010090CFH   LINE      ---      ---       #3319
      010090D4H   LINE      ---      ---       #3320
      010090D8H   LINE      ---      ---       #3321
      010090D8H   LINE      ---      ---       #3322
      010090D8H   LINE      ---      ---       #3323
      010090D8H   LINE      ---      ---       #3326
      010090E5H   LINE      ---      ---       #3327
      010090E5H   LINE      ---      ---       #3328
      010090E7H   LINE      ---      ---       #3329
      010090E9H   LINE      ---      ---       #3330
      010090EAH   LINE      ---      ---       #3332
      010090EAH   LINE      ---      ---       #3333
      010090EDH   LINE      ---      ---       #3334
      010090EDH   LINE      ---      ---       #3335
      010090EFH   LINE      ---      ---       #3336
      010090F1H   LINE      ---      ---       #3337
      010090F1H   LINE      ---      ---       #3338
      010090F1H   LINE      ---      ---       #3339
      010090F3H   LINE      ---      ---       #3341
      010090F3H   LINE      ---      ---       #3342
      010090F9H   LINE      ---      ---       #3343
      010090FCH   LINE      ---      ---       #3344
      010090FCH   LINE      ---      ---       #3345
      01009102H   LINE      ---      ---       #3346
      01009102H   LINE      ---      ---       #3347
      0100910BH   LINE      ---      ---       #3348
      0100910BH   LINE      ---      ---       #3349
      01009113H   LINE      ---      ---       #3350
      01009113H   LINE      ---      ---       #3351
      01009118H   LINE      ---      ---       #3352
      0100911AH   LINE      ---      ---       #3354
      0100911AH   LINE      ---      ---       #3355
      01009120H   LINE      ---      ---       #3356
      01009120H   LINE      ---      ---       #3357
      01009125H   LINE      ---      ---       #3358
      01009129H   LINE      ---      ---       #3359
      01009129H   LINE      ---      ---       #3360
      01009129H   LINE      ---      ---       #3361
      01009129H   LINE      ---      ---       #3362
      02000040H   SYMBOL    XDATA    BYTE      Micro_Temp_CLK
      02000041H   SYMBOL    XDATA    BYTE      Check_WireInTimes
      02000042H   SYMBOL    XDATA    BYTE      Check_WireOutTimes
      02000043H   SYMBOL    XDATA    BYTE      WireIn_FB_Count
      02000044H   SYMBOL    XDATA    BYTE      WireOut_FB_Count
      02000045H   SYMBOL    XDATA    BYTE      NoHpCheck_Times
      ---         BLOCKEND  CODE     ---       LVL=1
      ---         BLOCKEND  CODE     ---       LVL=0

      ---         MODULE    ---      ---       SOUND_TYPE
      01009152H   PUBLIC    CODE     ---       Sound_Type_Drive
      0100C17FH   PUBLIC    CODE     ---       Sound_Alarm_Pause_Disable
      0100C156H   PUBLIC    CODE     ---       Sound_Alarm_Pause_Enable
LX51 LINKER/LOCATER V4.66.93.0                                                        04/11/2019  16:58:21  PAGE 87


      010097E3H   PUBLIC    CODE     ---       Sound_Short
      000000C0H.3 SFRSYM    DATA     BIT       P43
      02000359H   SYMBOL    XDATA    BYTE      Sound_En_Cnt
      0200035AH   SYMBOL    XDATA    WORD      SoundPauseCnt

      010097E3H   BLOCK     CODE     ---       LVL=0
      010097E3H   LINE      ---      ---       #10
      010097E3H   LINE      ---      ---       #11
      010097E3H   LINE      ---      ---       #12
      010097E9H   LINE      ---      ---       #13
      010097E9H   LINE      ---      ---       #15
      010097E9H   LINE      ---      ---       #17
      010097E9H   LINE      ---      ---       #18
      010097EFH   LINE      ---      ---       #19
      010097EFH   LINE      ---      ---       #20
      ---         BLOCKEND  ---      ---       LVL=0

      0100C156H   BLOCK     CODE     ---       LVL=0
      0100C156H   LINE      ---      ---       #22
      0100C156H   LINE      ---      ---       #23
      0100C156H   LINE      ---      ---       #24
      0100C160H   LINE      ---      ---       #25
      ---         BLOCKEND  ---      ---       LVL=0

      0100C17FH   BLOCK     CODE     ---       LVL=0
      0100C17FH   LINE      ---      ---       #27
      0100C17FH   LINE      ---      ---       #28
      0100C17FH   LINE      ---      ---       #29
      0100C186H   LINE      ---      ---       #30
      ---         BLOCKEND  ---      ---       LVL=0

      01009152H   BLOCK     CODE     ---       LVL=0
      01009152H   LINE      ---      ---       #32
      01009152H   LINE      ---      ---       #33
      01009152H   LINE      ---      ---       #34
      01009158H   LINE      ---      ---       #35
      01009158H   LINE      ---      ---       #36
      01009162H   LINE      ---      ---       #37
      01009162H   LINE      ---      ---       #38
      01009164H   LINE      ---      ---       #39
      01009168H   LINE      ---      ---       #40
      01009169H   LINE      ---      ---       #42
      01009169H   LINE      ---      ---       #43
      0100916EH   LINE      ---      ---       #44
      01009170H   LINE      ---      ---       #45
      01009170H   LINE      ---      ---       #46
      01009171H   LINE      ---      ---       #48
      01009171H   LINE      ---      ---       #49
      01009177H   LINE      ---      ---       #50
      01009177H   LINE      ---      ---       #51
      01009179H   LINE      ---      ---       #52
      0100917BH   LINE      ---      ---       #53
      0100917CH   LINE      ---      ---       #55
      0100917CH   LINE      ---      ---       #56
      0100917EH   LINE      ---      ---       #57
      0100917EH   LINE      ---      ---       #58
      0100917EH   LINE      ---      ---       #59
      ---         BLOCKEND  ---      ---       LVL=0

      ---         MODULE    ---      ---       MAIN
      01008013H   PUBLIC    CODE     ---       main
      000000C1H   SFRSYM    DATA     BYTE      WDT_CONTR

      01008013H   BLOCK     CODE     ---       LVL=0
      01008013H   LINE      ---      ---       #6
LX51 LINKER/LOCATER V4.66.93.0                                                        04/11/2019  16:58:21  PAGE 88


      01008013H   LINE      ---      ---       #7
      01008013H   BLOCK     CODE     NEAR LAB  LVL=1
      01008013H   LINE      ---      ---       #8
      01008019H   LINE      ---      ---       #10
      0100801CH   LINE      ---      ---       #11
      0100801EH   LINE      ---      ---       #12
      01008021H   LINE      ---      ---       #13
      01008029H   LINE      ---      ---       #15
      0100802FH   LINE      ---      ---       #16
      0100802FH   LINE      ---      ---       #17
      01008032H   LINE      ---      ---       #18
      01008034H   LINE      ---      ---       #19
      01008037H   LINE      ---      ---       #20
      0100803AH   LINE      ---      ---       #21
      0100803DH   LINE      ---      ---       #22
      01008040H   LINE      ---      ---       #23
      01008043H   LINE      ---      ---       #24
      01008046H   LINE      ---      ---       #25
      01008049H   LINE      ---      ---       #26
      0100804CH   LINE      ---      ---       #27
      0100804FH   LINE      ---      ---       #28
      01008052H   LINE      ---      ---       #29
      01008055H   LINE      ---      ---       #30
      01008058H   LINE      ---      ---       #31
      0100805BH   LINE      ---      ---       #32
      0100805EH   LINE      ---      ---       #33
      01008061H   LINE      ---      ---       #34
      01008064H   LINE      ---      ---       #35
      01008067H   LINE      ---      ---       #36
      0100806AH   LINE      ---      ---       #37
      0100806DH   LINE      ---      ---       #38
      01008070H   LINE      ---      ---       #39
      01008073H   LINE      ---      ---       #40
      01008076H   LINE      ---      ---       #41
      01008079H   LINE      ---      ---       #42
      0100807BH   LINE      ---      ---       #43
      0200010FH   SYMBOL    XDATA    BYTE      TRUE
      ---         BLOCKEND  CODE     ---       LVL=1
      ---         BLOCKEND  CODE     ---       LVL=0

      ---         MODULE    ---      ---       STCROMCRC16

      ---         MODULE    ---      ---       LCD
      02000360H   PUBLIC    XDATA    BYTE      Back_Color
      010019CEH   PUBLIC    CONST    ---       gImage_LAN_SEL_FR
      010018BAH   PUBLIC    CONST    ---       gImage_LAN_SEL_ES
      0100175EH   PUBLIC    CONST    ---       gImage_LAN_SEL_PT
      01001668H   PUBLIC    CONST    ---       gImage_LAN_SEL_EN
      01001500H   PUBLIC    CONST    ---       ICO24X24
      01001398H   PUBLIC    CONST    ---       Num8X24
      010012A8H   PUBLIC    CONST    ---       Num8X16
      01000E34H   PUBLIC    CONST    ---       gImage_FANEM
      01000E04H   PUBLIC    CONST    ---       gImage_LOGO5
      01000DCBH   PUBLIC    CONST    ---       gImage_LOGO4
      01000D65H   PUBLIC    CONST    ---       gImage_LOGO3
      01000CF9H   PUBLIC    CONST    ---       gImage_LOGO2
      01000C99H   PUBLIC    CONST    ---       gImage_LOGO1
      01000A49H   PUBLIC    CONST    ---       Shangbiao8
      01007D92H   PUBLIC    CODE     ---       LCD_Show_Verion
      01006631H   PUBLIC    CODE     ---       DrawWorkWindows
      0100B6F0H   PUBLIC    CODE     ---       Refresh_Work_Mode
      02000196H   PUBLIC    XDATA    BYTE      ?_Draw_Circle?BYTE
      0100918AH   PUBLIC    CODE     ---       _Draw_Circle
      02000148H   PUBLIC    XDATA    BYTE      ?_LCD_ShowxNum?BYTE
      0100AEEAH   PUBLIC    CODE     ---       _LCD_ShowxNum
LX51 LINKER/LOCATER V4.66.93.0                                                        04/11/2019  16:58:21  PAGE 89


      02000197H   PUBLIC    XDATA    BYTE      ?_LCD_ShowString?BYTE
      01007B44H   PUBLIC    CODE     ---       _LCD_ShowString
      020001ACH   PUBLIC    XDATA    BYTE      ?_LCD_ShowChar?BYTE
      0100B44BH   PUBLIC    CODE     ---       _LCD_ShowChar
      020001B4H   PUBLIC    XDATA    BYTE      ?_DISP_FNT12X24?BYTE
      0100B194H   PUBLIC    CODE     ---       _DISP_FNT12X24
      020001B4H   PUBLIC    XDATA    BYTE      ?_DISP_FNT8X16?BYTE
      0100B2DEH   PUBLIC    CODE     ---       _DISP_FNT8X16
      0100A5FBH   PUBLIC    CODE     ---       _DISP_VHB80_PIC
      0100B728H   PUBLIC    CODE     ---       _Disp_WuChuang
      0100B714H   PUBLIC    CODE     ---       _Disp_YouChuang
      0100A7E9H   PUBLIC    CODE     ---       _DISP_VHB80_56X40
      02000196H   PUBLIC    XDATA    BYTE      ?_DISP_DHM?BYTE
      0100B4A8H   PUBLIC    CODE     ---       _DISP_DHM
      02000196H   PUBLIC    XDATA    BYTE      ?_DISP_ICO_52X64?BYTE
      0100B4F3H   PUBLIC    CODE     ---       _DISP_ICO_52X64
      02000196H   PUBLIC    XDATA    BYTE      ?_DISP_ICO_40X40?BYTE
      0100B4CCH   PUBLIC    CODE     ---       _DISP_ICO_40X40
      02000196H   PUBLIC    XDATA    BYTE      ?_DISP_ICO_32X40?BYTE
      010097A0H   PUBLIC    CODE     ---       _DISP_ICO_32X40
      02000197H   PUBLIC    XDATA    BYTE      ?_DISP_TIME_10X16?BYTE
      01008810H   PUBLIC    CODE     ---       _DISP_TIME_10X16
      02000196H   PUBLIC    XDATA    BYTE      ?_DISP_RH14X24?BYTE
      0100B42EH   PUBLIC    CODE     ---       _DISP_RH14X24
      02000112H   PUBLIC    XDATA    BYTE      ?_DISP_FNT10X24?BYTE
      01008326H   PUBLIC    CODE     ---       _DISP_FNT10X24
      0200019CH   PUBLIC    XDATA    BYTE      ?_DISP_RH_17X40?BYTE
      0100840AH   PUBLIC    CODE     ---       _DISP_RH_17X40
      0100A7AFH   PUBLIC    CODE     ---       _DISP_HEAT_36X24
      0100A65AH   PUBLIC    CODE     ---       _DISP_JQK41X16
      0100A804H   PUBLIC    CODE     ---       _DISP_RTD28X24
      0100A7D4H   PUBLIC    CODE     ---       _DISP_CQK25X24
      02000113H   PUBLIC    XDATA    BYTE      ?_DISP_TEMP_38X64?BYTE
      01008792H   PUBLIC    CODE     ---       _DISP_TEMP_38X64
      0200019CH   PUBLIC    XDATA    BYTE      ?_DISP_TEMP_30X56?BYTE
      0100864AH   PUBLIC    CODE     ---       _DISP_TEMP_30X56
      0200019CH   PUBLIC    XDATA    BYTE      ?_Draw_Rectangle_Real?BYTE
      01006B6EH   PUBLIC    CODE     ---       _Draw_Rectangle_Real
      02000196H   PUBLIC    XDATA    BYTE      ?_Draw_Rectangle?BYTE
      0100690AH   PUBLIC    CODE     ---       _Draw_Rectangle
      020001C4H   PUBLIC    XDATA    BYTE      ?_LCD_CrtlWrite_Area?BYTE
      01006A23H   PUBLIC    CODE     ---       _LCD_CrtlWrite_Area
      01006A88H   PUBLIC    CODE     ---       LCD_Initial
      01006F84H   PUBLIC    CODE     ---       _LCD_CtrlWrite_Color
      01006F97H   PUBLIC    CODE     ---       _LCD_CtrlWrite_ILI9328
      00000080H   SFRSYM    DATA     BYTE      P0
      00000090H.4 SFRSYM    DATA     BIT       P14
      00000090H.5 SFRSYM    DATA     BIT       P15
      00000090H.6 SFRSYM    DATA     BIT       P16
      000000C0H.0 SFRSYM    DATA     BIT       P40
      000000C0H.6 SFRSYM    DATA     BIT       P46
      0100000EH   SYMBOL    CODE     ---       _SdCmd
      01006A57H   SYMBOL    CODE     ---       _SdData
      0100834DH   SYMBOL    CODE     ---       _DISP_MONO_GRAP
      01006F50H   SYMBOL    CODE     ---       _LCD_DrawPoint
      0100C187H   SYMBOL    CODE     ---       _LCD_Pow

      0100000EH   BLOCK     CODE     ---       LVL=0
      0100000EH   LINE      ---      ---       #33
      0100000EH   LINE      ---      ---       #34
      0100000EH   LINE      ---      ---       #35
      01000010H   LINE      ---      ---       #36
      00000007H   SYMBOL    DATA     BYTE      data8
      ---         BLOCKEND  ---      ---       LVL=0

LX51 LINKER/LOCATER V4.66.93.0                                                        04/11/2019  16:58:21  PAGE 90


      01006A57H   BLOCK     CODE     ---       LVL=0
      01006A84H   LINE      ---      ---       #44
      01006A84H   LINE      ---      ---       #45
      01006A84H   LINE      ---      ---       #46
      01006A86H   LINE      ---      ---       #47
      01006A57H   SYMBOL    CODE     NEAR LAB  ?L?COM0054
      00000007H   SYMBOL    DATA     BYTE      data8
      ---         BLOCKEND  ---      ---       LVL=0

      01006F97H   BLOCK     CODE     ---       LVL=0
      01006F97H   LINE      ---      ---       #54
      01006F9AH   LINE      ---      ---       #55
      01006F9AH   LINE      ---      ---       #56
      01006F9CH   LINE      ---      ---       #57
      01006F9EH   LINE      ---      ---       #58
      01006FA0H   LINE      ---      ---       #59
      01006FA2H   LINE      ---      ---       #60
      01006FA4H   LINE      ---      ---       #61
      01006FA7H   LINE      ---      ---       #62
      01006FA9H   LINE      ---      ---       #63
      01006FABH   LINE      ---      ---       #64
      01006FADH   LINE      ---      ---       #65
      01006FAFH   LINE      ---      ---       #66
      00000004H   SYMBOL    DATA     WORD      i
      ---         BLOCKEND  ---      ---       LVL=0

      01006F84H   BLOCK     CODE     ---       LVL=0
      01006F84H   LINE      ---      ---       #68
      01006F84H   LINE      ---      ---       #69
      00000007H   SYMBOL    DATA     BYTE      color
      01006F84H   BLOCK     CODE     NEAR LAB  LVL=1
      01006F84H   LINE      ---      ---       #84
      01001AFAH   SYMBOL    CONST    ---       Table_Color
      ---         BLOCKEND  CODE     ---       LVL=1
      ---         BLOCKEND  CODE     ---       LVL=0

      01006A88H   BLOCK     CODE     ---       LVL=0
      01006A88H   LINE      ---      ---       #87
      01006A88H   LINE      ---      ---       #88
      01006A88H   LINE      ---      ---       #90
      01006A8AH   LINE      ---      ---       #91
      01006A91H   LINE      ---      ---       #92
      01006A93H   LINE      ---      ---       #93
      01006A9AH   LINE      ---      ---       #95
      01006A9FH   LINE      ---      ---       #96
      01006AA6H   LINE      ---      ---       #97
      01006AAFH   LINE      ---      ---       #99
      01006AB4H   LINE      ---      ---       #100
      01006AB7H   LINE      ---      ---       #101
      01006ABCH   LINE      ---      ---       #103
      01006AC1H   LINE      ---      ---       #104
      01006AC5H   LINE      ---      ---       #106
      01006AC8H   LINE      ---      ---       #107
      01006ACCH   LINE      ---      ---       #110
      01006AD1H   LINE      ---      ---       #111
      01006AD5H   LINE      ---      ---       #113
      01006ADAH   LINE      ---      ---       #114
      01006ADEH   LINE      ---      ---       #116
      01006AE3H   LINE      ---      ---       #117
      01006AE7H   LINE      ---      ---       #119
      01006AECH   LINE      ---      ---       #120
      01006AF0H   LINE      ---      ---       #122
      01006AF5H   LINE      ---      ---       #123
      01006AF9H   LINE      ---      ---       #125
      01006AFEH   LINE      ---      ---       #126
LX51 LINKER/LOCATER V4.66.93.0                                                        04/11/2019  16:58:21  PAGE 91


      01006B02H   LINE      ---      ---       #128
      01006B07H   LINE      ---      ---       #129
      01006B0BH   LINE      ---      ---       #131
      01006B10H   LINE      ---      ---       #132
      01006B14H   LINE      ---      ---       #133
      01006B18H   LINE      ---      ---       #135
      01006B1DH   LINE      ---      ---       #136
      01006B21H   LINE      ---      ---       #138
      01006B25H   LINE      ---      ---       #151
      01006B28H   LINE      ---      ---       #155
      01006B2CH   LINE      ---      ---       #168
      01006B2FH   LINE      ---      ---       #171
      01006B38H   LINE      ---      ---       #172
      01006B3DH   LINE      ---      ---       #174
      01006B43H   LINE      ---      ---       #176
      01006B48H   LINE      ---      ---       #177
      01006B4BH   LINE      ---      ---       #179
      01006B4DH   LINE      ---      ---       #180
      01006B51H   LINE      ---      ---       #182
      01006B56H   LINE      ---      ---       #183
      01006B58H   LINE      ---      ---       #185
      01006B5BH   LINE      ---      ---       #186
      01006B5FH   LINE      ---      ---       #188
      01006B65H   LINE      ---      ---       #189
      ---         BLOCKEND  ---      ---       LVL=0

      01006A23H   BLOCK     CODE     ---       LVL=0
      01006A23H   LINE      ---      ---       #192
      01006A25H   LINE      ---      ---       #193
      01006A25H   LINE      ---      ---       #194
      01006A2AH   LINE      ---      ---       #195
      01006A2EH   LINE      ---      ---       #196
      01006A32H   LINE      ---      ---       #197
      01006A35H   LINE      ---      ---       #199
      01006A3AH   LINE      ---      ---       #200
      01006A3EH   LINE      ---      ---       #201
      01006A42H   LINE      ---      ---       #202
      01006A47H   LINE      ---      ---       #204
      00000004H   SYMBOL    DATA     BYTE      SX
      00000005H   SYMBOL    DATA     BYTE      EX
      00000002H   SYMBOL    DATA     WORD      SY
      020001C8H   SYMBOL    XDATA    WORD      EY
      ---         BLOCKEND  ---      ---       LVL=0

      01006901H   BLOCK     CODE     ---       LVL=0
      0100690AH   LINE      ---      ---       #209
      01006919H   LINE      ---      ---       #210
      01006901H   SYMBOL    CODE     NEAR LAB  ?L?COM010D
      02000196H   SYMBOL    XDATA    BYTE      Start_X
      02000197H   SYMBOL    XDATA    WORD      Start_Y
      00000001H   SYMBOL    DATA     BYTE      End_X
      0200019AH   SYMBOL    XDATA    WORD      End_Y
      0200019CH   SYMBOL    XDATA    BYTE      color
      0200019DH   SYMBOL    XDATA    BYTE      LineW
      01006919H   BLOCK     CODE     NEAR LAB  LVL=1
      01006919H   LINE      ---      ---       #212
      01006926H   LINE      ---      ---       #213
      01006941H   LINE      ---      ---       #215
      01006953H   LINE      ---      ---       #216
      0100695BH   LINE      ---      ---       #217
      0100695BH   LINE      ---      ---       #218
      0100696CH   LINE      ---      ---       #219
      0100696CH   LINE      ---      ---       #220
      01006973H   LINE      ---      ---       #222
      0100697AH   LINE      ---      ---       #223
LX51 LINKER/LOCATER V4.66.93.0                                                        04/11/2019  16:58:21  PAGE 92


      010069A0H   LINE      ---      ---       #225
      010069A0H   LINE      ---      ---       #226
      010069B1H   LINE      ---      ---       #227
      010069B1H   LINE      ---      ---       #228
      010069B8H   LINE      ---      ---       #230
      010069BFH   LINE      ---      ---       #231
      010069DAH   LINE      ---      ---       #233
      010069DAH   LINE      ---      ---       #234
      010069E4H   LINE      ---      ---       #235
      010069E4H   LINE      ---      ---       #236
      010069EBH   LINE      ---      ---       #238
      010069F2H   LINE      ---      ---       #239
      01006A0AH   LINE      ---      ---       #241
      01006A0AH   LINE      ---      ---       #242
      01006A14H   LINE      ---      ---       #243
      01006A14H   LINE      ---      ---       #244
      01006A1BH   LINE      ---      ---       #246
      01006A22H   LINE      ---      ---       #247
      0200019EH   SYMBOL    XDATA    WORD      i
      00000002H   SYMBOL    DATA     WORD      j
      020001A0H   SYMBOL    XDATA    WORD      w
      020001A2H   SYMBOL    XDATA    WORD      h
      ---         BLOCKEND  CODE     ---       LVL=1
      ---         BLOCKEND  CODE     ---       LVL=0

      01006B6AH   BLOCK     CODE     ---       LVL=0
      01006B6EH   LINE      ---      ---       #250
      01006B78H   LINE      ---      ---       #251
      01006B6AH   SYMBOL    CODE     NEAR LAB  ?L?COM00F9
      00000002H   SYMBOL    DATA     BYTE      Start_X
      0200019DH   SYMBOL    XDATA    WORD      Start_Y
      00000003H   SYMBOL    DATA     BYTE      End_X
      020001A0H   SYMBOL    XDATA    WORD      End_Y
      020001A2H   SYMBOL    XDATA    BYTE      color
      01006B78H   BLOCK     CODE     NEAR LAB  LVL=1
      01006B78H   LINE      ---      ---       #253
      01006B87H   LINE      ---      ---       #254
      01006B9FH   LINE      ---      ---       #255
      01006BB7H   LINE      ---      ---       #256
      01006BD0H   LINE      ---      ---       #257
      01006BD0H   LINE      ---      ---       #258
      01006BE0H   LINE      ---      ---       #259
      01006BE0H   LINE      ---      ---       #260
      01006BE7H   LINE      ---      ---       #261
      01006BEEH   LINE      ---      ---       #262
      01006BF6H   LINE      ---      ---       #263
      00000002H   SYMBOL    DATA     WORD      i
      020001A3H   SYMBOL    XDATA    WORD      j
      020001A5H   SYMBOL    XDATA    WORD      w
      020001A7H   SYMBOL    XDATA    WORD      h
      ---         BLOCKEND  CODE     ---       LVL=1
      ---         BLOCKEND  CODE     ---       LVL=0

      0100834DH   BLOCK     CODE     ---       LVL=0
      0100834DH   LINE      ---      ---       #273
      0100835AH   LINE      ---      ---       #274
      00000006H   SYMBOL    DATA     BYTE      X1
      020001A2H   SYMBOL    XDATA    WORD      Y1
      020001A4H   SYMBOL    XDATA    BYTE      H
      020001A5H   SYMBOL    XDATA    BYTE      W
      020001A6H   SYMBOL    XDATA    ---       gp
      020001A9H   SYMBOL    XDATA    BYTE      color
      0100835AH   BLOCK     CODE     NEAR LAB  LVL=1
      0100835AH   LINE      ---      ---       #276
      0100837BH   LINE      ---      ---       #277
LX51 LINKER/LOCATER V4.66.93.0                                                        04/11/2019  16:58:21  PAGE 93


      010083ABH   LINE      ---      ---       #278
      010083ABH   LINE      ---      ---       #279
      010083B2H   LINE      ---      ---       #280
      010083B2H   LINE      ---      ---       #281
      010083D9H   LINE      ---      ---       #282
      010083D9H   LINE      ---      ---       #283
      010083DCH   LINE      ---      ---       #284
      010083DEH   LINE      ---      ---       #286
      010083DEH   LINE      ---      ---       #287
      010083E6H   LINE      ---      ---       #288
      010083E6H   LINE      ---      ---       #289
      010083FBH   LINE      ---      ---       #290
      01008403H   LINE      ---      ---       #291
      020001AAH   SYMBOL    XDATA    WORD      w
      020001ACH   SYMBOL    XDATA    WORD      j
      ---         BLOCKEND  CODE     ---       LVL=1
      ---         BLOCKEND  CODE     ---       LVL=0

      01008644H   BLOCK     CODE     ---       LVL=0
      0100864AH   LINE      ---      ---       #294
      01008652H   LINE      ---      ---       #295
      01008644H   SYMBOL    CODE     NEAR LAB  ?L?COM00E1
      0200019CH   SYMBOL    XDATA    BYTE      X
      0200019DH   SYMBOL    XDATA    WORD      Y
      00000003H   SYMBOL    DATA     BYTE      NUM
      020001A0H   SYMBOL    XDATA    BYTE      color
      01008652H   BLOCK     CODE     NEAR LAB  LVL=1
      01008652H   LINE      ---      ---       #429
      01001B10H   SYMBOL    CONST    ---       NUM30X56
      ---         BLOCKEND  CODE     ---       LVL=1
      ---         BLOCKEND  CODE     ---       LVL=0

      01008784H   BLOCK     CODE     ---       LVL=0
      01008792H   LINE      ---      ---       #432
      0100879AH   LINE      ---      ---       #433
      01008784H   SYMBOL    CODE     NEAR LAB  ?L?COM00C8
      02000113H   SYMBOL    XDATA    BYTE      X
      02000114H   SYMBOL    XDATA    WORD      Y
      00000003H   SYMBOL    DATA     BYTE      NUM
      02000117H   SYMBOL    XDATA    BYTE      color
      0100879AH   BLOCK     CODE     NEAR LAB  LVL=1
      0100879AH   LINE      ---      ---       #647
      01002344H   SYMBOL    CONST    ---       NUM38X64
      ---         BLOCKEND  CODE     ---       LVL=1
      ---         BLOCKEND  CODE     ---       LVL=0

      0100A7CEH   BLOCK     CODE     ---       LVL=0
      0100A7D4H   LINE      ---      ---       #650
      0100A7D6H   LINE      ---      ---       #651
      0100A7CEH   SYMBOL    CODE     NEAR LAB  ?L?COM01B6
      00000007H   SYMBOL    DATA     BYTE      X
      00000004H   SYMBOL    DATA     WORD      Y
      00000006H   SYMBOL    DATA     BYTE      color
      0100A7D6H   BLOCK     CODE     NEAR LAB  LVL=1
      0100A7D6H   LINE      ---      ---       #662
      01002F24H   SYMBOL    CONST    ---       CQK25X24
      ---         BLOCKEND  CODE     ---       LVL=1
      ---         BLOCKEND  CODE     ---       LVL=0

      0100A7FEH   BLOCK     CODE     ---       LVL=0
      0100A804H   LINE      ---      ---       #665
      0100A806H   LINE      ---      ---       #666
      0100A7FEH   SYMBOL    CODE     NEAR LAB  ?L?COM01B5
      00000007H   SYMBOL    DATA     BYTE      X
      00000004H   SYMBOL    DATA     WORD      Y
LX51 LINKER/LOCATER V4.66.93.0                                                        04/11/2019  16:58:21  PAGE 94


      00000006H   SYMBOL    DATA     BYTE      color
      0100A806H   BLOCK     CODE     NEAR LAB  LVL=1
      0100A806H   LINE      ---      ---       #677
      01002F6FH   SYMBOL    CONST    ---       RTD28X24
      ---         BLOCKEND  CODE     ---       LVL=1
      ---         BLOCKEND  CODE     ---       LVL=0

      0100A65AH   BLOCK     CODE     ---       LVL=0
      0100A65AH   LINE      ---      ---       #680
      0100A65CH   LINE      ---      ---       #681
      00000007H   SYMBOL    DATA     BYTE      X
      00000004H   SYMBOL    DATA     WORD      Y
      00000006H   SYMBOL    DATA     BYTE      color
      0100A65CH   BLOCK     CODE     NEAR LAB  LVL=1
      0100A65CH   LINE      ---      ---       #692
      01002FC3H   SYMBOL    CONST    ---       JQK41X16
      ---         BLOCKEND  CODE     ---       LVL=1
      ---         BLOCKEND  CODE     ---       LVL=0

      0100A7AFH   BLOCK     CODE     ---       LVL=0
      0100A7AFH   LINE      ---      ---       #697
      0100A7B1H   LINE      ---      ---       #698
      00000007H   SYMBOL    DATA     BYTE      X
      00000004H   SYMBOL    DATA     WORD      Y
      00000006H   SYMBOL    DATA     BYTE      color
      0100A7B1H   BLOCK     CODE     NEAR LAB  LVL=1
      0100A7B1H   LINE      ---      ---       #712
      01003015H   SYMBOL    CONST    ---       HEAT36X32
      ---         BLOCKEND  CODE     ---       LVL=1
      ---         BLOCKEND  CODE     ---       LVL=0

      01008404H   BLOCK     CODE     ---       LVL=0
      0100840AH   LINE      ---      ---       #715
      01008412H   LINE      ---      ---       #716
      01008404H   SYMBOL    CODE     NEAR LAB  ?L?COM01A1
      0200019CH   SYMBOL    XDATA    BYTE      X
      0200019DH   SYMBOL    XDATA    WORD      Y
      00000003H   SYMBOL    DATA     BYTE      NUM
      020001A0H   SYMBOL    XDATA    BYTE      color
      01008412H   BLOCK     CODE     NEAR LAB  LVL=1
      01008412H   LINE      ---      ---       #780
      01003081H   SYMBOL    CONST    ---       NUM17X40
      ---         BLOCKEND  CODE     ---       LVL=1
      ---         BLOCKEND  CODE     ---       LVL=0

      01008326H   BLOCK     CODE     ---       LVL=0
      01008326H   LINE      ---      ---       #783
      0100832EH   LINE      ---      ---       #784
      02000112H   SYMBOL    XDATA    BYTE      X
      02000113H   SYMBOL    XDATA    WORD      Y
      00000003H   SYMBOL    DATA     BYTE      NUM
      02000116H   SYMBOL    XDATA    BYTE      color
      0100832EH   BLOCK     CODE     NEAR LAB  LVL=1
      0100832EH   LINE      ---      ---       #818
      010033D3H   SYMBOL    CONST    ---       FNT10X24
      ---         BLOCKEND  CODE     ---       LVL=1
      ---         BLOCKEND  CODE     ---       LVL=0

      0100B42EH   BLOCK     CODE     ---       LVL=0
      0100B42EH   LINE      ---      ---       #821
      0100B435H   LINE      ---      ---       #822
      02000196H   SYMBOL    XDATA    BYTE      X
      02000197H   SYMBOL    XDATA    WORD      Y
      00000003H   SYMBOL    DATA     BYTE      NUM
      0200019AH   SYMBOL    XDATA    BYTE      color
LX51 LINKER/LOCATER V4.66.93.0                                                        04/11/2019  16:58:21  PAGE 95


      0100B435H   BLOCK     CODE     NEAR LAB  LVL=1
      0100B435H   LINE      ---      ---       #837
      01003595H   SYMBOL    CONST    ---       RH14X24
      ---         BLOCKEND  CODE     ---       LVL=1
      ---         BLOCKEND  CODE     ---       LVL=0

      0100880CH   BLOCK     CODE     ---       LVL=0
      01008810H   LINE      ---      ---       #840
      01008818H   LINE      ---      ---       #841
      0100880CH   SYMBOL    CODE     NEAR LAB  ?L?COM00FA
      02000197H   SYMBOL    XDATA    BYTE      X
      02000198H   SYMBOL    XDATA    WORD      Y
      00000003H   SYMBOL    DATA     BYTE      NUM
      0200019BH   SYMBOL    XDATA    BYTE      color
      01008818H   BLOCK     CODE     NEAR LAB  LVL=1
      01008818H   LINE      ---      ---       #855
      01003613H   SYMBOL    CONST    ---       NUM10X16
      ---         BLOCKEND  CODE     ---       LVL=1
      ---         BLOCKEND  CODE     ---       LVL=0

      01009788H   BLOCK     CODE     ---       LVL=0
      010097A0H   LINE      ---      ---       #857
      010097A8H   LINE      ---      ---       #858
      01009788H   SYMBOL    CODE     NEAR LAB  ?L?COM003C
      02000196H   SYMBOL    XDATA    BYTE      X
      02000197H   SYMBOL    XDATA    WORD      Y
      00000003H   SYMBOL    DATA     BYTE      NUM
      0200019AH   SYMBOL    XDATA    BYTE      color
      010097A8H   BLOCK     CODE     NEAR LAB  LVL=1
      010097A8H   LINE      ---      ---       #932
      010036DBH   SYMBOL    CONST    ---       ICO32X40
      ---         BLOCKEND  CODE     ---       LVL=1
      ---         BLOCKEND  CODE     ---       LVL=0

      0100B4C5H   BLOCK     CODE     ---       LVL=0
      0100B4CCH   LINE      ---      ---       #935
      0100B4D3H   LINE      ---      ---       #936
      0100B4C5H   SYMBOL    CODE     NEAR LAB  ?L?COM0192
      02000196H   SYMBOL    XDATA    BYTE      X
      02000197H   SYMBOL    XDATA    WORD      Y
      00000003H   SYMBOL    DATA     BYTE      NUM
      0200019AH   SYMBOL    XDATA    BYTE      color
      0100B4D3H   BLOCK     CODE     NEAR LAB  LVL=1
      0100B4D3H   LINE      ---      ---       #1067
      01003B3BH   SYMBOL    CONST    ---       ICO40X40
      ---         BLOCKEND  CODE     ---       LVL=1
      ---         BLOCKEND  CODE     ---       LVL=0

      0100B4F3H   BLOCK     CODE     ---       LVL=0
      0100B4F3H   LINE      ---      ---       #1072
      0100B4FAH   LINE      ---      ---       #1073
      02000196H   SYMBOL    XDATA    BYTE      X
      02000197H   SYMBOL    XDATA    WORD      Y
      00000003H   SYMBOL    DATA     BYTE      NUM
      0200019AH   SYMBOL    XDATA    BYTE      color
      0100B4FAH   BLOCK     CODE     NEAR LAB  LVL=1
      0100B4FAH   LINE      ---      ---       #1119
      01004243H   SYMBOL    CONST    ---       ICO48X48
      ---         BLOCKEND  CODE     ---       LVL=1
      ---         BLOCKEND  CODE     ---       LVL=0

      0100B4A4H   BLOCK     CODE     ---       LVL=0
      0100B4A8H   LINE      ---      ---       #1123
      0100B4AFH   LINE      ---      ---       #1124
      0100B4A4H   SYMBOL    CODE     NEAR LAB  ?L?COM01DE
LX51 LINKER/LOCATER V4.66.93.0                                                        04/11/2019  16:58:21  PAGE 96


      02000196H   SYMBOL    XDATA    BYTE      X
      02000197H   SYMBOL    XDATA    WORD      Y
      00000003H   SYMBOL    DATA     BYTE      NUM
      0200019AH   SYMBOL    XDATA    BYTE      color
      0100B4AFH   BLOCK     CODE     NEAR LAB  LVL=1
      0100B4AFH   LINE      ---      ---       #1182
      01004483H   SYMBOL    CONST    ---       DHM14X16
      ---         BLOCKEND  CODE     ---       LVL=1
      ---         BLOCKEND  CODE     ---       LVL=0

      0100A7E9H   BLOCK     CODE     ---       LVL=0
      0100A7E9H   LINE      ---      ---       #1185
      0100A7EBH   LINE      ---      ---       #1186
      00000007H   SYMBOL    DATA     BYTE      X
      00000004H   SYMBOL    DATA     WORD      Y
      00000006H   SYMBOL    DATA     BYTE      color
      0100A7EBH   BLOCK     CODE     NEAR LAB  LVL=1
      0100A7EBH   LINE      ---      ---       #1246
      01004697H   SYMBOL    CONST    ---       VHB8056X40
      ---         BLOCKEND  CODE     ---       LVL=1
      ---         BLOCKEND  CODE     ---       LVL=0

      0100B714H   BLOCK     CODE     ---       LVL=0
      0100B714H   LINE      ---      ---       #1250
      00000007H   SYMBOL    DATA     BYTE      X
      00000004H   SYMBOL    DATA     WORD      Y
      00000006H   SYMBOL    DATA     BYTE      color
      0100B714H   BLOCK     CODE     NEAR LAB  LVL=1
      010047AFH   SYMBOL    CONST    ---       PIC_YouChuang
      ---         BLOCKEND  CODE     ---       LVL=1
      ---         BLOCKEND  CODE     ---       LVL=0

      0100B722H   BLOCK     CODE     ---       LVL=0
      0100B728H   LINE      ---      ---       #1329
      0100B722H   SYMBOL    CODE     NEAR LAB  ?L?COM01AF
      00000007H   SYMBOL    DATA     BYTE      X
      00000004H   SYMBOL    DATA     WORD      Y
      00000006H   SYMBOL    DATA     BYTE      color
      0100B728H   BLOCK     CODE     NEAR LAB  LVL=1
      01004A75H   SYMBOL    CONST    ---       PIC_WuChuang
      ---         BLOCKEND  CODE     ---       LVL=1
      ---         BLOCKEND  CODE     ---       LVL=0

      0100A5F8H   BLOCK     CODE     ---       LVL=0
      0100A5FBH   LINE      ---      ---       #1410
      0100A601H   LINE      ---      ---       #1411
      0100A601H   LINE      ---      ---       #1412
      0100A609H   LINE      ---      ---       #1413
      0100A616H   LINE      ---      ---       #1414
      0100A61DH   LINE      ---      ---       #1415
      0100A632H   LINE      ---      ---       #1418
      0100A5F8H   SYMBOL    CODE     NEAR LAB  ?L?COM01BE
      02000113H   SYMBOL    XDATA    BYTE      color
      ---         BLOCKEND  ---      ---       LVL=0

      01006F50H   BLOCK     CODE     ---       LVL=0
      01006F63H   LINE      ---      ---       #1428
      01006F6BH   LINE      ---      ---       #1429
      01006F6BH   LINE      ---      ---       #1430
      01006F70H   LINE      ---      ---       #1431
      01006F72H   LINE      ---      ---       #1433
      01006F74H   LINE      ---      ---       #1435
      01006F79H   LINE      ---      ---       #1436
      01006F7BH   LINE      ---      ---       #1438
      01006F7DH   LINE      ---      ---       #1440
LX51 LINKER/LOCATER V4.66.93.0                                                        04/11/2019  16:58:21  PAGE 97


      01006F82H   LINE      ---      ---       #1441
      01006F50H   SYMBOL    CODE     NEAR LAB  ?L?COM0061
      020001C4H   SYMBOL    XDATA    WORD      x
      00000004H   SYMBOL    DATA     WORD      y
      00000003H   SYMBOL    DATA     BYTE      color
      ---         BLOCKEND  ---      ---       LVL=0

      0100B2DEH   BLOCK     CODE     ---       LVL=0
      0100B2DEH   LINE      ---      ---       #1451
      0100B2E3H   LINE      ---      ---       #1452
      020001B4H   SYMBOL    XDATA    WORD      X
      020001B6H   SYMBOL    XDATA    WORD      Y
      00000003H   SYMBOL    DATA     BYTE      NUM
      020001B9H   SYMBOL    XDATA    BYTE      mode
      020001BAH   SYMBOL    XDATA    BYTE      color
      0100B2E3H   BLOCK     CODE     NEAR LAB  LVL=1
      0100B2E3H   LINE      ---      ---       #1455
      0100B2E5H   LINE      ---      ---       #1564
      0100B301H   LINE      ---      ---       #1569
      0100B305H   LINE      ---      ---       #1570
      0100B307H   LINE      ---      ---       #1571
      0100B307H   LINE      ---      ---       #1572
      0100B30DH   LINE      ---      ---       #1573
      0100B30DH   LINE      ---      ---       #1574
      0100B324H   LINE      ---      ---       #1575
      0100B324H   LINE      ---      ---       #1576
      0100B32AH   LINE      ---      ---       #1577
      0100B32AH   LINE      ---      ---       #1578
      0100B32BH   LINE      ---      ---       #1579
      0100B32DH   LINE      ---      ---       #1581
      0100B32DH   LINE      ---      ---       #1582
      0100B330H   LINE      ---      ---       #1583
      0100B330H   LINE      ---      ---       #1584
      0100B332H   LINE      ---      ---       #1586
      0100B332H   LINE      ---      ---       #1587
      0100B338H   LINE      ---      ---       #1588
      0100B338H   LINE      ---      ---       #1589
      0100B340H   LINE      ---      ---       #1590
      0100B340H   LINE      ---      ---       #1591
      0100B340H   LINE      ---      ---       #1592
      0100B345H   LINE      ---      ---       #1595
      0100B34BH   LINE      ---      ---       #1596
      0100B34BH   LINE      ---      ---       #1597
      0100B362H   LINE      ---      ---       #1598
      0100B362H   LINE      ---      ---       #1599
      0100B368H   LINE      ---      ---       #1600
      0100B368H   LINE      ---      ---       #1601
      0100B369H   LINE      ---      ---       #1602
      0100B36BH   LINE      ---      ---       #1604
      0100B36BH   LINE      ---      ---       #1605
      0100B36EH   LINE      ---      ---       #1606
      0100B36EH   LINE      ---      ---       #1607
      0100B370H   LINE      ---      ---       #1609
      0100B370H   LINE      ---      ---       #1610
      0100B376H   LINE      ---      ---       #1611
      0100B376H   LINE      ---      ---       #1612
      0100B37EH   LINE      ---      ---       #1613
      0100B37EH   LINE      ---      ---       #1614
      0100B37EH   LINE      ---      ---       #1615
      0100B383H   LINE      ---      ---       #1617
      0100B389H   LINE      ---      ---       #1618
      0100B39FH   LINE      ---      ---       #1620
      020001BBH   SYMBOL    XDATA    WORD      w
      020001BDH   SYMBOL    XDATA    WORD      j
      020001BFH   SYMBOL    XDATA    WORD      F_x
LX51 LINKER/LOCATER V4.66.93.0                                                        04/11/2019  16:58:21  PAGE 98


      020001C1H   SYMBOL    XDATA    WORD      F_y
      00000001H   SYMBOL    DATA     BYTE      num
      01004D4FH   SYMBOL    CONST    ---       asc2_1608
      ---         BLOCKEND  CODE     ---       LVL=1
      ---         BLOCKEND  CODE     ---       LVL=0

      0100B194H   BLOCK     CODE     ---       LVL=0
      0100B194H   LINE      ---      ---       #1629
      0100B199H   LINE      ---      ---       #1630
      020001B4H   SYMBOL    XDATA    WORD      X
      020001B6H   SYMBOL    XDATA    WORD      Y
      00000003H   SYMBOL    DATA     BYTE      NUM
      020001B9H   SYMBOL    XDATA    BYTE      mode
      020001BAH   SYMBOL    XDATA    BYTE      color
      0100B199H   BLOCK     CODE     NEAR LAB  LVL=1
      0100B199H   LINE      ---      ---       #1633
      0100B19EH   LINE      ---      ---       #2024
      0100B1BFH   LINE      ---      ---       #2029
      0100B1C6H   LINE      ---      ---       #2030
      0100B1C8H   LINE      ---      ---       #2031
      0100B1C8H   LINE      ---      ---       #2032
      0100B1CAH   LINE      ---      ---       #2033
      0100B1CAH   LINE      ---      ---       #2034
      0100B1FAH   LINE      ---      ---       #2035
      0100B1FAH   LINE      ---      ---       #2036
      0100B200H   LINE      ---      ---       #2037
      0100B200H   LINE      ---      ---       #2038
      0100B201H   LINE      ---      ---       #2039
      0100B203H   LINE      ---      ---       #2041
      0100B203H   LINE      ---      ---       #2042
      0100B216H   LINE      ---      ---       #2043
      0100B216H   LINE      ---      ---       #2044
      0100B218H   LINE      ---      ---       #2046
      0100B218H   LINE      ---      ---       #2047
      0100B21EH   LINE      ---      ---       #2048
      0100B21EH   LINE      ---      ---       #2049
      0100B226H   LINE      ---      ---       #2050
      0100B226H   LINE      ---      ---       #2051
      0100B226H   LINE      ---      ---       #2052
      0100B22DH   LINE      ---      ---       #2055
      0100B22FH   LINE      ---      ---       #2056
      0100B22FH   LINE      ---      ---       #2057
      0100B250H   LINE      ---      ---       #2058
      0100B250H   LINE      ---      ---       #2059
      0100B256H   LINE      ---      ---       #2060
      0100B256H   LINE      ---      ---       #2061
      0100B257H   LINE      ---      ---       #2062
      0100B259H   LINE      ---      ---       #2064
      0100B259H   LINE      ---      ---       #2065
      0100B25CH   LINE      ---      ---       #2066
      0100B25CH   LINE      ---      ---       #2067
      0100B25EH   LINE      ---      ---       #2069
      0100B25EH   LINE      ---      ---       #2070
      0100B264H   LINE      ---      ---       #2071
      0100B264H   LINE      ---      ---       #2072
      0100B26CH   LINE      ---      ---       #2073
      0100B26CH   LINE      ---      ---       #2074
      0100B26CH   LINE      ---      ---       #2075
      0100B273H   LINE      ---      ---       #2077
      0100B275H   LINE      ---      ---       #2078
      0100B275H   LINE      ---      ---       #2079
      0100B296H   LINE      ---      ---       #2080
      0100B296H   LINE      ---      ---       #2081
      0100B29CH   LINE      ---      ---       #2082
      0100B29CH   LINE      ---      ---       #2083
LX51 LINKER/LOCATER V4.66.93.0                                                        04/11/2019  16:58:21  PAGE 99


      0100B29DH   LINE      ---      ---       #2084
      0100B29FH   LINE      ---      ---       #2086
      0100B29FH   LINE      ---      ---       #2087
      0100B2A2H   LINE      ---      ---       #2088
      0100B2A2H   LINE      ---      ---       #2089
      0100B2A4H   LINE      ---      ---       #2091
      0100B2A4H   LINE      ---      ---       #2092
      0100B2AAH   LINE      ---      ---       #2093
      0100B2AAH   LINE      ---      ---       #2094
      0100B2B2H   LINE      ---      ---       #2095
      0100B2B2H   LINE      ---      ---       #2096
      0100B2B2H   LINE      ---      ---       #2097
      0100B2B9H   LINE      ---      ---       #2099
      0100B2BFH   LINE      ---      ---       #2100
      0100B2D5H   LINE      ---      ---       #2102
      020001BBH   SYMBOL    XDATA    WORD      w
      020001BDH   SYMBOL    XDATA    WORD      j
      020001BFH   SYMBOL    XDATA    WORD      F_x
      020001C1H   SYMBOL    XDATA    WORD      F_y
      020001C3H   SYMBOL    XDATA    BYTE      num
      0100533FH   SYMBOL    CONST    ---       asc2_2412
      ---         BLOCKEND  CODE     ---       LVL=1
      ---         BLOCKEND  CODE     ---       LVL=0

      0100B44BH   BLOCK     CODE     ---       LVL=0
      0100B44BH   LINE      ---      ---       #2110
      0100B458H   LINE      ---      ---       #2111
      0100B458H   LINE      ---      ---       #2114
      0100B45BH   LINE      ---      ---       #2115
      0100B45BH   LINE      ---      ---       #2116
      0100B464H   LINE      ---      ---       #2117
      0100B464H   LINE      ---      ---       #2118
      0100B46BH   LINE      ---      ---       #2119
      0100B46BH   LINE      ---      ---       #2120
      0100B474H   LINE      ---      ---       #2121
      0100B474H   LINE      ---      ---       #2123
      0100B474H   LINE      ---      ---       #2125
      0100B474H   LINE      ---      ---       #2126
      020001ACH   SYMBOL    XDATA    WORD      x
      020001AEH   SYMBOL    XDATA    WORD      y
      020001B0H   SYMBOL    XDATA    BYTE      size
      020001B1H   SYMBOL    XDATA    BYTE      num
      020001B2H   SYMBOL    XDATA    BYTE      mode
      020001B3H   SYMBOL    XDATA    BYTE      color
      ---         BLOCKEND  ---      ---       LVL=0

      01007B3AH   BLOCK     CODE     ---       LVL=0
      01007B44H   LINE      ---      ---       #2136
      01007B4CH   LINE      ---      ---       #2137
      01007B3AH   SYMBOL    CODE     NEAR LAB  ?L?COM0117
      02000197H   SYMBOL    XDATA    WORD      x
      00000004H   SYMBOL    DATA     WORD      y
      00000002H   SYMBOL    DATA     WORD      height_x
      0200019DH   SYMBOL    XDATA    WORD      width_y
      0200019FH   SYMBOL    XDATA    ---       p
      020001A2H   SYMBOL    XDATA    BYTE      mode
      020001A3H   SYMBOL    XDATA    BYTE      color
      01007B4CH   BLOCK     CODE     NEAR LAB  LVL=1
      01007B4CH   LINE      ---      ---       #2144
      01007B51H   LINE      ---      ---       #2146
      01007B57H   LINE      ---      ---       #2147
      01007B66H   LINE      ---      ---       #2148
      01007B75H   LINE      ---      ---       #2153
      01007B7AH   LINE      ---      ---       #2155
      01007B82H   LINE      ---      ---       #2156
LX51 LINKER/LOCATER V4.66.93.0                                                        04/11/2019  16:58:21  PAGE 100


      01007B91H   LINE      ---      ---       #2157
      01007B91H   LINE      ---      ---       #2158
      01007BB6H   LINE      ---      ---       #2160
      01007BE5H   LINE      ---      ---       #2162
      01007BF2H   LINE      ---      ---       #2163
      01007BFCH   LINE      ---      ---       #2164
      01007BFEH   LINE      ---      ---       #2183
      020001A4H   SYMBOL    XDATA    BYTE      size
      020001A5H   SYMBOL    XDATA    BYTE      y0
      020001A6H   SYMBOL    XDATA    WORD      Y1
      020001A8H   SYMBOL    XDATA    WORD      X1
      020001AAH   SYMBOL    XDATA    WORD      WIDTH_Y
      ---         BLOCKEND  CODE     ---       LVL=1
      ---         BLOCKEND  CODE     ---       LVL=0

      0100C187H   BLOCK     CODE     ---       LVL=0
      0100C187H   LINE      ---      ---       #2187
      0100C18FH   LINE      ---      ---       #2188
      02000157H   SYMBOL    XDATA    BYTE      m
      02000158H   SYMBOL    XDATA    BYTE      n
      0100C18FH   BLOCK     CODE     NEAR LAB  LVL=1
      0100C18FH   LINE      ---      ---       #2189
      0100C197H   LINE      ---      ---       #2190
      0100C1A4H   LINE      ---      ---       #2191
      0100C1A4H   LINE      ---      ---       #2192
      0100C1B7H   LINE      ---      ---       #2193
      0100C1B9H   LINE      ---      ---       #2194
      02000159H   SYMBOL    XDATA    DWORD     result
      ---         BLOCKEND  CODE     ---       LVL=1
      ---         BLOCKEND  CODE     ---       LVL=0

      0100AEE4H   BLOCK     CODE     ---       LVL=0
      0100AEEAH   LINE      ---      ---       #2208
      0100AEF8H   LINE      ---      ---       #2209
      0100AEE4H   SYMBOL    CODE     NEAR LAB  ?L?COM014D
      02000148H   SYMBOL    XDATA    WORD      x
      0200014AH   SYMBOL    XDATA    WORD      y
      0200014CH   SYMBOL    XDATA    BYTE      size
      0200014DH   SYMBOL    XDATA    BYTE      len
      0200014EH   SYMBOL    XDATA    DWORD     num
      02000152H   SYMBOL    XDATA    BYTE      mode
      02000153H   SYMBOL    XDATA    BYTE      color
      0100AEF8H   BLOCK     CODE     NEAR LAB  LVL=1
      0100AEF8H   LINE      ---      ---       #2211
      0100AEFDH   LINE      ---      ---       #2212
      0100AF11H   LINE      ---      ---       #2213
      0100AF11H   LINE      ---      ---       #2214
      0100AF32H   LINE      ---      ---       #2215
      0100AF45H   LINE      ---      ---       #2216
      0100AF45H   LINE      ---      ---       #2217
      0100AF49H   LINE      ---      ---       #2218
      0100AF49H   LINE      ---      ---       #2219
      0100AF54H   LINE      ---      ---       #2220
      0100AF54H   LINE      ---      ---       #2221
      0100AF6BH   LINE      ---      ---       #2222
      0100AF6DH   LINE      ---      ---       #2224
      0100AF6DH   LINE      ---      ---       #2225
      0100AF7DH   LINE      ---      ---       #2226
      0100AF7DH   LINE      ---      ---       #2227
      0100AF7FH   LINE      ---      ---       #2228
      0100AF7FH   LINE      ---      ---       #2230
      0100AF7FH   LINE      ---      ---       #2231
      0100AF85H   LINE      ---      ---       #2232
      0100AF85H   LINE      ---      ---       #2233
      0100AF85H   LINE      ---      ---       #2234
LX51 LINKER/LOCATER V4.66.93.0                                                        04/11/2019  16:58:21  PAGE 101


      0100AFB6H   LINE      ---      ---       #2235
      0100AFBEH   LINE      ---      ---       #2236
      02000154H   SYMBOL    XDATA    BYTE      t
      02000155H   SYMBOL    XDATA    BYTE      temp
      02000156H   SYMBOL    XDATA    BYTE      enshow
      ---         BLOCKEND  CODE     ---       LVL=1
      ---         BLOCKEND  CODE     ---       LVL=0

      01009186H   BLOCK     CODE     ---       LVL=0
      0100918AH   LINE      ---      ---       #2241
      01009190H   LINE      ---      ---       #2242
      01009186H   SYMBOL    CODE     NEAR LAB  ?L?COM01D1
      02000196H   SYMBOL    XDATA    WORD      x0
      02000198H   SYMBOL    XDATA    WORD      y0
      00000003H   SYMBOL    DATA     BYTE      r
      0200019BH   SYMBOL    XDATA    BYTE      color
      01009190H   BLOCK     CODE     NEAR LAB  LVL=1
      01009190H   LINE      ---      ---       #2246
      0100919BH   LINE      ---      ---       #2248
      010091A5H   LINE      ---      ---       #2249
      010091A5H   LINE      ---      ---       #2250
      010091CAH   LINE      ---      ---       #2253
      01009210H   LINE      ---      ---       #2258
      01009216H   LINE      ---      ---       #2265
      01009216H   LINE      ---      ---       #2267
      0100921BH   LINE      ---      ---       #2268
      0100921BH   LINE      ---      ---       #2269
      0100921DH   LINE      ---      ---       #2270
      0200019CH   SYMBOL    XDATA    WORD      a
      0200019EH   SYMBOL    XDATA    WORD      b
      ---         BLOCKEND  CODE     ---       LVL=1
      ---         BLOCKEND  CODE     ---       LVL=0

      0100B6F0H   BLOCK     CODE     ---       LVL=0
      0100B6F0H   LINE      ---      ---       #2272
      0100B6F0H   LINE      ---      ---       #2273
      0100B6F0H   LINE      ---      ---       #2274
      0100B6F3H   LINE      ---      ---       #2275
      0100B6F9H   LINE      ---      ---       #2276
      0100B6F9H   LINE      ---      ---       #2277
      0100B702H   LINE      ---      ---       #2278
      0100B709H   LINE      ---      ---       #2279
      0100B709H   LINE      ---      ---       #2280
      0100B713H   LINE      ---      ---       #2281
      0100B713H   LINE      ---      ---       #2282
      0100B713H   LINE      ---      ---       #2284
      0100B713H   LINE      ---      ---       #2285
      ---         BLOCKEND  ---      ---       LVL=0

      01006631H   BLOCK     CODE     ---       LVL=0
      01006631H   LINE      ---      ---       #2292
      01006631H   LINE      ---      ---       #2293
      01006631H   LINE      ---      ---       #2294
      01006633H   LINE      ---      ---       #2296
      01006638H   LINE      ---      ---       #2298
      0100663CH   LINE      ---      ---       #2299
      01006647H   LINE      ---      ---       #2302
      0100664AH   LINE      ---      ---       #2303
      0100664CH   LINE      ---      ---       #2304
      0100665BH   LINE      ---      ---       #2305
      01006660H   LINE      ---      ---       #2306
      0100666AH   LINE      ---      ---       #2308
      01006672H   LINE      ---      ---       #2310
      01006677H   LINE      ---      ---       #2313
      01006683H   LINE      ---      ---       #2314
LX51 LINKER/LOCATER V4.66.93.0                                                        04/11/2019  16:58:21  PAGE 102


      01006689H   LINE      ---      ---       #2315
      01006689H   LINE      ---      ---       #2316
      01006698H   LINE      ---      ---       #2318
      0100669AH   LINE      ---      ---       #2319
      010066A1H   LINE      ---      ---       #2320
      010066A1H   LINE      ---      ---       #2321
      010066B0H   LINE      ---      ---       #2323
      010066B2H   LINE      ---      ---       #2324
      010066B9H   LINE      ---      ---       #2325
      010066B9H   LINE      ---      ---       #2326
      010066C8H   LINE      ---      ---       #2328
      010066CAH   LINE      ---      ---       #2329
      010066D1H   LINE      ---      ---       #2330
      010066D1H   LINE      ---      ---       #2331
      010066E5H   LINE      ---      ---       #2333
      010066E5H   LINE      ---      ---       #2335
      010066E5H   LINE      ---      ---       #2337
      010066E5H   LINE      ---      ---       #2339
      010066F1H   LINE      ---      ---       #2340
      010066FAH   LINE      ---      ---       #2341
      01006703H   LINE      ---      ---       #2344
      0100673AH   LINE      ---      ---       #2350
      01006748H   LINE      ---      ---       #2351
      01006755H   LINE      ---      ---       #2353
      ---         BLOCKEND  ---      ---       LVL=0

      01007D92H   BLOCK     CODE     ---       LVL=0
      01007D92H   LINE      ---      ---       #2366
      01007D92H   LINE      ---      ---       #2367
      01007D92H   LINE      ---      ---       #2368
      ---         BLOCKEND  ---      ---       LVL=0

      ---         MODULE    ---      ---       W25X
      01009BD2H   PUBLIC    CODE     ---       _SPI_Erase_Sector
      0100C1D3H   PUBLIC    CODE     ---       SPI_Get_Byte
      01009BEDH   PUBLIC    CODE     ---       _SPI_Send_Byte
      0100C1C9H   PUBLIC    CODE     ---       SPI_init
      02000119H   PUBLIC    XDATA    BYTE      ?_SPI_Write_nBytes?BYTE
      01009C0BH   PUBLIC    CODE     ---       _SPI_Write_nBytes
      02000119H   PUBLIC    XDATA    BYTE      ?_SPI_Read_nBytes?BYTE
      01009C48H   PUBLIC    CODE     ---       _SPI_Read_nBytes
      0100C1BFH   PUBLIC    CODE     ---       SPI_Write_Disable
      01009DDBH   PUBLIC    CODE     ---       SPI_Write_Enable
      00000090H.7 SFRSYM    DATA     BIT       P17
      000000C0H.1 SFRSYM    DATA     BIT       P41
      000000C0H.2 SFRSYM    DATA     BIT       P42
      000000C0H.4 SFRSYM    DATA     BIT       P44
      000000C0H.5 SFRSYM    DATA     BIT       P45

      01009DDBH   BLOCK     CODE     ---       LVL=0
      01009DDBH   LINE      ---      ---       #42
      01009DDBH   LINE      ---      ---       #43
      01009DDDH   LINE      ---      ---       #44
      01009DE1H   LINE      ---      ---       #45
      01009DE3H   LINE      ---      ---       #46
      ---         BLOCKEND  ---      ---       LVL=0

      0100C1BFH   BLOCK     CODE     ---       LVL=0
      0100C1BFH   LINE      ---      ---       #47
      0100C1BFH   LINE      ---      ---       #48
      0100C1BFH   LINE      ---      ---       #49
      0100C1C1H   LINE      ---      ---       #50
      0100C1C6H   LINE      ---      ---       #51
      0100C1C8H   LINE      ---      ---       #52
      ---         BLOCKEND  ---      ---       LVL=0
LX51 LINKER/LOCATER V4.66.93.0                                                        04/11/2019  16:58:21  PAGE 103



      01009C44H   BLOCK     CODE     ---       LVL=0
      01009C48H   LINE      ---      ---       #63
      01009C4EH   LINE      ---      ---       #64
      01009C44H   SYMBOL    CODE     NEAR LAB  ?L?COM018F
      02000119H   SYMBOL    XDATA    DWORD     Dst_Addr
      0200011DH   SYMBOL    XDATA    BYTE      nBytes_128
      0200011EH   SYMBOL    XDATA    ---       Read_Adr
      01009C4EH   BLOCK     CODE     NEAR LAB  LVL=1
      01009C4EH   LINE      ---      ---       #65
      01009C53H   LINE      ---      ---       #66
      01009C55H   LINE      ---      ---       #67
      01009C57H   LINE      ---      ---       #68
      01009C5DH   LINE      ---      ---       #73
      01009C63H   LINE      ---      ---       #74
      01009C63H   LINE      ---      ---       #75
      01009C72H   LINE      ---      ---       #76
      01009C7AH   LINE      ---      ---       #78
      01009C7CH   LINE      ---      ---       #79
      01009C7EH   LINE      ---      ---       #80
      02000121H   SYMBOL    XDATA    BYTE      i
      ---         BLOCKEND  CODE     ---       LVL=1
      ---         BLOCKEND  CODE     ---       LVL=0

      01009C0BH   BLOCK     CODE     ---       LVL=0
      01009C0BH   LINE      ---      ---       #86
      02000119H   SYMBOL    XDATA    DWORD     Dst_Addr
      0200011DH   SYMBOL    XDATA    BYTE      nBytes_128
      0200011EH   SYMBOL    XDATA    ---       Data_Adr
      01009C0EH   BLOCK     CODE     NEAR LAB  LVL=1
      01009C10H   LINE      ---      ---       #92
      01009C16H   LINE      ---      ---       #96
      01009C22H   LINE      ---      ---       #97
      01009C22H   LINE      ---      ---       #99
      01009C2CH   LINE      ---      ---       #100
      01009C2EH   LINE      ---      ---       #101
      01009C36H   LINE      ---      ---       #102
      01009C38H   LINE      ---      ---       #103
      02000121H   SYMBOL    XDATA    BYTE      i
      02000122H   SYMBOL    XDATA    BYTE      byte
      ---         BLOCKEND  CODE     ---       LVL=1
      ---         BLOCKEND  CODE     ---       LVL=0

      0100C1C9H   BLOCK     CODE     ---       LVL=0
      0100C1C9H   LINE      ---      ---       #106
      0100C1C9H   LINE      ---      ---       #107
      0100C1C9H   LINE      ---      ---       #108
      0100C1CBH   LINE      ---      ---       #109
      0100C1CDH   LINE      ---      ---       #110
      0100C1D1H   LINE      ---      ---       #111
      ---         BLOCKEND  ---      ---       LVL=0

      01009BEDH   BLOCK     CODE     ---       LVL=0
      01009BEDH   LINE      ---      ---       #115
      01009BEDH   LINE      ---      ---       #116
      00000007H   SYMBOL    DATA     BYTE      out
      01009BEDH   BLOCK     CODE     NEAR LAB  LVL=1
      01009BEDH   LINE      ---      ---       #117
      01009BEFH   LINE      ---      ---       #118
      01009BEFH   LINE      ---      ---       #119
      01009BEFH   LINE      ---      ---       #120
      01009BEFH   LINE      ---      ---       #121
      01009BF3H   LINE      ---      ---       #122
      01009BF3H   LINE      ---      ---       #123
      01009BF5H   LINE      ---      ---       #124
LX51 LINKER/LOCATER V4.66.93.0                                                        04/11/2019  16:58:21  PAGE 104


      01009BF7H   LINE      ---      ---       #126
      01009BF7H   LINE      ---      ---       #127
      01009BF9H   LINE      ---      ---       #128
      01009BF9H   LINE      ---      ---       #131
      01009BFBH   LINE      ---      ---       #132
      01009BFFH   LINE      ---      ---       #133
      01009C03H   LINE      ---      ---       #134
      01009C05H   LINE      ---      ---       #135
      01009C0AH   LINE      ---      ---       #136
      00000006H   SYMBOL    DATA     BYTE      i
      00000007H   SYMBOL    DATA     BYTE      OUT
      ---         BLOCKEND  CODE     ---       LVL=1
      ---         BLOCKEND  CODE     ---       LVL=0

      0100C1D3H   BLOCK     CODE     ---       LVL=0
      0100C1D3H   LINE      ---      ---       #139
      0100C1D3H   LINE      ---      ---       #140
      0100C1D3H   BLOCK     CODE     NEAR LAB  LVL=1
      0100C1D3H   LINE      ---      ---       #141
      0100C1D6H   LINE      ---      ---       #143
      0100C1D6H   LINE      ---      ---       #144
      0100C1D6H   LINE      ---      ---       #145
      0100C1DAH   LINE      ---      ---       #146
      0100C1DEH   LINE      ---      ---       #147
      0100C1E0H   LINE      ---      ---       #148
      0100C1E1H   LINE      ---      ---       #149
      0100C1E4H   LINE      ---      ---       #150
      0100C1E4H   LINE      ---      ---       #151
      0100C1E8H   LINE      ---      ---       #152
      0100C1E8H   LINE      ---      ---       #154
      0100C1E9H   LINE      ---      ---       #155
      0100C1EAH   LINE      ---      ---       #156
      0100C1EBH   LINE      ---      ---       #157
      0100C1ECH   LINE      ---      ---       #158
      0100C1EEH   LINE      ---      ---       #159
      0100C1F3H   LINE      ---      ---       #160
      0100C1F5H   LINE      ---      ---       #161
      00000007H   SYMBOL    DATA     BYTE      i
      00000006H   SYMBOL    DATA     BYTE      in
      00000005H   SYMBOL    DATA     BYTE      temp
      ---         BLOCKEND  CODE     ---       LVL=1
      ---         BLOCKEND  CODE     ---       LVL=0

      01009BD2H   BLOCK     CODE     ---       LVL=0
      01009BD2H   LINE      ---      ---       #164
      01009BD7H   LINE      ---      ---       #169
      01009BEAH   LINE      ---      ---       #173
      01009BECH   LINE      ---      ---       #174
      02000118H   SYMBOL    XDATA    DWORD     Dst_Addr
      ---         BLOCKEND  ---      ---       LVL=0

      ---         MODULE    ---      ---       SHT21
      0100C1F6H   PUBLIC    CODE     ---       SHT21_ReadData
      0100741CH   PUBLIC    CODE     ---       SHT21_WriteRH
      01007410H   PUBLIC    CODE     ---       SHT21_WriteTemp
      00000092H   SFRSYM    DATA     BYTE      P1M0
      00000091H   SFRSYM    DATA     BYTE      P1M1
      00000090H.1 SFRSYM    DATA     BIT       P11
      00000090H.2 SFRSYM    DATA     BIT       P12
      010073F1H   SYMBOL    CODE     ---       SHT21_Start
      010077A0H   SYMBOL    CODE     ---       SHT21_Stop
      0100C300H   SYMBOL    CODE     ---       _SHT2x_CheckCrc
      01007358H   SYMBOL    CODE     ---       _SHT21_Write8Bit
      010072FDH   SYMBOL    CODE     ---       _SHT21_Read8Bit
      010073E3H   SYMBOL    CODE     ---       SCL_INPUT_HIGH
LX51 LINKER/LOCATER V4.66.93.0                                                        04/11/2019  16:58:21  PAGE 105


      010073EAH   SYMBOL    CODE     ---       SDA_INPUT_HIGH
      010073DAH   SYMBOL    CODE     ---       SCL_OUTPUT_LOW
      01007797H   SYMBOL    CODE     ---       SDA_OUTPUT_LOW

      010073E3H   BLOCK     CODE     ---       LVL=0
      010073E3H   LINE      ---      ---       #46
      010073E3H   LINE      ---      ---       #47
      010073E3H   LINE      ---      ---       #48
      010073E6H   LINE      ---      ---       #49
      010073E9H   LINE      ---      ---       #50
      ---         BLOCKEND  ---      ---       LVL=0

      010073EAH   BLOCK     CODE     ---       LVL=0
      010073EAH   LINE      ---      ---       #52
      010073EAH   LINE      ---      ---       #53
      010073EAH   LINE      ---      ---       #54
      010073EDH   LINE      ---      ---       #55
      010073F0H   LINE      ---      ---       #56
      ---         BLOCKEND  ---      ---       LVL=0

      010073DAH   BLOCK     CODE     ---       LVL=0
      010073DAH   LINE      ---      ---       #57
      010073DAH   LINE      ---      ---       #58
      010073DAH   LINE      ---      ---       #59
      010073DDH   LINE      ---      ---       #60
      010073E0H   LINE      ---      ---       #61
      010073E2H   LINE      ---      ---       #62
      ---         BLOCKEND  ---      ---       LVL=0

      01007797H   BLOCK     CODE     ---       LVL=0
      01007797H   LINE      ---      ---       #63
      01007797H   LINE      ---      ---       #64
      01007797H   LINE      ---      ---       #65
      0100779AH   LINE      ---      ---       #66
      0100779DH   LINE      ---      ---       #67
      0100779FH   LINE      ---      ---       #68
      ---         BLOCKEND  ---      ---       LVL=0

      010073F1H   BLOCK     CODE     ---       LVL=0
      010073F1H   LINE      ---      ---       #70
      010073F1H   LINE      ---      ---       #71
      010073F1H   LINE      ---      ---       #72
      010073F3H   LINE      ---      ---       #73
      010073F5H   LINE      ---      ---       #74
      010073F7H   LINE      ---      ---       #75
      010073F9H   LINE      ---      ---       #76
      010073FBH   LINE      ---      ---       #77
      ---         BLOCKEND  ---      ---       LVL=0

      010077A0H   BLOCK     CODE     ---       LVL=0
      010077A0H   LINE      ---      ---       #81
      010077A0H   LINE      ---      ---       #82
      010077A0H   LINE      ---      ---       #83
      010077A2H   LINE      ---      ---       #84
      010077A4H   LINE      ---      ---       #85
      010077A6H   LINE      ---      ---       #87
      010077A8H   LINE      ---      ---       #88
      ---         BLOCKEND  ---      ---       LVL=0

      01007358H   BLOCK     CODE     ---       LVL=0
      0100735EH   LINE      ---      ---       #94
      01007363H   LINE      ---      ---       #95
      01007358H   SYMBOL    CODE     NEAR LAB  ?L?COM0180
      02000118H   SYMBOL    XDATA    BYTE      i_input
      01007363H   BLOCK     CODE     NEAR LAB  LVL=1
LX51 LINKER/LOCATER V4.66.93.0                                                        04/11/2019  16:58:21  PAGE 106


      01007363H   LINE      ---      ---       #97
      01007368H   LINE      ---      ---       #99
      0100737FH   LINE      ---      ---       #100
      0100737FH   LINE      ---      ---       #101
      01007381H   LINE      ---      ---       #102
      0100738CH   LINE      ---      ---       #103
      0100738CH   LINE      ---      ---       #104
      0100738EH   LINE      ---      ---       #105
      01007390H   LINE      ---      ---       #107
      01007390H   LINE      ---      ---       #108
      01007392H   LINE      ---      ---       #109
      01007392H   LINE      ---      ---       #111
      01007395H   LINE      ---      ---       #114
      010073A2H   LINE      ---      ---       #115
      010073A4H   LINE      ---      ---       #116
      010073A6H   LINE      ---      ---       #117
      010073A8H   LINE      ---      ---       #119
      010073AAH   LINE      ---      ---       #122
      010073B1H   LINE      ---      ---       #123
      010073B4H   LINE      ---      ---       #124
      010073B4H   LINE      ---      ---       #125
      010073CCH   LINE      ---      ---       #126
      010073CCH   LINE      ---      ---       #129
      010073D2H   LINE      ---      ---       #130
      010073D2H   LINE      ---      ---       #131
      010073D4H   LINE      ---      ---       #132
      010073D4H   LINE      ---      ---       #134
      010073D9H   LINE      ---      ---       #135
      02000119H   SYMBOL    XDATA    WORD      i
      0200011BH   SYMBOL    XDATA    BYTE      ret
      ---         BLOCKEND  CODE     ---       LVL=1
      ---         BLOCKEND  CODE     ---       LVL=0

      010072FDH   BLOCK     CODE     ---       LVL=0
      010072FDH   LINE      ---      ---       #138
      01007302H   LINE      ---      ---       #139
      02000124H   SYMBOL    XDATA    BYTE      ask
      01007302H   BLOCK     CODE     NEAR LAB  LVL=1
      01007302H   LINE      ---      ---       #140
      01007307H   LINE      ---      ---       #142
      01007309H   LINE      ---      ---       #144
      01007318H   LINE      ---      ---       #145
      01007318H   LINE      ---      ---       #146
      0100731AH   LINE      ---      ---       #148
      0100731DH   LINE      ---      ---       #149
      0100731DH   LINE      ---      ---       #150
      0100732BH   LINE      ---      ---       #151
      0100732BH   LINE      ---      ---       #152
      0100732DH   LINE      ---      ---       #153
      0100732FH   LINE      ---      ---       #154
      01007339H   LINE      ---      ---       #155
      0100733FH   LINE      ---      ---       #156
      0100733FH   LINE      ---      ---       #157
      01007341H   LINE      ---      ---       #158
      01007343H   LINE      ---      ---       #160
      01007343H   LINE      ---      ---       #161
      01007345H   LINE      ---      ---       #162
      01007345H   LINE      ---      ---       #163
      01007348H   LINE      ---      ---       #166
      0100734AH   LINE      ---      ---       #167
      0100734CH   LINE      ---      ---       #168
      0100734EH   LINE      ---      ---       #169
      01007350H   LINE      ---      ---       #170
      01007352H   LINE      ---      ---       #171
      01007357H   LINE      ---      ---       #172
LX51 LINKER/LOCATER V4.66.93.0                                                        04/11/2019  16:58:21  PAGE 107


      02000125H   SYMBOL    XDATA    BYTE      mask
      02000126H   SYMBOL    XDATA    BYTE      rxByte
      ---         BLOCKEND  CODE     ---       LVL=1
      ---         BLOCKEND  CODE     ---       LVL=0

      01007410H   BLOCK     CODE     ---       LVL=0
      01007410H   LINE      ---      ---       #177
      01007410H   LINE      ---      ---       #178
      01007410H   BLOCK     CODE     NEAR LAB  LVL=1
      01007410H   LINE      ---      ---       #180
      01007412H   LINE      ---      ---       #181
      01007416H   LINE      ---      ---       #182
      0100741AH   LINE      ---      ---       #185
      00000007H   SYMBOL    DATA     BYTE      Read_SHT21_Err
      ---         BLOCKEND  CODE     ---       LVL=1
      ---         BLOCKEND  CODE     ---       LVL=0

      0100741CH   BLOCK     CODE     ---       LVL=0
      0100741CH   LINE      ---      ---       #190
      0100741CH   LINE      ---      ---       #191
      0100741CH   BLOCK     CODE     NEAR LAB  LVL=1
      0100741CH   LINE      ---      ---       #193
      0100741EH   LINE      ---      ---       #194
      01007422H   LINE      ---      ---       #195
      01007426H   LINE      ---      ---       #198
      00000007H   SYMBOL    DATA     BYTE      Read_SHT21_Err
      ---         BLOCKEND  CODE     ---       LVL=1
      ---         BLOCKEND  CODE     ---       LVL=0

      0100C1F6H   BLOCK     CODE     ---       LVL=0
      0100C1F6H   LINE      ---      ---       #237
      0100C1F6H   LINE      ---      ---       #238
      0100C1F6H   BLOCK     CODE     NEAR LAB  LVL=1
      0100C1F6H   LINE      ---      ---       #244
      0100C1FBH   LINE      ---      ---       #245
      0100C1FFH   LINE      ---      ---       #247
      0100C208H   LINE      ---      ---       #249
      0100C212H   LINE      ---      ---       #251
      0100C21CH   LINE      ---      ---       #253
      0100C21FH   LINE      ---      ---       #255
      0100C227H   LINE      ---      ---       #256
      0100C22FH   LINE      ---      ---       #257
      0100C241H   LINE      ---      ---       #258
      0100C245H   LINE      ---      ---       #259
      0100C245H   LINE      ---      ---       #261
      0100C245H   LINE      ---      ---       #262
      0100C247H   LINE      ---      ---       #264
      0100C247H   LINE      ---      ---       #265
      0100C25AH   LINE      ---      ---       #268
      0100C264H   LINE      ---      ---       #269
      0100C279H   LINE      ---      ---       #272
      0100C279H   LINE      ---      ---       #276
      0100C279H   LINE      ---      ---       #279
      0100C28AH   LINE      ---      ---       #280
      0100C28AH   LINE      ---      ---       #282
      0100C292H   LINE      ---      ---       #283
      0100C294H   LINE      ---      ---       #285
      0100C294H   LINE      ---      ---       #286
      0100C29BH   LINE      ---      ---       #287
      0100C29BH   LINE      ---      ---       #288
      0100C2ADH   LINE      ---      ---       #292
      0100C2ADH   LINE      ---      ---       #294
      0100C2AFH   LINE      ---      ---       #296
      0100C2AFH   LINE      ---      ---       #297
      0100C2D0H   LINE      ---      ---       #304
LX51 LINKER/LOCATER V4.66.93.0                                                        04/11/2019  16:58:21  PAGE 108


      0100C2D0H   LINE      ---      ---       #305
      0100C2D0H   LINE      ---      ---       #306
      0100C2D0H   LINE      ---      ---       #307
      0100C2D8H   LINE      ---      ---       #308
      02000118H   SYMBOL    XDATA    BYTE      TempH
      02000119H   SYMBOL    XDATA    BYTE      TempL
      0200011AH   SYMBOL    XDATA    DWORD     TempLong
      0200011EH   SYMBOL    XDATA    BYTE      checksum
      0200011FH   SYMBOL    XDATA    ---       Cdata
      00000007H   SYMBOL    DATA     BYTE      CRC8_error
      02000121H   SYMBOL    XDATA    BYTE      tmp
      02000122H   SYMBOL    XDATA    WORD      ret
      ---         BLOCKEND  CODE     ---       LVL=1
      ---         BLOCKEND  CODE     ---       LVL=0

      0100C300H   BLOCK     CODE     ---       LVL=0
      0100C300H   LINE      ---      ---       #310
      0100C30BH   LINE      ---      ---       #312
      02000124H   SYMBOL    XDATA    ---       Cdata
      02000127H   SYMBOL    XDATA    BYTE      nbrOfBytes
      02000128H   SYMBOL    XDATA    BYTE      checksum
      0100C30BH   BLOCK     CODE     NEAR LAB  LVL=1
      0100C30BH   LINE      ---      ---       #313
      0100C312H   LINE      ---      ---       #319
      0100C31DH   LINE      ---      ---       #320
      0100C31DH   LINE      ---      ---       #321
      0100C335H   LINE      ---      ---       #322
      0100C337H   LINE      ---      ---       #323
      0100C337H   LINE      ---      ---       #326
      0100C33FH   LINE      ---      ---       #327
      0100C33FH   LINE      ---      ---       #329
      0100C342H   LINE      ---      ---       #330
      0100C350H   LINE      ---      ---       #331
      0100C354H   LINE      ---      ---       #332
      0100C356H   LINE      ---      ---       #334
      0100C356H   LINE      ---      ---       #335
      0100C35EH   LINE      ---      ---       #336
      0100C35EH   LINE      ---      ---       #337
      0100C360H   LINE      ---      ---       #338
      0100C363H   LINE      ---      ---       #339
      0100C36DH   LINE      ---      ---       #340
      0100C36DH   LINE      ---      ---       #341
      0100C373H   LINE      ---      ---       #342
      0100C375H   LINE      ---      ---       #344
      0100C375H   LINE      ---      ---       #345
      0100C37AH   LINE      ---      ---       #346
      0100C37AH   LINE      ---      ---       #347
      0100C37FH   LINE      ---      ---       #348
      02000129H   SYMBOL    XDATA    BYTE      crc
      00000004H   SYMBOL    DATA     BYTE      byteCtr
      00000007H   SYMBOL    DATA     BYTE      bit8
      0200012AH   SYMBOL    XDATA    WORD      tmp
      0200012CH   SYMBOL    XDATA    BYTE      res
      ---         BLOCKEND  CODE     ---       LVL=1
      ---         BLOCKEND  CODE     ---       LVL=0

      ---         MODULE    ---      ---       RX8010
      01008F6AH   PUBLIC    CODE     ---       _RX8010_GetTime
      01008C91H   PUBLIC    CODE     ---       _RX8010_SetTime
      01008D38H   PUBLIC    CODE     ---       RX8010_Initialize
      01008E7AH   PUBLIC    CODE     ---       _readEEone
      000000C1H   SFRSYM    DATA     BYTE      WDT_CONTR
      000000A8H.7 SFRSYM    DATA     BIT       EA
      000000A0H.5 SFRSYM    DATA     BIT       P25
      000000A0H.6 SFRSYM    DATA     BIT       P26
LX51 LINKER/LOCATER V4.66.93.0                                                        04/11/2019  16:58:21  PAGE 109


      00000096H   SFRSYM    DATA     BYTE      P2M0
      00000095H   SFRSYM    DATA     BYTE      P2M1
      0100C380H   SYMBOL    CODE     ---       SCL_DIR_OUTPUT
      01008FE2H   SYMBOL    CODE     ---       SDA_DIR_INPUT
      01008F47H   SYMBOL    CODE     ---       SDA_DIR_OUTPUT
      01008F4EH   SYMBOL    CODE     ---       IC_start
      01008E06H   SYMBOL    CODE     ---       IC_stop
      01008E19H   SYMBOL    CODE     ---       _IC_WriteByte
      01008F0AH   SYMBOL    CODE     ---       IC_ReadByte
      01008CEFH   SYMBOL    CODE     ---       _writeEEone

      0100C380H   BLOCK     CODE     ---       LVL=0
      0100C380H   LINE      ---      ---       #30
      0100C380H   LINE      ---      ---       #31
      0100C380H   LINE      ---      ---       #32
      0100C383H   LINE      ---      ---       #33
      0100C386H   LINE      ---      ---       #34
      ---         BLOCKEND  ---      ---       LVL=0

      01008FE2H   BLOCK     CODE     ---       LVL=0
      01008FE2H   LINE      ---      ---       #36
      01008FE2H   LINE      ---      ---       #37
      01008FE2H   LINE      ---      ---       #38
      01008FE5H   LINE      ---      ---       #39
      01008FE8H   LINE      ---      ---       #40
      ---         BLOCKEND  ---      ---       LVL=0

      01008F47H   BLOCK     CODE     ---       LVL=0
      01008F47H   LINE      ---      ---       #41
      01008F47H   LINE      ---      ---       #42
      01008F47H   LINE      ---      ---       #43
      01008F4AH   LINE      ---      ---       #44
      01008F4DH   LINE      ---      ---       #45
      ---         BLOCKEND  ---      ---       LVL=0

      01008F4EH   BLOCK     CODE     ---       LVL=0
      01008F4EH   LINE      ---      ---       #51
      01008F4EH   LINE      ---      ---       #52
      01008F4EH   LINE      ---      ---       #53
      01008F51H   LINE      ---      ---       #54
      01008F53H   LINE      ---      ---       #55
      01008F55H   LINE      ---      ---       #56
      01008F57H   LINE      ---      ---       #57
      01008F5AH   LINE      ---      ---       #58
      01008F5CH   LINE      ---      ---       #59
      01008F5FH   LINE      ---      ---       #60
      01008F61H   LINE      ---      ---       #61
      ---         BLOCKEND  ---      ---       LVL=0

      01008E06H   BLOCK     CODE     ---       LVL=0
      01008E06H   LINE      ---      ---       #67
      01008E06H   LINE      ---      ---       #68
      01008E06H   LINE      ---      ---       #69
      01008E08H   LINE      ---      ---       #72
      01008E0BH   LINE      ---      ---       #73
      01008E0DH   LINE      ---      ---       #74
      01008E10H   LINE      ---      ---       #75
      01008E12H   LINE      ---      ---       #76
      ---         BLOCKEND  ---      ---       LVL=0

      01008E19H   BLOCK     CODE     ---       LVL=0
      01008E19H   LINE      ---      ---       #85
      01008E1EH   LINE      ---      ---       #86
      020001A8H   SYMBOL    XDATA    BYTE      wdata
      01008E1EH   BLOCK     CODE     NEAR LAB  LVL=1
LX51 LINKER/LOCATER V4.66.93.0                                                        04/11/2019  16:58:21  PAGE 110


      01008E1EH   LINE      ---      ---       #88
      01008E24H   LINE      ---      ---       #89
      01008E26H   LINE      ---      ---       #90
      01008E2BH   LINE      ---      ---       #91
      01008E2BH   LINE      ---      ---       #92
      01008E2DH   LINE      ---      ---       #93
      01008E30H   LINE      ---      ---       #94
      01008E37H   LINE      ---      ---       #95
      01008E37H   LINE      ---      ---       #96
      01008E39H   LINE      ---      ---       #97
      01008E3BH   LINE      ---      ---       #99
      01008E3BH   LINE      ---      ---       #100
      01008E3DH   LINE      ---      ---       #101
      01008E3DH   LINE      ---      ---       #102
      01008E40H   LINE      ---      ---       #103
      01008E42H   LINE      ---      ---       #104
      01008E44H   LINE      ---      ---       #105
      01008E4FH   LINE      ---      ---       #107
      01008E51H   LINE      ---      ---       #109
      01008E53H   LINE      ---      ---       #110
      01008E55H   LINE      ---      ---       #111
      01008E57H   LINE      ---      ---       #112
      01008E5CH   LINE      ---      ---       #113
      01008E5FH   LINE      ---      ---       #114
      01008E5FH   LINE      ---      ---       #115
      01008E6FH   LINE      ---      ---       #116
      01008E6FH   LINE      ---      ---       #117
      01008E77H   LINE      ---      ---       #118
      01008E77H   LINE      ---      ---       #119
      01008E79H   LINE      ---      ---       #120
      01008E79H   LINE      ---      ---       #121
      01008E79H   LINE      ---      ---       #122
      020001A9H   SYMBOL    XDATA    BYTE      i
      020001AAH   SYMBOL    XDATA    BYTE      ret
      ---         BLOCKEND  CODE     ---       LVL=1
      ---         BLOCKEND  CODE     ---       LVL=0

      01008F0AH   BLOCK     CODE     ---       LVL=0
      01008F0AH   LINE      ---      ---       #129
      01008F0AH   LINE      ---      ---       #130
      01008F0AH   BLOCK     CODE     NEAR LAB  LVL=1
      01008F0AH   LINE      ---      ---       #132
      01008F0FH   LINE      ---      ---       #133
      01008F11H   LINE      ---      ---       #134
      01008F13H   LINE      ---      ---       #135
      01008F15H   LINE      ---      ---       #136
      01008F17H   LINE      ---      ---       #137
      01008F1BH   LINE      ---      ---       #138
      01008F1BH   LINE      ---      ---       #139
      01008F1DH   LINE      ---      ---       #140
      01008F20H   LINE      ---      ---       #141
      01008F28H   LINE      ---      ---       #142
      01008F2EH   LINE      ---      ---       #144
      01008F30H   LINE      ---      ---       #145
      01008F33H   LINE      ---      ---       #146
      01008F35H   LINE      ---      ---       #148
      01008F3DH   LINE      ---      ---       #149
      01008F3FH   LINE      ---      ---       #150
      01008F41H   LINE      ---      ---       #153
      01008F46H   LINE      ---      ---       #154
      020001A8H   SYMBOL    XDATA    BYTE      i
      020001A9H   SYMBOL    XDATA    BYTE      IC_data
      ---         BLOCKEND  CODE     ---       LVL=1
      ---         BLOCKEND  CODE     ---       LVL=0

LX51 LINKER/LOCATER V4.66.93.0                                                        04/11/2019  16:58:21  PAGE 111


      01008E7AH   BLOCK     CODE     ---       LVL=0
      01008E7AH   LINE      ---      ---       #161
      01008E7FH   LINE      ---      ---       #162
      020001A1H   SYMBOL    XDATA    BYTE      addr
      020001A2H   SYMBOL    XDATA    BYTE      num
      020001A3H   SYMBOL    XDATA    ---       Data
      01008E7FH   BLOCK     CODE     NEAR LAB  LVL=1
      01008E7FH   LINE      ---      ---       #195
      01008E85H   LINE      ---      ---       #196
      01008E89H   LINE      ---      ---       #198
      01008E89H   LINE      ---      ---       #199
      01008E89H   LINE      ---      ---       #200
      01008E8BH   LINE      ---      ---       #201
      01008E95H   LINE      ---      ---       #202
      01008E95H   LINE      ---      ---       #203
      01008E95H   LINE      ---      ---       #204
      01008E97H   LINE      ---      ---       #206
      01008E97H   LINE      ---      ---       #207
      01008E99H   LINE      ---      ---       #208
      01008EA0H   LINE      ---      ---       #209
      01008EA0H   LINE      ---      ---       #211
      01008EA7H   LINE      ---      ---       #212
      01008EA9H   LINE      ---      ---       #214
      01008EA9H   LINE      ---      ---       #215
      01008EBCH   LINE      ---      ---       #216
      01008EBCH   LINE      ---      ---       #217
      01008ECAH   LINE      ---      ---       #218
      01008ECCH   LINE      ---      ---       #219
      01008ECEH   LINE      ---      ---       #220
      01008ED0H   LINE      ---      ---       #221
      01008ED8H   LINE      ---      ---       #222
      01008EF1H   LINE      ---      ---       #223
      01008EF3H   LINE      ---      ---       #224
      01008EF5H   LINE      ---      ---       #225
      01008EF7H   LINE      ---      ---       #226
      01008EF9H   LINE      ---      ---       #227
      01008EFBH   LINE      ---      ---       #228
      01008EFBH   LINE      ---      ---       #229
      01008EFBH   LINE      ---      ---       #230
      01008F00H   LINE      ---      ---       #231
      020001A6H   SYMBOL    XDATA    BYTE      i
      020001A7H   SYMBOL    XDATA    BYTE      ret
      ---         BLOCKEND  CODE     ---       LVL=1
      ---         BLOCKEND  CODE     ---       LVL=0

      01008CEFH   BLOCK     CODE     ---       LVL=0
      01008CEFH   LINE      ---      ---       #240
      01008CF4H   LINE      ---      ---       #241
      0200011AH   SYMBOL    XDATA    BYTE      addr
      0200011BH   SYMBOL    XDATA    BYTE      num
      0200011CH   SYMBOL    XDATA    ---       Data
      01008CF4H   BLOCK     CODE     NEAR LAB  LVL=1
      01008CF4H   LINE      ---      ---       #244
      01008CF8H   LINE      ---      ---       #246
      01008CF8H   LINE      ---      ---       #248
      01008CFAH   LINE      ---      ---       #249
      01008CFAH   LINE      ---      ---       #250
      01008D04H   LINE      ---      ---       #251
      01008D04H   LINE      ---      ---       #253
      01008D06H   LINE      ---      ---       #254
      01008D06H   LINE      ---      ---       #255
      01008D19H   LINE      ---      ---       #256
      01008D19H   LINE      ---      ---       #257
      01008D25H   LINE      ---      ---       #258
      01008D25H   LINE      ---      ---       #260
LX51 LINKER/LOCATER V4.66.93.0                                                        04/11/2019  16:58:21  PAGE 112


      01008D27H   LINE      ---      ---       #261
      01008D27H   LINE      ---      ---       #262
      01008D2FH   LINE      ---      ---       #263
      01008D31H   LINE      ---      ---       #264
      01008D33H   LINE      ---      ---       #265
      01008D35H   LINE      ---      ---       #266
      01008D37H   LINE      ---      ---       #269
      0200011FH   SYMBOL    XDATA    BYTE      i
      ---         BLOCKEND  CODE     ---       LVL=1
      ---         BLOCKEND  CODE     ---       LVL=0

      01008D38H   BLOCK     CODE     ---       LVL=0
      01008D38H   LINE      ---      ---       #273
      01008D38H   LINE      ---      ---       #274
      01008D38H   BLOCK     CODE     NEAR LAB  LVL=1
      01008D38H   LINE      ---      ---       #279
      01008D3AH   LINE      ---      ---       #280
      01008D3FH   LINE      ---      ---       #282
      01008D43H   LINE      ---      ---       #283
      01008D47H   LINE      ---      ---       #284
      01008D47H   LINE      ---      ---       #285
      01008D52H   LINE      ---      ---       #286
      01008D52H   LINE      ---      ---       #287
      01008D57H   LINE      ---      ---       #288
      01008D59H   LINE      ---      ---       #289
      01008D59H   LINE      ---      ---       #290
      01008D60H   LINE      ---      ---       #291
      01008D63H   LINE      ---      ---       #292
      01008D69H   LINE      ---      ---       #293
      01008D72H   LINE      ---      ---       #295
      01008D78H   LINE      ---      ---       #296
      01008D78H   LINE      ---      ---       #297
      01008D84H   LINE      ---      ---       #298
      01008D84H   LINE      ---      ---       #299
      01008D8AH   LINE      ---      ---       #300
      01008D98H   LINE      ---      ---       #303
      01008D9CH   LINE      ---      ---       #304
      01008DA5H   LINE      ---      ---       #306
      01008DABH   LINE      ---      ---       #307
      01008DAEH   LINE      ---      ---       #308
      01008DBAH   LINE      ---      ---       #312
      01008DBCH   LINE      ---      ---       #313
      01008DBEH   LINE      ---      ---       #314
      01008DC2H   LINE      ---      ---       #315
      01008DC6H   LINE      ---      ---       #316
      01008DC8H   LINE      ---      ---       #317
      01008DD4H   LINE      ---      ---       #321
      01008DEDH   LINE      ---      ---       #331
      01008DEDH   LINE      ---      ---       #332
      01008DEDH   LINE      ---      ---       #333
      01008DEFH   LINE      ---      ---       #334
      01008DF4H   LINE      ---      ---       #335
      02000111H   SYMBOL    XDATA    ---       Rdata
      02000118H   SYMBOL    XDATA    BYTE      i
      02000119H   SYMBOL    XDATA    BYTE      Init_State
      ---         BLOCKEND  CODE     ---       LVL=1
      ---         BLOCKEND  CODE     ---       LVL=0

      01008C91H   BLOCK     CODE     ---       LVL=0
      01008C91H   LINE      ---      ---       #339
      02000110H   SYMBOL    XDATA    ---       p
      01008C91H   BLOCK     CODE     NEAR LAB  LVL=1
      01008C9BH   LINE      ---      ---       #346
      01008CA4H   LINE      ---      ---       #350
      01008CAEH   LINE      ---      ---       #351
LX51 LINKER/LOCATER V4.66.93.0                                                        04/11/2019  16:58:21  PAGE 113


      01008CB4H   LINE      ---      ---       #352
      01008CBEH   LINE      ---      ---       #360
      01008CC8H   LINE      ---      ---       #361
      01008CD2H   LINE      ---      ---       #362
      01008CDCH   LINE      ---      ---       #363
      01008CE8H   LINE      ---      ---       #365
      02000113H   SYMBOL    XDATA    ---       Rdata
      ---         BLOCKEND  CODE     ---       LVL=1
      ---         BLOCKEND  CODE     ---       LVL=0

      01008F6AH   BLOCK     CODE     ---       LVL=0
      01008F6AH   LINE      ---      ---       #371
      01008F70H   LINE      ---      ---       #372
      02000197H   SYMBOL    XDATA    ---       p
      01008F70H   BLOCK     CODE     NEAR LAB  LVL=1
      01008F70H   LINE      ---      ---       #376
      01008F81H   LINE      ---      ---       #377
      01008F81H   LINE      ---      ---       #378
      01008F90H   LINE      ---      ---       #382
      01008FA2H   LINE      ---      ---       #383
      01008FACH   LINE      ---      ---       #384
      01008FB6H   LINE      ---      ---       #404
      01008FC0H   LINE      ---      ---       #405
      01008FCAH   LINE      ---      ---       #406
      01008FD4H   LINE      ---      ---       #407
      01008FD4H   LINE      ---      ---       #408
      0200019AH   SYMBOL    XDATA    ---       Rdata
      ---         BLOCKEND  CODE     ---       LVL=1
      ---         BLOCKEND  CODE     ---       LVL=0

      ---         MODULE    ---      ---       DS18B20
      0200035FH   PUBLIC    XDATA    BYTE      Read_18B20_Value2
      0200035EH   PUBLIC    XDATA    BYTE      Read_18B20_Value
      02000121H   PUBLIC    XDATA    BYTE      ?_DS18B20_CheckCrc?BYTE
      0100C387H   PUBLIC    CODE     ---       _DS18B20_CheckCrc
      010072CBH   PUBLIC    CODE     ---       _DS18B20_WriteByte
      0100726EH   PUBLIC    CODE     ---       DS18B20_ReadByte
      00000090H.0 SFRSYM    DATA     BIT       P10
      000000B0H.7 SFRSYM    DATA     BIT       P37

      0100726EH   BLOCK     CODE     ---       LVL=0
      0100726EH   LINE      ---      ---       #16
      0100726EH   LINE      ---      ---       #17
      0100726EH   BLOCK     CODE     NEAR LAB  LVL=1
      0100726EH   LINE      ---      ---       #21
      01007273H   LINE      ---      ---       #22
      01007275H   LINE      ---      ---       #24
      01007279H   LINE      ---      ---       #25
      01007279H   LINE      ---      ---       #26
      01007280H   LINE      ---      ---       #27
      01007285H   LINE      ---      ---       #28
      01007287H   LINE      ---      ---       #31
      01007289H   LINE      ---      ---       #32
      0100728BH   LINE      ---      ---       #33
      0100728DH   LINE      ---      ---       #34
      01007292H   LINE      ---      ---       #35
      01007297H   LINE      ---      ---       #36
      0100729BH   LINE      ---      ---       #37
      0100729BH   LINE      ---      ---       #38
      010072A2H   LINE      ---      ---       #39
      010072A2H   LINE      ---      ---       #40
      010072A6H   LINE      ---      ---       #41
      010072A6H   LINE      ---      ---       #42
      010072ADH   LINE      ---      ---       #43
      010072ADH   LINE      ---      ---       #44
LX51 LINKER/LOCATER V4.66.93.0                                                        04/11/2019  16:58:21  PAGE 114


      010072B3H   LINE      ---      ---       #45
      010072BAH   LINE      ---      ---       #47
      02000121H   SYMBOL    XDATA    BYTE      i
      00000007H   SYMBOL    DATA     BYTE      Wei
      00000006H   SYMBOL    DATA     BYTE      Wei2
      ---         BLOCKEND  CODE     ---       LVL=1
      ---         BLOCKEND  CODE     ---       LVL=0

      010072C3H   BLOCK     CODE     ---       LVL=0
      010072CBH   LINE      ---      ---       #49
      010072D0H   LINE      ---      ---       #50
      010072C3H   SYMBOL    CODE     NEAR LAB  ?L?COM0170
      02000121H   SYMBOL    XDATA    BYTE      dat
      010072D0H   BLOCK     CODE     NEAR LAB  LVL=1
      010072D0H   LINE      ---      ---       #53
      010072D3H   LINE      ---      ---       #54
      010072D3H   LINE      ---      ---       #55
      010072D5H   LINE      ---      ---       #58
      010072DCH   LINE      ---      ---       #59
      010072DCH   LINE      ---      ---       #60
      010072DEH   LINE      ---      ---       #61
      010072E0H   LINE      ---      ---       #62
      010072E2H   LINE      ---      ---       #64
      010072E2H   LINE      ---      ---       #65
      010072E4H   LINE      ---      ---       #66
      010072E6H   LINE      ---      ---       #67
      010072E6H   LINE      ---      ---       #68
      010072ECH   LINE      ---      ---       #69
      010072EEH   LINE      ---      ---       #70
      010072F0H   LINE      ---      ---       #71
      010072F2H   LINE      ---      ---       #72
      010072FCH   LINE      ---      ---       #75
      02000122H   SYMBOL    XDATA    BYTE      i
      ---         BLOCKEND  CODE     ---       LVL=1
      ---         BLOCKEND  CODE     ---       LVL=0

      0100C387H   BLOCK     CODE     ---       LVL=0
      0100C387H   LINE      ---      ---       #77
      0100C392H   LINE      ---      ---       #79
      02000121H   SYMBOL    XDATA    ---       Cdata
      02000124H   SYMBOL    XDATA    BYTE      nbrOfBytes
      02000125H   SYMBOL    XDATA    BYTE      checksum
      0100C392H   BLOCK     CODE     NEAR LAB  LVL=1
      0100C392H   LINE      ---      ---       #80
      0100C397H   LINE      ---      ---       #83
      0100C399H   LINE      ---      ---       #84
      0100C39BH   LINE      ---      ---       #87
      0100C3A6H   LINE      ---      ---       #88
      0100C3A6H   LINE      ---      ---       #89
      0100C3BDH   LINE      ---      ---       #91
      0100C3BFH   LINE      ---      ---       #92
      0100C3BFH   LINE      ---      ---       #93
      0100C3CBH   LINE      ---      ---       #94
      0100C3CBH   LINE      ---      ---       #95
      0100C3CFH   LINE      ---      ---       #96
      0100C3D3H   LINE      ---      ---       #97
      0100C3D6H   LINE      ---      ---       #98
      0100C3D8H   LINE      ---      ---       #100
      0100C3D8H   LINE      ---      ---       #101
      0100C3DFH   LINE      ---      ---       #102
      0100C3DFH   LINE      ---      ---       #103
      0100C3E6H   LINE      ---      ---       #104
      0100C3EBH   LINE      ---      ---       #106
      0100C3EEH   LINE      ---      ---       #107
      0100C3FAH   LINE      ---      ---       #108
LX51 LINKER/LOCATER V4.66.93.0                                                        04/11/2019  16:58:21  PAGE 115


      0100C3FAH   LINE      ---      ---       #109
      0100C3FEH   LINE      ---      ---       #110
      0100C400H   LINE      ---      ---       #112
      0100C400H   LINE      ---      ---       #113
      0100C405H   LINE      ---      ---       #114
      0100C405H   LINE      ---      ---       #115
      0100C40AH   LINE      ---      ---       #116
      02000126H   SYMBOL    XDATA    BYTE      crc
      00000005H   SYMBOL    DATA     BYTE      byteCtr
      00000007H   SYMBOL    DATA     BYTE      bit8
      02000127H   SYMBOL    XDATA    BYTE      crc_1byte
      02000128H   SYMBOL    XDATA    BYTE      ret
      ---         BLOCKEND  CODE     ---       LVL=1
      ---         BLOCKEND  CODE     ---       LVL=0

      ---         MODULE    ---      ---       KEY_DATAS
      0200032BH   PUBLIC    XDATA    BYTE      Key_State_Present
      02000324H   PUBLIC    XDATA    ---       Key_Mute
      02000316H   PUBLIC    XDATA    ---       Key_Mute_Element
      02000315H   PUBLIC    XDATA    BYTE      Key_Mute_Tik
      0200030EH   PUBLIC    XDATA    ---       Key_OK
      02000300H   PUBLIC    XDATA    ---       Key_OK_Element
      020002FFH   PUBLIC    XDATA    BYTE      Key_OK_Tik
      020002F8H   PUBLIC    XDATA    ---       Key_Down
      020002EAH   PUBLIC    XDATA    ---       Key_Down_Element
      020002E9H   PUBLIC    XDATA    BYTE      Key_Down_Tik
      020002E2H   PUBLIC    XDATA    ---       Key_UP
      020002D4H   PUBLIC    XDATA    ---       Key_UP_Element
      020002D3H   PUBLIC    XDATA    BYTE      Key_UP_Tik
      0100C471H   PUBLIC    CODE     ---       Key_Mute_TikFunc
      0100C44FH   PUBLIC    CODE     ---       Key_OK_TikFunc
      0100C42DH   PUBLIC    CODE     ---       Key_Down_TikFunc
      0100C40BH   PUBLIC    CODE     ---       Key_UP_TikFunc
      0100C418H   SYMBOL    CODE     ---       KeyUpPressShortAction
      0100C41FH   SYMBOL    CODE     ---       KeyUpPressLongFirstAction
      0100C426H   SYMBOL    CODE     ---       KeyUpPressLongRepeatAction
      0100C43AH   SYMBOL    CODE     ---       KeyDownPressShortAction
      0100C441H   SYMBOL    CODE     ---       KeyDownPressLongFirstAction
      0100C448H   SYMBOL    CODE     ---       KeyDownPressLongRepeatAction
      0100C45CH   SYMBOL    CODE     ---       KeyOKPressShortAction
      0100C463H   SYMBOL    CODE     ---       KeyOKPressLongFirstAction
      0100C46AH   SYMBOL    CODE     ---       KeyOKPressLongRepeatAction
      0100C161H   SYMBOL    CODE     ---       KeyMutePressShortAction
      0100C47EH   SYMBOL    CODE     ---       KeyMutePressLongFirstAction
      0100C485H   SYMBOL    CODE     ---       KeyMutePressLongRepeatAction

      0100C40BH   BLOCK     CODE     ---       LVL=0
      0100C40BH   LINE      ---      ---       #35
      0100C40BH   LINE      ---      ---       #36
      0100C40BH   LINE      ---      ---       #37
      0100C414H   LINE      ---      ---       #38
      0100C414H   LINE      ---      ---       #39
      0100C417H   LINE      ---      ---       #40
      0100C417H   LINE      ---      ---       #41
      ---         BLOCKEND  ---      ---       LVL=0

      0100C418H   BLOCK     CODE     ---       LVL=0
      0100C418H   LINE      ---      ---       #43
      0100C418H   LINE      ---      ---       #44
      0100C418H   LINE      ---      ---       #45
      0100C41EH   LINE      ---      ---       #46
      ---         BLOCKEND  ---      ---       LVL=0

      0100C41FH   BLOCK     CODE     ---       LVL=0
      0100C41FH   LINE      ---      ---       #48
LX51 LINKER/LOCATER V4.66.93.0                                                        04/11/2019  16:58:21  PAGE 116


      0100C41FH   LINE      ---      ---       #49
      0100C41FH   LINE      ---      ---       #50
      0100C425H   LINE      ---      ---       #51
      ---         BLOCKEND  ---      ---       LVL=0

      0100C426H   BLOCK     CODE     ---       LVL=0
      0100C426H   LINE      ---      ---       #53
      0100C426H   LINE      ---      ---       #54
      0100C426H   LINE      ---      ---       #55
      0100C42CH   LINE      ---      ---       #56
      ---         BLOCKEND  ---      ---       LVL=0

      0100C42DH   BLOCK     CODE     ---       LVL=0
      0100C42DH   LINE      ---      ---       #86
      0100C42DH   LINE      ---      ---       #87
      0100C42DH   LINE      ---      ---       #88
      0100C436H   LINE      ---      ---       #89
      0100C436H   LINE      ---      ---       #90
      0100C439H   LINE      ---      ---       #91
      0100C439H   LINE      ---      ---       #92
      ---         BLOCKEND  ---      ---       LVL=0

      0100C43AH   BLOCK     CODE     ---       LVL=0
      0100C43AH   LINE      ---      ---       #95
      0100C43AH   LINE      ---      ---       #96
      0100C43AH   LINE      ---      ---       #97
      0100C440H   LINE      ---      ---       #98
      ---         BLOCKEND  ---      ---       LVL=0

      0100C441H   BLOCK     CODE     ---       LVL=0
      0100C441H   LINE      ---      ---       #100
      0100C441H   LINE      ---      ---       #101
      0100C441H   LINE      ---      ---       #102
      0100C447H   LINE      ---      ---       #103
      ---         BLOCKEND  ---      ---       LVL=0

      0100C448H   BLOCK     CODE     ---       LVL=0
      0100C448H   LINE      ---      ---       #105
      0100C448H   LINE      ---      ---       #106
      0100C448H   LINE      ---      ---       #107
      0100C44EH   LINE      ---      ---       #108
      ---         BLOCKEND  ---      ---       LVL=0

      0100C44FH   BLOCK     CODE     ---       LVL=0
      0100C44FH   LINE      ---      ---       #138
      0100C44FH   LINE      ---      ---       #139
      0100C44FH   LINE      ---      ---       #140
      0100C458H   LINE      ---      ---       #141
      0100C458H   LINE      ---      ---       #142
      0100C45BH   LINE      ---      ---       #143
      0100C45BH   LINE      ---      ---       #144
      ---         BLOCKEND  ---      ---       LVL=0

      0100C45CH   BLOCK     CODE     ---       LVL=0
      0100C45CH   LINE      ---      ---       #147
      0100C45CH   LINE      ---      ---       #148
      0100C45CH   LINE      ---      ---       #149
      0100C462H   LINE      ---      ---       #150
      ---         BLOCKEND  ---      ---       LVL=0

      0100C463H   BLOCK     CODE     ---       LVL=0
      0100C463H   LINE      ---      ---       #152
      0100C463H   LINE      ---      ---       #153
      0100C463H   LINE      ---      ---       #154
      0100C469H   LINE      ---      ---       #155
LX51 LINKER/LOCATER V4.66.93.0                                                        04/11/2019  16:58:21  PAGE 117


      ---         BLOCKEND  ---      ---       LVL=0

      0100C46AH   BLOCK     CODE     ---       LVL=0
      0100C46AH   LINE      ---      ---       #157
      0100C46AH   LINE      ---      ---       #158
      0100C46AH   LINE      ---      ---       #159
      0100C470H   LINE      ---      ---       #160
      ---         BLOCKEND  ---      ---       LVL=0

      0100C471H   BLOCK     CODE     ---       LVL=0
      0100C471H   LINE      ---      ---       #191
      0100C471H   LINE      ---      ---       #192
      0100C471H   LINE      ---      ---       #193
      0100C47AH   LINE      ---      ---       #194
      0100C47AH   LINE      ---      ---       #195
      0100C47DH   LINE      ---      ---       #196
      0100C47DH   LINE      ---      ---       #197
      ---         BLOCKEND  ---      ---       LVL=0

      0100C161H   BLOCK     CODE     ---       LVL=0
      0100C161H   LINE      ---      ---       #200
      0100C161H   LINE      ---      ---       #201
      0100C161H   LINE      ---      ---       #202
      0100C167H   LINE      ---      ---       #204
      0100C16DH   LINE      ---      ---       #205
      0100C16DH   LINE      ---      ---       #206
      0100C173H   LINE      ---      ---       #207
      0100C173H   LINE      ---      ---       #208
      0100C175H   LINE      ---      ---       #209
      0100C177H   LINE      ---      ---       #210
      0100C177H   LINE      ---      ---       #212
      0100C177H   LINE      ---      ---       #213
      0100C17CH   LINE      ---      ---       #214
      0100C17EH   LINE      ---      ---       #215
      0100C17EH   LINE      ---      ---       #216
      0100C17EH   LINE      ---      ---       #217
      ---         BLOCKEND  ---      ---       LVL=0

      0100C47EH   BLOCK     CODE     ---       LVL=0
      0100C47EH   LINE      ---      ---       #219
      0100C47EH   LINE      ---      ---       #220
      0100C47EH   LINE      ---      ---       #221
      0100C484H   LINE      ---      ---       #222
      ---         BLOCKEND  ---      ---       LVL=0

      0100C485H   BLOCK     CODE     ---       LVL=0
      0100C485H   LINE      ---      ---       #224
      0100C485H   LINE      ---      ---       #225
      0100C485H   LINE      ---      ---       #226
      0100C48BH   LINE      ---      ---       #227
      ---         BLOCKEND  ---      ---       LVL=0

      ---         MODULE    ---      ---       KEY_MULTIFUN
      02000110H   PUBLIC    XDATA    BYTE      ?Key_Multifun?BYTE
      01009896H   PUBLIC    CODE     ---       Key_Multifun

      01009890H   BLOCK     CODE     ---       LVL=0
      01009896H   LINE      ---      ---       #6
      01009896H   LINE      ---      ---       #7
      01009890H   SYMBOL    CODE     NEAR LAB  ?L?COM010F
      02000110H   SYMBOL    XDATA    ---       Element
      0200011EH   SYMBOL    XDATA    ---       Variate
      01009896H   BLOCK     CODE     NEAR LAB  LVL=1
      01009896H   LINE      ---      ---       #9
      010098A8H   LINE      ---      ---       #10
LX51 LINKER/LOCATER V4.66.93.0                                                        04/11/2019  16:58:21  PAGE 118


      010098A8H   LINE      ---      ---       #12
      010098A8H   LINE      ---      ---       #13
      010098B4H   LINE      ---      ---       #14
      010098B4H   LINE      ---      ---       #15
      010098B8H   LINE      ---      ---       #16
      010098B8H   LINE      ---      ---       #17
      010098BAH   LINE      ---      ---       #19
      010098BAH   LINE      ---      ---       #20
      010098C4H   LINE      ---      ---       #22
      010098C4H   LINE      ---      ---       #23
      010098C4H   LINE      ---      ---       #24
      010098C4H   LINE      ---      ---       #25
      010098CDH   LINE      ---      ---       #26
      010098CDH   LINE      ---      ---       #27
      010098D7H   LINE      ---      ---       #29
      010098DAH   LINE      ---      ---       #30
      010098DCH   LINE      ---      ---       #31
      010098E5H   LINE      ---      ---       #32
      010098E5H   LINE      ---      ---       #33
      010098FEH   LINE      ---      ---       #34
      010098FEH   LINE      ---      ---       #35
      01009906H   LINE      ---      ---       #37
      01009909H   LINE      ---      ---       #38
      0100990BH   LINE      ---      ---       #40
      0100990BH   LINE      ---      ---       #41
      0100990FH   LINE      ---      ---       #42
      0100990FH   LINE      ---      ---       #43
      01009911H   LINE      ---      ---       #45
      01009911H   LINE      ---      ---       #46
      01009915H   LINE      ---      ---       #47
      01009915H   LINE      ---      ---       #48
      01009917H   LINE      ---      ---       #49
      01009917H   LINE      ---      ---       #50
      01009920H   LINE      ---      ---       #51
      01009920H   LINE      ---      ---       #52
      0100992AH   LINE      ---      ---       #54
      0100992EH   LINE      ---      ---       #55
      0100992FH   LINE      ---      ---       #56
      01009936H   LINE      ---      ---       #57
      01009936H   LINE      ---      ---       #58
      01009950H   LINE      ---      ---       #62
      01009950H   LINE      ---      ---       #64
      0100995DH   LINE      ---      ---       #65
      01009961H   LINE      ---      ---       #68
      0100996AH   LINE      ---      ---       #69
      0100996AH   LINE      ---      ---       #70
      0100996AH   LINE      ---      ---       #73
      0100996AH   LINE      ---      ---       #74
      01009971H   LINE      ---      ---       #75
      01009971H   LINE      ---      ---       #76
      01009971H   LINE      ---      ---       #77
      01009971H   LINE      ---      ---       #79
      01009971H   LINE      ---      ---       #80
      01009971H   LINE      ---      ---       #81
      02000361H   SYMBOL    XDATA    BYTE      step_step_times
      ---         BLOCKEND  CODE     ---       LVL=1
      ---         BLOCKEND  CODE     ---       LVL=0

      ---         MODULE    ---      ---       GUI
      02000339H   PUBLIC    XDATA    BYTE      Display_Temp_Kind
      01008683H   PUBLIC    CODE     ---       HmiScreenSaverModeFunc
      0100913FH   PUBLIC    CODE     ---       HmiScreenSaverMode_Tik_Cnt
      01007EC9H   PUBLIC    CODE     ---       HmiSetInExpFunc
      01008967H   PUBLIC    CODE     ---       HmiSetTimeFunc
      010094B1H   PUBLIC    CODE     ---       HmiSetTempChamberFunc
LX51 LINKER/LOCATER V4.66.93.0                                                        04/11/2019  16:58:21  PAGE 119


      010095F4H   PUBLIC    CODE     ---       HmiSetTempPatientFunc
      0100B518H   PUBLIC    CODE     ---       HmiRunningFunc
      0100689EH   PUBLIC    CODE     ---       HmiNon_InvasiveSelFunc
      0100C528H   PUBLIC    CODE     ---       HmiNon_InvasiveSel_Tik_Cnt
      01006BF7H   PUBLIC    CODE     ---       HmiFactoryDefaultFunc
      0100C50FH   PUBLIC    CODE     ---       HmiFactoryDefault_Tik_Cnt
      01007BFFH   PUBLIC    CODE     ---       HmiPostFunc
      0100C502H   PUBLIC    CODE     ---       HmiPostFunc_Tik_Cnt
      0100782DH   PUBLIC    CODE     ---       HmiServiceModeFunc
      01006427H   PUBLIC    CODE     ---       _HmiEnterToWorkStateFunc
      0100883AH   PUBLIC    CODE     ---       _DisPlayTime
      000000C1H   SFRSYM    DATA     BYTE      WDT_CONTR
      000000A0H.1 SFRSYM    DATA     BIT       P21
      000000A0H.2 SFRSYM    DATA     BIT       P22
      000000A0H.3 SFRSYM    DATA     BIT       P23
      000000C0H.0 SFRSYM    DATA     BIT       P40
      0200033AH   SYMBOL    XDATA    BYTE      Tik_POST_Tick_100mS
      0200033BH   SYMBOL    XDATA    BYTE      Tik_HmiFac_Tick_100mS_10S
      0200033CH   SYMBOL    XDATA    BYTE      OK_not_Pressed_flag
      0200033DH   SYMBOL    XDATA    BYTE      HmiFac_Mode_Changed
      0200033EH   SYMBOL    XDATA    BYTE      Tik_HmiNon_InvasiveSel_Tick_100mS
      0200033FH   SYMBOL    XDATA    WORD      Tik_ScreenSaver_Tick_100mS
      02000341H   SYMBOL    XDATA    WORD      Remeber_Temp_Value
      0100C48CH   SYMBOL    CODE     ---       _Display_SET_Temp
      0100C535H   SYMBOL    CODE     ---       EnterSetTime
      0100C5CCH   SYMBOL    CODE     ---       EnterSetInExp
      0100C541H   SYMBOL    CODE     ---       Date_Is_Correct
      01007E37H   SYMBOL    CODE     ---       _Display_In_Exp_Ratio
      010062A6H   SYMBOL    CONST    ---       _?ix1000
      010062B8H   SYMBOL    CONST    ---       _?ix1001
      010062C9H   SYMBOL    CONST    ---       _?ix1002
      010062D0H   SYMBOL    CONST    ---       _?ix1003
      010062D6H   SYMBOL    CONST    ---       _?ix1004
      010062E5H   SYMBOL    CONST    ---       _?ix1005
      02000343H   SYMBOL    XDATA    BYTE      Tik_HmiFac_Tick_100mS_OK_flash
      010062F4H   SYMBOL    CONST    ---       _?ix1006
      0100630BH   SYMBOL    CONST    ---       _?ix1007
      01006322H   SYMBOL    CONST    ---       _?ix1008
      01006334H   SYMBOL    CONST    ---       _?ix1009
      01006343H   SYMBOL    CONST    ---       _?ix1010
      02000344H   SYMBOL    XDATA    BYTE      SetTimeKind
      02000345H   SYMBOL    XDATA    ---       TempTime
      0200034CH   SYMBOL    XDATA    BYTE      In_Exp_Ratio_temp

      01007E37H   BLOCK     CODE     ---       LVL=0
      01007E37H   LINE      ---      ---       #27
      01007E3CH   LINE      ---      ---       #28
      01007E3CH   LINE      ---      ---       #29
      01007E3FH   LINE      ---      ---       #30
      01007E3FH   LINE      ---      ---       #31
      01007E4BH   LINE      ---      ---       #33
      01007E51H   LINE      ---      ---       #34
      01007E55H   LINE      ---      ---       #35
      01007E59H   LINE      ---      ---       #36
      01007E66H   LINE      ---      ---       #37
      01007E66H   LINE      ---      ---       #38
      01007E69H   LINE      ---      ---       #39
      01007E6BH   LINE      ---      ---       #40
      01007E6DH   LINE      ---      ---       #42
      01007E6DH   LINE      ---      ---       #43
      01007E70H   LINE      ---      ---       #44
      01007E75H   LINE      ---      ---       #45
      01007E75H   LINE      ---      ---       #46
      01007E7AH   LINE      ---      ---       #47
      01007E86H   LINE      ---      ---       #48
LX51 LINKER/LOCATER V4.66.93.0                                                        04/11/2019  16:58:21  PAGE 120


      01007E88H   LINE      ---      ---       #50
      01007E88H   LINE      ---      ---       #51
      02000196H   SYMBOL    XDATA    BYTE      Dis
      00000005H   SYMBOL    DATA     BYTE      Dp_en
      ---         BLOCKEND  ---      ---       LVL=0

      0100883AH   BLOCK     CODE     ---       LVL=0
      0100883AH   LINE      ---      ---       #57
      0100883FH   LINE      ---      ---       #58
      02000110H   SYMBOL    XDATA    ---       TempTime
      02000113H   SYMBOL    XDATA    BYTE      TimeKind
      0100883FH   BLOCK     CODE     NEAR LAB  LVL=1
      0100883FH   LINE      ---      ---       #63
      01008845H   LINE      ---      ---       #64
      0100884AH   LINE      ---      ---       #65
      0100884AH   LINE      ---      ---       #66
      01008857H   LINE      ---      ---       #67
      01008871H   LINE      ---      ---       #70
      01008873H   LINE      ---      ---       #71
      0100887BH   LINE      ---      ---       #72
      0100887BH   LINE      ---      ---       #73
      0100889EH   LINE      ---      ---       #77
      010088A0H   LINE      ---      ---       #78
      010088A8H   LINE      ---      ---       #79
      010088A8H   LINE      ---      ---       #80
      010088C3H   LINE      ---      ---       #82
      010088C5H   LINE      ---      ---       #83
      010088CDH   LINE      ---      ---       #84
      010088CDH   LINE      ---      ---       #85
      010088EEH   LINE      ---      ---       #89
      010088F0H   LINE      ---      ---       #90
      010088F8H   LINE      ---      ---       #91
      010088F8H   LINE      ---      ---       #92
      01008919H   LINE      ---      ---       #96
      0100891BH   LINE      ---      ---       #97
      01008923H   LINE      ---      ---       #98
      01008923H   LINE      ---      ---       #99
      01008943H   LINE      ---      ---       #103
      01008943H   LINE      ---      ---       #105
      01008943H   LINE      ---      ---       #107
      01008943H   LINE      ---      ---       #108
      02000114H   SYMBOL    XDATA    BYTE      i
      02000115H   SYMBOL    XDATA    BYTE      color
      ---         BLOCKEND  CODE     ---       LVL=1
      ---         BLOCKEND  CODE     ---       LVL=0

      0100C48CH   BLOCK     CODE     ---       LVL=0
      0100C48CH   LINE      ---      ---       #111
      0100C48EH   LINE      ---      ---       #112
      0100C48EH   LINE      ---      ---       #113
      0100C491H   LINE      ---      ---       #115
      0100C4B4H   LINE      ---      ---       #118
      02000196H   SYMBOL    XDATA    WORD      Temp
      ---         BLOCKEND  ---      ---       LVL=0

      01006423H   BLOCK     CODE     ---       LVL=0
      01006427H   LINE      ---      ---       #123
      01006427H   LINE      ---      ---       #124
      01006427H   LINE      ---      ---       #125
      0100644AH   LINE      ---      ---       #126
      0100644AH   LINE      ---      ---       #127
      0100644AH   LINE      ---      ---       #128
      0100644AH   LINE      ---      ---       #129
      0100644AH   LINE      ---      ---       #130
      0100644AH   LINE      ---      ---       #131
LX51 LINKER/LOCATER V4.66.93.0                                                        04/11/2019  16:58:21  PAGE 121


      0100644AH   LINE      ---      ---       #133
      0100644CH   LINE      ---      ---       #134
      0100644CH   LINE      ---      ---       #135
      0100644CH   LINE      ---      ---       #136
      0100644CH   LINE      ---      ---       #137
      01006451H   LINE      ---      ---       #138
      01006453H   LINE      ---      ---       #139
      01006455H   LINE      ---      ---       #140
      0100645EH   LINE      ---      ---       #141
      0100645EH   LINE      ---      ---       #142
      0100645EH   LINE      ---      ---       #143
      0100645EH   LINE      ---      ---       #144
      0100645EH   LINE      ---      ---       #145
      01006463H   LINE      ---      ---       #146
      01006465H   LINE      ---      ---       #149
      01006465H   LINE      ---      ---       #150
      01006467H   LINE      ---      ---       #152
      0100646CH   LINE      ---      ---       #153
      01006471H   LINE      ---      ---       #155
      01006473H   LINE      ---      ---       #156
      01006488H   LINE      ---      ---       #157
      0100648DH   LINE      ---      ---       #160
      01006423H   SYMBOL    CODE     NEAR LAB  ?L?COM01D4
      00000007H   SYMBOL    DATA     BYTE      State
      0100648DH   BLOCK     CODE     NEAR LAB  LVL=1
      0100648DH   LINE      ---      ---       #161
      0100649CH   LINE      ---      ---       #162
      010064AFH   LINE      ---      ---       #163
      010064C2H   LINE      ---      ---       #164
      010064D5H   LINE      ---      ---       #165
      010064E4H   LINE      ---      ---       #166
      010064F3H   LINE      ---      ---       #168
      0100650AH   LINE      ---      ---       #170
      01006521H   LINE      ---      ---       #172
      01006532H   LINE      ---      ---       #174
      01006543H   LINE      ---      ---       #177
      01006545H   LINE      ---      ---       #178
      01006568H   LINE      ---      ---       #185
      0100657DH   LINE      ---      ---       #186
      02000148H   SYMBOL    XDATA    ---       str_previousSetting
      0200015AH   SYMBOL    XDATA    ---       str_defaultSetting
      0200016BH   SYMBOL    XDATA    ---       str_select
      02000172H   SYMBOL    XDATA    ---       str_enter
      02000178H   SYMBOL    XDATA    ---       str_Patient39C
      02000187H   SYMBOL    XDATA    ---       str_chamber36C
      ---         BLOCKEND  CODE     ---       LVL=1
      0100658BH   LINE      ---      ---       #190
      010065A8H   LINE      ---      ---       #193
      010065A8H   LINE      ---      ---       #194
      010065A8H   LINE      ---      ---       #195
      010065A8H   LINE      ---      ---       #197
      010065A8H   LINE      ---      ---       #198
      010065A8H   LINE      ---      ---       #199
      010065B1H   LINE      ---      ---       #203
      010065B6H   LINE      ---      ---       #204
      010065C1H   LINE      ---      ---       #207
      010065C3H   LINE      ---      ---       #208
      010065C4H   LINE      ---      ---       #209
      010065C4H   LINE      ---      ---       #211
      010065C4H   LINE      ---      ---       #212
      010065C4H   LINE      ---      ---       #214
      010065C6H   LINE      ---      ---       #215
      010065C8H   LINE      ---      ---       #216
      010065CDH   LINE      ---      ---       #217
      010065D2H   LINE      ---      ---       #218
LX51 LINKER/LOCATER V4.66.93.0                                                        04/11/2019  16:58:21  PAGE 122


      010065D4H   LINE      ---      ---       #219
      010065DBH   LINE      ---      ---       #220
      010065DCH   LINE      ---      ---       #221
      010065DCH   LINE      ---      ---       #223
      010065DCH   LINE      ---      ---       #224
      010065DCH   LINE      ---      ---       #225
      010065DFH   LINE      ---      ---       #226
      010065DFH   LINE      ---      ---       #227
      010065DFH   LINE      ---      ---       #229
      010065E1H   LINE      ---      ---       #230
      010065E1H   LINE      ---      ---       #232
      010065E1H   LINE      ---      ---       #233
      010065E1H   LINE      ---      ---       #234
      010065E7H   LINE      ---      ---       #235
      010065ECH   LINE      ---      ---       #236
      010065F2H   LINE      ---      ---       #237
      010065F2H   LINE      ---      ---       #238
      010065F2H   LINE      ---      ---       #240
      010065F2H   LINE      ---      ---       #241
      010065F2H   LINE      ---      ---       #242
      010065F5H   LINE      ---      ---       #243
      010065F5H   LINE      ---      ---       #244
      010065F5H   LINE      ---      ---       #246
      010065F5H   LINE      ---      ---       #247
      010065F5H   LINE      ---      ---       #249
      010065F8H   LINE      ---      ---       #250
      010065F8H   LINE      ---      ---       #251
      010065F8H   LINE      ---      ---       #252
      010065F8H   LINE      ---      ---       #253
      010065F8H   LINE      ---      ---       #254
      010065F8H   LINE      ---      ---       #255
      010065F8H   LINE      ---      ---       #256
      010065F8H   LINE      ---      ---       #257
      010065F8H   LINE      ---      ---       #258
      010065F8H   LINE      ---      ---       #260
      010065F8H   LINE      ---      ---       #261
      010065F8H   LINE      ---      ---       #262
      010065F8H   LINE      CODE     ---       #262

      0100782DH   BLOCK     CODE     ---       LVL=0
      0100782DH   LINE      ---      ---       #265
      0100782DH   LINE      ---      ---       #266
      0100782DH   BLOCK     CODE     NEAR LAB  LVL=1
      0100782DH   LINE      ---      ---       #270
      01007837H   LINE      ---      ---       #271
      01007837H   LINE      ---      ---       #272
      0100783EH   LINE      ---      ---       #273
      01007851H   LINE      ---      ---       #274
      01007856H   LINE      ---      ---       #275
      01007873H   LINE      ---      ---       #277
      01007875H   LINE      ---      ---       #278
      01007877H   LINE      ---      ---       #279
      01007883H   LINE      ---      ---       #280
      01007883H   LINE      ---      ---       #281
      01007889H   LINE      ---      ---       #282
      01007889H   LINE      ---      ---       #283
      01007891H   LINE      ---      ---       #284
      010078A2H   LINE      ---      ---       #285
      010078A8H   LINE      ---      ---       #286
      010078BCH   LINE      ---      ---       #288
      010078BCH   LINE      ---      ---       #289
      010078BEH   LINE      ---      ---       #290
      010078CAH   LINE      ---      ---       #291
      010078CAH   LINE      ---      ---       #292
      010078D4H   LINE      ---      ---       #293
LX51 LINKER/LOCATER V4.66.93.0                                                        04/11/2019  16:58:21  PAGE 123


      010078D4H   LINE      ---      ---       #294
      010078DCH   LINE      ---      ---       #295
      010078E9H   LINE      ---      ---       #296
      010078EFH   LINE      ---      ---       #297
      01007903H   LINE      ---      ---       #299
      01007903H   LINE      ---      ---       #300
      01007905H   LINE      ---      ---       #301
      01007911H   LINE      ---      ---       #302
      01007911H   LINE      ---      ---       #303
      01007918H   LINE      ---      ---       #304
      01007918H   LINE      ---      ---       #305
      01007920H   LINE      ---      ---       #306
      0100792DH   LINE      ---      ---       #307
      01007933H   LINE      ---      ---       #308
      0100794FH   LINE      ---      ---       #310
      0100794FH   LINE      ---      ---       #311
      01007951H   LINE      ---      ---       #312
      0100795DH   LINE      ---      ---       #313
      0100795DH   LINE      ---      ---       #314
      01007963H   LINE      ---      ---       #315
      0200032CH   SYMBOL    XDATA    INT       ServiceMode_Step
      01007963H   BLOCK     CODE     NEAR LAB  LVL=2
      01007963H   LINE      ---      ---       #316
      01007968H   LINE      ---      ---       #318
      01007971H   LINE      ---      ---       #319
      01007976H   LINE      ---      ---       #321
      0100798FH   LINE      ---      ---       #325
      01007994H   LINE      ---      ---       #326
      01007997H   LINE      ---      ---       #327
      0100799DH   LINE      ---      ---       #328
      010079AAH   LINE      ---      ---       #338
      010079AAH   LINE      ---      ---       #339
      010079B6H   LINE      ---      ---       #340
      010079B8H   LINE      ---      ---       #342
      010079B8H   LINE      ---      ---       #343
      010079C4H   LINE      ---      ---       #344
      010079CAH   LINE      ---      ---       #345
      010079CAH   LINE      ---      ---       #346
      010079CDH   LINE      ---      ---       #347
      010079CFH   LINE      ---      ---       #348
      010079CFH   LINE      ---      ---       #350
      010079D1H   LINE      ---      ---       #351
      02000110H   SYMBOL    XDATA    BYTE      TRUE
      ---         BLOCKEND  CODE     ---       LVL=2
      010079D1H   LINE      ---      ---       #352
      010079D3H   LINE      ---      ---       #353
      010079E1H   LINE      ---      ---       #354
      010079E1H   LINE      ---      ---       #355
      010079E7H   LINE      ---      ---       #356
      010079E7H   LINE      ---      ---       #358
      010079FBH   LINE      ---      ---       #359
      010079FDH   LINE      ---      ---       #360
      01007A03H   LINE      ---      ---       #361
      01007A03H   LINE      ---      ---       #362
      01007A0BH   LINE      ---      ---       #364
      01007A0DH   LINE      ---      ---       #365
      01007A10H   LINE      ---      ---       #366
      01007A17H   LINE      ---      ---       #367
      01007A28H   LINE      ---      ---       #369
      01007A35H   LINE      ---      ---       #370
      01007A43H   LINE      ---      ---       #371
      01007A49H   LINE      ---      ---       #372
      01007A56H   LINE      ---      ---       #373
      01007A76H   LINE      ---      ---       #376
      01007A84H   LINE      ---      ---       #377
LX51 LINKER/LOCATER V4.66.93.0                                                        04/11/2019  16:58:21  PAGE 124


      01007A8FH   LINE      ---      ---       #378
      01007A9DH   LINE      ---      ---       #379
      01007A9FH   LINE      ---      ---       #380
      01007AA1H   LINE      ---      ---       #382
      01007AA1H   LINE      ---      ---       #384
      01007AA1H   LINE      ---      ---       #385
      01007AA1H   LINE      ---      ---       #386
      01007AADH   LINE      ---      ---       #387
      01007AADH   LINE      ---      ---       #388
      01007AB0H   LINE      ---      ---       #390
      01007AB3H   LINE      ---      ---       #391
      01007AB3H   LINE      ---      ---       #392
      01007AC1H   LINE      ---      ---       #393
      01007AC1H   LINE      ---      ---       #394
      01007AC7H   LINE      ---      ---       #395
      01007AC9H   LINE      ---      ---       #397
      01007AC9H   LINE      ---      ---       #398
      01007ACEH   LINE      ---      ---       #399
      01007ACEH   LINE      ---      ---       #400
      01007ADCH   LINE      ---      ---       #401
      01007ADCH   LINE      ---      ---       #402
      01007AE5H   LINE      ---      ---       #403
      01007AEEH   LINE      ---      ---       #404
      01007AF0H   LINE      ---      ---       #406
      01007AF0H   LINE      ---      ---       #407
      01007AF1H   LINE      ---      ---       #408
      01007AF1H   LINE      ---      ---       #409
      01007AF1H   LINE      ---      ---       #410
      01007AF3H   LINE      ---      ---       #412
      01007AF3H   LINE      ---      ---       #413
      01007AF8H   LINE      ---      ---       #414
      01007AFEH   LINE      ---      ---       #415
      01007B04H   LINE      ---      ---       #416
      01007B04H   LINE      ---      ---       #418
      01007B0AH   LINE      ---      ---       #419
      01007B0AH   LINE      ---      ---       #420
      01007B10H   LINE      ---      ---       #421
      01007B15H   LINE      ---      ---       #422
      01007B19H   LINE      ---      ---       #423
      01007B19H   LINE      ---      ---       #424
      01007B19H   LINE      ---      ---       #426
      01007B19H   LINE      ---      ---       #428
      01007B19H   LINE      ---      ---       #429
      01007B1EH   LINE      ---      ---       #430
      01007B1EH   LINE      CODE     ---       #430
      ---         BLOCKEND  CODE     ---       LVL=0

      0100C502H   BLOCK     CODE     ---       LVL=0
      0100C502H   LINE      ---      ---       #433
      0100C502H   LINE      ---      ---       #434
      0100C502H   LINE      ---      ---       #435
      0100C50BH   LINE      ---      ---       #436
      0100C50BH   LINE      ---      ---       #437
      0100C50EH   LINE      ---      ---       #438
      0100C50EH   LINE      ---      ---       #439
      ---         BLOCKEND  ---      ---       LVL=0

      01007BFFH   BLOCK     CODE     ---       LVL=0
      01007BFFH   LINE      ---      ---       #441
      01007BFFH   LINE      ---      ---       #442
      01007BFFH   BLOCK     CODE     NEAR LAB  LVL=1
      01007BFFH   LINE      ---      ---       #447
      01007C07H   LINE      ---      ---       #448
      01007C07H   LINE      ---      ---       #450
      01007C0FH   LINE      ---      ---       #451
LX51 LINKER/LOCATER V4.66.93.0                                                        04/11/2019  16:58:21  PAGE 125


      01007C13H   LINE      ---      ---       #452
      01007C13H   LINE      ---      ---       #453
      01007C19H   LINE      ---      ---       #454
      01007C1BH   LINE      ---      ---       #455
      01007C22H   LINE      ---      ---       #456
      01007C51H   LINE      ---      ---       #459
      01007C54H   LINE      ---      ---       #460
      01007C56H   LINE      ---      ---       #461
      01007C57H   LINE      ---      ---       #462
      01007C62H   LINE      ---      ---       #463
      01007C62H   LINE      ---      ---       #464
      01007C64H   LINE      ---      ---       #465
      01007C70H   LINE      ---      ---       #468
      01007C80H   LINE      ---      ---       #469
      01007C82H   LINE      ---      ---       #470
      01007C89H   LINE      ---      ---       #471
      01007C89H   LINE      ---      ---       #477
      01007C91H   LINE      ---      ---       #478
      01007C91H   LINE      ---      ---       #480
      01007C9CH   LINE      ---      ---       #481
      01007C9CH   LINE      ---      ---       #482
      01007CA2H   LINE      ---      ---       #483
      01007CA2H   LINE      ---      ---       #484
      01007CA3H   LINE      ---      ---       #485
      01007CA8H   LINE      ---      ---       #486
      01007CA8H   LINE      ---      ---       #488
      01007CB5H   LINE      ---      ---       #490
      01007CB5H   LINE      ---      ---       #491
      01007CB5H   LINE      ---      ---       #492
      01007CB7H   LINE      ---      ---       #494
      01007CB7H   LINE      ---      ---       #495
      01007CBDH   LINE      ---      ---       #496
      01007CC2H   LINE      ---      ---       #497
      01007CC2H   LINE      ---      ---       #498
      01007CC2H   LINE      ---      ---       #499
      01007CCAH   LINE      ---      ---       #500
      01007CCAH   LINE      ---      ---       #502
      01007CD7H   LINE      ---      ---       #511
      01007CD7H   LINE      ---      ---       #512
      01007CDDH   LINE      ---      ---       #513
      01007CDEH   LINE      ---      ---       #515
      01007CDEH   LINE      ---      ---       #516
      01007CE4H   LINE      ---      ---       #517
      01007CEAH   LINE      ---      ---       #518
      01007CEAH   LINE      ---      ---       #519
      01007CEAH   LINE      ---      ---       #520
      01007CEAH   LINE      ---      ---       #521
      01007CECH   LINE      ---      ---       #522
      01007CF4H   LINE      ---      ---       #523
      01007CF4H   LINE      ---      ---       #525
      01007CF9H   LINE      ---      ---       #526
      01007CFFH   LINE      ---      ---       #527
      01007D00H   LINE      ---      ---       #528
      01007D04H   LINE      ---      ---       #529
      01007D04H   LINE      ---      ---       #532
      01007D0FH   LINE      ---      ---       #533
      01007D0FH   LINE      ---      ---       #534
      01007D1BH   LINE      ---      ---       #535
      01007D1BH   LINE      ---      ---       #536
      01007D1EH   LINE      ---      ---       #537
      01007D23H   LINE      ---      ---       #538
      01007D24H   LINE      ---      ---       #545
      01007D2CH   LINE      ---      ---       #546
      01007D2CH   LINE      ---      ---       #549
      01007D35H   LINE      ---      ---       #550
LX51 LINKER/LOCATER V4.66.93.0                                                        04/11/2019  16:58:21  PAGE 126


      01007D35H   LINE      ---      ---       #551
      01007D41H   LINE      ---      ---       #552
      01007D41H   LINE      ---      ---       #553
      01007D44H   LINE      ---      ---       #554
      01007D73H   LINE      ---      ---       #557
      01007D73H   LINE      ---      ---       #559
      01007D73H   LINE      ---      ---       #560
      01007D76H   LINE      ---      ---       #561
      01007D76H   LINE      ---      ---       #562
      01007D76H   LINE      ---      ---       #563
      01007D77H   LINE      ---      ---       #564
      01007D7EH   LINE      ---      ---       #565
      01007D7EH   LINE      ---      ---       #567
      01007D84H   LINE      ---      ---       #568
      01007D88H   LINE      ---      ---       #569
      01007D88H   LINE      ---      ---       #570
      01007D8FH   LINE      ---      ---       #571
      01007D8FH   LINE      ---      ---       #572
      01007D91H   LINE      ---      ---       #573
      01007D91H   LINE      ---      ---       #575
      01007D91H   LINE      ---      ---       #577
      01007D91H   LINE      ---      ---       #578
      0200032EH   SYMBOL    XDATA    BYTE      Post_Step
      02000110H   SYMBOL    XDATA    BYTE      i
      ---         BLOCKEND  CODE     ---       LVL=1
      ---         BLOCKEND  CODE     ---       LVL=0

      0100C50FH   BLOCK     CODE     ---       LVL=0
      0100C50FH   LINE      ---      ---       #583
      0100C50FH   LINE      ---      ---       #584
      0100C50FH   LINE      ---      ---       #585
      0100C518H   LINE      ---      ---       #586
      0100C518H   LINE      ---      ---       #587
      0100C51BH   LINE      ---      ---       #588
      0100C51BH   LINE      ---      ---       #589
      0100C524H   LINE      ---      ---       #590
      0100C524H   LINE      ---      ---       #591
      0100C527H   LINE      ---      ---       #592
      0100C527H   LINE      ---      ---       #593
      ---         BLOCKEND  ---      ---       LVL=0

      01006BF7H   BLOCK     CODE     ---       LVL=0
      01006BF7H   LINE      ---      ---       #595
      01006BF7H   LINE      ---      ---       #596
      01006BF7H   BLOCK     CODE     NEAR LAB  LVL=1
      01006BF7H   LINE      ---      ---       #602
      01006C00H   LINE      ---      ---       #603
      01006C00H   LINE      ---      ---       #604
      01006C04H   LINE      ---      ---       #605
      01006C04H   LINE      ---      ---       #607
      01006C0AH   LINE      ---      ---       #608
      01006C0AH   LINE      ---      ---       #609
      01006C13H   LINE      ---      ---       #610
      01006C13H   LINE      ---      ---       #612
      01006C13H   LINE      ---      ---       #613
      01006C18H   LINE      ---      ---       #614
      01006C18H   LINE      ---      ---       #616
      01006C18H   LINE      ---      ---       #617
      01006C1CH   LINE      ---      ---       #618
      01006C1CH   LINE      ---      ---       #619
      01006C1FH   LINE      ---      ---       #620
      01006C2EH   LINE      ---      ---       #621
      01006C31H   LINE      ---      ---       #622
      01006C33H   LINE      ---      ---       #623
      01006C3CH   LINE      ---      ---       #624
LX51 LINKER/LOCATER V4.66.93.0                                                        04/11/2019  16:58:21  PAGE 127


      01006C3CH   LINE      ---      ---       #625
      01006C3EH   LINE      ---      ---       #626
      01006C41H   LINE      ---      ---       #627
      01006C50H   LINE      ---      ---       #628
      01006C53H   LINE      ---      ---       #629
      01006C56H   LINE      ---      ---       #630
      01006C56H   LINE      ---      ---       #632
      01006C56H   LINE      ---      ---       #634
      01006C56H   LINE      ---      ---       #635
      01006C56H   LINE      ---      ---       #638
      01006C60H   LINE      ---      ---       #641
      01006C60H   LINE      ---      ---       #642
      01006C66H   LINE      ---      ---       #643
      01006C66H   LINE      ---      ---       #644
      01006C6BH   LINE      ---      ---       #645
      01006C6BH   LINE      ---      ---       #646
      01006C6BH   LINE      ---      ---       #647
      01006C6DH   LINE      ---      ---       #648
      01006C76H   LINE      ---      ---       #650
      01006C76H   LINE      ---      ---       #651
      01006C7EH   LINE      ---      ---       #652
      01006C7EH   LINE      ---      ---       #653
      01006C83H   LINE      ---      ---       #654
      01006C88H   LINE      ---      ---       #655
      01006C88H   LINE      ---      ---       #656
      01006C8AH   LINE      ---      ---       #657
      01006C93H   LINE      ---      ---       #659
      01006C93H   LINE      ---      ---       #660
      01006C96H   LINE      ---      ---       #661
      01006C9BH   LINE      ---      ---       #662
      01006C9DH   LINE      ---      ---       #663
      01006CA7H   LINE      ---      ---       #664
      01006CA7H   LINE      ---      ---       #665
      01006CA9H   LINE      ---      ---       #666
      01006CA9H   LINE      ---      ---       #667
      01006CABH   LINE      ---      ---       #669
      01006CABH   LINE      ---      ---       #670
      01006CAEH   LINE      ---      ---       #671
      01006CB2H   LINE      ---      ---       #672
      01006CB2H   LINE      ---      ---       #673
      01006CB2H   LINE      ---      ---       #675
      01006CB2H   LINE      ---      ---       #677
      01006CB2H   LINE      ---      ---       #679
      01006CBAH   LINE      ---      ---       #680
      01006CBAH   LINE      ---      ---       #681
      01006CBCH   LINE      ---      ---       #683
      01006CC0H   LINE      ---      ---       #686
      01006CC6H   LINE      ---      ---       #687
      01006CC6H   LINE      ---      ---       #688
      01006CCAH   LINE      ---      ---       #691
      01006CCDH   LINE      ---      ---       #692
      01006CCDH   LINE      ---      ---       #693
      01006CCFH   LINE      ---      ---       #695
      01006CCFH   LINE      ---      ---       #696
      01006CD5H   LINE      ---      ---       #699
      01006CEDH   LINE      ---      ---       #701
      01006CEDH   LINE      ---      ---       #703
      01006CF5H   LINE      ---      ---       #704
      01006CF5H   LINE      ---      ---       #705
      01006D08H   LINE      ---      ---       #708
      01006D4BH   LINE      ---      ---       #714
      01006D51H   LINE      ---      ---       #715
      02000110H   SYMBOL    XDATA    WORD      Pre_Disp_Deg_10
      02000112H   SYMBOL    XDATA    WORD      Pre_Disp_Deg_1
      02000114H   SYMBOL    XDATA    WORD      Pre_Disp_Deg_CQK_10
LX51 LINKER/LOCATER V4.66.93.0                                                        04/11/2019  16:58:21  PAGE 128


      02000116H   SYMBOL    XDATA    WORD      Pre_Disp_Deg_CQK_1
      01006D51H   BLOCK     CODE     NEAR LAB  LVL=2
      01006D51H   LINE      ---      ---       #716
      01006D5BH   LINE      ---      ---       #717
      01006D5BH   LINE      ---      ---       #718
      01006D5BH   LINE      ---      ---       #719
      02000118H   SYMBOL    XDATA    ---       str_modeNoinvasive
      02000118H   SYMBOL    XDATA    ---       str_modeInvasive
      ---         BLOCKEND  CODE     ---       LVL=2
      01006D5BH   BLOCK     CODE     NEAR LAB  LVL=2
      01006D5DH   LINE      ---      ---       #721
      02000118H   SYMBOL    XDATA    ---       str_modeInvasive
      ---         BLOCKEND  CODE     ---       LVL=2
      01006D5DH   BLOCK     CODE     NEAR LAB  LVL=2
      01006D5DH   LINE      ---      ---       #722
      01006D6AH   LINE      ---      ---       #723
      01006D75H   LINE      ---      ---       #725
      02000118H   SYMBOL    XDATA    ---       str_invasive
      0200012AH   SYMBOL    XDATA    ---       str_patient39C
      02000139H   SYMBOL    XDATA    ---       str_chamber36C
      ---         BLOCKEND  CODE     ---       LVL=2
      01006D75H   LINE      ---      ---       #727
      01006D86H   LINE      ---      ---       #728
      01006D93H   LINE      ---      ---       #729
      01006D93H   LINE      ---      ---       #730
      01006DA7H   LINE      ---      ---       #732
      01006DA9H   LINE      ---      ---       #734
      01006DA9H   LINE      ---      ---       #735
      01006DBAH   LINE      ---      ---       #736
      01006DD2H   LINE      ---      ---       #738
      01006DD2H   LINE      ---      ---       #740
      01006DE3H   LINE      ---      ---       #741
      01006DF0H   LINE      ---      ---       #742
      01006DF0H   LINE      ---      ---       #743
      01006E07H   LINE      ---      ---       #745
      01006E09H   LINE      ---      ---       #747
      01006E09H   LINE      ---      ---       #748
      01006E1AH   LINE      ---      ---       #749
      01006E34H   LINE      ---      ---       #751
      01006E34H   LINE      ---      ---       #753
      01006E3EH   LINE      ---      ---       #754
      01006E3EH   LINE      ---      ---       #755
      01006E44H   LINE      ---      ---       #756
      01006E46H   LINE      ---      ---       #758
      01006E46H   LINE      ---      ---       #759
      01006E57H   LINE      ---      ---       #760
      01006E80H   LINE      ---      ---       #761
      01006E80H   LINE      ---      ---       #762
      01006E82H   LINE      ---      ---       #764
      01006E82H   LINE      CODE     ---       #764
      ---         BLOCKEND  CODE     ---       LVL=0

      0100C528H   BLOCK     CODE     ---       LVL=0
      0100C528H   LINE      ---      ---       #795
      0100C528H   LINE      ---      ---       #796
      0100C528H   LINE      ---      ---       #797
      0100C531H   LINE      ---      ---       #798
      0100C531H   LINE      ---      ---       #799
      0100C534H   LINE      ---      ---       #800
      0100C534H   LINE      ---      ---       #801
      ---         BLOCKEND  ---      ---       LVL=0

      0100689EH   BLOCK     CODE     ---       LVL=0
      0100689EH   LINE      ---      ---       #803
      0100689EH   LINE      ---      ---       #804
LX51 LINKER/LOCATER V4.66.93.0                                                        04/11/2019  16:58:21  PAGE 129


      0100689EH   LINE      ---      ---       #805
      010068A1H   LINE      ---      ---       #806
      010068A1H   LINE      ---      ---       #807
      010068AAH   LINE      ---      ---       #809
      010068AAH   LINE      ---      ---       #811
      010068B0H   LINE      ---      ---       #812
      010068B0H   LINE      ---      ---       #813
      010068B2H   LINE      ---      ---       #814
      010068B4H   LINE      ---      ---       #816
      010068B4H   LINE      ---      ---       #817
      010068B9H   LINE      ---      ---       #818
      010068B9H   LINE      ---      ---       #820
      010068C2H   LINE      ---      ---       #821
      010068C2H   LINE      ---      ---       #822
      010068CFH   LINE      ---      ---       #824
      010068D1H   LINE      ---      ---       #825
      010068D1H   LINE      ---      ---       #826
      010068D8H   LINE      ---      ---       #828
      010068D8H   LINE      ---      ---       #830
      010068DAH   LINE      ---      ---       #833
      010068ECH   LINE      ---      ---       #835
      010068ECH   LINE      ---      ---       #836
      010068EEH   LINE      ---      ---       #837
      010068F1H   LINE      ---      ---       #838
      010068F5H   LINE      ---      ---       #839
      010068F5H   LINE      ---      ---       #841
      010068F5H   LINE      ---      ---       #843
      010068F5H   LINE      ---      ---       #844
      010068F5H   LINE      ---      ---       #845
      010068FBH   LINE      ---      ---       #849
      01006900H   LINE      ---      ---       #850
      ---         BLOCKEND  ---      ---       LVL=0

      0100B518H   BLOCK     CODE     ---       LVL=0
      0100B518H   LINE      ---      ---       #856
      0100B518H   LINE      ---      ---       #857
      0100B518H   BLOCK     CODE     NEAR LAB  LVL=1
      0100B518H   LINE      ---      ---       #859
      0100B522H   LINE      ---      ---       #861
      0100B522H   LINE      ---      ---       #862
      0100B527H   LINE      ---      ---       #863
      0100B52DH   LINE      ---      ---       #864
      0100B52DH   LINE      ---      ---       #865
      0100B52FH   LINE      ---      ---       #866
      0100B538H   LINE      ---      ---       #868
      0100B53AH   LINE      ---      ---       #870
      0100B53AH   LINE      ---      ---       #871
      0100B53FH   LINE      ---      ---       #872
      0100B549H   LINE      ---      ---       #874
      0100B549H   LINE      ---      ---       #875
      0100B54EH   LINE      ---      ---       #876
      0100B550H   LINE      ---      ---       #877
      0100B55AH   LINE      ---      ---       #878
      0100B55AH   LINE      ---      ---       #879
      0100B55DH   LINE      ---      ---       #880
      0100B560H   LINE      ---      ---       #881
      0100B565H   LINE      ---      ---       #882
      0100B56FH   LINE      ---      ---       #883
      0100B579H   LINE      ---      ---       #884
      0100B583H   LINE      ---      ---       #886
      0100B588H   LINE      ---      ---       #887
      0100B58CH   LINE      ---      ---       #889
      0100B593H   LINE      ---      ---       #890
      0100B593H   LINE      ---      ---       #891
      0100B595H   LINE      ---      ---       #892
LX51 LINKER/LOCATER V4.66.93.0                                                        04/11/2019  16:58:21  PAGE 130


      0100B59AH   LINE      ---      ---       #893
      0100B59DH   LINE      ---      ---       #894
      0100B59FH   LINE      ---      ---       #896
      0100B59FH   LINE      ---      ---       #897
      0100B5A5H   LINE      ---      ---       #898
      0100B5A7H   LINE      ---      ---       #899
      0100B5ACH   LINE      ---      ---       #900
      0100B5ACH   LINE      ---      ---       #901
      0100B5B6H   LINE      ---      ---       #902
      0100B5C0H   LINE      ---      ---       #903
      0100B5CAH   LINE      ---      ---       #904
      0100B5D8H   LINE      ---      ---       #907
      0100B5DAH   LINE      ---      ---       #908
      0100B5DCH   LINE      ---      ---       #909
      0100B5E4H   LINE      ---      ---       #910
      0100B5E4H   LINE      ---      ---       #911
      0100B5EBH   LINE      ---      ---       #913
      0100B5EBH   LINE      ---      ---       #914
      0100B5EEH   LINE      ---      ---       #916
      0100B5F1H   LINE      ---      ---       #917
      0100B5F3H   LINE      ---      ---       #919
      0100B5F3H   LINE      ---      ---       #920
      0100B5F6H   LINE      ---      ---       #921
      0100B5FAH   LINE      ---      ---       #922
      0100B600H   LINE      ---      ---       #923
      0100B600H   LINE      ---      ---       #924
      0100B602H   LINE      ---      ---       #925
      0100B60AH   LINE      ---      ---       #926
      0100B60AH   LINE      ---      ---       #927
      0100B60EH   LINE      ---      ---       #929
      0100B60EH   LINE      ---      ---       #930
      0100B614H   LINE      ---      ---       #931
      0100B618H   LINE      ---      ---       #933
      0100B618H   LINE      ---      ---       #934
      0100B61AH   LINE      ---      ---       #935
      0100B61FH   LINE      ---      ---       #936
      0100B61FH   LINE      ---      ---       #937
      0100B62FH   LINE      ---      ---       #938
      0100B632H   LINE      ---      ---       #939
      0100B632H   LINE      ---      ---       #941
      0100B632H   LINE      ---      ---       #943
      0100B632H   LINE      ---      ---       #946
      0100B638H   LINE      ---      ---       #947
      0100B638H   LINE      ---      ---       #948
      0100B63DH   LINE      ---      ---       #949
      0100B63DH   LINE      ---      ---       #950
      0100B646H   LINE      ---      ---       #951
      0100B646H   LINE      ---      ---       #952
      0100B649H   LINE      ---      ---       #953
      0100B64BH   LINE      ---      ---       #955
      0100B64BH   LINE      ---      ---       #956
      0100B653H   LINE      ---      ---       #957
      0100B653H   LINE      ---      ---       #958
      0100B656H   LINE      ---      ---       #959
      0100B65BH   LINE      ---      ---       #960
      0100B665H   LINE      ---      ---       #962
      0100B665H   LINE      ---      ---       #963
      0100B665H   LINE      ---      ---       #964
      0100B66AH   LINE      ---      ---       #965
      0200032FH   SYMBOL    XDATA    BYTE      Display_Return_Cnt
      ---         BLOCKEND  CODE     ---       LVL=1
      ---         BLOCKEND  CODE     ---       LVL=0

      010095F4H   BLOCK     CODE     ---       LVL=0
      010095F4H   LINE      ---      ---       #969
LX51 LINKER/LOCATER V4.66.93.0                                                        04/11/2019  16:58:21  PAGE 131


      010095F4H   LINE      ---      ---       #970
      010095F4H   BLOCK     CODE     NEAR LAB  LVL=1
      010095F4H   LINE      ---      ---       #973
      010095FCH   LINE      ---      ---       #975
      010095FCH   LINE      ---      ---       #976
      010095FEH   LINE      ---      ---       #977
      010095FEH   LINE      ---      ---       #978
      01009601H   LINE      ---      ---       #979
      01009607H   LINE      ---      ---       #980
      01009607H   LINE      ---      ---       #981
      0100960CH   LINE      ---      ---       #982
      0100960EH   LINE      ---      ---       #983
      01009615H   LINE      ---      ---       #984
      01009615H   LINE      ---      ---       #985
      0100961AH   LINE      ---      ---       #986
      0100961AH   LINE      ---      ---       #988
      0100961AH   LINE      ---      ---       #990
      0100961AH   LINE      ---      ---       #993
      01009629H   LINE      ---      ---       #996
      01009629H   LINE      ---      ---       #997
      0100962FH   LINE      ---      ---       #998
      0100962FH   LINE      ---      ---       #999
      0100963AH   LINE      ---      ---       #1000
      0100963AH   LINE      ---      ---       #1001
      0100963AH   LINE      ---      ---       #1002
      0100963AH   LINE      ---      ---       #1003
      0100963CH   LINE      ---      ---       #1005
      0100963CH   LINE      ---      ---       #1006
      01009647H   LINE      ---      ---       #1007
      01009647H   LINE      ---      ---       #1008
      01009649H   LINE      ---      ---       #1009
      01009649H   LINE      ---      ---       #1010
      01009649H   LINE      ---      ---       #1011
      01009649H   LINE      ---      ---       #1012
      0100964BH   LINE      ---      ---       #1013
      0100965AH   LINE      ---      ---       #1016
      0100965AH   LINE      ---      ---       #1017
      01009660H   LINE      ---      ---       #1018
      01009660H   LINE      ---      ---       #1019
      01009664H   LINE      ---      ---       #1020
      01009664H   LINE      ---      ---       #1021
      01009664H   LINE      ---      ---       #1022
      01009664H   LINE      ---      ---       #1023
      01009666H   LINE      ---      ---       #1025
      01009666H   LINE      ---      ---       #1026
      01009671H   LINE      ---      ---       #1027
      01009671H   LINE      ---      ---       #1028
      01009679H   LINE      ---      ---       #1029
      01009679H   LINE      ---      ---       #1030
      01009679H   LINE      ---      ---       #1031
      0100967EH   LINE      ---      ---       #1032
      01009680H   LINE      ---      ---       #1033
      01009685H   LINE      ---      ---       #1034
      01009685H   LINE      ---      ---       #1035
      0100968BH   LINE      ---      ---       #1036
      0100968FH   LINE      ---      ---       #1037
      01009694H   LINE      ---      ---       #1038
      01009698H   LINE      ---      ---       #1039
      0100969DH   LINE      ---      ---       #1040
      0100969FH   LINE      ---      ---       #1041
      010096A6H   LINE      ---      ---       #1042
      010096A6H   LINE      ---      ---       #1043
      010096B6H   LINE      ---      ---       #1045
      010096B6H   LINE      ---      ---       #1046
      010096B9H   LINE      ---      ---       #1047
LX51 LINKER/LOCATER V4.66.93.0                                                        04/11/2019  16:58:21  PAGE 132


      010096C1H   LINE      ---      ---       #1049
      010096C1H   LINE      ---      ---       #1050
      010096CCH   LINE      ---      ---       #1051
      010096D6H   LINE      ---      ---       #1053
      010096E4H   LINE      ---      ---       #1054
      010096E4H   LINE      ---      ---       #1055
      010096E9H   LINE      ---      ---       #1056
      010096EBH   LINE      ---      ---       #1058
      010096EBH   LINE      ---      ---       #1059
      010096F0H   LINE      ---      ---       #1060
      010096F0H   LINE      ---      ---       #1061
      010096FAH   LINE      ---      ---       #1062
      01009704H   LINE      ---      ---       #1063
      01009706H   LINE      ---      ---       #1065
      01009706H   LINE      ---      ---       #1066
      01009711H   LINE      ---      ---       #1067
      0100971BH   LINE      ---      ---       #1069
      01009724H   LINE      ---      ---       #1070
      01009724H   LINE      ---      ---       #1071
      01009738H   LINE      ---      ---       #1072
      0100973AH   LINE      ---      ---       #1074
      0100973AH   LINE      ---      ---       #1075
      01009740H   LINE      ---      ---       #1076
      01009740H   LINE      ---      ---       #1077
      0100974AH   LINE      ---      ---       #1078
      01009752H   LINE      ---      ---       #1079
      01009752H   LINE      ---      ---       #1080
      01009752H   LINE      ---      ---       #1082
      01009755H   LINE      ---      ---       #1083
      0100975BH   LINE      ---      ---       #1086
      0100975FH   LINE      ---      ---       #1087
      0100975FH   LINE      ---      ---       #1089
      0100975FH   LINE      ---      ---       #1091
      0100975FH   LINE      ---      ---       #1095
      01009765H   LINE      ---      ---       #1096
      01009765H   LINE      ---      ---       #1097
      0100976AH   LINE      ---      ---       #1098
      0100976AH   LINE      ---      ---       #1099
      01009773H   LINE      ---      ---       #1100
      01009773H   LINE      ---      ---       #1101
      01009776H   LINE      ---      ---       #1102
      01009778H   LINE      ---      ---       #1104
      01009778H   LINE      ---      ---       #1105
      0100977EH   LINE      ---      ---       #1108
      01009782H   LINE      ---      ---       #1109
      01009782H   LINE      ---      ---       #1110
      01009787H   LINE      ---      ---       #1111
      02000330H   SYMBOL    XDATA    BYTE      Set_Temp_Cnt
      02000331H   SYMBOL    XDATA    BYTE      Display_Return_Cnt
      ---         BLOCKEND  CODE     ---       LVL=1
      ---         BLOCKEND  CODE     ---       LVL=0

      010094B1H   BLOCK     CODE     ---       LVL=0
      010094B1H   LINE      ---      ---       #1114
      010094B1H   LINE      ---      ---       #1115
      010094B1H   BLOCK     CODE     NEAR LAB  LVL=1
      010094B1H   LINE      ---      ---       #1118
      010094B9H   LINE      ---      ---       #1120
      010094B9H   LINE      ---      ---       #1121
      010094BBH   LINE      ---      ---       #1122
      010094BBH   LINE      ---      ---       #1123
      010094BEH   LINE      ---      ---       #1124
      010094C4H   LINE      ---      ---       #1125
      010094C4H   LINE      ---      ---       #1126
      010094C9H   LINE      ---      ---       #1127
LX51 LINKER/LOCATER V4.66.93.0                                                        04/11/2019  16:58:21  PAGE 133


      010094CBH   LINE      ---      ---       #1128
      010094D2H   LINE      ---      ---       #1129
      010094D2H   LINE      ---      ---       #1130
      010094D7H   LINE      ---      ---       #1131
      010094D7H   LINE      ---      ---       #1133
      010094D7H   LINE      ---      ---       #1135
      010094D7H   LINE      ---      ---       #1138
      010094E6H   LINE      ---      ---       #1141
      010094E6H   LINE      ---      ---       #1142
      010094EDH   LINE      ---      ---       #1143
      010094EDH   LINE      ---      ---       #1144
      010094F8H   LINE      ---      ---       #1145
      010094F8H   LINE      ---      ---       #1146
      010094F8H   LINE      ---      ---       #1147
      010094F8H   LINE      ---      ---       #1148
      010094FAH   LINE      ---      ---       #1149
      010094FEH   LINE      ---      ---       #1150
      010094FEH   LINE      ---      ---       #1151
      0100951AH   LINE      ---      ---       #1152
      0100951AH   LINE      ---      ---       #1153
      0100951FH   LINE      ---      ---       #1154
      0100951FH   LINE      ---      ---       #1155
      0100951FH   LINE      ---      ---       #1157
      0100951FH   LINE      ---      ---       #1159
      0100951FH   LINE      ---      ---       #1160
      0100951FH   LINE      ---      ---       #1161
      01009521H   LINE      ---      ---       #1162
      01009530H   LINE      ---      ---       #1165
      01009530H   LINE      ---      ---       #1166
      01009537H   LINE      ---      ---       #1167
      01009537H   LINE      ---      ---       #1168
      0100953BH   LINE      ---      ---       #1169
      0100953BH   LINE      ---      ---       #1170
      0100953BH   LINE      ---      ---       #1171
      0100953BH   LINE      ---      ---       #1172
      0100953DH   LINE      ---      ---       #1173
      01009541H   LINE      ---      ---       #1174
      01009541H   LINE      ---      ---       #1175
      0100955CH   LINE      ---      ---       #1176
      0100955CH   LINE      ---      ---       #1177
      01009567H   LINE      ---      ---       #1178
      01009567H   LINE      ---      ---       #1179
      01009567H   LINE      ---      ---       #1181
      01009567H   LINE      ---      ---       #1183
      01009567H   LINE      ---      ---       #1184
      0100956CH   LINE      ---      ---       #1185
      0100956EH   LINE      ---      ---       #1186
      01009573H   LINE      ---      ---       #1187
      01009573H   LINE      ---      ---       #1188
      01009581H   LINE      ---      ---       #1190
      01009581H   LINE      ---      ---       #1191
      01009584H   LINE      ---      ---       #1192
      0100958FH   LINE      ---      ---       #1194
      0100958FH   LINE      ---      ---       #1195
      0100959CH   LINE      ---      ---       #1196
      010095A4H   LINE      ---      ---       #1197
      010095A6H   LINE      ---      ---       #1199
      010095A6H   LINE      ---      ---       #1200
      010095B3H   LINE      ---      ---       #1201
      010095BBH   LINE      ---      ---       #1202
      010095BBH   LINE      ---      ---       #1204
      010095BDH   LINE      ---      ---       #1207
      010095C1H   LINE      ---      ---       #1208
      010095C1H   LINE      ---      ---       #1209
      010095C1H   LINE      ---      ---       #1211
LX51 LINKER/LOCATER V4.66.93.0                                                        04/11/2019  16:58:21  PAGE 134


      010095C1H   LINE      ---      ---       #1213
      010095C1H   LINE      ---      ---       #1215
      010095C4H   LINE      ---      ---       #1218
      010095CAH   LINE      ---      ---       #1219
      010095CAH   LINE      ---      ---       #1220
      010095CFH   LINE      ---      ---       #1221
      010095CFH   LINE      ---      ---       #1222
      010095D8H   LINE      ---      ---       #1223
      010095D8H   LINE      ---      ---       #1224
      010095DBH   LINE      ---      ---       #1225
      010095DDH   LINE      ---      ---       #1227
      010095DDH   LINE      ---      ---       #1228
      010095DFH   LINE      ---      ---       #1231
      010095E3H   LINE      ---      ---       #1232
      010095E3H   LINE      ---      ---       #1233
      010095E8H   LINE      ---      ---       #1234
      02000332H   SYMBOL    XDATA    BYTE      Set_Temp_Cnt
      02000333H   SYMBOL    XDATA    BYTE      Display_Return_Cnt
      ---         BLOCKEND  CODE     ---       LVL=1
      ---         BLOCKEND  CODE     ---       LVL=0

      0100C535H   BLOCK     CODE     ---       LVL=0
      0100C535H   LINE      ---      ---       #1240
      0100C535H   LINE      ---      ---       #1241
      0100C535H   LINE      ---      ---       #1242
      0100C53BH   LINE      ---      ---       #1243
      ---         BLOCKEND  ---      ---       LVL=0

      0100C541H   BLOCK     CODE     ---       LVL=0
      0100C541H   LINE      ---      ---       #1247
      0100C541H   LINE      ---      ---       #1248
      0100C541H   BLOCK     CODE     NEAR LAB  LVL=1
      0100C541H   LINE      ---      ---       #1252
      0100C546H   LINE      ---      ---       #1253
      0100C571H   LINE      ---      ---       #1255
      0100C576H   LINE      ---      ---       #1256
      0100C576H   LINE      ---      ---       #1257
      0100C57BH   LINE      ---      ---       #1258
      0100C57BH   LINE      ---      ---       #1259
      0100C592H   LINE      ---      ---       #1260
      0100C592H   LINE      ---      ---       #1261
      0100C59BH   LINE      ---      ---       #1262
      0100C59BH   LINE      ---      ---       #1263
      0100C59EH   LINE      ---      ---       #1264
      0100C59EH   LINE      ---      ---       #1265
      0100C59EH   LINE      ---      ---       #1266
      0100C5A4H   LINE      ---      ---       #1267
      0100C5A4H   LINE      ---      ---       #1268
      0100C5ABH   LINE      ---      ---       #1269
      0100C5ABH   LINE      ---      ---       #1270
      0100C5B4H   LINE      ---      ---       #1271
      0100C5B4H   LINE      ---      ---       #1272
      0100C5B7H   LINE      ---      ---       #1273
      0100C5B7H   LINE      ---      ---       #1274
      0100C5B7H   LINE      ---      ---       #1275
      0100C5B8H   LINE      ---      ---       #1276
      0100C5B8H   LINE      ---      ---       #1277
      0100C5BFH   LINE      ---      ---       #1278
      0100C5BFH   LINE      ---      ---       #1279
      0100C5C8H   LINE      ---      ---       #1280
      0100C5C8H   LINE      ---      ---       #1281
      0100C5CBH   LINE      ---      ---       #1282
      0100C5CBH   LINE      ---      ---       #1283
      0100C5CBH   LINE      ---      ---       #1284
      0100C5CBH   LINE      ---      ---       #1285
LX51 LINKER/LOCATER V4.66.93.0                                                        04/11/2019  16:58:21  PAGE 135


      00000006H   SYMBOL    DATA     WORD      temp1
      02000110H   SYMBOL    XDATA    BYTE      Temp_Bit1
      ---         BLOCKEND  CODE     ---       LVL=1
      ---         BLOCKEND  CODE     ---       LVL=0

      01008967H   BLOCK     CODE     ---       LVL=0
      01008967H   LINE      ---      ---       #1288
      01008967H   LINE      ---      ---       #1289
      01008967H   BLOCK     CODE     NEAR LAB  LVL=1
      01008967H   LINE      ---      ---       #1295
      0100896FH   LINE      ---      ---       #1297
      0100896FH   LINE      ---      ---       #1298
      01008971H   LINE      ---      ---       #1299
      01008971H   LINE      ---      ---       #1301
      01008976H   LINE      ---      ---       #1302
      01008976H   LINE      ---      ---       #1303
      0100897CH   LINE      ---      ---       #1305
      0100897FH   LINE      ---      ---       #1307
      01008999H   LINE      ---      ---       #1314
      010089A4H   LINE      ---      ---       #1315
      010089A4H   LINE      ---      ---       #1316
      010089A6H   LINE      ---      ---       #1317
      010089A6H   LINE      ---      ---       #1318
      010089A6H   LINE      ---      ---       #1319
      010089A8H   LINE      ---      ---       #1320
      010089B9H   LINE      ---      ---       #1323
      010089B9H   LINE      ---      ---       #1324
      010089C0H   LINE      ---      ---       #1326
      010089C0H   LINE      ---      ---       #1327
      010089C7H   LINE      ---      ---       #1329
      010089C7H   LINE      ---      ---       #1330
      010089C9H   LINE      ---      ---       #1331
      010089C9H   LINE      ---      ---       #1332
      010089D4H   LINE      ---      ---       #1333
      010089D4H   LINE      ---      ---       #1334
      010089D7H   LINE      ---      ---       #1335
      010089D7H   LINE      ---      ---       #1336
      010089D7H   LINE      ---      ---       #1338
      010089DEH   LINE      ---      ---       #1339
      010089DEH   LINE      ---      ---       #1340
      010089E5H   LINE      ---      ---       #1342
      010089E5H   LINE      ---      ---       #1343
      010089E7H   LINE      ---      ---       #1344
      010089E7H   LINE      ---      ---       #1345
      010089F0H   LINE      ---      ---       #1346
      010089F0H   LINE      ---      ---       #1347
      010089F3H   LINE      ---      ---       #1348
      010089F3H   LINE      ---      ---       #1349
      010089F3H   LINE      ---      ---       #1350
      010089FAH   LINE      ---      ---       #1351
      010089FAH   LINE      ---      ---       #1352
      01008A01H   LINE      ---      ---       #1354
      01008A01H   LINE      ---      ---       #1355
      01008A03H   LINE      ---      ---       #1356
      01008A03H   LINE      ---      ---       #1357
      01008A0CH   LINE      ---      ---       #1358
      01008A0CH   LINE      ---      ---       #1359
      01008A0FH   LINE      ---      ---       #1360
      01008A0FH   LINE      ---      ---       #1361
      01008A0FH   LINE      ---      ---       #1362
      01008A15H   LINE      ---      ---       #1363
      01008A15H   LINE      ---      ---       #1364
      01008A15H   LINE      ---      ---       #1365
      01008A1CH   LINE      ---      ---       #1367
      01008A1CH   LINE      ---      ---       #1368
LX51 LINKER/LOCATER V4.66.93.0                                                        04/11/2019  16:58:21  PAGE 136


      01008A1EH   LINE      ---      ---       #1369
      01008A1EH   LINE      ---      ---       #1370
      01008A29H   LINE      ---      ---       #1371
      01008A29H   LINE      ---      ---       #1372
      01008A2CH   LINE      ---      ---       #1373
      01008A2CH   LINE      ---      ---       #1374
      01008A2CH   LINE      ---      ---       #1375
      01008A32H   LINE      ---      ---       #1376
      01008A32H   LINE      ---      ---       #1377
      01008A39H   LINE      ---      ---       #1379
      01008A39H   LINE      ---      ---       #1380
      01008A3BH   LINE      ---      ---       #1381
      01008A3BH   LINE      ---      ---       #1382
      01008A46H   LINE      ---      ---       #1383
      01008A46H   LINE      ---      ---       #1384
      01008A46H   LINE      ---      ---       #1385
      01008A46H   LINE      ---      ---       #1386
      01008A4FH   LINE      ---      ---       #1387
      01008A4FH   LINE      ---      ---       #1388
      01008A56H   LINE      ---      ---       #1390
      01008A56H   LINE      ---      ---       #1391
      01008A58H   LINE      ---      ---       #1392
      01008A58H   LINE      ---      ---       #1393
      01008A63H   LINE      ---      ---       #1394
      01008A63H   LINE      ---      ---       #1395
      01008A66H   LINE      ---      ---       #1396
      01008A66H   LINE      ---      ---       #1397
      01008A68H   LINE      ---      ---       #1399
      01008A68H   LINE      ---      ---       #1401
      01008A68H   LINE      ---      ---       #1402
      01008A68H   LINE      ---      ---       #1403
      01008A79H   LINE      ---      ---       #1406
      01008A79H   LINE      ---      ---       #1407
      01008A88H   LINE      ---      ---       #1409
      01008A88H   LINE      ---      ---       #1410
      01008A8CH   LINE      ---      ---       #1412
      01008A8CH   LINE      ---      ---       #1413
      01008A90H   LINE      ---      ---       #1414
      01008A90H   LINE      ---      ---       #1415
      01008A90H   LINE      ---      ---       #1416
      01008A9FH   LINE      ---      ---       #1417
      01008A9FH   LINE      ---      ---       #1418
      01008AA3H   LINE      ---      ---       #1420
      01008AA3H   LINE      ---      ---       #1421
      01008AA7H   LINE      ---      ---       #1422
      01008AA7H   LINE      ---      ---       #1423
      01008AAAH   LINE      ---      ---       #1424
      01008AB9H   LINE      ---      ---       #1425
      01008AB9H   LINE      ---      ---       #1426
      01008ABDH   LINE      ---      ---       #1428
      01008ABDH   LINE      ---      ---       #1429
      01008ABDH   LINE      ---      ---       #1430
      01008ABDH   LINE      ---      ---       #1431
      01008ACCH   LINE      ---      ---       #1432
      01008ACCH   LINE      ---      ---       #1433
      01008ACCH   LINE      ---      ---       #1434
      01008AD0H   LINE      ---      ---       #1436
      01008AD0H   LINE      ---      ---       #1437
      01008AD0H   LINE      ---      ---       #1438
      01008AD0H   LINE      ---      ---       #1439
      01008AD0H   LINE      ---      ---       #1440
      01008ADFH   LINE      ---      ---       #1441
      01008ADFH   LINE      ---      ---       #1442
      01008AE3H   LINE      ---      ---       #1444
      01008AE3H   LINE      ---      ---       #1445
LX51 LINKER/LOCATER V4.66.93.0                                                        04/11/2019  16:58:21  PAGE 137


      01008AE3H   LINE      ---      ---       #1446
      01008AE3H   LINE      ---      ---       #1447
      01008AF3H   LINE      ---      ---       #1448
      01008AF3H   LINE      ---      ---       #1449
      01008AF7H   LINE      ---      ---       #1451
      01008AF7H   LINE      ---      ---       #1452
      01008AFBH   LINE      ---      ---       #1453
      01008AFBH   LINE      ---      ---       #1454
      01008AFDH   LINE      ---      ---       #1456
      01008AFDH   LINE      ---      ---       #1458
      01008AFDH   LINE      ---      ---       #1459
      01008AFDH   LINE      ---      ---       #1460
      01008B02H   LINE      ---      ---       #1461
      01008B02H   LINE      ---      ---       #1462
      01008B05H   LINE      ---      ---       #1463
      01008B09H   LINE      ---      ---       #1464
      01008B0EH   LINE      ---      ---       #1465
      01008B10H   LINE      ---      ---       #1466
      01008B10H   LINE      ---      ---       #1468
      01008B10H   LINE      ---      ---       #1470
      01008B10H   LINE      ---      ---       #1473
      01008B17H   LINE      ---      ---       #1474
      01008B17H   LINE      ---      ---       #1475
      01008B1CH   LINE      ---      ---       #1476
      01008B1EH   LINE      ---      ---       #1477
      01008B22H   LINE      ---      ---       #1478
      01008B22H   LINE      ---      ---       #1479
      01008B25H   LINE      ---      ---       #1480
      01008B25H   LINE      ---      ---       #1482
      01008B25H   LINE      ---      ---       #1484
      01008B25H   LINE      ---      ---       #1487
      01008B2BH   LINE      ---      ---       #1488
      01008B2BH   LINE      ---      ---       #1489
      01008B34H   LINE      ---      ---       #1490
      01008B34H   LINE      ---      ---       #1493
      01008B3AH   LINE      ---      ---       #1494
      01008B3AH   LINE      ---      ---       #1495
      01008B3FH   LINE      ---      ---       #1496
      01008B3FH   LINE      ---      ---       #1497
      01008B48H   LINE      ---      ---       #1498
      01008B48H   LINE      ---      ---       #1499
      01008B4BH   LINE      ---      ---       #1500
      01008B4DH   LINE      ---      ---       #1502
      01008B4DH   LINE      ---      ---       #1503
      01008B52H   LINE      ---      ---       #1504
      01008B54H   LINE      ---      ---       #1507
      01008B54H   LINE      ---      ---       #1510
      01008B59H   LINE      ---      ---       #1511
      02000334H   SYMBOL    XDATA    BYTE      Display_Return_Cnt
      02000335H   SYMBOL    XDATA    BYTE      Set_Time_Cnt
      ---         BLOCKEND  CODE     ---       LVL=1
      ---         BLOCKEND  CODE     ---       LVL=0

      0100C5CCH   BLOCK     CODE     ---       LVL=0
      0100C5CCH   LINE      ---      ---       #1516
      0100C5CCH   LINE      ---      ---       #1517
      0100C5CCH   LINE      ---      ---       #1518
      0100C5D5H   LINE      ---      ---       #1519
      ---         BLOCKEND  ---      ---       LVL=0

      01007EC9H   BLOCK     CODE     ---       LVL=0
      01007EC9H   LINE      ---      ---       #1522
      01007EC9H   LINE      ---      ---       #1523
      01007EC9H   BLOCK     CODE     NEAR LAB  LVL=1
      01007EC9H   LINE      ---      ---       #1527
LX51 LINKER/LOCATER V4.66.93.0                                                        04/11/2019  16:58:21  PAGE 138


      01007ED1H   LINE      ---      ---       #1529
      01007ED1H   LINE      ---      ---       #1530
      01007ED3H   LINE      ---      ---       #1531
      01007ED3H   LINE      ---      ---       #1532
      01007ED6H   LINE      ---      ---       #1533
      01007EDCH   LINE      ---      ---       #1534
      01007EDCH   LINE      ---      ---       #1535
      01007EEAH   LINE      ---      ---       #1536
      01007EECH   LINE      ---      ---       #1537
      01007EF3H   LINE      ---      ---       #1538
      01007EF3H   LINE      ---      ---       #1539
      01007F03H   LINE      ---      ---       #1540
      01007F03H   LINE      ---      ---       #1542
      01007F03H   LINE      ---      ---       #1544
      01007F03H   LINE      ---      ---       #1547
      01007F08H   LINE      ---      ---       #1548
      01007F08H   LINE      ---      ---       #1549
      01007F0EH   LINE      ---      ---       #1551
      01007F15H   LINE      ---      ---       #1552
      01007F17H   LINE      ---      ---       #1553
      01007F1BH   LINE      ---      ---       #1554
      01007F1BH   LINE      ---      ---       #1555
      01007F24H   LINE      ---      ---       #1556
      01007F24H   LINE      ---      ---       #1557
      01007F27H   LINE      ---      ---       #1558
      01007F27H   LINE      ---      ---       #1559
      01007F2AH   LINE      ---      ---       #1560
      01007F2CH   LINE      ---      ---       #1561
      01007F34H   LINE      ---      ---       #1562
      01007F34H   LINE      ---      ---       #1563
      01007F3DH   LINE      ---      ---       #1564
      01007F3DH   LINE      ---      ---       #1565
      01007F40H   LINE      ---      ---       #1566
      01007F40H   LINE      ---      ---       #1567
      01007F45H   LINE      ---      ---       #1568
      01007F47H   LINE      ---      ---       #1569
      01007F4BH   LINE      ---      ---       #1570
      01007F4BH   LINE      ---      ---       #1571
      01007F4EH   LINE      ---      ---       #1572
      01007F57H   LINE      ---      ---       #1573
      01007F5AH   LINE      ---      ---       #1574
      01007F5EH   LINE      ---      ---       #1575
      01007F66H   LINE      ---      ---       #1576
      01007F69H   LINE      ---      ---       #1577
      01007F69H   LINE      ---      ---       #1579
      01007F69H   LINE      ---      ---       #1581
      01007F69H   LINE      ---      ---       #1585
      01007F6FH   LINE      ---      ---       #1586
      01007F6FH   LINE      ---      ---       #1587
      01007F74H   LINE      ---      ---       #1588
      01007F74H   LINE      ---      ---       #1589
      01007F7DH   LINE      ---      ---       #1590
      01007F7DH   LINE      ---      ---       #1591
      01007F80H   LINE      ---      ---       #1592
      01007F82H   LINE      ---      ---       #1594
      01007F82H   LINE      ---      ---       #1595
      01007F87H   LINE      ---      ---       #1596
      01007F8AH   LINE      ---      ---       #1597
      01007F93H   LINE      ---      ---       #1598
      01007F93H   LINE      ---      ---       #1600
      01007F98H   LINE      ---      ---       #1601
      02000336H   SYMBOL    XDATA    BYTE      Display_Return_Cnt
      02000337H   SYMBOL    XDATA    BYTE      Set_InExp_Cnt
      ---         BLOCKEND  CODE     ---       LVL=1
      ---         BLOCKEND  CODE     ---       LVL=0
LX51 LINKER/LOCATER V4.66.93.0                                                        04/11/2019  16:58:21  PAGE 139



      0100913FH   BLOCK     CODE     ---       LVL=0
      0100913FH   LINE      ---      ---       #1606
      0100913FH   LINE      ---      ---       #1607
      0100913FH   LINE      ---      ---       #1608
      0100914EH   LINE      ---      ---       #1609
      0100914EH   LINE      ---      ---       #1610
      01009151H   LINE      ---      ---       #1611
      01009151H   LINE      ---      ---       #1612
      ---         BLOCKEND  ---      ---       LVL=0

      01008683H   BLOCK     CODE     ---       LVL=0
      01008683H   LINE      ---      ---       #1614
      01008683H   LINE      ---      ---       #1615
      01008683H   BLOCK     CODE     NEAR LAB  LVL=1
      01008683H   LINE      ---      ---       #1616
      01008686H   LINE      ---      ---       #1617
      01008688H   LINE      ---      ---       #1621
      01008690H   LINE      ---      ---       #1623
      01008690H   LINE      ---      ---       #1624
      01008695H   LINE      ---      ---       #1626
      01008695H   LINE      ---      ---       #1627
      0100869AH   LINE      ---      ---       #1628
      0100869AH   LINE      ---      ---       #1629
      0100869AH   LINE      ---      ---       #1631
      0100869EH   LINE      ---      ---       #1632
      0100869EH   LINE      ---      ---       #1633
      010086ADH   LINE      ---      ---       #1634
      010086ADH   LINE      ---      ---       #1635
      010086B3H   LINE      ---      ---       #1636
      010086B5H   LINE      ---      ---       #1637
      010086C4H   LINE      ---      ---       #1638
      010086CAH   LINE      ---      ---       #1639
      010086CAH   LINE      ---      ---       #1640
      010086CAH   LINE      ---      ---       #1642
      010086CAH   LINE      ---      ---       #1644
      010086CAH   LINE      ---      ---       #1650
      010086E4H   LINE      ---      ---       #1651
      010086E4H   LINE      ---      ---       #1652
      010086E9H   LINE      ---      ---       #1653
      010086EFH   LINE      ---      ---       #1654
      010086F6H   LINE      ---      ---       #1657
      010086F6H   LINE      ---      ---       #1658
      010086F9H   LINE      ---      ---       #1659
      010086FDH   LINE      ---      ---       #1660
      01008700H   LINE      ---      ---       #1661
      01008700H   LINE      ---      ---       #1662
      01008700H   LINE      ---      ---       #1664
      01008706H   LINE      ---      ---       #1665
      01008706H   LINE      ---      ---       #1667
      0100870CH   LINE      ---      ---       #1668
      01008717H   LINE      ---      ---       #1669
      01008724H   LINE      ---      ---       #1670
      01008724H   LINE      ---      ---       #1671
      01008728H   LINE      ---      ---       #1672
      01008735H   LINE      ---      ---       #1673
      01008748H   LINE      ---      ---       #1675
      01008748H   LINE      ---      ---       #1676
      0100874AH   LINE      ---      ---       #1678
      0100874AH   LINE      ---      ---       #1679
      01008750H   LINE      ---      ---       #1680
      0100875CH   LINE      ---      ---       #1681
      01008770H   LINE      ---      ---       #1683
      01008781H   LINE      ---      ---       #1684
      01008781H   LINE      ---      ---       #1685
LX51 LINKER/LOCATER V4.66.93.0                                                        04/11/2019  16:58:21  PAGE 140


      01008783H   LINE      ---      ---       #1686
      01008783H   LINE      ---      ---       #1687
      02000110H   SYMBOL    XDATA    WORD      i
      02000112H   SYMBOL    XDATA    BYTE      DispEnable
      02000338H   SYMBOL    XDATA    BYTE      ReCnt
      ---         BLOCKEND  CODE     ---       LVL=1
      ---         BLOCKEND  CODE     ---       LVL=0
      01006E82H   LINE      ---      ---       #765
      01006E8BH   LINE      ---      ---       #766
      01006E99H   LINE      ---      ---       #767
      01006EA7H   LINE      ---      ---       #770
      01006EB5H   LINE      ---      ---       #773
      01006EE8H   LINE      ---      ---       #778
      01006EF3H   LINE      ---      ---       #780
      01006F18H   LINE      ---      ---       #787
      01006F18H   LINE      ---      ---       #788
      01006F1AH   LINE      ---      ---       #789
      01006F1AH   LINE      ---      ---       #790
      01006F1FH   LINE      ---      ---       #791

      ---         MODULE    ---      ---       UART_FUN
      0200024FH   PUBLIC    XDATA    BYTE      eusartRxCount
      0100A87CH   PUBLIC    CODE     ---       EUSART_Receive_ISR
      0100A89FH   PUBLIC    CODE     ---       EUSART_Transmit_ISR
      01009F33H   PUBLIC    CODE     ---       _EUSART_Write_Str
      01009F4CH   PUBLIC    CODE     ---       _EUSART_Write
      01009F67H   PUBLIC    CODE     ---       EUSART_Read
      0100C5DAH   PUBLIC    CODE     ---       EUSART_Initialize
      00000089H   SFRSYM    DATA     BYTE      TMOD
      0000008DH   SFRSYM    DATA     BYTE      TH1
      00000098H.1 SFRSYM    DATA     BIT       TI
      00000088H.6 SFRSYM    DATA     BIT       TR1
      000000E0H   SFRSYM    DATA     BYTE      ACC
      00000087H   SFRSYM    DATA     BYTE      PCON
      00000099H   SFRSYM    DATA     BYTE      SBUF
      000000A8H   SFRSYM    DATA     BYTE      IE
      00000098H   SFRSYM    DATA     BYTE      SCON
      02000250H   SYMBOL    XDATA    BYTE      eusartRxHead
      02000251H   SYMBOL    XDATA    BYTE      eusartRxTail
      02000252H   SYMBOL    XDATA    ---       eusartRxBuffer
      020002D2H   SYMBOL    XDATA    BYTE      Send_uart_busy
      01009F52H   SYMBOL    CODE     ---       _send_char_com

      0100C5DAH   BLOCK     CODE     ---       LVL=0
      0100C5DAH   LINE      ---      ---       #42
      0100C5DAH   LINE      ---      ---       #43
      0100C5DAH   LINE      ---      ---       #44
      0100C5DDH   LINE      ---      ---       #45
      0100C5E0H   LINE      ---      ---       #46
      0100C5E3H   LINE      ---      ---       #47
      0100C5E6H   LINE      ---      ---       #48
      0100C5E9H   LINE      ---      ---       #49
      0100C5EBH   LINE      ---      ---       #51
      0100C5F0H   LINE      ---      ---       #52
      0100C5F2H   LINE      ---      ---       #53
      0100C5F6H   LINE      ---      ---       #54
      ---         BLOCKEND  ---      ---       LVL=0

      01009F67H   BLOCK     CODE     ---       LVL=0
      01009F67H   LINE      ---      ---       #57
      01009F67H   LINE      ---      ---       #58
      01009F67H   BLOCK     CODE     NEAR LAB  LVL=1
      01009F67H   LINE      ---      ---       #59
      01009F67H   LINE      ---      ---       #61
      01009F6FH   LINE      ---      ---       #62
LX51 LINKER/LOCATER V4.66.93.0                                                        04/11/2019  16:58:21  PAGE 141


      01009F75H   LINE      ---      ---       #63
      01009F81H   LINE      ---      ---       #64
      01009F81H   LINE      ---      ---       #65
      01009F83H   LINE      ---      ---       #66
      01009F83H   LINE      ---      ---       #67
      01009F89H   LINE      ---      ---       #68
      01009F89H   LINE      ---      ---       #69
      00000007H   SYMBOL    DATA     BYTE      readValue
      ---         BLOCKEND  CODE     ---       LVL=1
      ---         BLOCKEND  CODE     ---       LVL=0

      01009F52H   BLOCK     CODE     ---       LVL=0
      01009F52H   LINE      ---      ---       #72
      01009F52H   LINE      ---      ---       #73
      01009F52H   LINE      ---      ---       #74
      01009F53H   LINE      ---      ---       #75
      01009F55H   LINE      ---      ---       #76
      01009F5BH   LINE      ---      ---       #77
      00000007H   SYMBOL    DATA     BYTE      Send_ch
      ---         BLOCKEND  ---      ---       LVL=0

      01009F4CH   BLOCK     CODE     ---       LVL=0
      01009F4CH   LINE      ---      ---       #80
      01009F4CH   LINE      ---      ---       #81
      01009F4CH   LINE      ---      ---       #82
      00000007H   SYMBOL    DATA     BYTE      txData
      ---         BLOCKEND  ---      ---       LVL=0

      01009F33H   BLOCK     CODE     ---       LVL=0
      01009F33H   LINE      ---      ---       #87
      01009F39H   LINE      ---      ---       #88
      02000115H   SYMBOL    XDATA    ---       stra
      00000005H   SYMBOL    DATA     BYTE      cnt
      01009F39H   BLOCK     CODE     NEAR LAB  LVL=1
      01009F39H   LINE      ---      ---       #90
      01009F40H   LINE      ---      ---       #91
      01009F40H   LINE      ---      ---       #92
      01009F48H   LINE      ---      ---       #93
      01009F4BH   LINE      ---      ---       #94
      00000006H   SYMBOL    DATA     BYTE      i
      ---         BLOCKEND  CODE     ---       LVL=1
      ---         BLOCKEND  CODE     ---       LVL=0

      0100A89FH   BLOCK     CODE     ---       LVL=0
      0100A89FH   LINE      ---      ---       #96
      0100A89FH   LINE      ---      ---       #97
      0100A89FH   LINE      ---      ---       #98
      0100A8A1H   LINE      ---      ---       #99
      0100A8A6H   LINE      ---      ---       #100
      ---         BLOCKEND  ---      ---       LVL=0

      0100A87CH   BLOCK     CODE     ---       LVL=0
      0100A87CH   LINE      ---      ---       #103
      0100A87CH   LINE      ---      ---       #104
      0100A87CH   LINE      ---      ---       #106
      0100A884H   LINE      ---      ---       #107
      0100A88AH   LINE      ---      ---       #109
      0100A896H   LINE      ---      ---       #110
      0100A896H   LINE      ---      ---       #111
      0100A898H   LINE      ---      ---       #112
      0100A898H   LINE      ---      ---       #113
      0100A89EH   LINE      ---      ---       #114
      ---         BLOCKEND  ---      ---       LVL=0

      ---         MODULE    ---      ---       ?C_STARTUP
LX51 LINKER/LOCATER V4.66.93.0                                                        04/11/2019  16:58:21  PAGE 142


      01000000H   PUBLIC    CODE     ---       ?C_STARTUP

      ---         MODULE    ---      ---       ?C?COPY
      010000F6H   PUBLIC    CODE     ---       ?C?COPY

      ---         MODULE    ---      ---       ?C?CLDPTR
      0100011CH   PUBLIC    CODE     ---       ?C?CLDPTR

      ---         MODULE    ---      ---       ?C?CLDOPTR
      01000135H   PUBLIC    CODE     ---       ?C?CLDOPTR

      ---         MODULE    ---      ---       ?C?CSTPTR
      01000162H   PUBLIC    CODE     ---       ?C?CSTPTR

      ---         MODULE    ---      ---       ?C?CSTOPTR
      01000174H   PUBLIC    CODE     ---       ?C?CSTOPTR

      ---         MODULE    ---      ---       ?C?IMUL
      01000196H   PUBLIC    CODE     ---       ?C?IMUL

      ---         MODULE    ---      ---       ?C?UIDIV
      010001A8H   PUBLIC    CODE     ---       ?C?UIDIV

      ---         MODULE    ---      ---       ?C?SIDIV
      010001FDH   PUBLIC    CODE     ---       ?C?SIDIV

      ---         MODULE    ---      ---       ?C?IILDX
      01000233H   PUBLIC    CODE     ---       ?C?IILDX

      ---         MODULE    ---      ---       ?C?LADD
      01000249H   PUBLIC    CODE     ---       ?C?LADD

      ---         MODULE    ---      ---       ?C?LSUB
      01000256H   PUBLIC    CODE     ---       ?C?LSUB

      ---         MODULE    ---      ---       ?C?LMUL
      01000264H   PUBLIC    CODE     ---       ?C?LMUL

      ---         MODULE    ---      ---       ?C?ULDIV
      010002EFH   PUBLIC    CODE     ---       ?C?ULDIV

      ---         MODULE    ---      ---       ?C?SLDIV
      010009ECH   PUBLIC    CODE     ---       ?C?SLDIV

      ---         MODULE    ---      ---       ?C?LAND
      01000381H   PUBLIC    CODE     ---       ?C?LAND

      ---         MODULE    ---      ---       ?C?LOR
      0100038EH   PUBLIC    CODE     ---       ?C?LOR

      ---         MODULE    ---      ---       ?C?LNOT
      0100039BH   PUBLIC    CODE     ---       ?C?LNOT

      ---         MODULE    ---      ---       ?C?SLCMP
      010003A8H   PUBLIC    CODE     ---       ?C?SLCMP

      ---         MODULE    ---      ---       ?C?ULCMP
      010003BEH   PUBLIC    CODE     ---       ?C?ULCMP

      ---         MODULE    ---      ---       ?C?ULSHR
      010003CFH   PUBLIC    CODE     ---       ?C?ULSHR

      ---         MODULE    ---      ---       ?C?LSHL
      010003E2H   PUBLIC    CODE     ---       ?C?LSHL

LX51 LINKER/LOCATER V4.66.93.0                                                        04/11/2019  16:58:21  PAGE 143


      ---         MODULE    ---      ---       ?C?LLDXDATA
      010003F5H   PUBLIC    CODE     ---       ?C?LLDXDATA

      ---         MODULE    ---      ---       ?C?LLDXDATA0
      01000401H   PUBLIC    CODE     ---       ?C?LLDXDATA0

      ---         MODULE    ---      ---       ?C?LSTXDATA
      0100040DH   PUBLIC    CODE     ---       ?C?LSTXDATA

      ---         MODULE    ---      ---       ?C?LSTKXDATA
      01000419H   PUBLIC    CODE     ---       ?C?LSTKXDATA

      ---         MODULE    ---      ---       ?C?OFFXADD
      0100044AH   PUBLIC    CODE     ---       ?C?OFFXADD

      ---         MODULE    ---      ---       ?C?PLDXDATA
      01000456H   PUBLIC    CODE     ---       ?C?PLDXDATA

      ---         MODULE    ---      ---       ?C?PSTXDATA
      0100045FH   PUBLIC    CODE     ---       ?C?PSTXDATA

      ---         MODULE    ---      ---       ?C?PLDPTR
      01000468H   PUBLIC    CODE     ---       ?C?PLDPTR

      ---         MODULE    ---      ---       ?C?PLDOPTR
      01000488H   PUBLIC    CODE     ---       ?C?PLDOPTR

      ---         MODULE    ---      ---       ?C?CCASE
      010004B8H   PUBLIC    CODE     ---       ?C?CCASE

      ---         MODULE    ---      ---       ?C?ICALL
      010004DEH   PUBLIC    CODE     ---       ?C?ICALL
      010004E2H   PUBLIC    CODE     ---       ?C?ICALL2

      ---         MODULE    ---      ---       ABS
      01000016H   PUBLIC    CODE     ---       _ABS

      ---         MODULE    ---      ---       ?C?STRCPY
      010005B0H   PUBLIC    CODE     ---       ?C?STRCPY

      ---         MODULE    ---      ---       ?C_INIT
      010009A7H   PUBLIC    CODE     ---       ?C_START

      ---         MODULE    ---      ---       ?C?PLDIDATA
      010005CDH   PUBLIC    CODE     ---       ?C?PLDIDATA

      ---         MODULE    ---      ---       ?C?PLDPDATA
      010005D6H   PUBLIC    CODE     ---       ?C?PLDPDATA

      ---         MODULE    ---      ---       ?C?PLDCODE
      010005DFH   PUBLIC    CODE     ---       ?C?PLDCODE

      ---         MODULE    ---      ---       ?L?COMMON
      01007FCEH   SYMBOL    CODE     NEAR LAB  ?L?COM0001
      010065F9H   SYMBOL    CODE     NEAR LAB  ?L?COM0005
      01008607H   SYMBOL    CODE     NEAR LAB  ?L?COM0009
      010067A9H   SYMBOL    CODE     NEAR LAB  ?L?COM0010
      010077BEH   SYMBOL    CODE     NEAR LAB  ?L?COM0014
      01007B1FH   SYMBOL    CODE     NEAR LAB  ?L?COM0017
      01007F99H   SYMBOL    CODE     NEAR LAB  ?L?COM001C
      01007DEBH   SYMBOL    CODE     NEAR LAB  ?L?COM0020
      01008633H   SYMBOL    CODE     NEAR LAB  ?L?COM0023
      010067DDH   SYMBOL    CODE     NEAR LAB  ?L?COM0027
      0100AFBFH   SYMBOL    CODE     NEAR LAB  ?L?COM002A
      010087F2H   SYMBOL    CODE     NEAR LAB  ?L?COM002E
LX51 LINKER/LOCATER V4.66.93.0                                                        04/11/2019  16:58:21  PAGE 144


      01006F20H   SYMBOL    CODE     NEAR LAB  ?L?COM0032
      01006625H   SYMBOL    CODE     NEAR LAB  ?L?COM0036
      0100B402H   SYMBOL    CODE     NEAR LAB  ?L?COM0039
      0100BB12H   SYMBOL    CODE     NEAR LAB  ?L?COM0040
      0100B741H   SYMBOL    CODE     NEAR LAB  ?L?COM0043
      01008950H   SYMBOL    CODE     NEAR LAB  ?L?COM0046
      0100C4CDH   SYMBOL    CODE     NEAR LAB  ?L?COM0049
      01007778H   SYMBOL    CODE     NEAR LAB  ?L?COM004B
      01009282H   SYMBOL    CODE     NEAR LAB  ?L?COM004E
      0100921EH   SYMBOL    CODE     NEAR LAB  ?L?COM0050
      01009252H   SYMBOL    CODE     NEAR LAB  ?L?COM0055
      01009C7FH   SYMBOL    CODE     NEAR LAB  ?L?COM0057
      0100866DH   SYMBOL    CODE     NEAR LAB  ?L?COM0058
      01007DDDH   SYMBOL    CODE     NEAR LAB  ?L?COM005E
      010099AAH   SYMBOL    CODE     NEAR LAB  ?L?COM0060
      0100BADEH   SYMBOL    CODE     NEAR LAB  ?L?COM0063
      01008944H   SYMBOL    CODE     NEAR LAB  ?L?COM0064
      010077D2H   SYMBOL    CODE     NEAR LAB  ?L?COM0068
      0100A5DCH   SYMBOL    CODE     NEAR LAB  ?L?COM006B
      01007EB2H   SYMBOL    CODE     NEAR LAB  ?L?COM006D
      0100B174H   SYMBOL    CODE     NEAR LAB  ?L?COM0070
      0100AFD0H   SYMBOL    CODE     NEAR LAB  ?L?COM0074
      01000003H   SYMBOL    CODE     NEAR LAB  ?L?COM0076
      01007406H   SYMBOL    CODE     NEAR LAB  ?L?COM0077
      0100776CH   SYMBOL    CODE     NEAR LAB  ?L?COM0079
      01009BB5H   SYMBOL    CODE     NEAR LAB  ?L?COM007D
      0100A5C4H   SYMBOL    CODE     NEAR LAB  ?L?COM0080
      01009972H   SYMBOL    CODE     NEAR LAB  ?L?COM0083
      0100C5F7H   SYMBOL    CODE     NEAR LAB  ?L?COM0085
      0100C610H   SYMBOL    CODE     NEAR LAB  ?L?COM0088
      0100BB04H   SYMBOL    CODE     NEAR LAB  ?L?COM008A
      010094A4H   SYMBOL    CODE     NEAR LAB  ?L?COM008C
      0100B47DH   SYMBOL    CODE     NEAR LAB  ?L?COM008E
      010097CDH   SYMBOL    CODE     NEAR LAB  ?L?COM0090
      01008C50H   SYMBOL    CODE     NEAR LAB  ?L?COM0092
      01006FBDH   SYMBOL    CODE     NEAR LAB  ?L?COM0094
      0100A676H   SYMBOL    CODE     NEAR LAB  ?L?COM0097
      0100C630H   SYMBOL    CODE     NEAR LAB  ?L?COM009A
      01008B5AH   SYMBOL    CODE     NEAR LAB  ?L?COM009C
      01009F04H   SYMBOL    CODE     NEAR LAB  ?L?COM009E
      0100A7C4H   SYMBOL    CODE     NEAR LAB  ?L?COM009F
      0100A5D2H   SYMBOL    CODE     NEAR LAB  ?L?COM00A0
      0100C64AH   SYMBOL    CODE     NEAR LAB  ?L?COM00A1
      01008C65H   SYMBOL    CODE     NEAR LAB  ?L?COM00A3
      01008C70H   SYMBOL    CODE     NEAR LAB  ?L?COM00A4
      0100B66BH   SYMBOL    CODE     NEAR LAB  ?L?COM00A5
      0100BE53H   SYMBOL    CODE     NEAR LAB  ?L?COM00A7
      0100AFDCH   SYMBOL    CODE     NEAR LAB  ?L?COM00A8
      01009F1CH   SYMBOL    CODE     NEAR LAB  ?L?COM00AA
      0100C65BH   SYMBOL    CODE     NEAR LAB  ?L?COM00AC
      01008B9BH   SYMBOL    CODE     NEAR LAB  ?L?COM00AE
      01009CA8H   SYMBOL    CODE     NEAR LAB  ?L?COM00B0
      010087CBH   SYMBOL    CODE     NEAR LAB  ?L?COM00B1
      0100B68EH   SYMBOL    CODE     NEAR LAB  ?L?COM00B3
      01008DF5H   SYMBOL    CODE     NEAR LAB  ?L?COM00B5
      0100B6CEH   SYMBOL    CODE     NEAR LAB  ?L?COM00B9
      0100BE80H   SYMBOL    CODE     NEAR LAB  ?L?COM00BA
      010072BBH   SYMBOL    CODE     NEAR LAB  ?L?COM00BC
      0100997CH   SYMBOL    CODE     NEAR LAB  ?L?COM00BD
      010095E9H   SYMBOL    CODE     NEAR LAB  ?L?COM00C0
      0100AFE8H   SYMBOL    CODE     NEAR LAB  ?L?COM00C2
      01007DD5H   SYMBOL    CODE     NEAR LAB  ?L?COM00C3
      0100C2F2H   SYMBOL    CODE     NEAR LAB  ?L?COM00C4
      0100C672H   SYMBOL    CODE     NEAR LAB  ?L?COM00C6
      01008F01H   SYMBOL    CODE     NEAR LAB  ?L?COM00CA
LX51 LINKER/LOCATER V4.66.93.0                                                        04/11/2019  16:58:21  PAGE 145


      01006824H   SYMBOL    CODE     NEAR LAB  ?L?COM00CC
      010087E1H   SYMBOL    CODE     NEAR LAB  ?L?COM00CD
      010077AEH   SYMBOL    CODE     NEAR LAB  ?L?COM00CF
      01009245H   SYMBOL    CODE     NEAR LAB  ?L?COM00D1
      01007FC2H   SYMBOL    CODE     NEAR LAB  ?L?COM00D3
      0100999CH   SYMBOL    CODE     NEAR LAB  ?L?COM00D6
      0100B4E9H   SYMBOL    CODE     NEAR LAB  ?L?COM00D8
      0100C686H   SYMBOL    CODE     NEAR LAB  ?L?COM00D9
      01006FC9H   SYMBOL    CODE     NEAR LAB  ?L?COM00DB
      0100C69EH   SYMBOL    CODE     NEAR LAB  ?L?COM00DC
      0100BFB1H   SYMBOL    CODE     NEAR LAB  ?L?COM00DE
      01009F5CH   SYMBOL    CODE     NEAR LAB  ?L?COM00E3
      010097BFH   SYMBOL    CODE     NEAR LAB  ?L?COM00E5
      0100A68EH   SYMBOL    CODE     NEAR LAB  ?L?COM00E7
      0100BE5EH   SYMBOL    CODE     NEAR LAB  ?L?COM00E9
      0100BF49H   SYMBOL    CODE     NEAR LAB  ?L?COM00EB
      0100C6AEH   SYMBOL    CODE     NEAR LAB  ?L?COM00ED
      0100C6B8H   SYMBOL    CODE     NEAR LAB  ?L?COM00EF
      01009991H   SYMBOL    CODE     NEAR LAB  ?L?COM00F1
      01009FEBH   SYMBOL    CODE     NEAR LAB  ?L?COM00F2
      0100A686H   SYMBOL    CODE     NEAR LAB  ?L?COM00F4
      0100B3B8H   SYMBOL    CODE     NEAR LAB  ?L?COM00F6
      010087C3H   SYMBOL    CODE     NEAR LAB  ?L?COM00F7
      01006FEFH   SYMBOL    CODE     NEAR LAB  ?L?COM00F8
      01009DC5H   SYMBOL    CODE     NEAR LAB  ?L?COM00FB
      0100C6CBH   SYMBOL    CODE     NEAR LAB  ?L?COM00FC
      0100B677H   SYMBOL    CODE     NEAR LAB  ?L?COM00FE
      0100B3C6H   SYMBOL    CODE     NEAR LAB  ?L?COM0100
      01006FD4H   SYMBOL    CODE     NEAR LAB  ?L?COM0102
      01008319H   SYMBOL    CODE     NEAR LAB  ?L?COM0104
      0100C6DCH   SYMBOL    CODE     NEAR LAB  ?L?COM0106
      01009DB9H   SYMBOL    CODE     NEAR LAB  ?L?COM0107
      0100C6F2H   SYMBOL    CODE     NEAR LAB  ?L?COM0108
      0100C4F2H   SYMBOL    CODE     NEAR LAB  ?L?COM010A
      01009275H   SYMBOL    CODE     NEAR LAB  ?L?COM010C
      0100C2D9H   SYMBOL    CODE     NEAR LAB  ?L?COM010E
      01009987H   SYMBOL    CODE     NEAR LAB  ?L?COM0110
      0100C10FH   SYMBOL    CODE     NEAR LAB  ?L?COM0111
      01008C82H   SYMBOL    CODE     NEAR LAB  ?L?COM0113
      0100C6FDH   SYMBOL    CODE     NEAR LAB  ?L?COM0115
      0100B490H   SYMBOL    CODE     NEAR LAB  ?L?COM0116
      01008DFFH   SYMBOL    CODE     NEAR LAB  ?L?COM0119
      0100B2D6H   SYMBOL    CODE     NEAR LAB  ?L?COM011A
      010073FDH   SYMBOL    CODE     NEAR LAB  ?L?COM011B
      0100C712H   SYMBOL    CODE     NEAR LAB  ?L?COM011C
      0100A768H   SYMBOL    CODE     NEAR LAB  ?L?COM011E
      0100B6BBH   SYMBOL    CODE     NEAR LAB  ?L?COM0120
      01009FFBH   SYMBOL    CODE     NEAR LAB  ?L?COM0121
      01009DACH   SYMBOL    CODE     NEAR LAB  ?L?COM0122
      01007FB9H   SYMBOL    CODE     NEAR LAB  ?L?COM0124
      01007FF6H   SYMBOL    CODE     NEAR LAB  ?L?COM0125
      01008C5EH   SYMBOL    CODE     NEAR LAB  ?L?COM0126
      01009C39H   SYMBOL    CODE     NEAR LAB  ?L?COM0127
      0100BF65H   SYMBOL    CODE     NEAR LAB  ?L?COM0129
      0100C71FH   SYMBOL    CODE     NEAR LAB  ?L?COM012A
      01006FE0H   SYMBOL    CODE     NEAR LAB  ?L?COM012C
      0100C72BH   SYMBOL    CODE     NEAR LAB  ?L?COM012E
      010077F7H   SYMBOL    CODE     NEAR LAB  ?L?COM0131
      0100B3F0H   SYMBOL    CODE     NEAR LAB  ?L?COM0133
      0100BFE8H   SYMBOL    CODE     NEAR LAB  ?L?COM0134
      01006FB0H   SYMBOL    CODE     NEAR LAB  ?L?COM0135
      010087D6H   SYMBOL    CODE     NEAR LAB  ?L?COM0137
      0100C735H   SYMBOL    CODE     NEAR LAB  ?L?COM0139
      01006FB5H   SYMBOL    CODE     NEAR LAB  ?L?COM013A
      0100C746H   SYMBOL    CODE     NEAR LAB  ?L?COM013C
LX51 LINKER/LOCATER V4.66.93.0                                                        04/11/2019  16:58:21  PAGE 146


      0100A7A1H   SYMBOL    CODE     NEAR LAB  ?L?COM013D
      0100B058H   SYMBOL    CODE     NEAR LAB  ?L?COM013F
      0100C757H   SYMBOL    CODE     NEAR LAB  ?L?COM0141
      0100AFF7H   SYMBOL    CODE     NEAR LAB  ?L?COM0142
      0100BF5EH   SYMBOL    CODE     NEAR LAB  ?L?COM0143
      0100A6BAH   SYMBOL    CODE     NEAR LAB  ?L?COM0144
      01008FE9H   SYMBOL    CODE     NEAR LAB  ?L?COM0146
      0100C4C4H   SYMBOL    CODE     NEAR LAB  ?L?COM0147
      0100C768H   SYMBOL    CODE     NEAR LAB  ?L?COM0148
      0100C770H   SYMBOL    CODE     NEAR LAB  ?L?COM0149
      0100C777H   SYMBOL    CODE     NEAR LAB  ?L?COM014A
      0100C780H   SYMBOL    CODE     NEAR LAB  ?L?COM014B
      0100C78AH   SYMBOL    CODE     NEAR LAB  ?L?COM014C
      0100C791H   SYMBOL    CODE     NEAR LAB  ?L?COM014E
      0100C799H   SYMBOL    CODE     NEAR LAB  ?L?COM0150
      0100B3E1H   SYMBOL    CODE     NEAR LAB  ?L?COM0151
      0100C7A8H   SYMBOL    CODE     NEAR LAB  ?L?COM0152
      01009E13H   SYMBOL    CODE     NEAR LAB  ?L?COM0153
      010077E8H   SYMBOL    CODE     NEAR LAB  ?L?COM0154
      0100C7B7H   SYMBOL    CODE     NEAR LAB  ?L?COM0156
      0100BF85H   SYMBOL    CODE     NEAR LAB  ?L?COM0157
      0100C7C6H   SYMBOL    CODE     NEAR LAB  ?L?COM0158
      0100BF8EH   SYMBOL    CODE     NEAR LAB  ?L?COM0159
      0100B6AEH   SYMBOL    CODE     NEAR LAB  ?L?COM015A
      0100C4E9H   SYMBOL    CODE     NEAR LAB  ?L?COM015B
      0100C7D3H   SYMBOL    CODE     NEAR LAB  ?L?COM015C
      0100BFC8H   SYMBOL    CODE     NEAR LAB  ?L?COM015D
      0100BFA3H   SYMBOL    CODE     NEAR LAB  ?L?COM015E
      0100C7DCH   SYMBOL    CODE     NEAR LAB  ?L?COM015F
      01009E05H   SYMBOL    CODE     NEAR LAB  ?L?COM0160
      0100C7EAH   SYMBOL    CODE     NEAR LAB  ?L?COM0161
      0100A66FH   SYMBOL    CODE     NEAR LAB  ?L?COM0162
      0100C7F8H   SYMBOL    CODE     NEAR LAB  ?L?COM0163
      0100C7FFH   SYMBOL    CODE     NEAR LAB  ?L?COM0164
      0100B7C3H   SYMBOL    CODE     NEAR LAB  ?L?COM0165
      0100C80CH   SYMBOL    CODE     NEAR LAB  ?L?COM0166
      0100C2E5H   SYMBOL    CODE     NEAR LAB  ?L?COM0167
      0100BF97H   SYMBOL    CODE     NEAR LAB  ?L?COM0168
      0100B7D0H   SYMBOL    CODE     NEAR LAB  ?L?COM0169
      0100B7D7H   SYMBOL    CODE     NEAR LAB  ?L?COM016A
      0100A787H   SYMBOL    CODE     NEAR LAB  ?L?COM016B
      0100A794H   SYMBOL    CODE     NEAR LAB  ?L?COM016C
      0100B167H   SYMBOL    CODE     NEAR LAB  ?L?COM016D
      0100AFF0H   SYMBOL    CODE     NEAR LAB  ?L?COM016E
      0100C818H   SYMBOL    CODE     NEAR LAB  ?L?COM016F
      0100C00FH   SYMBOL    CODE     NEAR LAB  ?L?COM0171
      0100B7F4H   SYMBOL    CODE     NEAR LAB  ?L?COM0172
      010087E9H   SYMBOL    CODE     NEAR LAB  ?L?COM0174
      0100C825H   SYMBOL    CODE     NEAR LAB  ?L?COM0176
      0100C82DH   SYMBOL    CODE     NEAR LAB  ?L?COM0177
      01009F0BH   SYMBOL    CODE     NEAR LAB  ?L?COM0178
      0100C839H   SYMBOL    CODE     NEAR LAB  ?L?COM0179
      010097F0H   SYMBOL    CODE     NEAR LAB  ?L?COM017A
      0100B7ECH   SYMBOL    CODE     NEAR LAB  ?L?COM017B
      0100C841H   SYMBOL    CODE     NEAR LAB  ?L?COM017C
      0100C849H   SYMBOL    CODE     NEAR LAB  ?L?COM017D
      0100C855H   SYMBOL    CODE     NEAR LAB  ?L?COM017E
      0100C861H   SYMBOL    CODE     NEAR LAB  ?L?COM017F
      0100B3D9H   SYMBOL    CODE     NEAR LAB  ?L?COM0181
      0100B3A0H   SYMBOL    CODE     NEAR LAB  ?L?COM0182
      0100B3A8H   SYMBOL    CODE     NEAR LAB  ?L?COM0183
      0100B3B0H   SYMBOL    CODE     NEAR LAB  ?L?COM0184
      0100C86DH   SYMBOL    CODE     NEAR LAB  ?L?COM0185
      01006FE8H   SYMBOL    CODE     NEAR LAB  ?L?COM0186
      0100C879H   SYMBOL    CODE     NEAR LAB  ?L?COM0187
LX51 LINKER/LOCATER V4.66.93.0                                                        04/11/2019  16:58:21  PAGE 147


      0100BB83H   SYMBOL    CODE     NEAR LAB  ?L?COM0188
      01009FF3H   SYMBOL    CODE     NEAR LAB  ?L?COM0189
      0100BF6DH   SYMBOL    CODE     NEAR LAB  ?L?COM018A
      0100A730H   SYMBOL    CODE     NEAR LAB  ?L?COM018B
      0100C885H   SYMBOL    CODE     NEAR LAB  ?L?COM018C
      0100A6AAH   SYMBOL    CODE     NEAR LAB  ?L?COM018D
      0100A738H   SYMBOL    CODE     NEAR LAB  ?L?COM018E
      0100C4BCH   SYMBOL    CODE     NEAR LAB  ?L?COM0190
      0100C88DH   SYMBOL    CODE     NEAR LAB  ?L?COM0193
      0100A8A7H   SYMBOL    CODE     NEAR LAB  ?L?COM0194
      0100C897H   SYMBOL    CODE     NEAR LAB  ?L?COM0195
      0100C8A2H   SYMBOL    CODE     NEAR LAB  ?L?COM0196
      01009DEEH   SYMBOL    CODE     NEAR LAB  ?L?COM0197
      0100C8ACH   SYMBOL    CODE     NEAR LAB  ?L?COM0198
      0100B736H   SYMBOL    CODE     NEAR LAB  ?L?COM0199
      01006A4CH   SYMBOL    CODE     NEAR LAB  ?L?COM019A
      0100BB8BH   SYMBOL    CODE     NEAR LAB  ?L?COM019B
      0100A77CH   SYMBOL    CODE     NEAR LAB  ?L?COM019D
      0100C8B7H   SYMBOL    CODE     NEAR LAB  ?L?COM019E
      010077F0H   SYMBOL    CODE     NEAR LAB  ?L?COM019F
      0100C8C2H   SYMBOL    CODE     NEAR LAB  ?L?COM01A0
      0100C8CCH   SYMBOL    CODE     NEAR LAB  ?L?COM01A2
      0100C8D5H   SYMBOL    CODE     NEAR LAB  ?L?COM01A3
      0100BFC1H   SYMBOL    CODE     NEAR LAB  ?L?COM01A4
      01008FD5H   SYMBOL    CODE     NEAR LAB  ?L?COM01A5
      0100C8DFH   SYMBOL    CODE     NEAR LAB  ?L?COM01A6
      0100B7DEH   SYMBOL    CODE     NEAR LAB  ?L?COM01A7
      0100C8E8H   SYMBOL    CODE     NEAR LAB  ?L?COM01A8
      0100681DH   SYMBOL    CODE     NEAR LAB  ?L?COM01A9
      0100C8EFH   SYMBOL    CODE     NEAR LAB  ?L?COM01AA
      01007FE9H   SYMBOL    CODE     NEAR LAB  ?L?COM01AB
      0100C8F8H   SYMBOL    CODE     NEAR LAB  ?L?COM01AC
      0100C901H   SYMBOL    CODE     NEAR LAB  ?L?COM01AD
      0100C90AH   SYMBOL    CODE     NEAR LAB  ?L?COM01AE
      0100C911H   SYMBOL    CODE     NEAR LAB  ?L?COM01B0
      0100B160H   SYMBOL    CODE     NEAR LAB  ?L?COM01B1
      01008F62H   SYMBOL    CODE     NEAR LAB  ?L?COM01B2
      01008FF0H   SYMBOL    CODE     NEAR LAB  ?L?COM01B3
      01009F12H   SYMBOL    CODE     NEAR LAB  ?L?COM01B4
      0100C91AH   SYMBOL    CODE     NEAR LAB  ?L?COM01B7
      0100BE70H   SYMBOL    CODE     NEAR LAB  ?L?COM01B8
      0100BE79H   SYMBOL    CODE     NEAR LAB  ?L?COM01B9
      0100C924H   SYMBOL    CODE     NEAR LAB  ?L?COM01BA
      01009FD6H   SYMBOL    CODE     NEAR LAB  ?L?COM01BB
      01009FDDH   SYMBOL    CODE     NEAR LAB  ?L?COM01BC
      0100A69CH   SYMBOL    CODE     NEAR LAB  ?L?COM01BD
      0100A6A3H   SYMBOL    CODE     NEAR LAB  ?L?COM01BF
      01009FE4H   SYMBOL    CODE     NEAR LAB  ?L?COM01C0
      0100A772H   SYMBOL    CODE     NEAR LAB  ?L?COM01C1
      0100C92EH   SYMBOL    CODE     NEAR LAB  ?L?COM01C2
      01008C7BH   SYMBOL    CODE     NEAR LAB  ?L?COM01C3
      010097DCH   SYMBOL    CODE     NEAR LAB  ?L?COM01C4
      01009DE4H   SYMBOL    CODE     NEAR LAB  ?L?COM01C5
      0100C938H   SYMBOL    CODE     NEAR LAB  ?L?COM01C6
      0100C942H   SYMBOL    CODE     NEAR LAB  ?L?COM01C7
      0100C94AH   SYMBOL    CODE     NEAR LAB  ?L?COM01C8
      0100A740H   SYMBOL    CODE     NEAR LAB  ?L?COM01C9
      0100BAECH   SYMBOL    CODE     NEAR LAB  ?L?COM01CA
      0100C952H   SYMBOL    CODE     NEAR LAB  ?L?COM01CC
      0100C95AH   SYMBOL    CODE     NEAR LAB  ?L?COM01CD
      0100C962H   SYMBOL    CODE     NEAR LAB  ?L?COM01CE
      01007FF0H   SYMBOL    CODE     NEAR LAB  ?L?COM01CF
      0100BFD0H   SYMBOL    CODE     NEAR LAB  ?L?COM01D0
      0100C96AH   SYMBOL    CODE     NEAR LAB  ?L?COM01D2
      0100C972H   SYMBOL    CODE     NEAR LAB  ?L?COM01D3
LX51 LINKER/LOCATER V4.66.93.0                                                        04/11/2019  16:58:21  PAGE 148


      0100C97AH   SYMBOL    CODE     NEAR LAB  ?L?COM01D5
      0100C982H   SYMBOL    CODE     NEAR LAB  ?L?COM01D6
      0100C98AH   SYMBOL    CODE     NEAR LAB  ?L?COM01D7
      0100B7E5H   SYMBOL    CODE     NEAR LAB  ?L?COM01D8
      0100B686H   SYMBOL    CODE     NEAR LAB  ?L?COM01D9
      01006FF7H   SYMBOL    CODE     NEAR LAB  ?L?COM01DA
      0100C992H   SYMBOL    CODE     NEAR LAB  ?L?COM01DB
      01008FDBH   SYMBOL    CODE     NEAR LAB  ?L?COM01DC
      0100C999H   SYMBOL    CODE     NEAR LAB  ?L?COM01DD
      0100917FH   SYMBOL    CODE     NEAR LAB  ?L?COM01DF
      0100C9A1H   SYMBOL    CODE     NEAR LAB  ?L?COM01E0
      0100C9A9H   SYMBOL    CODE     NEAR LAB  ?L?COM01E1
      0100B475H   SYMBOL    CODE     NEAR LAB  ?L?COM01E2
      0100B69EH   SYMBOL    CODE     NEAR LAB  ?L?COM01E3
      0100B6A6H   SYMBOL    CODE     NEAR LAB  ?L?COM01E4
      0100A6B2H   SYMBOL    CODE     NEAR LAB  ?L?COM01E5
      0100C9B1H   SYMBOL    CODE     NEAR LAB  ?L?COM01E6
      0100C9B9H   SYMBOL    CODE     NEAR LAB  ?L?COM01E7
      0100BFD8H   SYMBOL    CODE     NEAR LAB  ?L?COM01E8
      0100BFE0H   SYMBOL    CODE     NEAR LAB  ?L?COM01E9
      0100C107H   SYMBOL    CODE     NEAR LAB  ?L?COM01EA
      0100BF75H   SYMBOL    CODE     NEAR LAB  ?L?COM01EB
      0100BF7DH   SYMBOL    CODE     NEAR LAB  ?L?COM01EC
      0100C9C1H   SYMBOL    CODE     NEAR LAB  ?L?COM01ED
      01009DD3H   SYMBOL    CODE     NEAR LAB  ?L?COM01EE
      0100BAF4H   SYMBOL    CODE     NEAR LAB  ?L?COM01EF
      0100BAFCH   SYMBOL    CODE     NEAR LAB  ?L?COM01F0
      0100A748H   SYMBOL    CODE     NEAR LAB  ?L?COM01F1
      0100A750H   SYMBOL    CODE     NEAR LAB  ?L?COM01F2
      0100A758H   SYMBOL    CODE     NEAR LAB  ?L?COM01F3
      0100C9C9H   SYMBOL    CODE     NEAR LAB  ?L?COM01F4
      0100A760H   SYMBOL    CODE     NEAR LAB  ?L?COM01F5
      0100C9D1H   SYMBOL    CODE     NEAR LAB  ?L?COM01F6
      0100C9D9H   SYMBOL    CODE     NEAR LAB  ?L?COM01F7
      0100C9E1H   SYMBOL    CODE     NEAR LAB  ?L?COM01F8
      0100C9E9H   SYMBOL    CODE     NEAR LAB  ?L?COM01F9
      0100C9F1H   SYMBOL    CODE     NEAR LAB  ?L?COM01FA
      0100C9F9H   SYMBOL    CODE     NEAR LAB  ?L?COM01FB
      0100CA00H   SYMBOL    CODE     NEAR LAB  ?L?COM01FC

Program Size: data=25.0 xdata=866 const=22818 code=28900
LX51 RUN COMPLETE.  0 WARNING(S),  0 ERROR(S)
