LX51 LINKER/LOCATER V4.66.1.0                                                           03/30/2019  12:53:22  PAGE 1


LX51 LINKER/LOCATER V4.66.1.0, INVOKED BY:
D:\KEIL4\C51\BIN\LX51.EXE ..\OBJ\stc_eeprom.obj, ..\OBJ\delay.obj, ..\OBJ\Main_Tik_Tok.obj, ..\OBJ\WS_Task_Manage.obj, .
>> .\OBJ\Main_Tik_Function.obj, ..\OBJ\Sub_Tik_Function.obj, ..\OBJ\Normal_Task.obj, ..\OBJ\ActivityFunctions.obj, ..\OB
>> J\Sound_Type.obj, ..\OBJ\main.obj, ..\OBJ\StcRomCrc16.obj, ..\OBJ\lcd.obj, ..\OBJ\w25x.obj, ..\OBJ\sht21.obj, ..\OBJ\
>> RX8010.obj, ..\OBJ\ds18b20.obj, ..\OBJ\key_datas.obj, ..\OBJ\Key_Multifun.obj, ..\OBJ\GUI.obj, ..\OBJ\uart_fun.obj TO
>>  ..\OBJ\VHB15A PRINT (.\VHB15A.map)


CPU MODE:     8051 MODE
MEMORY MODEL: LARGE


INPUT MODULES INCLUDED:
  ..\OBJ\stc_eeprom.obj (STC_EEPROM)
         COMMENT TYPE 0: C51 V9.52.0.0
  ..\OBJ\delay.obj (DELAY)
         COMMENT TYPE 0: C51 V9.52.0.0
  ..\OBJ\Main_Tik_Tok.obj (MAIN_TIK_TOK)
         COMMENT TYPE 0: C51 V9.52.0.0
  ..\OBJ\WS_Task_Manage.obj (WS_TASK_MANAGE)
         COMMENT TYPE 0: C51 V9.52.0.0
  ..\OBJ\Main_Tik_Function.obj (MAIN_TIK_FUNCTION)
         COMMENT TYPE 0: C51 V9.52.0.0
  ..\OBJ\Sub_Tik_Function.obj (SUB_TIK_FUNCTION)
         COMMENT TYPE 0: C51 V9.52.0.0
  ..\OBJ\Normal_Task.obj (NORMAL_TASK)
         COMMENT TYPE 0: C51 V9.52.0.0
  ..\OBJ\ActivityFunctions.obj (ACTIVITYFUNCTIONS)
         COMMENT TYPE 0: C51 V9.52.0.0
  ..\OBJ\Sound_Type.obj (SOUND_TYPE)
         COMMENT TYPE 0: C51 V9.52.0.0
  ..\OBJ\main.obj (MAIN)
         COMMENT TYPE 0: C51 V9.52.0.0
  ..\OBJ\StcRomCrc16.obj (STCROMCRC16)
         COMMENT TYPE 0: C51 V9.52.0.0
  ..\OBJ\lcd.obj (LCD)
         COMMENT TYPE 0: C51 V9.52.0.0
  ..\OBJ\w25x.obj (W25X)
         COMMENT TYPE 0: C51 V9.52.0.0
  ..\OBJ\sht21.obj (SHT21)
         COMMENT TYPE 0: C51 V9.52.0.0
  ..\OBJ\RX8010.obj (RX8010)
         COMMENT TYPE 0: C51 V9.52.0.0
  ..\OBJ\ds18b20.obj (DS18B20)
         COMMENT TYPE 0: C51 V9.52.0.0
  ..\OBJ\key_datas.obj (KEY_DATAS)
         COMMENT TYPE 0: C51 V9.52.0.0
  ..\OBJ\Key_Multifun.obj (KEY_MULTIFUN)
         COMMENT TYPE 0: C51 V9.52.0.0
  ..\OBJ\GUI.obj (GUI)
         COMMENT TYPE 0: C51 V9.52.0.0
  ..\OBJ\uart_fun.obj (UART_FUN)
         COMMENT TYPE 0: C51 V9.52.0.0
  D:\KEIL4\C51\LIB\C51L.LIB (?C_STARTUP)
         COMMENT TYPE 1: A51 / ASM51 Assembler
  D:\KEIL4\C51\LIB\C51L.LIB (?C?COPY)
         COMMENT TYPE 1: A51 / ASM51 Assembler
  D:\KEIL4\C51\LIB\C51L.LIB (?C?CLDPTR)
         COMMENT TYPE 1: A51 / ASM51 Assembler
  D:\KEIL4\C51\LIB\C51L.LIB (?C?CLDOPTR)
         COMMENT TYPE 1: A51 / ASM51 Assembler
  D:\KEIL4\C51\LIB\C51L.LIB (?C?CSTPTR)
         COMMENT TYPE 1: A51 / ASM51 Assembler
  D:\KEIL4\C51\LIB\C51L.LIB (?C?CSTOPTR)
         COMMENT TYPE 1: A51 / ASM51 Assembler
  D:\KEIL4\C51\LIB\C51L.LIB (?C?IMUL)
LX51 LINKER/LOCATER V4.66.1.0                                                         03/30/2019  12:53:22  PAGE 2


         COMMENT TYPE 1: A51 / ASM51 Assembler
  D:\KEIL4\C51\LIB\C51L.LIB (?C?UIDIV)
         COMMENT TYPE 1: A51 / ASM51 Assembler
  D:\KEIL4\C51\LIB\C51L.LIB (?C?SIDIV)
         COMMENT TYPE 1: A51 / ASM51 Assembler
  D:\KEIL4\C51\LIB\C51L.LIB (?C?IILDX)
         COMMENT TYPE 1: A51 / ASM51 Assembler
  D:\KEIL4\C51\LIB\C51L.LIB (?C?LADD)
         COMMENT TYPE 1: A51 / ASM51 Assembler
  D:\KEIL4\C51\LIB\C51L.LIB (?C?LSUB)
         COMMENT TYPE 1: A51 / ASM51 Assembler
  D:\KEIL4\C51\LIB\C51L.LIB (?C?LMUL)
         COMMENT TYPE 1: A51 / ASM51 Assembler
  D:\KEIL4\C51\LIB\C51L.LIB (?C?ULDIV)
         COMMENT TYPE 1: A51 / ASM51 Assembler
  D:\KEIL4\C51\LIB\C51L.LIB (?C?SLDIV)
         COMMENT TYPE 1: A51 / ASM51 Assembler
  D:\KEIL4\C51\LIB\C51L.LIB (?C?LAND)
         COMMENT TYPE 1: A51 / ASM51 Assembler
  D:\KEIL4\C51\LIB\C51L.LIB (?C?LOR)
         COMMENT TYPE 1: A51 / ASM51 Assembler
  D:\KEIL4\C51\LIB\C51L.LIB (?C?LNOT)
         COMMENT TYPE 1: A51 / ASM51 Assembler
  D:\KEIL4\C51\LIB\C51L.LIB (?C?SLCMP)
         COMMENT TYPE 1: A51 / ASM51 Assembler
  D:\KEIL4\C51\LIB\C51L.LIB (?C?ULCMP)
         COMMENT TYPE 1: A51 / ASM51 Assembler
  D:\KEIL4\C51\LIB\C51L.LIB (?C?ULSHR)
         COMMENT TYPE 1: A51 / ASM51 Assembler
  D:\KEIL4\C51\LIB\C51L.LIB (?C?LSHL)
         COMMENT TYPE 1: A51 / ASM51 Assembler
  D:\KEIL4\C51\LIB\C51L.LIB (?C?LLDXDATA)
         COMMENT TYPE 1: A51 / ASM51 Assembler
  D:\KEIL4\C51\LIB\C51L.LIB (?C?LLDXDATA0)
         COMMENT TYPE 1: A51 / ASM51 Assembler
  D:\KEIL4\C51\LIB\C51L.LIB (?C?LSTXDATA)
         COMMENT TYPE 1: A51 / ASM51 Assembler
  D:\KEIL4\C51\LIB\C51L.LIB (?C?LSTKXDATA)
         COMMENT TYPE 1: A51 / ASM51 Assembler
  D:\KEIL4\C51\LIB\C51L.LIB (?C?OFFXADD)
         COMMENT TYPE 1: A51 / ASM51 Assembler
  D:\KEIL4\C51\LIB\C51L.LIB (?C?PLDXDATA)
         COMMENT TYPE 1: A51 / ASM51 Assembler
  D:\KEIL4\C51\LIB\C51L.LIB (?C?PSTXDATA)
         COMMENT TYPE 1: A51 / ASM51 Assembler
  D:\KEIL4\C51\LIB\C51L.LIB (?C?PLDPTR)
         COMMENT TYPE 1: A51 / ASM51 Assembler
  D:\KEIL4\C51\LIB\C51L.LIB (?C?PLDOPTR)
         COMMENT TYPE 1: A51 / ASM51 Assembler
  D:\KEIL4\C51\LIB\C51L.LIB (?C?CCASE)
         COMMENT TYPE 1: A51 / ASM51 Assembler
  D:\KEIL4\C51\LIB\C51L.LIB (?C?ICALL)
         COMMENT TYPE 1: A51 / ASM51 Assembler
  D:\KEIL4\C51\LIB\C51L.LIB (ABS)
         COMMENT TYPE 1: A51 / ASM51 Assembler
  D:\KEIL4\C51\LIB\C51L.LIB (?C?STRCPY)
         COMMENT TYPE 1: A51 / ASM51 Assembler
  D:\KEIL4\C51\LIB\C51L.LIB (?C_INIT)
         COMMENT TYPE 1: A51 / ASM51 Assembler
  D:\KEIL4\C51\LIB\C51L.LIB (?C?PLDIDATA)
         COMMENT TYPE 1: A51 / ASM51 Assembler
  D:\KEIL4\C51\LIB\C51L.LIB (?C?PLDPDATA)
         COMMENT TYPE 1: A51 / ASM51 Assembler
  D:\KEIL4\C51\LIB\C51L.LIB (?C?PLDCODE)
         COMMENT TYPE 1: A51 / ASM51 Assembler
LX51 LINKER/LOCATER V4.66.1.0                                                         03/30/2019  12:53:22  PAGE 3




ACTIVE MEMORY CLASSES OF MODULE:  ..\OBJ\VHB15A (STC_EEPROM)

BASE        START       END         USED      MEMORY CLASS
==========================================================
C:000000H   C:000000H   C:00FFFFH   00C659H   CODE
X:000000H   X:000000H   X:00FFFFH   0002CFH   XDATA
I:000020H.0 I:000020H.0 I:00002FH.7 000001H.1 BIT
I:000000H   I:000000H   I:0000FFH   000001H   IDATA
I:000000H   I:000000H   I:00007FH   000018H   DATA


MEMORY MAP OF MODULE:  ..\OBJ\VHB15A (STC_EEPROM)


START     STOP      LENGTH    ALIGN  RELOC    MEMORY CLASS   SEGMENT NAME
=========================================================================

* * * * * * * * * * *   D A T A   M E M O R Y   * * * * * * * * * * * * *
000000H   000007H   000008H   ---    AT..     DATA           "REG BANK 0"
000008H   00000FH   000008H   ---    AT..     DATA           "REG BANK 1"
000010H   000017H   000008H   ---    AT..     DATA           "REG BANK 2"
000018H.0 00001FH.7 000008H.0 ---    ---      **GAP**
000020H.0 000020H.4 000000H.5 BIT    UNIT     BIT            ?BI?ACTIVITYFUNCTIONS
000020H.5 000021H.0 000000H.4 BIT    UNIT     BIT            _BIT_GROUP_
000021H.1 000021H   000000H.7 ---    ---      **GAP**
000022H   000022H   000001H   BYTE   UNIT     IDATA          ?STACK

* * * * * * * * * * *   C O D E   M E M O R Y   * * * * * * * * * * * * *
000000H   000002H   000003H   ---    OFFS..   CODE           ?CO??C_STARTUP?0
000003H   000009H   000007H   BYTE   UNIT     CODE           ?L?COM019E
00000AH   00000AH   000001H   ---    ---      **GAP**
00000BH   00000DH   000003H   BYTE   OFFS..   CODE           ?ACTIVITYFUNCTIONS?0000B
00000EH   000012H   000005H   BYTE   UNIT     CODE           ?PR?_SDCMD?LCD
000013H   000015H   000003H   BYTE   OFFS..   CODE           ?ACTIVITYFUNCTIONS?00013
000016H   000021H   00000CH   BYTE   UNIT     CODE           ?PR?_ABS?ABS
000022H   000022H   000001H   ---    ---      **GAP**
000023H   000025H   000003H   BYTE   OFFS..   CODE           ?ACTIVITYFUNCTIONS?00023
000026H   0056B5H   005690H   BYTE   UNIT     CODE           ?CO?LCD
0056B6H   005C7AH   0005C5H   BYTE   UNIT     CODE           ?C?LIB_CODE
005C7BH   005F9EH   000324H   BYTE   UNIT     CODE           ?C_INITSEG
005F9FH   006222H   000284H   BYTE   UNIT     CODE           ?CO?GUI
006223H   0062AEH   00008CH   BYTE   UNIT     CODE           ?C_C51STARTUP
0062AFH   0062F2H   000044H   BYTE   UNIT     CODE           ?C?LDIV
0062F3H   006308H   000016H   BYTE   UNIT     CODE           ?PR?_STC_IAP_BYTE_READ?STC_EEPROM
006309H   0063C3H   0000BBH   BYTE   UNIT     CODE           ?PR?MEM_FLASH_RECALL?ACTIVITYFUNCTIONS
0063C4H   006531H   00016EH   BYTE   UNIT     CODE           ?PR?_HMIENTERTOWORKSTATEFUNC?GUI
006532H   00655BH   00002AH   BYTE   UNIT     CODE           ?L?COM0005
00655CH   0065FAH   00009FH   BYTE   UNIT     CODE           ?PR?_LCD_SHOWSTRING?LCD
0065FBH   006779H   00017FH   BYTE   UNIT     CODE           ?PR?HMIPOSTFUNC?GUI
00677AH   006786H   00000DH   BYTE   UNIT     CODE           ?L?COM0072
006787H   006794H   00000EH   BYTE   UNIT     CODE           ?L?COM0057
006795H   0067ABH   000017H   BYTE   UNIT     CODE           ?L?COM0027
0067ACH   0067C2H   000017H   BYTE   UNIT     CODE           ?L?COM006B
0067C3H   0067DDH   00001BH   BYTE   UNIT     CODE           ?L?COM0015
0067DEH   0067F5H   000018H   BYTE   UNIT     CODE           ?L?COM001D
0067F6H   006806H   000011H   BYTE   UNIT     CODE           ?PR?_STC_IAP_BYTE_PROGRAM?STC_EEPROM
006807H   006812H   00000CH   BYTE   UNIT     CODE           ?PR?IAP_DISABLE?STC_EEPROM
006813H   00681FH   00000DH   BYTE   UNIT     CODE           ?PR?_STC_IAP_SECTOR_ERASE?STC_EEPROM
006820H   006826H   000007H   BYTE   UNIT     CODE           ?L?COM01A0
006827H   006839H   000013H   BYTE   UNIT     CODE           ?L?COM00B3
00683AH   0068A2H   000069H   BYTE   UNIT     CODE           ?PR?SETTING_WRITE_TO_FLASH?ACTIVITYFUNCTIONS
0068A3H   006909H   000067H   BYTE   UNIT     CODE           ?PR?HMINON_INVASIVESELFUNC?GUI
00690AH   006A3EH   000135H   BYTE   UNIT     CODE           ?PR?_DRAW_RECTANGLE?LCD
LX51 LINKER/LOCATER V4.66.1.0                                                         03/30/2019  12:53:22  PAGE 4


006A3FH   006BAAH   00016CH   BYTE   UNIT     CODE           ?PR?DRAWWORKWINDOWS?LCD
006BABH   006BB9H   00000FH   BYTE   UNIT     CODE           ?L?COM002D
006BBAH   006C5EH   0000A5H   BYTE   UNIT     CODE           ?PR?_DRAW_RECTANGLE_REAL?LCD
006C5FH   006F3AH   0002DCH   BYTE   UNIT     CODE           ?PR?HMISERVICEMODEFUNC?GUI
006F3BH   006F6CH   000032H   BYTE   UNIT     CODE           ?L?COM0011
006F6DH   006F88H   00001CH   BYTE   UNIT     CODE           ?PR?_DISP_RH14X24?LCD
006F89H   00703AH   0000B2H   BYTE   UNIT     CODE           ?PR?_DISP_MONO_GRAP?LCD
00703BH   00704EH   000014H   BYTE   UNIT     CODE           ?L?COM001A
00704FH   007671H   000623H   BYTE   UNIT     CODE           ?PR?HEATERPLATEWIRECONTROLFUNC?ACTIVITYFUNCTIONS
007672H   00768CH   00001BH   BYTE   UNIT     CODE           ?L?COM0001
00768DH   00773EH   0000B2H   BYTE   UNIT     CODE           ?PR?_LCD_SHOWXNUM?LCD
00773FH   00774AH   00000CH   BYTE   UNIT     CODE           ?L?COM0024
00774BH   007756H   00000CH   BYTE   UNIT     CODE           ?L?COM006E
007757H   007779H   000023H   BYTE   UNIT     CODE           ?L?COM004E
00777AH   007780H   000007H   BYTE   UNIT     CODE           ?L?COM00AE
007781H   007788H   000008H   BYTE   UNIT     CODE           ?L?COM00EC
007789H   00778FH   000007H   BYTE   UNIT     CODE           ?L?COM0156
007790H   007796H   000007H   BYTE   UNIT     CODE           ?L?COM0167
007797H   0077A3H   00000DH   BYTE   UNIT     CODE           ?L?COM00AF
0077A4H   0077AAH   000007H   BYTE   UNIT     CODE           ?L?COM0113
0077ABH   0077B1H   000007H   BYTE   UNIT     CODE           ?L?COM0143
0077B2H   0077B9H   000008H   BYTE   UNIT     CODE           ?L?COM00BB
0077BAH   0077C2H   000009H   BYTE   UNIT     CODE           ?L?COM011C
0077C3H   0077D0H   00000EH   BYTE   UNIT     CODE           ?L?COM007E
0077D1H   0077EDH   00001DH   BYTE   UNIT     CODE           ?L?COM0081
0077EEH   0077F4H   000007H   BYTE   UNIT     CODE           ?L?COM0137
0077F5H   007812H   00001EH   BYTE   UNIT     CODE           ?PR?_DELAY_US?DELAY
007813H   007A49H   000237H   BYTE   UNIT     CODE           ?PR?GETTEMP_HPCHAMBERFUNC?ACTIVITYFUNCTIONS
007A4AH   007A92H   000049H   BYTE   UNIT     CODE           ?PR?DS18B20_READBYTE?DS18B20
007A93H   007A9AH   000008H   BYTE   UNIT     CODE           ?L?COM00B2
007A9BH   007AECH   000052H   BYTE   UNIT     CODE           ?PR?_DS18B20_WRITEBYTE?DS18B20
007AEDH   007B3BH   00004FH   BYTE   UNIT     CODE           ?PR?SHT21_READ8BIT?SHT21
007B3CH   007B44H   000009H   BYTE   UNIT     CODE           ?L?COM00E6
007B45H   007B52H   00000EH   BYTE   UNIT     CODE           ?L?COM0069
007B53H   007B6AH   000018H   BYTE   UNIT     CODE           ?L?COM0067
007B6BH   007BD9H   00006FH   BYTE   UNIT     CODE           ?PR?_SHT21_WRITE8BIT?SHT21
007BDAH   007BE2H   000009H   BYTE   UNIT     CODE           ?L?COM0093
007BE3H   007BE9H   000007H   BYTE   UNIT     CODE           ?L?COM00FE
007BEAH   007BF5H   00000CH   BYTE   UNIT     CODE           ?PR?SHT21_START?SHT21
007BF6H   007BF9H   000004H   BYTE   UNIT     CODE           ?PR?SHT21_WRITETEMP?SHT21
007BFAH   007C08H   00000FH   BYTE   UNIT     CODE           ?L?COM0109
007C09H   007C0EH   000006H   BYTE   UNIT     CODE           ?PR?SHT21_WRITERH?SHT21
007C0FH   007F52H   000344H   BYTE   UNIT     CODE           ?PR?GETTEMPHUMIDITY_PATIENTFUNC?ACTIVITYFUNCTIONS
007F53H   007F58H   000006H   BYTE   UNIT     CODE           ?L?COM00C7
007F59H   007F62H   00000AH   BYTE   UNIT     CODE           ?L?COM0074
007F63H   007F6BH   000009H   BYTE   UNIT     CODE           ?L?COM00EA
007F6CH   007F7BH   000010H   BYTE   UNIT     CODE           ?L?COM00DE
007F7CH   007F8AH   00000FH   BYTE   UNIT     CODE           ?PR?SHT21_STOP?SHT21
007F8BH   007F9FH   000015H   BYTE   UNIT     CODE           ?PR?IC_STOP?RX8010
007FA0H   007FA7H   000008H   BYTE   UNIT     CODE           ?L?COM0190
007FA8H   007FAEH   000007H   BYTE   UNIT     CODE           ?L?COM01F5
007FAFH   007FBAH   00000CH   BYTE   UNIT     CODE           ?L?COM011E
007FBBH   007FC0H   000006H   BYTE   UNIT     CODE           ?L?COM00CF
007FC1H   007FC7H   000007H   BYTE   UNIT     CODE           ?L?COM01F7
007FC8H   007FCFH   000008H   BYTE   UNIT     CODE           ?L?COM01F6
007FD0H   007FD8H   000009H   BYTE   UNIT     CODE           ?L?COM01CD
007FD9H   007FE2H   00000AH   BYTE   UNIT     CODE           ?L?COM0128
007FE3H   007FECH   00000AH   BYTE   UNIT     CODE           ?L?COM0193
007FEDH   007FF7H   00000BH   BYTE   UNIT     CODE           ?L?COM0183
007FF8H   008011H   00001AH   BYTE   UNIT     CODE           ?PR?_DELAY_MS?DELAY
008012H   008027H   000016H   BYTE   UNIT     CODE           ?PR?MAIN_TIK_TOK_INITIAL_FUN?MAIN_TIK_TOK
008028H   008082H   00005BH   BYTE   UNIT     CODE           ?PR?MAIN?MAIN
008083H   0081F3H   000171H   BYTE   UNIT     CODE           ?PR?MANAGETASK?NORMAL_TASK
0081F4H   0081FFH   00000CH   BYTE   UNIT     CODE           ?PR?_WS_SETTASKIFG?WS_TASK_MANAGE
008200H   0082E9H   0000EAH   BYTE   UNIT     CODE           ?PR?INIT_PORT?ACTIVITYFUNCTIONS
LX51 LINKER/LOCATER V4.66.1.0                                                         03/30/2019  12:53:22  PAGE 5


0082EAH   0083C4H   0000DBH   BYTE   UNIT     CODE           ?PR?LCD_INITIAL?LCD
0083C5H   0083CFH   00000BH   BYTE   UNIT     CODE           ?L?COM018A
0083D0H   008400H   000031H   BYTE   UNIT     CODE           ?PR?_SDDATA?LCD
008401H   008428H   000028H   BYTE   UNIT     CODE           ?PR?_LCD_DRAWPOINT?LCD
008429H   00843BH   000013H   BYTE   UNIT     CODE           ?PR?_LCD_CTRLWRITE_COLOR?LCD
00843CH   00845AH   00001FH   BYTE   UNIT     CODE           ?PR?_LCD_CTRLWRITE_ILI9328?LCD
00845BH   008544H   0000EAH   BYTE   UNIT     CODE           ?PR?_DRAW_CIRCLE?LCD
008545H   00856AH   000026H   BYTE   UNIT     CODE           ?L?COM0043
00856BH   00856FH   000005H   BYTE   UNIT     CODE           ?L?COM012E
008570H   00857CH   00000DH   BYTE   UNIT     CODE           ?L?COM00F4
00857DH   0085A6H   00002AH   BYTE   UNIT     CODE           ?PR?_DISP_FNT10X24?LCD
0085A7H   0086FBH   000155H   BYTE   UNIT     CODE           ?PR?_DISP_FNT12X24?LCD
0086FCH   008722H   000027H   BYTE   UNIT     CODE           ?PR?_LCD_CRTLWRITE_AREA?LCD
008723H   00872AH   000008H   BYTE   UNIT     CODE           ?L?COM012B
00872BH   008737H   00000DH   BYTE   UNIT     CODE           ?L?COM00CB
008738H   008743H   00000CH   BYTE   UNIT     CODE           ?L?COM00F2
008744H   00874BH   000008H   BYTE   UNIT     CODE           ?L?COM0185
00874CH   008753H   000008H   BYTE   UNIT     CODE           ?L?COM01BB
008754H   008760H   00000DH   BYTE   UNIT     CODE           ?L?COM00FC
008761H   008768H   000008H   BYTE   UNIT     CODE           ?L?COM0111
008769H   008770H   000008H   BYTE   UNIT     CODE           ?L?COM0172
008771H   008778H   000008H   BYTE   UNIT     CODE           ?L?COM0173
008779H   00877FH   000007H   BYTE   UNIT     CODE           ?L?COM01BA
008780H   00878BH   00000CH   BYTE   UNIT     CODE           ?L?COM0159
00878CH   008799H   00000EH   BYTE   UNIT     CODE           ?L?COM00E8
00879AH   0087BCH   000023H   BYTE   UNIT     CODE           ?L?COM005D
0087BDH   0087EBH   00002FH   BYTE   UNIT     CODE           ?L?COM0036
0087ECH   0087F2H   000007H   BYTE   UNIT     CODE           ?L?COM01A2
0087F3H   00881AH   000028H   BYTE   UNIT     CODE           ?PR?TIMER_T0_INT_MAIN?MAIN_TIK_TOK
00881BH   00881FH   000005H   BYTE   UNIT     CODE           ?PR?MAIN_TIK_FUNCTIONS?MAIN_TIK_FUNCTION
008820H   008924H   000105H   BYTE   UNIT     CODE           ?PR?HEATERPLATEWIREDRIVEFBTASK?ACTIVITYFUNCTIONS
008925H   008932H   00000EH   BYTE   UNIT     CODE           ?PR?SUB_TIK_FUNCTIONS?SUB_TIK_FUNCTION
008933H   008945H   000013H   BYTE   UNIT     CODE           ?PR?HMISCREENSAVERMODE_TIK_CNT?GUI
008946H   008952H   00000DH   BYTE   UNIT     CODE           ?PR?KEY_UP_TIKFUNC?KEY_DATAS
008953H   00895FH   00000DH   BYTE   UNIT     CODE           ?PR?KEY_DOWN_TIKFUNC?KEY_DATAS
008960H   00896CH   00000DH   BYTE   UNIT     CODE           ?PR?KEY_OK_TIKFUNC?KEY_DATAS
00896DH   008979H   00000DH   BYTE   UNIT     CODE           ?PR?KEY_MUTE_TIKFUNC?KEY_DATAS
00897AH   008986H   00000DH   BYTE   UNIT     CODE           ?PR?HMIPOSTFUNC_TIK_CNT?GUI
008987H   008993H   00000DH   BYTE   UNIT     CODE           ?PR?HMINON_INVASIVESEL_TIK_CNT?GUI
008994H   0089ACH   000019H   BYTE   UNIT     CODE           ?PR?HMIFACTORYDEFAULT_TIK_CNT?GUI
0089ADH   0089DEH   000032H   BYTE   UNIT     CODE           ?PR?SOUND_TYPE_DRIVE?SOUND_TYPE
0089DFH   0089F1H   000013H   BYTE   UNIT     CODE           ?PR?_WS_DELTASKIFG?WS_TASK_MANAGE
0089F2H   008A75H   000084H   BYTE   UNIT     CODE           ?PR?KEYSCANTASK?NORMAL_TASK
008A76H   008B4BH   0000D6H   BYTE   UNIT     CODE           ?PR?KEY_MULTIFUN?KEY_MULTIFUN
008B4CH   008B5FH   000014H   BYTE   UNIT     CODE           ?L?COM0084
008B60H   008B68H   000009H   BYTE   UNIT     CODE           ?L?COM0120
008B69H   008B72H   00000AH   BYTE   UNIT     CODE           ?L?COM0108
008B73H   008B80H   00000EH   BYTE   UNIT     CODE           ?L?COM00CD
008B81H   008B8CH   00000CH   BYTE   UNIT     CODE           ?L?COM0130
008B8DH   008B95H   000009H   BYTE   UNIT     CODE           ?L?COM01BE
008B96H   008B9EH   000009H   BYTE   UNIT     CODE           ?L?COM01BF
008B9FH   008BA4H   000006H   BYTE   UNIT     CODE           ?L?COM0157
008BA5H   008C94H   0000F0H   BYTE   UNIT     CODE           ?PR?_DISPLAYTIME?GUI
008C95H   008CA0H   00000CH   BYTE   UNIT     CODE           ?L?COM0063
008CA1H   008CB5H   000015H   BYTE   UNIT     CODE           ?L?COM0047
008CB6H   008CE4H   00002FH   BYTE   UNIT     CODE           ?PR?_DISP_TIME_10X16?LCD
008CE5H   008F0CH   000228H   BYTE   UNIT     CODE           ?PR?HMISETTIMEFUNC?GUI
008F0DH   008F15H   000009H   BYTE   UNIT     CODE           ?L?COM008F
008F16H   008F5FH   00004AH   BYTE   UNIT     CODE           ?PR?REFRESHRTCTIMEFUNC?ACTIVITYFUNCTIONS
008F60H   008F66H   000007H   BYTE   UNIT     CODE           ?L?COM0112
008F67H   008F6DH   000007H   BYTE   UNIT     CODE           ?L?COM0141
008F6EH   008F78H   00000BH   BYTE   UNIT     CODE           ?L?COM00B7
008F79H   008F83H   00000BH   BYTE   UNIT     CODE           ?L?COM00B8
008F84H   008F91H   00000EH   BYTE   UNIT     CODE           ?PR?HMISETTIMETASK?NORMAL_TASK
008F92H   008FA5H   000014H   BYTE   UNIT     CODE           ?L?COM00B5
LX51 LINKER/LOCATER V4.66.1.0                                                         03/30/2019  12:53:22  PAGE 6


008FA6H   008FABH   000006H   BYTE   UNIT     CODE           ?L?COM0195
008FACH   008FB1H   000006H   BYTE   UNIT     CODE           ?L?COM0196
008FB2H   008FB7H   000006H   BYTE   UNIT     CODE           ?L?COM0197
008FB8H   008FBDH   000006H   BYTE   UNIT     CODE           ?L?COM0198
008FBEH   008FC3H   000006H   BYTE   UNIT     CODE           ?L?COM005C
008FC4H   008FD9H   000016H   BYTE   UNIT     CODE           ?PR?_WS_TASKJUDGE?WS_TASK_MANAGE
008FDAH   008FE8H   00000FH   BYTE   UNIT     CODE           ?PR?HMISERVICEMODETASK?NORMAL_TASK
008FE9H   008FF0H   000008H   BYTE   UNIT     CODE           ?L?COM0117
008FF1H   009007H   000017H   BYTE   UNIT     CODE           ?L?COM009C
009008H   009018H   000011H   BYTE   UNIT     CODE           ?PR?HMIPOSTTASK?NORMAL_TASK
009019H   009028H   000010H   BYTE   UNIT     CODE           ?PR?HMIFACTORYDEFAULTSELTASK?NORMAL_TASK
009029H   00932DH   000305H   BYTE   UNIT     CODE           ?PR?HMIFACTORYDEFAULTFUNC?GUI
00932EH   00935DH   000030H   BYTE   UNIT     CODE           ?L?COM0032
00935EH   009377H   00001AH   BYTE   UNIT     CODE           ?L?COM0054
009378H   00937EH   000007H   BYTE   UNIT     CODE           ?L?COM015A
00937FH   009387H   000009H   BYTE   UNIT     CODE           ?L?COM00E2
009388H   00939DH   000016H   BYTE   UNIT     CODE           ?L?COM00A4
00939EH   0093C1H   000024H   BYTE   UNIT     CODE           ?PR?_DISP_ICO_40X40?LCD
0093C2H   0093C9H   000008H   BYTE   UNIT     CODE           ?L?COM0121
0093CAH   0093D1H   000008H   BYTE   UNIT     CODE           ?L?COM014C
0093D2H   0093DAH   000009H   BYTE   UNIT     CODE           ?L?COM01A4
0093DBH   0093E6H   00000CH   BYTE   UNIT     CODE           ?L?COM015E
0093E7H   0093F2H   00000CH   BYTE   UNIT     CODE           ?L?COM016F
0093F3H   009402H   000010H   BYTE   UNIT     CODE           ?L?COM007A
009403H   009582H   000180H   BYTE   UNIT     CODE           ?PR?HMISETTEMPPATIENTFUNC?GUI
009583H   009590H   00000EH   BYTE   UNIT     CODE           ?L?COM00D7
009591H   0095C5H   000035H   BYTE   UNIT     CODE           ?PR?_DISP_ICO_32X40?LCD
0095C6H   0096F6H   000131H   BYTE   UNIT     CODE           ?PR?HMISETTEMPCHAMBERFUNC?GUI
0096F7H   0096FFH   000009H   BYTE   UNIT     CODE           ?L?COM00C8
009700H   00970BH   00000CH   BYTE   UNIT     CODE           ?L?COM0094
00970CH   009713H   000008H   BYTE   UNIT     CODE           ?L?COM00E9
009714H   00971BH   000008H   BYTE   UNIT     CODE           ?L?COM0140
00971CH   009728H   00000DH   BYTE   UNIT     CODE           ?PR?SOUND_SHORT?SOUND_TYPE
009729H   00972FH   000007H   BYTE   UNIT     CODE           ?L?COM016C
009730H   009736H   000007H   BYTE   UNIT     CODE           ?L?COM01A3
009737H   00973EH   000008H   BYTE   UNIT     CODE           ?L?COM016B
00973FH   009746H   000008H   BYTE   UNIT     CODE           ?L?COM016E
009747H   00974EH   000008H   BYTE   UNIT     CODE           ?L?COM01BD
00974FH   009756H   000008H   BYTE   UNIT     CODE           ?L?COM01DA
009757H   009760H   00000AH   BYTE   UNIT     CODE           ?L?COM00D0
009761H   00976AH   00000AH   BYTE   UNIT     CODE           ?L?COM0125
00976BH   00977BH   000011H   BYTE   UNIT     CODE           ?L?COM0099
00977CH   009795H   00001AH   BYTE   UNIT     CODE           ?L?COM002A
009796H   0097B6H   000021H   BYTE   UNIT     CODE           ?PR?_DISP_DHM?LCD
0097B7H   0097D8H   000022H   BYTE   UNIT     CODE           ?PR?_DISP_ICO_52X64?LCD
0097D9H   0097E0H   000008H   BYTE   UNIT     CODE           ?L?COM016D
0097E1H   0097E8H   000008H   BYTE   UNIT     CODE           ?L?COM018D
0097E9H   0097F0H   000008H   BYTE   UNIT     CODE           ?L?COM01CE
0097F1H   009801H   000011H   BYTE   UNIT     CODE           ?PR?HMINON_INVASIVESELTASK?NORMAL_TASK
009802H   009811H   000010H   BYTE   UNIT     CODE           ?PR?HMIRUNNINGTASK?NORMAL_TASK
009812H   00996CH   00015BH   BYTE   UNIT     CODE           ?PR?HMIRUNNINGFUNC?GUI
00996DH   009B34H   0001C8H   BYTE   UNIT     CODE           ?PR?_REFRESHTEMPHUMIDYFUNC?ACTIVITYFUNCTIONS
009B35H   009B61H   00002DH   BYTE   UNIT     CODE           ?L?COM000A
009B62H   009CFDH   00019CH   BYTE   UNIT     CODE           ?PR?SERVICEMODE_TEMPHUMIDY_DISP?ACTIVITYFUNCTIONS
009CFEH   009D26H   000029H   BYTE   UNIT     CODE           ?PR?_DISP_RH_17X40?LCD
009D27H   009D3AH   000014H   BYTE   UNIT     CODE           ?L?COM0021
009D3BH   009D63H   000029H   BYTE   UNIT     CODE           ?PR?_DISP_TEMP_30X56?LCD
009D64H   009D79H   000016H   BYTE   UNIT     CODE           ?L?COM0051
009D7AH   009D85H   00000CH   BYTE   UNIT     CODE           ?L?COM007F
009D86H   009DB0H   00002BH   BYTE   UNIT     CODE           ?PR?_DISPLAY_SET_TEMP?GUI
009DB1H   009DD2H   000022H   BYTE   UNIT     CODE           ?L?COM003B
009DD3H   009EC5H   0000F3H   BYTE   UNIT     CODE           ?PR?HMISCREENSAVERMODEFUNC?GUI
009EC6H   009F01H   00003CH   BYTE   UNIT     CODE           ?PR?_DISP_TEMP_38X64?LCD
009F02H   009F16H   000015H   BYTE   UNIT     CODE           ?L?COM0070
009F17H   009F1DH   000007H   BYTE   UNIT     CODE           ?L?COM0192
LX51 LINKER/LOCATER V4.66.1.0                                                         03/30/2019  12:53:22  PAGE 7


009F1EH   009F25H   000008H   BYTE   UNIT     CODE           ?L?COM013F
009F26H   009F2DH   000008H   BYTE   UNIT     CODE           ?L?COM0181
009F2EH   009F35H   000008H   BYTE   UNIT     CODE           ?L?COM013E
009F36H   009F3DH   000008H   BYTE   UNIT     CODE           ?L?COM0150
009F3EH   009F56H   000019H   BYTE   UNIT     CODE           ?L?COM0077
009F57H   009F5DH   000007H   BYTE   UNIT     CODE           ?L?COM01B6
009F5EH   009F68H   00000BH   BYTE   UNIT     CODE           ?L?COM00A6
009F69H   009F74H   00000CH   BYTE   UNIT     CODE           ?L?COM0123
009F75H   009F84H   000010H   BYTE   UNIT     CODE           ?L?COM00A8
009F85H   009F94H   000010H   BYTE   UNIT     CODE           ?L?COM00EE
009F95H   009FA8H   000014H   BYTE   UNIT     CODE           ?L?COM00BC
009FA9H   009FB0H   000008H   BYTE   UNIT     CODE           ?L?COM01CF
009FB1H   009FB8H   000008H   BYTE   UNIT     CODE           ?L?COM01DC
009FB9H   009FC0H   000008H   BYTE   UNIT     CODE           ?L?COM01F8
009FC1H   009FC9H   000009H   BYTE   UNIT     CODE           ?L?COM011A
009FCAH   009FD3H   00000AH   BYTE   UNIT     CODE           ?L?COM01AC
009FD4H   009FE1H   00000EH   BYTE   UNIT     CODE           ?L?COM0155
009FE2H   009FF1H   000010H   BYTE   UNIT     CODE           ?L?COM00FA
009FF2H   00A002H   000011H   BYTE   UNIT     CODE           ?PR?HMISETTEMPPATIENTTASK?NORMAL_TASK
00A003H   00A013H   000011H   BYTE   UNIT     CODE           ?PR?HMISETTEMPCHAMBERTASK?NORMAL_TASK
00A014H   00A023H   000010H   BYTE   UNIT     CODE           ?PR?HMISETINEXPTASK?NORMAL_TASK
00A024H   00A0F7H   0000D4H   BYTE   UNIT     CODE           ?PR?HMISETINEXPFUNC?GUI
00A0F8H   00A171H   00007AH   BYTE   UNIT     CODE           ?PR?_DISPLAY_IN_EXP_RATIO?GUI
00A172H   00A17EH   00000DH   BYTE   UNIT     CODE           ?L?COM010C
00A17FH   00A186H   000008H   BYTE   UNIT     CODE           ?L?COM01D7
00A187H   00A18FH   000009H   BYTE   UNIT     CODE           ?L?COM0119
00A190H   00A1E0H   000051H   BYTE   UNIT     CODE           ?PR?LCD_SHOW_VERION?LCD
00A1E1H   00A1EAH   00000AH   BYTE   UNIT     CODE           ?L?COM010E
00A1EBH   00A1F2H   000008H   BYTE   UNIT     CODE           ?L?COM01D9
00A1F3H   00A1FAH   000008H   BYTE   UNIT     CODE           ?L?COM01DE
00A1FBH   00A207H   00000DH   BYTE   UNIT     CODE           ?PR?ENTERSETINEXP?GUI
00A208H   00A218H   000011H   BYTE   UNIT     CODE           ?PR?HMISCREENSAVERMODETASK?NORMAL_TASK
00A219H   00A229H   000011H   BYTE   UNIT     CODE           ?PR?GETTEMP_HPCHAMBERTASK?NORMAL_TASK
00A22AH   00A23AH   000011H   BYTE   UNIT     CODE           ?PR?GETTEMPHUMIDITY_PATIENTTASK?NORMAL_TASK
00A23BH   00A24DH   000013H   BYTE   UNIT     CODE           ?PR?REFRESHTEMPHUMIDYTASK?NORMAL_TASK
00A24EH   00A25FH   000012H   BYTE   UNIT     CODE           ?PR?REFRESHRUNTIMETASK?NORMAL_TASK
00A260H   00A309H   0000AAH   BYTE   UNIT     CODE           ?PR?_REFRESHRUNTIMEFUNC?ACTIVITYFUNCTIONS
00A30AH   00A317H   00000EH   BYTE   UNIT     CODE           ?L?COM008A
00A318H   00A31EH   000007H   BYTE   UNIT     CODE           ?L?COM01B5
00A31FH   00A325H   000007H   BYTE   UNIT     CODE           ?L?COM0103
00A326H   00A379H   000054H   BYTE   UNIT     CODE           ?PR?_RX8010_GETTIME?RX8010
00A37AH   00A381H   000008H   BYTE   UNIT     CODE           ?L?COM01C1
00A382H   00A3FBH   00007AH   BYTE   UNIT     CODE           ?PR?_READEEONE?RX8010
00A3FCH   00A457H   00005CH   BYTE   UNIT     CODE           ?PR?_IC_WRITEBYTE?RX8010
00A458H   00A4A5H   00004EH   BYTE   UNIT     CODE           ?PR?_WRITEEEONE?RX8010
00A4A6H   00A558H   0000B3H   BYTE   UNIT     CODE           ?PR?RX8010_INITIALIZE?RX8010
00A559H   00A562H   00000AH   BYTE   UNIT     CODE           ?L?COM00AA
00A563H   00A569H   000007H   BYTE   UNIT     CODE           ?L?COM0110
00A56AH   00A5BCH   000053H   BYTE   UNIT     CODE           ?PR?_RX8010_SETTIME?RX8010
00A5BDH   00A5C4H   000008H   BYTE   UNIT     CODE           ?L?COM0147
00A5C5H   00A5CFH   00000BH   BYTE   UNIT     CODE           ?L?COM00D9
00A5D0H   00A5E6H   000017H   BYTE   UNIT     CODE           ?PR?IC_START?RX8010
00A5E7H   00A62FH   000049H   BYTE   UNIT     CODE           ?PR?IC_READBYTE?RX8010
00A630H   00A640H   000011H   BYTE   UNIT     CODE           ?L?COM011B
00A641H   00A786H   000146H   BYTE   UNIT     CODE           ?PR?SAVEDATETOFLASHFUNC?ACTIVITYFUNCTIONS
00A787H   00A796H   000010H   BYTE   UNIT     CODE           ?L?COM00F6
00A797H   00A7A0H   00000AH   BYTE   UNIT     CODE           ?L?COM013C
00A7A1H   00A7AAH   00000AH   BYTE   UNIT     CODE           ?L?COM01AF
00A7ABH   00A7B9H   00000FH   BYTE   UNIT     CODE           ?L?COM0149
00A7BAH   00A7CEH   000015H   BYTE   UNIT     CODE           ?L?COM00E4
00A7CFH   00A7D5H   000007H   BYTE   UNIT     CODE           ?L?COM01A8
00A7D6H   00A7DCH   000007H   BYTE   UNIT     CODE           ?L?COM01B0
00A7DDH   00A7E4H   000008H   BYTE   UNIT     CODE           ?L?COM01E0
00A7E5H   00A7ECH   000008H   BYTE   UNIT     CODE           ?L?COM01E2
00A7EDH   00A80BH   00001FH   BYTE   UNIT     CODE           ?PR?REFRESHRTCTIMETASK?NORMAL_TASK
LX51 LINKER/LOCATER V4.66.1.0                                                         03/30/2019  12:53:22  PAGE 8


00A80CH   00A81CH   000011H   BYTE   UNIT     CODE           ?PR?HEATERWIRECONTROLTASK?NORMAL_TASK
00A81DH   00A82CH   000010H   BYTE   UNIT     CODE           ?PR?LOWPOWERMODETASK?NORMAL_TASK
00A82DH   00A896H   00006AH   BYTE   UNIT     CODE           ?PR?LOWPOWERMODEFUNC?ACTIVITYFUNCTIONS
00A897H   00A89EH   000008H   BYTE   UNIT     CODE           ?L?COM0179
00A89FH   00ADD1H   000533H   BYTE   UNIT     CODE           ?PR?ALARMERRORFUNC?ACTIVITYFUNCTIONS
00ADD2H   00ADD8H   000007H   BYTE   UNIT     CODE           ?L?COM00D4
00ADD9H   00ADE2H   00000AH   BYTE   UNIT     CODE           ?L?COM0092
00ADE3H   00AE48H   000066H   BYTE   UNIT     CODE           ?PR?_DISP_VHB80_PIC?LCD
00AE49H   00AE5AH   000012H   BYTE   UNIT     CODE           ?PR?_DISP_JQK41X16?LCD
00AE5BH   00AE61H   000007H   BYTE   UNIT     CODE           ?L?COM015B
00AE62H   00AE71H   000010H   BYTE   UNIT     CODE           ?L?COM008C
00AE72H   00AE78H   000007H   BYTE   UNIT     CODE           ?L?COM0158
00AE79H   00AE80H   000008H   BYTE   UNIT     CODE           ?L?COM0144
00AE81H   00AE8AH   00000AH   BYTE   UNIT     CODE           ?L?COM00F8
00AE8BH   00AE91H   000007H   BYTE   UNIT     CODE           ?L?COM01A1
00AE92H   00AE98H   000007H   BYTE   UNIT     CODE           ?L?COM01B1
00AE99H   00AE9FH   000007H   BYTE   UNIT     CODE           ?L?COM01B3
00AEA0H   00AEA7H   000008H   BYTE   UNIT     CODE           ?L?COM016A
00AEA8H   00AEAFH   000008H   BYTE   UNIT     CODE           ?L?COM017B
00AEB0H   00AEB7H   000008H   BYTE   UNIT     CODE           ?L?COM01EF
00AEB8H   00AEBFH   000008H   BYTE   UNIT     CODE           ?L?COM01F0
00AEC0H   00AEC8H   000009H   BYTE   UNIT     CODE           ?L?COM01CA
00AEC9H   00AED1H   000009H   BYTE   UNIT     CODE           ?L?COM01CB
00AED2H   00AEDCH   00000BH   BYTE   UNIT     CODE           ?L?COM018F
00AEDDH   00AEE9H   00000DH   BYTE   UNIT     CODE           ?L?COM0164
00AEEAH   00AEF6H   00000DH   BYTE   UNIT     CODE           ?L?COM0165
00AEF7H   00AF08H   000012H   BYTE   UNIT     CODE           ?PR?_DISP_HEAT_36X24?LCD
00AF09H   00AF0FH   000007H   BYTE   UNIT     CODE           ?L?COM0106
00AF10H   00AF21H   000012H   BYTE   UNIT     CODE           ?PR?_DISP_VHB80_56X40?LCD
00AF22H   00AF2BH   00000AH   BYTE   UNIT     CODE           ?L?COM0091
00AF2CH   00AF43H   000018H   BYTE   UNIT     CODE           ?PR?_DISP_CQK25X24?LCD
00AF44H   00AF5BH   000018H   BYTE   UNIT     CODE           ?PR?_DISP_RTD28X24?LCD
00AF5CH   00AF6DH   000012H   BYTE   UNIT     CODE           ?PR?_DISP_YOUCHUANG?LCD
00AF6EH   00AF85H   000018H   BYTE   UNIT     CODE           ?PR?_DISP_WUCHUANG?LCD
00AF86H   00AFA9H   000024H   BYTE   UNIT     CODE           ?PR?REFRESH_WORK_MODE?LCD
00AFAAH   00AFB0H   000007H   BYTE   UNIT     CODE           ?L?COM0194
00AFB1H   00AFB7H   000007H   BYTE   UNIT     CODE           ?L?COM01A5
00AFB8H   00AFBEH   000007H   BYTE   UNIT     CODE           ?L?COM01DB
00AFBFH   00AFC6H   000008H   BYTE   UNIT     CODE           ?L?COM01EB
00AFC7H   00AFCEH   000008H   BYTE   UNIT     CODE           ?L?COM01F1
00AFCFH   00AFD7H   000009H   BYTE   UNIT     CODE           ?L?COM01C8
00AFD8H   00AFE4H   00000DH   BYTE   UNIT     CODE           ?PR?SOUND_ALARM_PAUSE_DISABLE?SOUND_TYPE
00AFE5H   00AFF0H   00000CH   BYTE   UNIT     CODE           ?L?COM015F
00AFF1H   00B000H   000010H   BYTE   UNIT     CODE           ?PR?HEATERWIREMODEDETTASK?NORMAL_TASK
00B001H   00B04AH   00004AH   BYTE   UNIT     CODE           ?PR?HEATERWIREMODEDETFUNC?ACTIVITYFUNCTIONS
00B04BH   00B05BH   000011H   BYTE   UNIT     CODE           ?PR?ALARMERRORTASK?NORMAL_TASK
00B05CH   00B06BH   000010H   BYTE   UNIT     CODE           ?PR?LOWTEMPDET1STASK?NORMAL_TASK
00B06CH   00B335H   0002CAH   BYTE   UNIT     CODE           ?PR?LOWTEMPDET1SFUNC?ACTIVITYFUNCTIONS
00B336H   00B33DH   000008H   BYTE   UNIT     CODE           ?L?COM01D0
00B33EH   00B345H   000008H   BYTE   UNIT     CODE           ?L?COM01EC
00B346H   00B34DH   000008H   BYTE   UNIT     CODE           ?L?COM01ED
00B34EH   00B355H   000008H   BYTE   UNIT     CODE           ?L?COM01EE
00B356H   00B35EH   000009H   BYTE   UNIT     CODE           ?L?COM01C9
00B35FH   00B36CH   00000EH   BYTE   UNIT     CODE           ?L?COM007C
00B36DH   00B373H   000007H   BYTE   UNIT     CODE           ?L?COM00FD
00B374H   00B466H   0000F3H   BYTE   UNIT     CODE           ?PR?_DISP_FNT8X16?LCD
00B467H   00B46EH   000008H   BYTE   UNIT     CODE           ?L?COM0174
00B46FH   00B47DH   00000FH   BYTE   UNIT     CODE           ?L?COM0059
00B47EH   00B4A9H   00002CH   BYTE   UNIT     CODE           ?PR?_LCD_SHOWCHAR?LCD
00B4AAH   00B4BBH   000012H   BYTE   UNIT     CODE           ?L?COM012A
00B4BCH   00B4CEH   000013H   BYTE   UNIT     CODE           ?L?COM00F0
00B4CFH   00B4E2H   000014H   BYTE   UNIT     CODE           ?L?COM010B
00B4E3H   00B5BEH   0000DCH   BYTE   UNIT     CODE           ?PR?HEATPLATE_PID_CALC?ACTIVITYFUNCTIONS
00B5BFH   00B5C9H   00000BH   BYTE   UNIT     CODE           ?L?COM0098
00B5CAH   00B6B9H   0000F0H   BYTE   UNIT     CODE           ?PR?HEATPLATETEMP_AIM_PID_CALC?ACTIVITYFUNCTIONS
LX51 LINKER/LOCATER V4.66.1.0                                                         03/30/2019  12:53:22  PAGE 9


00B6BAH   00B6C2H   000009H   BYTE   UNIT     CODE           ?L?COM00C2
00B6C3H   00B788H   0000C6H   BYTE   UNIT     CODE           ?PR?PID_CALC?ACTIVITYFUNCTIONS
00B789H   00B790H   000008H   BYTE   UNIT     CODE           ?L?COM011D
00B791H   00B798H   000008H   BYTE   UNIT     CODE           ?L?COM013B
00B799H   00B7A0H   000008H   BYTE   UNIT     CODE           ?L?COM0178
00B7A1H   00B7AAH   00000AH   BYTE   UNIT     CODE           ?L?COM013A
00B7ABH   00B7B9H   00000FH   BYTE   UNIT     CODE           ?L?COM00DD
00B7BAH   00B7CFH   000016H   BYTE   UNIT     CODE           ?L?COM00C4
00B7D0H   00B7D6H   000007H   BYTE   UNIT     CODE           ?L?COM019C
00B7D7H   00B7DEH   000008H   BYTE   UNIT     CODE           ?L?COM01E9
00B7DFH   00B7E6H   000008H   BYTE   UNIT     CODE           ?L?COM01EA
00B7E7H   00B7EDH   000007H   BYTE   UNIT     CODE           ?L?COM01AE
00B7EEH   00B7FAH   00000DH   BYTE   UNIT     CODE           ?L?COM0161
00B7FBH   00B80BH   000011H   BYTE   UNIT     CODE           ?PR?SAVEDATETOFLASHTASK?NORMAL_TASK
00B80CH   00B81BH   000010H   BYTE   UNIT     CODE           ?PR?UARTRECTASK?NORMAL_TASK
00B81CH   00B911H   0000F6H   BYTE   UNIT     CODE           ?PR?UART_RECDATA_FUNC?ACTIVITYFUNCTIONS
00B912H   00B91BH   00000AH   BYTE   UNIT     CODE           ?L?COM0136
00B91CH   00B925H   00000AH   BYTE   UNIT     CODE           ?L?COM01B7
00B926H   00B930H   00000BH   BYTE   UNIT     CODE           ?PR?UART_RECBUF_CLEAR_FUN?ACTIVITYFUNCTIONS
00B931H   00B986H   000056H   BYTE   UNIT     CODE           ?PR?_SPI_READ_NBYTES?W25X
00B987H   00B9AFH   000029H   BYTE   UNIT     CODE           ?PR?_SPI_SEND_BYTE?W25X
00B9B0H   00B9F5H   000046H   BYTE   UNIT     CODE           ?PR?_SPI_WRITE_NBYTES?W25X
00B9F6H   00BA13H   00001EH   BYTE   UNIT     CODE           ?PR?_SPI_ERASE_SECTOR?W25X
00BA14H   00BA1FH   00000CH   BYTE   UNIT     CODE           ?L?COM00E7
00BA20H   00BA28H   000009H   BYTE   UNIT     CODE           ?PR?SPI_WRITE_ENABLE?W25X
00BA29H   00BA32H   00000AH   BYTE   UNIT     CODE           ?L?COM0187
00BA33H   00BA84H   000052H   BYTE   UNIT     CODE           ?L?COM0039
00BA85H   00BB7FH   0000FBH   BYTE   UNIT     CODE           ?PR?GET_RUNCOUNT?ACTIVITYFUNCTIONS
00BB80H   00BB86H   000007H   BYTE   UNIT     CODE           ?L?COM01B4
00BB87H   00BB8FH   000009H   BYTE   UNIT     CODE           ?L?COM01B8
00BB90H   00BB9CH   00000DH   BYTE   UNIT     CODE           ?L?COM0166
00BB9DH   00BBA8H   00000CH   BYTE   UNIT     CODE           ?L?COM0138
00BBA9H   00BC5EH   0000B6H   BYTE   UNIT     CODE           ?PR?SHT21_READDATA?SHT21
00BC5FH   00BC6CH   00000EH   BYTE   UNIT     CODE           ?L?COM00B9
00BC6DH   00BC79H   00000DH   BYTE   UNIT     CODE           ?L?COM0160
00BC7AH   00BC8EH   000015H   BYTE   UNIT     CODE           ?L?COM0096
00BC8FH   00BCA7H   000019H   BYTE   UNIT     CODE           ?PR?_EUSART_WRITE_STR?UART_FUN
00BCA8H   00BCADH   000006H   BYTE   UNIT     CODE           ?PR?_EUSART_WRITE?UART_FUN
00BCAEH   00BCB7H   00000AH   BYTE   UNIT     CODE           ?PR?_SEND_CHAR_COM?UART_FUN
00BCB8H   00BCC2H   00000BH   BYTE   UNIT     CODE           ?L?COM00BE
00BCC3H   00BCFEH   00003CH   BYTE   UNIT     CODE           ?PR?_SHT2X_CHECKCRC?SHT21
00BCFFH   00BD19H   00001BH   BYTE   UNIT     CODE           ?PR?EUSART_READ?UART_FUN
00BD1AH   00BD72H   000059H   BYTE   UNIT     CODE           ?PR?MAIN_INIT?ACTIVITYFUNCTIONS
00BD73H   00BDE9H   000077H   BYTE   UNIT     CODE           ?PR?_DS18B20_CHECKCRC?DS18B20
00BDEAH   00BDF1H   000008H   BYTE   UNIT     CODE           ?L?COM01DF
00BDF2H   00BDF9H   000008H   BYTE   UNIT     CODE           ?L?COM0177
00BDFAH   00BE01H   000008H   BYTE   UNIT     CODE           ?L?COM018B
00BE02H   00BE0AH   000009H   BYTE   UNIT     CODE           ?L?COM01C7
00BE0BH   00BE13H   000009H   BYTE   UNIT     CODE           ?PR?SPI_WRITE_DISABLE?W25X
00BE14H   00BE1DH   00000AH   BYTE   UNIT     CODE           ?PR?SPI_INIT?W25X
00BE1EH   00BE2CH   00000FH   BYTE   UNIT     CODE           ?L?COM0146
00BE2DH   00BE48H   00001CH   BYTE   UNIT     CODE           ?PR?EUSART_RECEIVE_ISR?UART_FUN
00BE49H   00BE6BH   000023H   BYTE   UNIT     CODE           ?PR?SPI_GET_BYTE?W25X
00BE6CH   00BE91H   000026H   BYTE   UNIT     CODE           ?PR?SERIAL?ACTIVITYFUNCTIONS
00BE92H   00BE99H   000008H   BYTE   UNIT     CODE           ?PR?EUSART_TRANSMIT_ISR?UART_FUN
00BE9AH   00BEFEH   000065H   BYTE   UNIT     CODE           ?PR?STORE_DATA?ACTIVITYFUNCTIONS
00BEFFH   00BF1FH   000021H   BYTE   UNIT     CODE           ?PR?INTERRUPT_EXT1?ACTIVITYFUNCTIONS
00BF20H   00BF40H   000021H   BYTE   UNIT     CODE           ?PR?INTERRUPT_TIME0?ACTIVITYFUNCTIONS
00BF41H   00BF4BH   00000BH   BYTE   UNIT     CODE           ?PR?ERROR_BASE_HEATERWIRE_DISP_ENABLE?ACTIVITYFUNCTIONS
00BF4CH   00BF67H   00001CH   BYTE   UNIT     CODE           ?PR?WRITE_DEFAULT_SETTING_TO_FLASH?ACTIVITYFUNCTIONS
00BF68H   00BF6FH   000008H   BYTE   UNIT     CODE           ?L?COM0169
00BF70H   00BFC5H   000056H   BYTE   UNIT     CODE           ?PR?LOAD_SETTINGS_BEFORE_CHOICE?ACTIVITYFUNCTIONS
00BFC6H   00BFD2H   00000DH   BYTE   UNIT     CODE           ?L?COM015D
00BFD3H   00BFD9H   000007H   BYTE   UNIT     CODE           ?L?COM0162
00BFDAH   00BFE0H   000007H   BYTE   UNIT     CODE           ?L?COM0163
LX51 LINKER/LOCATER V4.66.1.0                                                         03/30/2019  12:53:22  PAGE 10


00BFE1H   00C1C8H   0001E8H   BYTE   UNIT     CODE           ?PR?PATIENTTEMP_NONEHEATWIRE_ADJ?ACTIVITYFUNCTIONS
00C1C9H   00C1D1H   000009H   BYTE   UNIT     CODE           ?L?COM01AD
00C1D2H   00C1E4H   000013H   BYTE   UNIT     CODE           ?L?COM00DB
00C1E5H   00C1EBH   000007H   BYTE   UNIT     CODE           ?L?COM019A
00C1ECH   00C1F3H   000008H   BYTE   UNIT     CODE           ?L?COM0153
00C1F4H   00C1FEH   00000BH   BYTE   UNIT     CODE           ?L?COM012C
00C1FFH   00C206H   000008H   BYTE   UNIT     CODE           ?L?COM01E7
00C207H   00C20EH   000008H   BYTE   UNIT     CODE           ?L?COM01E8
00C20FH   00C217H   000009H   BYTE   UNIT     CODE           ?L?COM014B
00C218H   00C225H   00000EH   BYTE   UNIT     CODE           ?L?COM0134
00C226H   00C237H   000012H   BYTE   UNIT     CODE           ?L?COM009E
00C238H   00C26CH   000035H   BYTE   UNIT     CODE           ?PR?WIREINOUT_STATE_CONFIRM?ACTIVITYFUNCTIONS
00C26DH   00C277H   00000BH   BYTE   UNIT     CODE           ?PR?SOUND_ALARM_PAUSE_ENABLE?SOUND_TYPE
00C278H   00C291H   00001AH   BYTE   UNIT     CODE           ?PR?KEYMUTEPRESSSHORTACTION?KEY_DATAS
00C292H   00C2C6H   000035H   BYTE   UNIT     CODE           ?PR?_LCD_POW?LCD
00C2C7H   00C2CDH   000007H   BYTE   UNIT     CODE           ?PR?KEYUPPRESSSHORTACTION?KEY_DATAS
00C2CEH   00C2D4H   000007H   BYTE   UNIT     CODE           ?PR?KEYUPPRESSLONGFIRSTACTION?KEY_DATAS
00C2D5H   00C2DBH   000007H   BYTE   UNIT     CODE           ?PR?KEYUPPRESSLONGREPEATACTION?KEY_DATAS
00C2DCH   00C2E2H   000007H   BYTE   UNIT     CODE           ?PR?KEYDOWNPRESSSHORTACTION?KEY_DATAS
00C2E3H   00C2E9H   000007H   BYTE   UNIT     CODE           ?PR?KEYDOWNPRESSLONGFIRSTACTION?KEY_DATAS
00C2EAH   00C2F0H   000007H   BYTE   UNIT     CODE           ?PR?KEYDOWNPRESSLONGREPEATACTION?KEY_DATAS
00C2F1H   00C2F7H   000007H   BYTE   UNIT     CODE           ?PR?KEYOKPRESSSHORTACTION?KEY_DATAS
00C2F8H   00C2FEH   000007H   BYTE   UNIT     CODE           ?PR?KEYOKPRESSLONGFIRSTACTION?KEY_DATAS
00C2FFH   00C305H   000007H   BYTE   UNIT     CODE           ?PR?KEYOKPRESSLONGREPEATACTION?KEY_DATAS
00C306H   00C30CH   000007H   BYTE   UNIT     CODE           ?PR?KEYMUTEPRESSLONGFIRSTACTION?KEY_DATAS
00C30DH   00C313H   000007H   BYTE   UNIT     CODE           ?PR?KEYMUTEPRESSLONGREPEATACTION?KEY_DATAS
00C314H   00C31FH   00000CH   BYTE   UNIT     CODE           ?PR?ENTERSETTIME?GUI
00C320H   00C38EH   00006FH   BYTE   UNIT     CODE           ?PR?DATE_IS_CORRECT?GUI
00C38FH   00C3ABH   00001DH   BYTE   UNIT     CODE           ?PR?EUSART_INITIALIZE?UART_FUN
00C3ACH   00C3CEH   000023H   BYTE   UNIT     CODE           ?L?COM004C
00C3CFH   00C400H   000032H   BYTE   UNIT     CODE           ?L?COM0062
00C401H   00C417H   000017H   BYTE   UNIT     CODE           ?L?COM0087
00C418H   00C41FH   000008H   BYTE   UNIT     CODE           ?L?COM00B4
00C420H   00C432H   000013H   BYTE   UNIT     CODE           ?L?COM00C0
00C433H   00C44AH   000018H   BYTE   UNIT     CODE           ?L?COM00D1
00C44BH   00C456H   00000CH   BYTE   UNIT     CODE           ?L?COM00D3
00C457H   00C466H   000010H   BYTE   UNIT     CODE           ?L?COM0104
00C467H   00C479H   000013H   BYTE   UNIT     CODE           ?L?COM0114
00C47AH   00C487H   00000EH   BYTE   UNIT     CODE           ?L?COM0115
00C488H   00C499H   000012H   BYTE   UNIT     CODE           ?L?COM012D
00C49AH   00C4AAH   000011H   BYTE   UNIT     CODE           ?L?COM0132
00C4ABH   00C4BBH   000011H   BYTE   UNIT     CODE           ?L?COM0133
00C4BCH   00C4C2H   000007H   BYTE   UNIT     CODE           ?L?COM0142
00C4C3H   00C4CFH   00000DH   BYTE   UNIT     CODE           ?L?COM014A
00C4D0H   00C4DDH   00000EH   BYTE   UNIT     CODE           ?L?COM0152
00C4DEH   00C4EBH   00000EH   BYTE   UNIT     CODE           ?L?COM0154
00C4ECH   00C4F8H   00000DH   BYTE   UNIT     CODE           ?L?COM015C
00C4F9H   00C505H   00000DH   BYTE   UNIT     CODE           ?L?COM0168
00C506H   00C511H   00000CH   BYTE   UNIT     CODE           ?L?COM0170
00C512H   00C519H   000008H   BYTE   UNIT     CODE           ?L?COM0171
00C51AH   00C525H   00000CH   BYTE   UNIT     CODE           ?L?COM0175
00C526H   00C52DH   000008H   BYTE   UNIT     CODE           ?L?COM0176
00C52EH   00C535H   000008H   BYTE   UNIT     CODE           ?L?COM017A
00C536H   00C541H   00000CH   BYTE   UNIT     CODE           ?L?COM017D
00C542H   00C54DH   00000CH   BYTE   UNIT     CODE           ?L?COM017E
00C54EH   00C559H   00000CH   BYTE   UNIT     CODE           ?L?COM017F
00C55AH   00C564H   00000BH   BYTE   UNIT     CODE           ?L?COM0184
00C565H   00C56FH   00000BH   BYTE   UNIT     CODE           ?L?COM0186
00C570H   00C57AH   00000BH   BYTE   UNIT     CODE           ?L?COM0188
00C57BH   00C584H   00000AH   BYTE   UNIT     CODE           ?L?COM0189
00C585H   00C58DH   000009H   BYTE   UNIT     CODE           ?L?COM0199
00C58EH   00C596H   000009H   BYTE   UNIT     CODE           ?L?COM019B
00C597H   00C59DH   000007H   BYTE   UNIT     CODE           ?L?COM019D
00C59EH   00C5A7H   00000AH   BYTE   UNIT     CODE           ?L?COM019F
00C5A8H   00C5B1H   00000AH   BYTE   UNIT     CODE           ?L?COM01A7
LX51 LINKER/LOCATER V4.66.1.0                                                         03/30/2019  12:53:22  PAGE 11


00C5B2H   00C5BBH   00000AH   BYTE   UNIT     CODE           ?L?COM01A9
00C5BCH   00C5C4H   000009H   BYTE   UNIT     CODE           ?L?COM01B9
00C5C5H   00C5CDH   000009H   BYTE   UNIT     CODE           ?L?COM01BC
00C5CEH   00C5D6H   000009H   BYTE   UNIT     CODE           ?L?COM01C3
00C5D7H   00C5DFH   000009H   BYTE   UNIT     CODE           ?L?COM01C4
00C5E0H   00C5E8H   000009H   BYTE   UNIT     CODE           ?L?COM01C5
00C5E9H   00C5F1H   000009H   BYTE   UNIT     CODE           ?L?COM01C6
00C5F2H   00C5FAH   000009H   BYTE   UNIT     CODE           ?L?COM01CC
00C5FBH   00C602H   000008H   BYTE   UNIT     CODE           ?L?COM01D2
00C603H   00C60AH   000008H   BYTE   UNIT     CODE           ?L?COM01D3
00C60BH   00C612H   000008H   BYTE   UNIT     CODE           ?L?COM01D4
00C613H   00C61AH   000008H   BYTE   UNIT     CODE           ?L?COM01D5
00C61BH   00C622H   000008H   BYTE   UNIT     CODE           ?L?COM01D6
00C623H   00C62AH   000008H   BYTE   UNIT     CODE           ?L?COM01DD
00C62BH   00C632H   000008H   BYTE   UNIT     CODE           ?L?COM01E3
00C633H   00C63AH   000008H   BYTE   UNIT     CODE           ?L?COM01E5
00C63BH   00C642H   000008H   BYTE   UNIT     CODE           ?L?COM01E6
00C643H   00C64AH   000008H   BYTE   UNIT     CODE           ?L?COM01F2
00C64BH   00C652H   000008H   BYTE   UNIT     CODE           ?L?COM01F3
00C653H   00C65AH   000008H   BYTE   UNIT     CODE           ?L?COM01F4

* * * * * * * * * * *  X D A T A   M E M O R Y  * * * * * * * * * * * * *
000000H   000106H   000107H   BYTE   UNIT     XDATA          ?XD?ACTIVITYFUNCTIONS
000107H   00018BH   000085H   BYTE   UNIT     XDATA          ?XD?WS_TASK_MANAGE
00018CH   00020FH   000084H   BYTE   UNIT     XDATA          ?XD?UART_FUN
000210H   000268H   000059H   BYTE   UNIT     XDATA          ?XD?KEY_DATAS
000269H   00029EH   000036H   BYTE   UNIT     XDATA          _XDATA_GROUP_
00029FH   0002BEH   000020H   BYTE   UNIT     XDATA          ?XD?GUI
0002BFH   0002C3H   000005H   BYTE   UNIT     XDATA          ?XD?NORMAL_TASK
0002C4H   0002C6H   000003H   BYTE   UNIT     XDATA          ?XD?SOUND_TYPE
0002C7H   0002C8H   000002H   BYTE   UNIT     XDATA          ?XD?STC_EEPROM
0002C9H   0002CAH   000002H   BYTE   UNIT     XDATA          ?XD?MAIN_TIK_TOK
0002CBH   0002CCH   000002H   BYTE   UNIT     XDATA          ?XD?DS18B20
0002CDH   0002CDH   000001H   BYTE   UNIT     XDATA          ?XD?LCD
0002CEH   0002CEH   000001H   BYTE   UNIT     XDATA          ?XD?KEY_MULTIFUN



OVERLAY MAP OF MODULE:   ..\OBJ\VHB15A (STC_EEPROM)


FUNCTION/MODULE                                BIT_GROUP   XDATA_GROUP
--> CALLED FUNCTION/MODULE                    START  STOP  START  STOP
======================================================================
INTERRUPT_EXT1/ACTIVITYFUNCTIONS              ----- -----  ----- -----

*** NEW ROOT ********************************

INTERRUPT_TIME0/ACTIVITYFUNCTIONS             ----- -----  ----- -----
  +--> TIMER_T0_INT_MAIN/MAIN_TIK_TOK

TIMER_T0_INT_MAIN/MAIN_TIK_TOK                ----- -----  ----- -----
  +--> MAIN_TIK_FUNCTIONS/MAIN_TIK_FUNCTION
  +--> SOUND_TYPE_DRIVE/SOUND_TYPE
  +--> SUB_TIK_FUNCTIONS/SUB_TIK_FUNCTION

MAIN_TIK_FUNCTIONS/MAIN_TIK_FUNCTION          ----- -----  ----- -----
  +--> _WS_SETTASKIFG/WS_TASK_MANAGE
  +--> HEATERPLATEWIREDRIVEFBTASK/ACTIVITYFUNCTIONS

_WS_SETTASKIFG/WS_TASK_MANAGE                 ----- -----  ----- -----

HEATERPLATEWIREDRIVEFBTASK/ACTIVITYFUNCT+     ----- -----  ----- -----
... IONS

LX51 LINKER/LOCATER V4.66.1.0                                                         03/30/2019  12:53:22  PAGE 12


SOUND_TYPE_DRIVE/SOUND_TYPE                   ----- -----  ----- -----

SUB_TIK_FUNCTIONS/SUB_TIK_FUNCTION            ----- -----  ----- -----
  +--> KEY_UP_TIKFUNC/KEY_DATAS
  +--> KEY_DOWN_TIKFUNC/KEY_DATAS
  +--> KEY_OK_TIKFUNC/KEY_DATAS
  +--> KEY_MUTE_TIKFUNC/KEY_DATAS
  +--> HMIPOSTFUNC_TIK_CNT/GUI
  +--> HMIFACTORYDEFAULT_TIK_CNT/GUI
  +--> HMINON_INVASIVESEL_TIK_CNT/GUI
  +--> HMISCREENSAVERMODE_TIK_CNT/GUI

KEY_UP_TIKFUNC/KEY_DATAS                      ----- -----  ----- -----

KEY_DOWN_TIKFUNC/KEY_DATAS                    ----- -----  ----- -----

KEY_OK_TIKFUNC/KEY_DATAS                      ----- -----  ----- -----

KEY_MUTE_TIKFUNC/KEY_DATAS                    ----- -----  ----- -----

HMIPOSTFUNC_TIK_CNT/GUI                       ----- -----  ----- -----

HMIFACTORYDEFAULT_TIK_CNT/GUI                 ----- -----  ----- -----

HMINON_INVASIVESEL_TIK_CNT/GUI                ----- -----  ----- -----

HMISCREENSAVERMODE_TIK_CNT/GUI                ----- -----  ----- -----

*** NEW ROOT ********************************

SERIAL/ACTIVITYFUNCTIONS                      ----- -----  ----- -----
  +--> EUSART_RECEIVE_ISR/UART_FUN
  +--> EUSART_TRANSMIT_ISR/UART_FUN

EUSART_RECEIVE_ISR/UART_FUN                   ----- -----  ----- -----

EUSART_TRANSMIT_ISR/UART_FUN                  ----- -----  ----- -----

*** NEW ROOT ********************************

?C_C51STARTUP                                 ----- -----  ----- -----
  +--> MAIN/MAIN
  +--> ?C_INITSEG

MAIN/MAIN                                     ----- -----  ----- -----
  +--> MAIN_TIK_TOK_INITIAL_FUN/MAIN_TIK_TOK
  +--> INIT_PORT/ACTIVITYFUNCTIONS
  +--> MAIN_INIT/ACTIVITYFUNCTIONS
  +--> _HMIENTERTOWORKSTATEFUNC/GUI
  +--> MANAGETASK/NORMAL_TASK
  +--> KEYSCANTASK/NORMAL_TASK
  +--> HMISERVICEMODETASK/NORMAL_TASK
  +--> HMIPOSTTASK/NORMAL_TASK
  +--> HMIFACTORYDEFAULTSELTASK/NORMAL_TASK
  +--> HMINON_INVASIVESELTASK/NORMAL_TASK
  +--> HMIRUNNINGTASK/NORMAL_TASK
  +--> HMISETTEMPPATIENTTASK/NORMAL_TASK
  +--> HMISETTEMPCHAMBERTASK/NORMAL_TASK
  +--> HMISETINEXPTASK/NORMAL_TASK
  +--> HMISETTIMETASK/NORMAL_TASK
  +--> HMISCREENSAVERMODETASK/NORMAL_TASK
  +--> GETTEMP_HPCHAMBERTASK/NORMAL_TASK
  +--> GETTEMPHUMIDITY_PATIENTTASK/NORMAL_TASK
  +--> REFRESHTEMPHUMIDYTASK/NORMAL_TASK
  +--> REFRESHRTCTIMETASK/NORMAL_TASK
LX51 LINKER/LOCATER V4.66.1.0                                                         03/30/2019  12:53:22  PAGE 13


  +--> REFRESHRUNTIMETASK/NORMAL_TASK
  +--> HEATERWIRECONTROLTASK/NORMAL_TASK
  +--> LOWPOWERMODETASK/NORMAL_TASK
  +--> HEATERWIREMODEDETTASK/NORMAL_TASK
  +--> ALARMERRORTASK/NORMAL_TASK
  +--> LOWTEMPDET1STASK/NORMAL_TASK
  +--> SAVEDATETOFLASHTASK/NORMAL_TASK
  +--> UARTRECTASK/NORMAL_TASK

MAIN_TIK_TOK_INITIAL_FUN/MAIN_TIK_TOK         ----- -----  ----- -----

INIT_PORT/ACTIVITYFUNCTIONS                   ----- -----  0269H 026AH
  +--> EUSART_INITIALIZE/UART_FUN
  +--> SPI_INIT/W25X
  +--> LCD_INITIAL/LCD
  +--> _DRAW_RECTANGLE_REAL/LCD
  +--> _DISP_FNT10X24/LCD
  +--> LCD_SHOW_VERION/LCD

EUSART_INITIALIZE/UART_FUN                    ----- -----  ----- -----

SPI_INIT/W25X                                 ----- -----  ----- -----
  +--> SPI_WRITE_DISABLE/W25X

SPI_WRITE_DISABLE/W25X                        ----- -----  ----- -----
  +--> _SPI_SEND_BYTE/W25X

_SPI_SEND_BYTE/W25X                           ----- -----  ----- -----

LCD_INITIAL/LCD                               ----- -----  ----- -----
  +--> _DELAY_MS/DELAY
  +--> _SDCMD/LCD
  +--> _SDDATA/LCD

_DELAY_MS/DELAY                               ----- -----  ----- -----

_SDCMD/LCD                                    ----- -----  ----- -----

_SDDATA/LCD                                   ----- -----  ----- -----

_DRAW_RECTANGLE_REAL/LCD                      ----- -----  0277H 0283H
  +--> _LCD_CRTLWRITE_AREA/LCD
  +--> _LCD_CTRLWRITE_COLOR/LCD

_LCD_CRTLWRITE_AREA/LCD                       ----- -----  0299H 029EH
  +--> _SDCMD/LCD
  +--> _SDDATA/LCD

_LCD_CTRLWRITE_COLOR/LCD                      ----- -----  ----- -----
  +--> ?CO?LCD
  +--> _LCD_CTRLWRITE_ILI9328/LCD

?CO?LCD                                       ----- -----  ----- -----

_LCD_CTRLWRITE_ILI9328/LCD                    ----- -----  ----- -----

_DISP_FNT10X24/LCD                            ----- -----  026BH 026FH
  +--> ?CO?LCD
  +--> _DISP_MONO_GRAP/LCD

_DISP_MONO_GRAP/LCD                           ----- -----  027CH 0288H
  +--> _LCD_CRTLWRITE_AREA/LCD
  +--> _LCD_CTRLWRITE_COLOR/LCD

LCD_SHOW_VERION/LCD                           ----- -----  ----- -----
LX51 LINKER/LOCATER V4.66.1.0                                                         03/30/2019  12:53:22  PAGE 14


  +--> ?CO?LCD
  +--> _LCD_SHOWSTRING/LCD

_LCD_SHOWSTRING/LCD                           ----- -----  0272H 0280H
  +--> _LCD_SHOWCHAR/LCD

_LCD_SHOWCHAR/LCD                             ----- -----  0282H 0289H
  +--> _DISP_FNT8X16/LCD
  +--> _DISP_FNT12X24/LCD

_DISP_FNT8X16/LCD                             ----- -----  028AH 0298H
  +--> _LCD_CRTLWRITE_AREA/LCD
  +--> ?CO?LCD
  +--> _LCD_DRAWPOINT/LCD
  +--> _LCD_CTRLWRITE_COLOR/LCD

_LCD_DRAWPOINT/LCD                            ----- -----  0299H 029AH
  +--> _SDCMD/LCD
  +--> _SDDATA/LCD
  +--> _LCD_CTRLWRITE_COLOR/LCD

_DISP_FNT12X24/LCD                            ----- -----  028AH 0298H
  +--> _LCD_CRTLWRITE_AREA/LCD
  +--> ?CO?LCD
  +--> _LCD_DRAWPOINT/LCD
  +--> _LCD_CTRLWRITE_COLOR/LCD

MAIN_INIT/ACTIVITYFUNCTIONS                   ----- -----  ----- -----
  +--> GET_RUNCOUNT/ACTIVITYFUNCTIONS

GET_RUNCOUNT/ACTIVITYFUNCTIONS                ----- -----  0269H 0271H
  +--> _SPI_READ_NBYTES/W25X
  +--> _DELAY_US/DELAY

_SPI_READ_NBYTES/W25X                         ----- -----  0272H 027AH
  +--> _SPI_SEND_BYTE/W25X
  +--> SPI_GET_BYTE/W25X

SPI_GET_BYTE/W25X                             20H.5 20H.5  ----- -----

_DELAY_US/DELAY                               ----- -----  ----- -----

_HMIENTERTOWORKSTATEFUNC/GUI                  ----- -----  ----- -----
  +--> _DRAW_RECTANGLE_REAL/LCD
  +--> MEM_FLASH_RECALL/ACTIVITYFUNCTIONS
  +--> _DRAW_RECTANGLE/LCD
  +--> ?CO?GUI
  +--> _LCD_SHOWSTRING/LCD
  +--> _DRAW_CIRCLE/LCD
  +--> _DISP_ICO_40X40/LCD
  +--> _DISP_WUCHUANG/LCD
  +--> _DISP_YOUCHUANG/LCD
  +--> DRAWWORKWINDOWS/LCD
  +--> _REFRESHRUNTIMEFUNC/ACTIVITYFUNCTIONS
  +--> _REFRESHTEMPHUMIDYFUNC/ACTIVITYFUNCTIONS
  +--> _DISP_ICO_32X40/LCD
  +--> _DISPLAY_SET_TEMP/GUI
  +--> ENTERSETTIME/GUI
  +--> ENTERSETINEXP/GUI

MEM_FLASH_RECALL/ACTIVITYFUNCTIONS            ----- -----  ----- -----
  +--> _STC_IAP_BYTE_READ/STC_EEPROM
  +--> WRITE_DEFAULT_SETTING_TO_FLASH/ACTIVITYFUNCTIONS

_STC_IAP_BYTE_READ/STC_EEPROM                 ----- -----  ----- -----
LX51 LINKER/LOCATER V4.66.1.0                                                         03/30/2019  12:53:22  PAGE 15


  +--> IAP_DISABLE/STC_EEPROM

IAP_DISABLE/STC_EEPROM                        ----- -----  ----- -----

WRITE_DEFAULT_SETTING_TO_FLASH/ACTIVITYF+     ----- -----  ----- -----
... UNCTIONS
  +--> SETTING_WRITE_TO_FLASH/ACTIVITYFUNCTIONS

SETTING_WRITE_TO_FLASH/ACTIVITYFUNCTIONS      ----- -----  ----- -----
  +--> _STC_IAP_SECTOR_ERASE/STC_EEPROM
  +--> _STC_IAP_BYTE_PROGRAM/STC_EEPROM

_STC_IAP_SECTOR_ERASE/STC_EEPROM              ----- -----  ----- -----
  +--> IAP_DISABLE/STC_EEPROM

_STC_IAP_BYTE_PROGRAM/STC_EEPROM              ----- -----  ----- -----
  +--> IAP_DISABLE/STC_EEPROM

_DRAW_RECTANGLE/LCD                           ----- -----  0271H 027EH
  +--> _LCD_CRTLWRITE_AREA/LCD
  +--> _LCD_CTRLWRITE_COLOR/LCD

?CO?GUI                                       ----- -----  ----- -----

_DRAW_CIRCLE/LCD                              ----- -----  0271H 027CH
  +--> _LCD_DRAWPOINT/LCD

_DISP_ICO_40X40/LCD                           ----- -----  0271H 0275H
  +--> ?CO?LCD
  +--> _DISP_MONO_GRAP/LCD

_DISP_WUCHUANG/LCD                            ----- -----  ----- -----
  +--> ?CO?LCD
  +--> _DISP_MONO_GRAP/LCD

_DISP_YOUCHUANG/LCD                           ----- -----  ----- -----
  +--> ?CO?LCD
  +--> _DISP_MONO_GRAP/LCD

DRAWWORKWINDOWS/LCD                           ----- -----  ----- -----
  +--> _DRAW_RECTANGLE_REAL/LCD
  +--> _DISP_WUCHUANG/LCD
  +--> _DISP_YOUCHUANG/LCD
  +--> _DRAW_RECTANGLE/LCD
  +--> REFRESH_WORK_MODE/LCD
  +--> _DISP_ICO_52X64/LCD
  +--> _DISP_ICO_40X40/LCD
  +--> _DISP_ICO_32X40/LCD
  +--> _DISP_RH14X24/LCD
  +--> _DISP_DHM/LCD
  +--> _DISP_TIME_10X16/LCD

REFRESH_WORK_MODE/LCD                         ----- -----  ----- -----
  +--> _DISP_WUCHUANG/LCD
  +--> _DISP_YOUCHUANG/LCD

_DISP_ICO_52X64/LCD                           ----- -----  0271H 0275H
  +--> ?CO?LCD
  +--> _DISP_MONO_GRAP/LCD

_DISP_ICO_32X40/LCD                           ----- -----  0271H 0275H
  +--> ?CO?LCD
  +--> _DISP_MONO_GRAP/LCD

_DISP_RH14X24/LCD                             ----- -----  0271H 0275H
LX51 LINKER/LOCATER V4.66.1.0                                                         03/30/2019  12:53:22  PAGE 16


  +--> ?CO?LCD
  +--> _DISP_MONO_GRAP/LCD

_DISP_DHM/LCD                                 ----- -----  0271H 0275H
  +--> ?CO?LCD
  +--> _DISP_MONO_GRAP/LCD

_DISP_TIME_10X16/LCD                          ----- -----  0272H 0276H
  +--> ?CO?LCD
  +--> _DISP_MONO_GRAP/LCD

_REFRESHRUNTIMEFUNC/ACTIVITYFUNCTIONS         ----- -----  0271H 0271H
  +--> _RX8010_GETTIME/RX8010
  +--> _DISP_TIME_10X16/LCD

_RX8010_GETTIME/RX8010                        ----- -----  0272H 027BH
  +--> _READEEONE/RX8010

_READEEONE/RX8010                             ----- -----  027CH 0281H
  +--> IC_START/RX8010
  +--> _IC_WRITEBYTE/RX8010
  +--> IC_STOP/RX8010
  +--> IC_READBYTE/RX8010
  +--> _DELAY_US/DELAY

IC_START/RX8010                               ----- -----  ----- -----
  +--> _DELAY_US/DELAY

_IC_WRITEBYTE/RX8010                          ----- -----  0282H 0283H
  +--> _DELAY_US/DELAY

IC_STOP/RX8010                                ----- -----  ----- -----
  +--> _DELAY_US/DELAY

IC_READBYTE/RX8010                            ----- -----  0282H 0283H
  +--> _DELAY_US/DELAY

_REFRESHTEMPHUMIDYFUNC/ACTIVITYFUNCTIONS      20H.5 20H.5  0271H 0276H
  +--> _DRAW_RECTANGLE_REAL/LCD
  +--> _DISP_TEMP_30X56/LCD
  +--> _DISP_RH_17X40/LCD

_DISP_TEMP_30X56/LCD                          ----- -----  0277H 027BH
  +--> ?CO?LCD
  +--> _DISP_MONO_GRAP/LCD

_DISP_RH_17X40/LCD                            ----- -----  0277H 027BH
  +--> ?CO?LCD
  +--> _DISP_MONO_GRAP/LCD

_DISPLAY_SET_TEMP/GUI                         ----- -----  0271H 0272H
  +--> _DISP_TEMP_30X56/LCD
  +--> _DRAW_RECTANGLE_REAL/LCD

ENTERSETTIME/GUI                              ----- -----  ----- -----
  +--> _RX8010_GETTIME/RX8010

ENTERSETINEXP/GUI                             ----- -----  ----- -----
  +--> _DISPLAY_IN_EXP_RATIO/GUI

_DISPLAY_IN_EXP_RATIO/GUI                     ----- -----  0271H 0271H
  +--> ?CO?GUI
  +--> _LCD_SHOWSTRING/LCD

MANAGETASK/NORMAL_TASK                        ----- -----  ----- -----
LX51 LINKER/LOCATER V4.66.1.0                                                         03/30/2019  12:53:22  PAGE 17


  +--> _WS_TASKJUDGE/WS_TASK_MANAGE
  +--> _WS_DELTASKIFG/WS_TASK_MANAGE
  +--> _WS_SETTASKIFG/WS_TASK_MANAGE

_WS_TASKJUDGE/WS_TASK_MANAGE                  ----- -----  ----- -----

_WS_DELTASKIFG/WS_TASK_MANAGE                 ----- -----  ----- -----

KEYSCANTASK/NORMAL_TASK                       ----- -----  ----- -----
  +--> _WS_TASKJUDGE/WS_TASK_MANAGE
  +--> _WS_DELTASKIFG/WS_TASK_MANAGE
  +--> KEY_MULTIFUN/KEY_MULTIFUN

KEY_MULTIFUN/KEY_MULTIFUN                     ----- -----  0269H 0279H

HMISERVICEMODETASK/NORMAL_TASK                ----- -----  ----- -----
  +--> _WS_TASKJUDGE/WS_TASK_MANAGE
  +--> _WS_DELTASKIFG/WS_TASK_MANAGE
  +--> HMISERVICEMODEFUNC/GUI

HMISERVICEMODEFUNC/GUI                        ----- -----  ----- -----
  +--> _DRAW_RECTANGLE_REAL/LCD
  +--> ?CO?GUI
  +--> _LCD_SHOWSTRING/LCD
  +--> _SPI_ERASE_SECTOR/W25X
  +--> _DELAY_MS/DELAY
  +--> _SPI_WRITE_NBYTES/W25X
  +--> _SPI_READ_NBYTES/W25X
  +--> LCD_SHOW_VERION/LCD
  +--> _DISP_ICO_52X64/LCD
  +--> _DISP_ICO_32X40/LCD
  +--> _DISP_ICO_40X40/LCD
  +--> _DISP_RH14X24/LCD
  +--> _DISP_HEAT_36X24/LCD
  +--> SERVICEMODE_TEMPHUMIDY_DISP/ACTIVITYFUNCTIONS
  +--> _HMIENTERTOWORKSTATEFUNC/GUI

_SPI_ERASE_SECTOR/W25X                        ----- -----  026FH 0272H
  +--> SPI_WRITE_ENABLE/W25X
  +--> _SPI_SEND_BYTE/W25X

SPI_WRITE_ENABLE/W25X                         ----- -----  ----- -----
  +--> _SPI_SEND_BYTE/W25X

_SPI_WRITE_NBYTES/W25X                        ----- -----  0270H 0279H
  +--> SPI_WRITE_ENABLE/W25X
  +--> _SPI_SEND_BYTE/W25X

_DISP_HEAT_36X24/LCD                          ----- -----  ----- -----
  +--> ?CO?LCD
  +--> _DISP_MONO_GRAP/LCD

SERVICEMODE_TEMPHUMIDY_DISP/ACTIVITYFUNC+     20H.5 20H.5  0269H 026CH
... TIONS
  +--> _DISP_TEMP_30X56/LCD
  +--> _DRAW_RECTANGLE_REAL/LCD
  +--> _DISP_RH_17X40/LCD

HMIPOSTTASK/NORMAL_TASK                       ----- -----  ----- -----
  +--> _WS_TASKJUDGE/WS_TASK_MANAGE
  +--> _WS_DELTASKIFG/WS_TASK_MANAGE
  +--> HMIPOSTFUNC/GUI

HMIPOSTFUNC/GUI                               ----- -----  0269H 0269H
  +--> RX8010_INITIALIZE/RX8010
LX51 LINKER/LOCATER V4.66.1.0                                                         03/30/2019  12:53:22  PAGE 18


  +--> _DRAW_RECTANGLE_REAL/LCD
  +--> ?CO?GUI
  +--> _LCD_SHOWSTRING/LCD
  +--> _SPI_READ_NBYTES/W25X
  +--> _SPI_ERASE_SECTOR/W25X
  +--> _SPI_WRITE_NBYTES/W25X
  +--> _DELAY_MS/DELAY
  +--> _HMIENTERTOWORKSTATEFUNC/GUI

RX8010_INITIALIZE/RX8010                      ----- -----  026AH 0272H
  +--> _READEEONE/RX8010
  +--> _DELAY_MS/DELAY
  +--> _WRITEEEONE/RX8010

_WRITEEEONE/RX8010                            ----- -----  0274H 0279H
  +--> IC_START/RX8010
  +--> _IC_WRITEBYTE/RX8010
  +--> IC_STOP/RX8010
  +--> _DELAY_US/DELAY

HMIFACTORYDEFAULTSELTASK/NORMAL_TASK          ----- -----  ----- -----
  +--> _WS_TASKJUDGE/WS_TASK_MANAGE
  +--> _WS_DELTASKIFG/WS_TASK_MANAGE
  +--> HMIFACTORYDEFAULTFUNC/GUI

HMIFACTORYDEFAULTFUNC/GUI                     ----- -----  0269H 0270H
  +--> _DISP_ICO_40X40/LCD
  +--> SOUND_SHORT/SOUND_TYPE
  +--> LOAD_SETTINGS_BEFORE_CHOICE/ACTIVITYFUNCTIONS
  +--> _HMIENTERTOWORKSTATEFUNC/GUI
  +--> _DRAW_RECTANGLE/LCD
  +--> _DRAW_RECTANGLE_REAL/LCD
  +--> ?CO?GUI
  +--> _LCD_SHOWSTRING/LCD
  +--> _LCD_SHOWXNUM/LCD
  +--> _DRAW_CIRCLE/LCD

SOUND_SHORT/SOUND_TYPE                        ----- -----  ----- -----

LOAD_SETTINGS_BEFORE_CHOICE/ACTIVITYFUNC+     ----- -----  ----- -----
... TIONS
  +--> WRITE_DEFAULT_SETTING_TO_FLASH/ACTIVITYFUNCTIONS

_LCD_SHOWXNUM/LCD                             ----- -----  0273H 0281H
  +--> _LCD_POW/LCD
  +--> _LCD_SHOWCHAR/LCD

_LCD_POW/LCD                                  ----- -----  0282H 0287H

HMINON_INVASIVESELTASK/NORMAL_TASK            ----- -----  ----- -----
  +--> _WS_TASKJUDGE/WS_TASK_MANAGE
  +--> _WS_DELTASKIFG/WS_TASK_MANAGE
  +--> HMINON_INVASIVESELFUNC/GUI

HMINON_INVASIVESELFUNC/GUI                    ----- -----  ----- -----
  +--> _DRAW_RECTANGLE/LCD
  +--> _HMIENTERTOWORKSTATEFUNC/GUI
  +--> SETTING_WRITE_TO_FLASH/ACTIVITYFUNCTIONS

HMIRUNNINGTASK/NORMAL_TASK                    ----- -----  ----- -----
  +--> _WS_TASKJUDGE/WS_TASK_MANAGE
  +--> _WS_DELTASKIFG/WS_TASK_MANAGE
  +--> HMIRUNNINGFUNC/GUI

HMIRUNNINGFUNC/GUI                            ----- -----  ----- -----
LX51 LINKER/LOCATER V4.66.1.0                                                         03/30/2019  12:53:22  PAGE 19


  +--> _DISP_ICO_52X64/LCD
  +--> _DISPLAY_IN_EXP_RATIO/GUI
  +--> _REFRESHTEMPHUMIDYFUNC/ACTIVITYFUNCTIONS
  +--> SOUND_SHORT/SOUND_TYPE
  +--> SETTING_WRITE_TO_FLASH/ACTIVITYFUNCTIONS
  +--> REFRESH_WORK_MODE/LCD
  +--> _HMIENTERTOWORKSTATEFUNC/GUI
  +--> _DRAW_RECTANGLE_REAL/LCD
  +--> WIREINOUT_STATE_CONFIRM/ACTIVITYFUNCTIONS

WIREINOUT_STATE_CONFIRM/ACTIVITYFUNCTION+     ----- -----  ----- -----
... S

HMISETTEMPPATIENTTASK/NORMAL_TASK             ----- -----  ----- -----
  +--> _WS_TASKJUDGE/WS_TASK_MANAGE
  +--> _WS_DELTASKIFG/WS_TASK_MANAGE
  +--> HMISETTEMPPATIENTFUNC/GUI

HMISETTEMPPATIENTFUNC/GUI                     ----- -----  ----- -----
  +--> _DISP_ICO_32X40/LCD
  +--> _DISPLAY_SET_TEMP/GUI
  +--> _HMIENTERTOWORKSTATEFUNC/GUI
  +--> _REFRESHTEMPHUMIDYFUNC/ACTIVITYFUNCTIONS
  +--> SOUND_SHORT/SOUND_TYPE
  +--> SETTING_WRITE_TO_FLASH/ACTIVITYFUNCTIONS

HMISETTEMPCHAMBERTASK/NORMAL_TASK             ----- -----  ----- -----
  +--> _WS_TASKJUDGE/WS_TASK_MANAGE
  +--> _WS_DELTASKIFG/WS_TASK_MANAGE
  +--> HMISETTEMPCHAMBERFUNC/GUI

HMISETTEMPCHAMBERFUNC/GUI                     ----- -----  ----- -----
  +--> _DISP_ICO_32X40/LCD
  +--> _DISPLAY_SET_TEMP/GUI
  +--> SOUND_SHORT/SOUND_TYPE
  +--> _REFRESHTEMPHUMIDYFUNC/ACTIVITYFUNCTIONS
  +--> SETTING_WRITE_TO_FLASH/ACTIVITYFUNCTIONS

HMISETINEXPTASK/NORMAL_TASK                   ----- -----  ----- -----
  +--> _WS_TASKJUDGE/WS_TASK_MANAGE
  +--> _WS_DELTASKIFG/WS_TASK_MANAGE
  +--> HMISETINEXPFUNC/GUI

HMISETINEXPFUNC/GUI                           ----- -----  ----- -----
  +--> ?CO?GUI
  +--> _LCD_SHOWSTRING/LCD
  +--> _HMIENTERTOWORKSTATEFUNC/GUI
  +--> _DISPLAY_IN_EXP_RATIO/GUI
  +--> SOUND_SHORT/SOUND_TYPE
  +--> SETTING_WRITE_TO_FLASH/ACTIVITYFUNCTIONS

HMISETTIMETASK/NORMAL_TASK                    ----- -----  ----- -----
  +--> _WS_TASKJUDGE/WS_TASK_MANAGE
  +--> _WS_DELTASKIFG/WS_TASK_MANAGE
  +--> HMISETTIMEFUNC/GUI

HMISETTIMEFUNC/GUI                            ----- -----  0269H 0269H
  +--> _DISPLAYTIME/GUI
  +--> DATE_IS_CORRECT/GUI
  +--> SOUND_SHORT/SOUND_TYPE
  +--> _RX8010_SETTIME/RX8010

_DISPLAYTIME/GUI                              ----- -----  026AH 026FH
  +--> _DISP_TIME_10X16/LCD

LX51 LINKER/LOCATER V4.66.1.0                                                         03/30/2019  12:53:22  PAGE 20


DATE_IS_CORRECT/GUI                           20H.5 20H.5  ----- -----

_RX8010_SETTIME/RX8010                        ----- -----  026AH 0273H
  +--> _WRITEEEONE/RX8010

HMISCREENSAVERMODETASK/NORMAL_TASK            ----- -----  ----- -----
  +--> _WS_TASKJUDGE/WS_TASK_MANAGE
  +--> _WS_DELTASKIFG/WS_TASK_MANAGE
  +--> HMISCREENSAVERMODEFUNC/GUI

HMISCREENSAVERMODEFUNC/GUI                    ----- -----  0269H 026BH
  +--> _DRAW_RECTANGLE_REAL/LCD
  +--> _HMIENTERTOWORKSTATEFUNC/GUI
  +--> ERROR_BASE_HEATERWIRE_DISP_ENABLE/ACTIVITYFUNCTIONS
  +--> _DISP_TEMP_38X64/LCD
  +--> _DISP_ICO_32X40/LCD

ERROR_BASE_HEATERWIRE_DISP_ENABLE/ACTIVI+     ----- -----  ----- -----
... TYFUNCTIONS

_DISP_TEMP_38X64/LCD                          ----- -----  026CH 0270H
  +--> ?CO?LCD
  +--> _DISP_MONO_GRAP/LCD

GETTEMP_HPCHAMBERTASK/NORMAL_TASK             ----- -----  ----- -----
  +--> _WS_TASKJUDGE/WS_TASK_MANAGE
  +--> _WS_DELTASKIFG/WS_TASK_MANAGE
  +--> GETTEMP_HPCHAMBERFUNC/ACTIVITYFUNCTIONS

GETTEMP_HPCHAMBERFUNC/ACTIVITYFUNCTIONS       20H.5 20H.6  0269H 0276H
  +--> _DELAY_US/DELAY
  +--> _DS18B20_WRITEBYTE/DS18B20
  +--> DS18B20_READBYTE/DS18B20
  +--> _DS18B20_CHECKCRC/DS18B20

_DS18B20_WRITEBYTE/DS18B20                    ----- -----  0277H 0278H
  +--> _DELAY_US/DELAY

DS18B20_READBYTE/DS18B20                      20H.7 21H.0  0277H 0277H
  +--> _DELAY_US/DELAY

_DS18B20_CHECKCRC/DS18B20                     ----- -----  0277H 027DH

GETTEMPHUMIDITY_PATIENTTASK/NORMAL_TASK       ----- -----  ----- -----
  +--> _WS_TASKJUDGE/WS_TASK_MANAGE
  +--> _WS_DELTASKIFG/WS_TASK_MANAGE
  +--> GETTEMPHUMIDITY_PATIENTFUNC/ACTIVITYFUNCTIONS

GETTEMPHUMIDITY_PATIENTFUNC/ACTIVITYFUNC+     20H.5 20H.5  0269H 026FH
... TIONS
  +--> SHT21_WRITETEMP/SHT21
  +--> SHT21_READDATA/SHT21
  +--> SHT21_WRITERH/SHT21

SHT21_WRITETEMP/SHT21                         ----- -----  ----- -----
  +--> SHT21_START/SHT21
  +--> _SHT21_WRITE8BIT/SHT21

SHT21_START/SHT21                             ----- -----  ----- -----
  +--> _DELAY_US/DELAY

_SHT21_WRITE8BIT/SHT21                        ----- -----  0270H 0272H
  +--> _DELAY_US/DELAY

SHT21_READDATA/SHT21                          ----- -----  0270H 0278H
LX51 LINKER/LOCATER V4.66.1.0                                                         03/30/2019  12:53:22  PAGE 21


  +--> SHT21_READ8BIT/SHT21
  +--> SHT21_STOP/SHT21
  +--> _SHT2X_CHECKCRC/SHT21

SHT21_READ8BIT/SHT21                          20H.6 20H.6  0279H 027AH
  +--> _DELAY_US/DELAY

SHT21_STOP/SHT21                              ----- -----  ----- -----
  +--> _DELAY_US/DELAY

_SHT2X_CHECKCRC/SHT21                         ----- -----  0279H 027DH

SHT21_WRITERH/SHT21                           ----- -----  ----- -----
  +--> SHT21_START/SHT21
  +--> _SHT21_WRITE8BIT/SHT21

REFRESHTEMPHUMIDYTASK/NORMAL_TASK             ----- -----  ----- -----
  +--> _WS_TASKJUDGE/WS_TASK_MANAGE
  +--> _WS_DELTASKIFG/WS_TASK_MANAGE
  +--> _REFRESHTEMPHUMIDYFUNC/ACTIVITYFUNCTIONS

REFRESHRTCTIMETASK/NORMAL_TASK                ----- -----  ----- -----
  +--> _WS_TASKJUDGE/WS_TASK_MANAGE
  +--> _WS_DELTASKIFG/WS_TASK_MANAGE
  +--> REFRESHRTCTIMEFUNC/ACTIVITYFUNCTIONS

REFRESHRTCTIMEFUNC/ACTIVITYFUNCTIONS          ----- -----  0269H 0269H
  +--> _RX8010_GETTIME/RX8010
  +--> _DISPLAYTIME/GUI

REFRESHRUNTIMETASK/NORMAL_TASK                ----- -----  ----- -----
  +--> _WS_TASKJUDGE/WS_TASK_MANAGE
  +--> _WS_DELTASKIFG/WS_TASK_MANAGE
  +--> _REFRESHRUNTIMEFUNC/ACTIVITYFUNCTIONS

HEATERWIRECONTROLTASK/NORMAL_TASK             ----- -----  ----- -----
  +--> _WS_TASKJUDGE/WS_TASK_MANAGE
  +--> _WS_DELTASKIFG/WS_TASK_MANAGE
  +--> HEATERPLATEWIRECONTROLFUNC/ACTIVITYFUNCTIONS

HEATERPLATEWIRECONTROLFUNC/ACTIVITYFUNCT+     ----- -----  0269H 026EH
... IONS
  +--> _LCD_SHOWXNUM/LCD
  +--> _ABS/ABS
  +--> PID_CALC/ACTIVITYFUNCTIONS
  +--> HEATPLATETEMP_AIM_PID_CALC/ACTIVITYFUNCTIONS
  +--> HEATPLATE_PID_CALC/ACTIVITYFUNCTIONS
  +--> PATIENTTEMP_NONEHEATWIRE_ADJ/ACTIVITYFUNCTIONS

_ABS/ABS                                      ----- -----  ----- -----

PID_CALC/ACTIVITYFUNCTIONS                    ----- -----  ----- -----

HEATPLATETEMP_AIM_PID_CALC/ACTIVITYFUNCT+     ----- -----  ----- -----
... IONS

HEATPLATE_PID_CALC/ACTIVITYFUNCTIONS          ----- -----  ----- -----

PATIENTTEMP_NONEHEATWIRE_ADJ/ACTIVITYFUN+     ----- -----  026FH 0272H
... CTIONS
  +--> HEATPLATE_PID_CALC/ACTIVITYFUNCTIONS
  +--> _LCD_SHOWXNUM/LCD
  +--> _ABS/ABS

LOWPOWERMODETASK/NORMAL_TASK                  ----- -----  ----- -----
LX51 LINKER/LOCATER V4.66.1.0                                                         03/30/2019  12:53:22  PAGE 22


  +--> _WS_TASKJUDGE/WS_TASK_MANAGE
  +--> _WS_DELTASKIFG/WS_TASK_MANAGE
  +--> LOWPOWERMODEFUNC/ACTIVITYFUNCTIONS

LOWPOWERMODEFUNC/ACTIVITYFUNCTIONS            ----- -----  ----- -----

HEATERWIREMODEDETTASK/NORMAL_TASK             ----- -----  ----- -----
  +--> _WS_TASKJUDGE/WS_TASK_MANAGE
  +--> _WS_DELTASKIFG/WS_TASK_MANAGE
  +--> HEATERWIREMODEDETFUNC/ACTIVITYFUNCTIONS

HEATERWIREMODEDETFUNC/ACTIVITYFUNCTIONS       ----- -----  ----- -----

ALARMERRORTASK/NORMAL_TASK                    ----- -----  ----- -----
  +--> _WS_TASKJUDGE/WS_TASK_MANAGE
  +--> _WS_DELTASKIFG/WS_TASK_MANAGE
  +--> ALARMERRORFUNC/ACTIVITYFUNCTIONS

ALARMERRORFUNC/ACTIVITYFUNCTIONS              ----- -----  0269H 026BH
  +--> _DRAW_RECTANGLE_REAL/LCD
  +--> SOUND_ALARM_PAUSE_DISABLE/SOUND_TYPE
  +--> _DISP_VHB80_PIC/LCD
  +--> _DISP_CQK25X24/LCD
  +--> _DISP_RTD28X24/LCD
  +--> _DISP_HEAT_36X24/LCD

SOUND_ALARM_PAUSE_DISABLE/SOUND_TYPE          ----- -----  ----- -----

_DISP_VHB80_PIC/LCD                           ----- -----  026CH 026CH
  +--> _DISP_VHB80_56X40/LCD
  +--> _DISP_HEAT_36X24/LCD
  +--> _DISP_CQK25X24/LCD
  +--> _DRAW_RECTANGLE_REAL/LCD
  +--> _DISP_RTD28X24/LCD
  +--> _DISP_JQK41X16/LCD

_DISP_VHB80_56X40/LCD                         ----- -----  ----- -----
  +--> ?CO?LCD
  +--> _DISP_MONO_GRAP/LCD

_DISP_CQK25X24/LCD                            ----- -----  ----- -----
  +--> ?CO?LCD
  +--> _DISP_MONO_GRAP/LCD

_DISP_RTD28X24/LCD                            ----- -----  ----- -----
  +--> ?CO?LCD
  +--> _DISP_MONO_GRAP/LCD

_DISP_JQK41X16/LCD                            ----- -----  ----- -----
  +--> ?CO?LCD
  +--> _DISP_MONO_GRAP/LCD

LOWTEMPDET1STASK/NORMAL_TASK                  ----- -----  ----- -----
  +--> _WS_TASKJUDGE/WS_TASK_MANAGE
  +--> _WS_DELTASKIFG/WS_TASK_MANAGE
  +--> LOWTEMPDET1SFUNC/ACTIVITYFUNCTIONS

LOWTEMPDET1SFUNC/ACTIVITYFUNCTIONS            ----- -----  0269H 026EH
  +--> _LCD_SHOWXNUM/LCD

SAVEDATETOFLASHTASK/NORMAL_TASK               ----- -----  ----- -----
  +--> _WS_TASKJUDGE/WS_TASK_MANAGE
  +--> _WS_DELTASKIFG/WS_TASK_MANAGE
  +--> SAVEDATETOFLASHFUNC/ACTIVITYFUNCTIONS

LX51 LINKER/LOCATER V4.66.1.0                                                         03/30/2019  12:53:22  PAGE 23


SAVEDATETOFLASHFUNC/ACTIVITYFUNCTIONS         ----- -----  0269H 026EH
  +--> _RX8010_GETTIME/RX8010
  +--> _SPI_WRITE_NBYTES/W25X
  +--> STORE_DATA/ACTIVITYFUNCTIONS
  +--> _SPI_ERASE_SECTOR/W25X

STORE_DATA/ACTIVITYFUNCTIONS                  ----- -----  026FH 026FH
  +--> _SPI_WRITE_NBYTES/W25X

UARTRECTASK/NORMAL_TASK                       ----- -----  ----- -----
  +--> _WS_TASKJUDGE/WS_TASK_MANAGE
  +--> _WS_DELTASKIFG/WS_TASK_MANAGE
  +--> UART_RECDATA_FUNC/ACTIVITYFUNCTIONS

UART_RECDATA_FUNC/ACTIVITYFUNCTIONS           ----- -----  0269H 026CH
  +--> EUSART_READ/UART_FUN
  +--> UART_RECBUF_CLEAR_FUN/ACTIVITYFUNCTIONS
  +--> _SPI_READ_NBYTES/W25X
  +--> _EUSART_WRITE_STR/UART_FUN

EUSART_READ/UART_FUN                          ----- -----  ----- -----

UART_RECBUF_CLEAR_FUN/ACTIVITYFUNCTIONS       ----- -----  ----- -----

_EUSART_WRITE_STR/UART_FUN                    ----- -----  026DH 026FH
  +--> _EUSART_WRITE/UART_FUN

_EUSART_WRITE/UART_FUN                        ----- -----  ----- -----
  +--> _SEND_CHAR_COM/UART_FUN

_SEND_CHAR_COM/UART_FUN                       ----- -----  ----- -----

?C_INITSEG                                    ----- -----  ----- -----
  +--> KEYUPPRESSSHORTACTION/KEY_DATAS
  +--> KEYUPPRESSLONGFIRSTACTION/KEY_DATAS
  +--> KEYUPPRESSLONGREPEATACTION/KEY_DATAS
  +--> KEYDOWNPRESSSHORTACTION/KEY_DATAS
  +--> KEYDOWNPRESSLONGFIRSTACTION/KEY_DATAS
  +--> KEYDOWNPRESSLONGREPEATACTION/KEY_DATAS
  +--> KEYOKPRESSSHORTACTION/KEY_DATAS
  +--> KEYOKPRESSLONGFIRSTACTION/KEY_DATAS
  +--> KEYOKPRESSLONGREPEATACTION/KEY_DATAS
  +--> KEYMUTEPRESSSHORTACTION/KEY_DATAS
  +--> KEYMUTEPRESSLONGFIRSTACTION/KEY_DATAS
  +--> KEYMUTEPRESSLONGREPEATACTION/KEY_DATAS

KEYUPPRESSSHORTACTION/KEY_DATAS               ----- -----  ----- -----

KEYUPPRESSLONGFIRSTACTION/KEY_DATAS           ----- -----  ----- -----

KEYUPPRESSLONGREPEATACTION/KEY_DATAS          ----- -----  ----- -----

KEYDOWNPRESSSHORTACTION/KEY_DATAS             ----- -----  ----- -----

KEYDOWNPRESSLONGFIRSTACTION/KEY_DATAS         ----- -----  ----- -----

KEYDOWNPRESSLONGREPEATACTION/KEY_DATAS        ----- -----  ----- -----

KEYOKPRESSSHORTACTION/KEY_DATAS               ----- -----  ----- -----

KEYOKPRESSLONGFIRSTACTION/KEY_DATAS           ----- -----  ----- -----

KEYOKPRESSLONGREPEATACTION/KEY_DATAS          ----- -----  ----- -----

KEYMUTEPRESSSHORTACTION/KEY_DATAS             ----- -----  ----- -----
LX51 LINKER/LOCATER V4.66.1.0                                                         03/30/2019  12:53:22  PAGE 24


  +--> SOUND_ALARM_PAUSE_ENABLE/SOUND_TYPE
  +--> SOUND_ALARM_PAUSE_DISABLE/SOUND_TYPE

SOUND_ALARM_PAUSE_ENABLE/SOUND_TYPE           ----- -----  ----- -----

KEYMUTEPRESSLONGFIRSTACTION/KEY_DATAS         ----- -----  ----- -----

KEYMUTEPRESSLONGREPEATACTION/KEY_DATAS        ----- -----  ----- -----



PUBLIC SYMBOLS OF MODULE:  ..\OBJ\VHB15A (STC_EEPROM)


      VALUE       CLASS    TYPE      PUBLIC SYMBOL NAME
      =================================================
      02000271H   XDATA    BYTE      ?_DISP_DHM?BYTE
      0200026BH   XDATA    BYTE      ?_DISP_FNT10X24?BYTE
      0200028AH   XDATA    BYTE      ?_DISP_FNT12X24?BYTE
      0200028AH   XDATA    BYTE      ?_DISP_FNT8X16?BYTE
      02000271H   XDATA    BYTE      ?_DISP_ICO_32X40?BYTE
      02000271H   XDATA    BYTE      ?_DISP_ICO_40X40?BYTE
      02000271H   XDATA    BYTE      ?_DISP_ICO_52X64?BYTE
      02000271H   XDATA    BYTE      ?_DISP_RH14X24?BYTE
      02000277H   XDATA    BYTE      ?_DISP_RH_17X40?BYTE
      02000277H   XDATA    BYTE      ?_DISP_TEMP_30X56?BYTE
      0200026CH   XDATA    BYTE      ?_DISP_TEMP_38X64?BYTE
      02000272H   XDATA    BYTE      ?_DISP_TIME_10X16?BYTE
      02000271H   XDATA    BYTE      ?_Draw_Circle?BYTE
      02000271H   XDATA    BYTE      ?_Draw_Rectangle?BYTE
      02000277H   XDATA    BYTE      ?_Draw_Rectangle_Real?BYTE
      02000277H   XDATA    BYTE      ?_DS18B20_CheckCrc?BYTE
      02000299H   XDATA    BYTE      ?_LCD_CrtlWrite_Area?BYTE
      02000282H   XDATA    BYTE      ?_LCD_ShowChar?BYTE
      02000272H   XDATA    BYTE      ?_LCD_ShowString?BYTE
      02000273H   XDATA    BYTE      ?_LCD_ShowxNum?BYTE
      02000279H   XDATA    BYTE      ?_SHT2x_CheckCrc?BYTE
      02000272H   XDATA    BYTE      ?_SPI_Read_nBytes?BYTE
      02000270H   XDATA    BYTE      ?_SPI_Write_nBytes?BYTE
      01005B48H   CODE     ---       ?C?CCASE
      010057C5H   CODE     ---       ?C?CLDOPTR
      010057ACH   CODE     ---       ?C?CLDPTR
      00000000H   NUMBER   ---       ?C?CODESEG
      01005786H   CODE     ---       ?C?COPY
      01005804H   CODE     ---       ?C?CSTOPTR
      010057F2H   CODE     ---       ?C?CSTPTR
      01005B6EH   CODE     ---       ?C?ICALL
      01005B72H   CODE     ---       ?C?ICALL2
      010058C3H   CODE     ---       ?C?IILDX
      01005826H   CODE     ---       ?C?IMUL
      010058D9H   CODE     ---       ?C?LADD
      01005A11H   CODE     ---       ?C?LAND
      01005A85H   CODE     ---       ?C?LLDXDATA
      01005A91H   CODE     ---       ?C?LLDXDATA0
      010058F4H   CODE     ---       ?C?LMUL
      01005A2BH   CODE     ---       ?C?LNOT
      01005A1EH   CODE     ---       ?C?LOR
      01005A72H   CODE     ---       ?C?LSHL
      01005AA9H   CODE     ---       ?C?LSTKXDATA
      01005A9DH   CODE     ---       ?C?LSTXDATA
      010058E6H   CODE     ---       ?C?LSUB
      01005ADAH   CODE     ---       ?C?OFFXADD
      01005C6FH   CODE     ---       ?C?PLDCODE
      01005C5DH   CODE     ---       ?C?PLDIDATA
      01005B18H   CODE     ---       ?C?PLDOPTR
LX51 LINKER/LOCATER V4.66.1.0                                                         03/30/2019  12:53:22  PAGE 25


      01005C66H   CODE     ---       ?C?PLDPDATA
      01005AF8H   CODE     ---       ?C?PLDPTR
      01005AE6H   CODE     ---       ?C?PLDXDATA
      01005AEFH   CODE     ---       ?C?PSTXDATA
      0100588DH   CODE     ---       ?C?SIDIV
      01005A38H   CODE     ---       ?C?SLCMP
      010062AFH   CODE     ---       ?C?SLDIV
      01005C40H   CODE     ---       ?C?STRCPY
      01005838H   CODE     ---       ?C?UIDIV
      01005A4EH   CODE     ---       ?C?ULCMP
      0100597FH   CODE     ---       ?C?ULDIV
      01005A5FH   CODE     ---       ?C?ULSHR
      00000000H   NUMBER   ---       ?C?XDATASEG
      0100626AH   CODE     ---       ?C_START
      01000000H   CODE     ---       ?C_STARTUP
      02000269H   XDATA    BYTE      ?Key_Multifun?BYTE
      01000016H   CODE     ---       _ABS
      01007FF8H   CODE     ---       _delay_ms
      01007806H   CODE     ---       _delay_us
      0100AF32H   CODE     ---       _DISP_CQK25X24
      0100979AH   CODE     ---       _DISP_DHM
      0100857DH   CODE     ---       _DISP_FNT10X24
      010085A7H   CODE     ---       _DISP_FNT12X24
      0100B374H   CODE     ---       _DISP_FNT8X16
      0100AEF7H   CODE     ---       _DISP_HEAT_36X24
      010095A9H   CODE     ---       _DISP_ICO_32X40
      010093A5H   CODE     ---       _DISP_ICO_40X40
      010097B7H   CODE     ---       _DISP_ICO_52X64
      0100AE49H   CODE     ---       _DISP_JQK41X16
      01006F6DH   CODE     ---       _DISP_RH14X24
      01009D04H   CODE     ---       _DISP_RH_17X40
      0100AF4AH   CODE     ---       _DISP_RTD28X24
      01009D41H   CODE     ---       _DISP_TEMP_30X56
      01009ED3H   CODE     ---       _DISP_TEMP_38X64
      01008CBAH   CODE     ---       _DISP_TIME_10X16
      0100AF10H   CODE     ---       _DISP_VHB80_56X40
      0100ADE6H   CODE     ---       _DISP_VHB80_PIC
      0100AF74H   CODE     ---       _Disp_WuChuang
      0100AF5CH   CODE     ---       _Disp_YouChuang
      01008BA5H   CODE     ---       _DisPlayTime
      01008463H   CODE     ---       _Draw_Circle
      01006913H   CODE     ---       _Draw_Rectangle
      01006BC7H   CODE     ---       _Draw_Rectangle_Real
      0100BD73H   CODE     ---       _DS18B20_CheckCrc
      01007ABFH   CODE     ---       _DS18B20_WriteByte
      0100BCA8H   CODE     ---       _EUSART_Write
      0100BC8FH   CODE     ---       _EUSART_Write_Str
      010063C8H   CODE     ---       _HmiEnterToWorkStateFunc
      010086FCH   CODE     ---       _LCD_CrtlWrite_Area
      01008429H   CODE     ---       _LCD_CtrlWrite_Color
      0100843CH   CODE     ---       _LCD_CtrlWrite_ILI9328
      0100B47EH   CODE     ---       _LCD_ShowChar
      0100656BH   CODE     ---       _LCD_ShowString
      01007693H   CODE     ---       _LCD_ShowxNum
      0100A382H   CODE     ---       _readEEone
      0100A260H   CODE     ---       _RefreshRunTimeFunc
      0100996DH   CODE     ---       _RefreshTempHumidyFunc
      0100A326H   CODE     ---       _RX8010_GetTime
      0100A56AH   CODE     ---       _RX8010_SetTime
      0100BCC3H   CODE     ---       _SHT2x_CheckCrc
      0100B9F6H   CODE     ---       _SPI_Erase_Sector
      0100B935H   CODE     ---       _SPI_Read_nBytes
      0100B992H   CODE     ---       _SPI_Send_Byte
      0100B9B0H   CODE     ---       _SPI_Write_nBytes
      010067F6H   CODE     ---       _STC_IAP_Byte_Program
LX51 LINKER/LOCATER V4.66.1.0                                                         03/30/2019  12:53:22  PAGE 26


      010062F3H   CODE     ---       _STC_IAP_Byte_Read
      01006813H   CODE     ---       _STC_IAP_Sector_Erase
      010089E4H   CODE     ---       _WS_DelTaskIfg
      010081F4H   CODE     ---       _WS_SetTaskIfg
      01008FC4H   CODE     ---       _WS_TaskJudge
*SFR* 000000E0H   DATA     BYTE      ACC
      0100A89FH   CODE     ---       AlarmErrorFunc
      0100B04BH   CODE     ---       AlarmErrorTask
      0200008FH   XDATA    BYTE      AlarmInfoIndex
      0200008EH   XDATA    BYTE      AlarmSoundPauseStatus
      01004330H   CODE     ---       asc2_1608
      01004920H   CODE     ---       asc2_2412
*SFR* 0000008EH   DATA     BYTE      AUXR
      020002CDH   XDATA    BYTE      Back_Color
      0100341FH   CODE     ---       CQK25X24
      02000061H   XDATA    LONG      CQK_Temp
      02000072H   XDATA    BYTE      CQK_Temp_Reach_Set_Cnt
      0200003DH   XDATA    ---       data_flash
      02000046H   XDATA    BYTE      defalut_mode
      01003087H   CODE     ---       DHM14X16
      02000073H   XDATA    WORD      Diplay_RTtemp
      020002ABH   XDATA    BYTE      Display_Temp_Kind
      01006A3FH   CODE     ---       DrawWorkWindows
      01007A4AH   CODE     ---       DS18B20_ReadByte
*SFR* 000000A8H.7 DATA     BIT       EA
      0200007AH   XDATA    BYTE      ERR_Kind
      0100BF41H   CODE     ---       Error_Base_HeaterWire_DISP_Enable
*SFR* 000000A8H.1 DATA     BIT       ET0
      0100C38FH   CODE     ---       EUSART_Initialize
      0100BCFFH   CODE     ---       EUSART_Read
      0100BE2DH   CODE     ---       EUSART_Receive_ISR
      0100BE92H   CODE     ---       EUSART_Transmit_ISR
      0200018CH   XDATA    BYTE      eusartRxCount
*SFR* 000000A8H.2 DATA     BIT       EX1
      0100358EH   CODE     ---       FNT10X24
      01007813H   CODE     ---       GetTemp_HpChamberFunc
      0100A219H   CODE     ---       GetTemp_HpChamberTask
      01007C0FH   CODE     ---       GetTempHumidity_PatientFunc
      0100A22AH   CODE     ---       GetTempHumidity_PatientTask
      010009CBH   CODE     ---       gImage_FANEM
      010029B5H   CODE     ---       gImage_LAN_SEL_EN
      01002C07H   CODE     ---       gImage_LAN_SEL_ES
      01002D1BH   CODE     ---       gImage_LAN_SEL_FR
      01002AABH   CODE     ---       gImage_LAN_SEL_PT
      01000830H   CODE     ---       gImage_LOGO1
      01000890H   CODE     ---       gImage_LOGO2
      010008FCH   CODE     ---       gImage_LOGO3
      01000962H   CODE     ---       gImage_LOGO4
      0100099BH   CODE     ---       gImage_LOGO5
      010033B3H   CODE     ---       HEAT36X32
      02000077H   XDATA    BYTE      HeaterPlate_State
      0100704FH   CODE     ---       HeaterPlateWireControlFunc
      01008820H   CODE     ---       HeaterPlateWireDriveFbTask
      0100A80CH   CODE     ---       HeaterWireControlTask
      0100B001H   CODE     ---       HeaterWireModeDetFunc
      0100AFF1H   CODE     ---       HeaterWireModeDetTask
      01008994H   CODE     ---       HmiFactoryDefault_Tik_Cnt
      01009029H   CODE     ---       HmiFactoryDefaultFunc
      01009019H   CODE     ---       HmiFactoryDefaultSelTask
      01008987H   CODE     ---       HmiNon_InvasiveSel_Tik_Cnt
      010068A3H   CODE     ---       HmiNon_InvasiveSelFunc
      010097F1H   CODE     ---       HmiNon_InvasiveSelTask
      010065FBH   CODE     ---       HmiPostFunc
      0100897AH   CODE     ---       HmiPostFunc_Tik_Cnt
      01009008H   CODE     ---       HmiPostTask
LX51 LINKER/LOCATER V4.66.1.0                                                         03/30/2019  12:53:22  PAGE 27


      01009812H   CODE     ---       HmiRunningFunc
      01009802H   CODE     ---       HmiRunningTask
      01008933H   CODE     ---       HmiScreenSaverMode_Tik_Cnt
      01009DD3H   CODE     ---       HmiScreenSaverModeFunc
      0100A208H   CODE     ---       HmiScreenSaverModeTask
      01006C5FH   CODE     ---       HmiServiceModeFunc
      01008FDAH   CODE     ---       HmiServiceModeTask
      0100A024H   CODE     ---       HmiSetInExpFunc
      0100A014H   CODE     ---       HmiSetInExpTask
      010095C6H   CODE     ---       HmiSetTempChamberFunc
      0100A003H   CODE     ---       HmiSetTempChamberTask
      01009403H   CODE     ---       HmiSetTempPatientFunc
      01009FF2H   CODE     ---       HmiSetTempPatientTask
      01008CE5H   CODE     ---       HmiSetTimeFunc
      01008F84H   CODE     ---       HmiSetTimeTask
      02000078H   XDATA    WORD      HP_CNT_Int
      0200007BH   XDATA    WORD      HP_CNT_Int_End_Rem
*SFR* 000000C3H   DATA     BYTE      IAP_ADDRH
*SFR* 000000C4H   DATA     BYTE      IAP_ADDRL
*SFR* 000000C5H   DATA     BYTE      IAP_CMD
*SFR* 000000C7H   DATA     BYTE      IAP_CONTR
*SFR* 000000C2H   DATA     BYTE      IAP_DATA
*SFR* 000000C6H   DATA     BYTE      IAP_TRIG
      0100284DH   CODE     ---       ICO24X24
      01001CE5H   CODE     ---       ICO32X40
      01002145H   CODE     ---       ICO40X40
      01002E47H   CODE     ---       ICO48X48
*SFR* 000000A8H   DATA     BYTE      IE
      02000057H   XDATA    BYTE      In_Exp_Ratio
      01008200H   CODE     ---       Init_port
*SFR* 00000088H.2 DATA     BIT       IT1
      0200005FH   XDATA    INT       JEP_Temp
      010034BEH   CODE     ---       JQK41X16
      02000235H   XDATA    ---       Key_Down
      02000227H   XDATA    ---       Key_Down_Element
      02000226H   XDATA    BYTE      Key_Down_Tik
      01008953H   CODE     ---       Key_Down_TikFunc
      01008A7CH   CODE     ---       Key_Multifun
      02000261H   XDATA    ---       Key_Mute
      02000253H   XDATA    ---       Key_Mute_Element
      02000252H   XDATA    BYTE      Key_Mute_Tik
      0100896DH   CODE     ---       Key_Mute_TikFunc
      0200024BH   XDATA    ---       Key_OK
      0200023DH   XDATA    ---       Key_OK_Element
      0200023CH   XDATA    BYTE      Key_OK_Tik
      01008960H   CODE     ---       Key_OK_TikFunc
      02000268H   XDATA    BYTE      Key_State_Present
      0200021FH   XDATA    ---       Key_UP
      02000211H   XDATA    ---       Key_UP_Element
      02000210H   XDATA    BYTE      Key_UP_Tik
      01008946H   CODE     ---       Key_UP_TikFunc
      010089F2H   CODE     ---       KeyScanTask
      020002C3H   XDATA    BYTE      KeyToFuncVal
      010082EAH   CODE     ---       LCD_Initial
      0100A190H   CODE     ---       LCD_Show_Verion
      0100BF70H   CODE     ---       Load_Settings_Before_Choice
      0100A82DH   CODE     ---       LowPowerModeFunc
      0100A81DH   CODE     ---       LowPowerModeTask
      0100B06CH   CODE     ---       LowTempDet1SFunc
      0100B05CH   CODE     ---       LowTempDet1STask
      01008028H   CODE     ---       main
      0100BD1AH   CODE     ---       Main_Init
      0100881BH   CODE     ---       Main_Tik_FunctionS
      01008012H   CODE     ---       Main_Tik_Tok_Initial_Fun
      01008083H   CODE     ---       ManageTask
LX51 LINKER/LOCATER V4.66.1.0                                                         03/30/2019  12:53:22  PAGE 28


      01006309H   CODE     ---       Mem_Flash_Recall
      02000059H   XDATA    WORD      Micro_Temp_In
      0200005BH   XDATA    WORD      Micro_Temp_Out
      02000058H   XDATA    BYTE      Micro_Temp_Val
      02000090H   XDATA    BYTE      No_HeatSensor_Times
      010019C5H   CODE     ---       NUM10X16
      01001673H   CODE     ---       NUM17X40
      01000E3FH   CODE     ---       NUM30X56
      01003750H   CODE     ---       NUM38X64
      01001A8DH   CODE     ---       Num8X16
      01001B7DH   CODE     ---       Num8X24
*SFR* 00000080H   DATA     BYTE      P0
*SFR* 00000090H   DATA     BIT       P10
*SFR* 00000090H.1 DATA     BIT       P11
*SFR* 00000090H.2 DATA     BIT       P12
*SFR* 00000090H.3 DATA     BIT       P13
*SFR* 00000090H.4 DATA     BIT       P14
*SFR* 00000090H.5 DATA     BIT       P15
*SFR* 00000090H.6 DATA     BIT       P16
*SFR* 00000090H.7 DATA     BIT       P17
*SFR* 00000092H   DATA     BYTE      P1M0
*SFR* 00000091H   DATA     BYTE      P1M1
*SFR* 000000A0H   DATA     BIT       P20
*SFR* 000000A0H.1 DATA     BIT       P21
*SFR* 000000A0H.2 DATA     BIT       P22
*SFR* 000000A0H.3 DATA     BIT       P23
*SFR* 000000A0H.5 DATA     BIT       P25
*SFR* 000000A0H.6 DATA     BIT       P26
*SFR* 000000A0H.7 DATA     BIT       P27
*SFR* 00000096H   DATA     BYTE      P2M0
*SFR* 00000095H   DATA     BYTE      P2M1
*SFR* 000000B0H.2 DATA     BIT       P32
*SFR* 000000B0H.4 DATA     BIT       P34
*SFR* 000000B0H.5 DATA     BIT       P35
*SFR* 000000B0H.6 DATA     BIT       P36
*SFR* 000000B0H.7 DATA     BIT       P37
*SFR* 000000B2H   DATA     BYTE      P3M0
*SFR* 000000B1H   DATA     BYTE      P3M1
*SFR* 000000C0H   DATA     BIT       P40
*SFR* 000000C0H.1 DATA     BIT       P41
*SFR* 000000C0H.2 DATA     BIT       P42
*SFR* 000000C0H.3 DATA     BIT       P43
*SFR* 000000C0H.4 DATA     BIT       P44
*SFR* 000000C0H.5 DATA     BIT       P45
*SFR* 000000C0H.6 DATA     BIT       P46
*SFR* 000000B4H   DATA     BYTE      P4M0
*SFR* 000000B3H   DATA     BYTE      P4M1
*SFR* 000000BBH   DATA     BYTE      P4SW
*SFR* 00000087H   DATA     BYTE      PCON
      01000306H   CODE     ---       PIC_WuChuang
      01000040H   CODE     ---       PIC_YouChuang
      020002CBH   XDATA    BYTE      Read_18B20_Value
      020002CCH   XDATA    BYTE      Read_18B20_Value2
      0100AF86H   CODE     ---       Refresh_Work_Mode
      01008F16H   CODE     ---       RefreshRTCTimeFunc
      0100A7EDH   CODE     ---       RefreshRTCTimeTask
      0100A24EH   CODE     ---       RefreshRunTimeTask
      0100A23BH   CODE     ---       RefreshTempHumidyTask
      01003510H   CODE     ---       RH14X24
*SFR* 00000098H   DATA     BIT       RI
      0200005DH   XDATA    INT       RT_Temp
      02000071H   XDATA    BYTE      RT_Temp_Reach_Set_Cnt
      0100346AH   CODE     ---       RTD28X24
      0100A4A6H   CODE     ---       RX8010_Initialize
      0200007DH   XDATA    ---       SaveData
LX51 LINKER/LOCATER V4.66.1.0                                                         03/30/2019  12:53:22  PAGE 29


      0100A641H   CODE     ---       SaveDateToFlashFunc
      0100B7FBH   CODE     ---       SaveDateToFlashTask
*SFR* 00000099H   DATA     BYTE      SBUF
*SFR* 00000098H   DATA     BYTE      SCON
      01009B62H   CODE     ---       ServiceMode_TempHumidy_Disp
      0200006BH   XDATA    WORD      Set_CQK_Temp
      0200006DH   XDATA    WORD      Set_CQK_WCTemp
      0200006FH   XDATA    WORD      Set_CQK_YCTemp
      02000065H   XDATA    INT       Set_RT_Temp
      02000067H   XDATA    WORD      Set_RT_WCTemp
      02000069H   XDATA    WORD      Set_RT_YCTemp
      0100683EH   CODE     ---       Setting_write_to_flash
      010005E0H   CODE     ---       Shangbiao8
      02000047H   XDATA    ---       show_str
      0100BBA9H   CODE     ---       SHT21_ReadData
      01007C09H   CODE     ---       SHT21_WriteRH
      01007BF6H   CODE     ---       SHT21_WriteTemp
      0100AFDDH   CODE     ---       Sound_Alarm_Pause_Disable
      0100C26DH   CODE     ---       Sound_Alarm_Pause_Enable
      0100971CH   CODE     ---       Sound_Short
      010089ADH   CODE     ---       Sound_Type_Drive
      0100BE49H   CODE     ---       SPI_Get_Byte
      0100BE14H   CODE     ---       SPI_init
      0100BE0BH   CODE     ---       SPI_Write_Disable
      0100BA20H   CODE     ---       SPI_Write_Enable
      020002CEH   XDATA    BYTE      step_step_times
      01008925H   CODE     ---       Sub_Tik_FunctionS
      0200008DH   XDATA    BYTE      Test_Mode_Dis_Jrp_Ctl
*SFR* 00000088H.5 DATA     BIT       TF0
*SFR* 0000008CH   DATA     BYTE      TH0
*SFR* 0000008DH   DATA     BYTE      TH1
*SFR* 00000098H.1 DATA     BIT       TI
      010087F3H   CODE     ---       Timer_T0_INT_Main
*SFR* 0000008AH   DATA     BYTE      TL0
*SFR* 00000089H   DATA     BYTE      TMOD
*SFR* 00000088H.4 DATA     BIT       TR0
*SFR* 00000088H.6 DATA     BIT       TR1
      0100B81CH   CODE     ---       UART_RecData_Func
      0100B80CH   CODE     ---       UartRecTask
      0100329BH   CODE     ---       VHB8056X40
*SFR* 000000C1H   DATA     BYTE      WDT_CONTR
      00000020H.0 BIT      BIT       Wire_Mode_Mismatch
      02000075H   XDATA    BYTE      WireIn_State
      0100C238H   CODE     ---       WireInOut_State_Confirm
      02000076H   XDATA    BYTE      WireOut_State
      02000045H   XDATA    BYTE      Work_Mode
      020002C2H   XDATA    BYTE      Work_State
      02000091H   XDATA    WORD      Working_Normal
      02000107H   XDATA    DWORD     WS_TaskIfg
      0200010BH   XDATA    ---       WS_TaskMap
      0200018BH   XDATA    BYTE      WS_TaskState



SYMBOL TABLE OF MODULE:  ..\OBJ\VHB15A (STC_EEPROM)

      VALUE       REP       CLASS    TYPE      SYMBOL NAME
      ====================================================
      ---         MODULE    ---      ---       STC_EEPROM
      01006813H   PUBLIC    CODE     ---       _STC_IAP_Sector_Erase
      010067F6H   PUBLIC    CODE     ---       _STC_IAP_Byte_Program
      010062F3H   PUBLIC    CODE     ---       _STC_IAP_Byte_Read
      000000C2H   SFRSYM    DATA     BYTE      IAP_DATA
      000000C3H   SFRSYM    DATA     BYTE      IAP_ADDRH
      000000C4H   SFRSYM    DATA     BYTE      IAP_ADDRL
LX51 LINKER/LOCATER V4.66.1.0                                                         03/30/2019  12:53:22  PAGE 30


      000000C5H   SFRSYM    DATA     BYTE      IAP_CMD
      000000C6H   SFRSYM    DATA     BYTE      IAP_TRIG
      000000C7H   SFRSYM    DATA     BYTE      IAP_CONTR
      020002C7H   SYMBOL    XDATA    ---       my_unTemp16
      01006807H   SYMBOL    CODE     ---       IAP_Disable

      010062F3H   BLOCK     CODE     ---       LVL=0
      010062F3H   LINE      ---      ---       #28
      010062F3H   LINE      ---      ---       #29
      010062F3H   LINE      ---      ---       #30
      010062F6H   LINE      ---      ---       #31
      010062F9H   LINE      ---      ---       #32
      010062FCH   LINE      ---      ---       #34
      010062FFH   LINE      ---      ---       #38
      01006302H   LINE      ---      ---       #40
      01006303H   LINE      ---      ---       #42
      01006306H   LINE      ---      ---       #44
      01006308H   LINE      ---      ---       #45
      00000006H   SYMBOL    DATA     WORD      add
      ---         BLOCKEND  ---      ---       LVL=0

      010067F6H   BLOCK     CODE     ---       LVL=0
      010067F6H   LINE      ---      ---       #47
      010067F6H   LINE      ---      ---       #48
      010067F6H   LINE      ---      ---       #49
      010067F9H   LINE      ---      ---       #50
      010067FCH   LINE      ---      ---       #52
      010067FFH   LINE      ---      ---       #56
      01006804H   LINE      ---      ---       #58
      01006806H   LINE      ---      ---       #60
      00000006H   SYMBOL    DATA     WORD      add
      00000005H   SYMBOL    DATA     BYTE      ch
      ---         BLOCKEND  ---      ---       LVL=0

      01006813H   BLOCK     CODE     ---       LVL=0
      01006813H   LINE      ---      ---       #65
      01006813H   LINE      ---      ---       #66
      01006813H   LINE      ---      ---       #67
      01006816H   LINE      ---      ---       #68
      01006819H   LINE      ---      ---       #70
      0100681BH   LINE      ---      ---       #74
      0100681DH   LINE      ---      ---       #76
      0100681EH   LINE      ---      ---       #78
      00000006H   SYMBOL    DATA     WORD      add
      ---         BLOCKEND  ---      ---       LVL=0

      01006807H   BLOCK     CODE     ---       LVL=0
      01006807H   LINE      ---      ---       #81
      01006807H   LINE      ---      ---       #82
      01006807H   LINE      ---      ---       #83
      0100680AH   LINE      ---      ---       #84
      0100680CH   LINE      ---      ---       #85
      0100680EH   LINE      ---      ---       #86
      01006810H   LINE      ---      ---       #87
      01006812H   LINE      ---      ---       #88
      ---         BLOCKEND  ---      ---       LVL=0

      ---         MODULE    ---      ---       DELAY
      01007FF8H   PUBLIC    CODE     ---       _delay_ms
      01007806H   PUBLIC    CODE     ---       _delay_us

      010077F5H   BLOCK     CODE     ---       LVL=0
      01007806H   LINE      ---      ---       #4
      01007806H   LINE      ---      ---       #5
      01007806H   LINE      ---      ---       #6
LX51 LINKER/LOCATER V4.66.1.0                                                         03/30/2019  12:53:22  PAGE 31


      0100780FH   LINE      ---      ---       #7
      0100780FH   LINE      ---      ---       #8
      01007810H   LINE      ---      ---       #9
      01007812H   LINE      ---      ---       #10
      00000006H   SYMBOL    DATA     WORD      t
      ---         BLOCKEND  ---      ---       LVL=0

      01007FF8H   BLOCK     CODE     ---       LVL=0
      01007FF8H   LINE      ---      ---       #13
      01007FF8H   LINE      ---      ---       #14
      00000006H   SYMBOL    DATA     WORD      t
      01007FF8H   BLOCK     CODE     NEAR LAB  LVL=1
      01007FF8H   LINE      ---      ---       #16
      01008001H   LINE      ---      ---       #17
      01008001H   LINE      ---      ---       #18
      01008005H   LINE      ---      ---       #19
      0100800EH   LINE      ---      ---       #20
      0100800EH   LINE      ---      ---       #21
      0100800FH   LINE      ---      ---       #22
      01008011H   LINE      ---      ---       #23
      01008011H   LINE      ---      ---       #24
      00000004H   SYMBOL    DATA     WORD      i
      ---         BLOCKEND  CODE     ---       LVL=1
      ---         BLOCKEND  CODE     ---       LVL=0

      ---         MODULE    ---      ---       MAIN_TIK_TOK
      010087F3H   PUBLIC    CODE     ---       Timer_T0_INT_Main
      01008012H   PUBLIC    CODE     ---       Main_Tik_Tok_Initial_Fun
      0000008EH   SFRSYM    DATA     BYTE      AUXR
      00000089H   SFRSYM    DATA     BYTE      TMOD
      0000008AH   SFRSYM    DATA     BYTE      TL0
      0000008CH   SFRSYM    DATA     BYTE      TH0
      000000A8H.1 SFRSYM    DATA     BIT       ET0
      00000088H.5 SFRSYM    DATA     BIT       TF0
      00000088H.4 SFRSYM    DATA     BIT       TR0
      020002C9H   SYMBOL    XDATA    WORD      Sub_1_TikCount

      01008012H   BLOCK     CODE     ---       LVL=0
      01008012H   LINE      ---      ---       #19
      01008012H   LINE      ---      ---       #20
      01008012H   LINE      ---      ---       #21
      01008015H   LINE      ---      ---       #22
      01008018H   LINE      ---      ---       #23
      0100801BH   LINE      ---      ---       #24
      0100801EH   LINE      ---      ---       #25
      01008021H   LINE      ---      ---       #26
      01008023H   LINE      ---      ---       #27
      01008025H   LINE      ---      ---       #28
      01008027H   LINE      ---      ---       #29
      ---         BLOCKEND  ---      ---       LVL=0

      010087F3H   BLOCK     CODE     ---       LVL=0
      010087F3H   LINE      ---      ---       #33
      010087F3H   LINE      ---      ---       #34
      010087F3H   LINE      ---      ---       #35
      010087F6H   LINE      ---      ---       #36
      010087F9H   LINE      ---      ---       #38
      010087FCH   LINE      ---      ---       #39
      010087FFH   LINE      ---      ---       #40
      01008805H   LINE      ---      ---       #41
      01008814H   LINE      ---      ---       #42
      01008814H   LINE      ---      ---       #43
      01008818H   LINE      ---      ---       #44
      0100881AH   LINE      ---      ---       #45
      0100881AH   LINE      ---      ---       #46
LX51 LINKER/LOCATER V4.66.1.0                                                         03/30/2019  12:53:22  PAGE 32


      ---         BLOCKEND  ---      ---       LVL=0

      ---         MODULE    ---      ---       WS_TASK_MANAGE
      0200018BH   PUBLIC    XDATA    BYTE      WS_TaskState
      0200010BH   PUBLIC    XDATA    ---       WS_TaskMap
      02000107H   PUBLIC    XDATA    DWORD     WS_TaskIfg
      01008FC4H   PUBLIC    CODE     ---       _WS_TaskJudge
      010089E4H   PUBLIC    CODE     ---       _WS_DelTaskIfg
      010081F4H   PUBLIC    CODE     ---       _WS_SetTaskIfg

      010081F4H   BLOCK     CODE     ---       LVL=0
      010081F4H   LINE      ---      ---       #48
      010081F4H   LINE      ---      ---       #49
      010081F4H   LINE      ---      ---       #50
      00000007H   SYMBOL    DATA     BYTE      Setprio
      ---         BLOCKEND  ---      ---       LVL=0

      010089DFH   BLOCK     CODE     ---       LVL=0
      010089E4H   LINE      ---      ---       #54
      010089E4H   LINE      ---      ---       #55
      010089E4H   LINE      ---      ---       #56
      00000007H   SYMBOL    DATA     BYTE      DelPrio
      ---         BLOCKEND  ---      ---       LVL=0

      01008FC4H   BLOCK     CODE     ---       LVL=0
      01008FC4H   LINE      ---      ---       #60
      01008FC4H   LINE      ---      ---       #61
      01008FC4H   LINE      ---      ---       #62
      01008FD7H   LINE      ---      ---       #63
      01008FD7H   LINE      ---      ---       #64
      01008FD9H   LINE      ---      ---       #65
      01008FD9H   LINE      ---      ---       #66
      01008FD9H   LINE      ---      ---       #67
      00000007H   SYMBOL    DATA     BYTE      AllPrio
      ---         BLOCKEND  ---      ---       LVL=0

      ---         MODULE    ---      ---       MAIN_TIK_FUNCTION
      0100881BH   PUBLIC    CODE     ---       Main_Tik_FunctionS

      0100881BH   BLOCK     CODE     ---       LVL=0
      0100881BH   LINE      ---      ---       #6
      0100881BH   LINE      ---      ---       #7
      0100881BH   LINE      ---      ---       #8
      ---         BLOCKEND  ---      ---       LVL=0

      ---         MODULE    ---      ---       SUB_TIK_FUNCTION
      01008925H   PUBLIC    CODE     ---       Sub_Tik_FunctionS

      01008925H   BLOCK     CODE     ---       LVL=0
      01008925H   LINE      ---      ---       #8
      01008925H   LINE      ---      ---       #9
      01008925H   LINE      ---      ---       #10
      01008927H   LINE      ---      ---       #11
      01008929H   LINE      ---      ---       #12
      0100892BH   LINE      ---      ---       #13
      0100892DH   LINE      ---      ---       #15
      0100892FH   LINE      ---      ---       #16
      01008931H   LINE      ---      ---       #17
      ---         BLOCKEND  ---      ---       LVL=0

      ---         MODULE    ---      ---       NORMAL_TASK
      020002C3H   PUBLIC    XDATA    BYTE      KeyToFuncVal
      020002C2H   PUBLIC    XDATA    BYTE      Work_State
      0100B80CH   PUBLIC    CODE     ---       UartRecTask
      0100B7FBH   PUBLIC    CODE     ---       SaveDateToFlashTask
LX51 LINKER/LOCATER V4.66.1.0                                                         03/30/2019  12:53:22  PAGE 33


      0100B05CH   PUBLIC    CODE     ---       LowTempDet1STask
      0100B04BH   PUBLIC    CODE     ---       AlarmErrorTask
      0100AFF1H   PUBLIC    CODE     ---       HeaterWireModeDetTask
      0100A81DH   PUBLIC    CODE     ---       LowPowerModeTask
      0100A80CH   PUBLIC    CODE     ---       HeaterWireControlTask
      0100A7EDH   PUBLIC    CODE     ---       RefreshRTCTimeTask
      0100A24EH   PUBLIC    CODE     ---       RefreshRunTimeTask
      0100A23BH   PUBLIC    CODE     ---       RefreshTempHumidyTask
      0100A22AH   PUBLIC    CODE     ---       GetTempHumidity_PatientTask
      0100A219H   PUBLIC    CODE     ---       GetTemp_HpChamberTask
      0100A208H   PUBLIC    CODE     ---       HmiScreenSaverModeTask
      01008F84H   PUBLIC    CODE     ---       HmiSetTimeTask
      0100A014H   PUBLIC    CODE     ---       HmiSetInExpTask
      0100A003H   PUBLIC    CODE     ---       HmiSetTempChamberTask
      01009FF2H   PUBLIC    CODE     ---       HmiSetTempPatientTask
      01009802H   PUBLIC    CODE     ---       HmiRunningTask
      010097F1H   PUBLIC    CODE     ---       HmiNon_InvasiveSelTask
      01009019H   PUBLIC    CODE     ---       HmiFactoryDefaultSelTask
      01009008H   PUBLIC    CODE     ---       HmiPostTask
      01008FDAH   PUBLIC    CODE     ---       HmiServiceModeTask
      010089F2H   PUBLIC    CODE     ---       KeyScanTask
      01008083H   PUBLIC    CODE     ---       ManageTask
      000000A0H   SFRSYM    DATA     BIT       P20
      000000A0H.1 SFRSYM    DATA     BIT       P21
      000000A0H.2 SFRSYM    DATA     BIT       P22
      000000A0H.3 SFRSYM    DATA     BIT       P23

      01008083H   BLOCK     CODE     ---       LVL=0
      01008083H   LINE      ---      ---       #11
      01008083H   LINE      ---      ---       #12
      01008083H   BLOCK     CODE     NEAR LAB  LVL=1
      01008083H   LINE      ---      ---       #17
      0100808EH   LINE      ---      ---       #19
      0100808EH   LINE      ---      ---       #20
      01008091H   LINE      ---      ---       #21
      01008091H   LINE      ---      ---       #23
      01008095H   LINE      ---      ---       #24
      01008099H   LINE      ---      ---       #26
      010080A4H   LINE      ---      ---       #27
      010080A4H   LINE      ---      ---       #28
      010080A7H   LINE      ---      ---       #29
      010080A7H   LINE      ---      ---       #30
      010080ABH   LINE      ---      ---       #31
      010080AFH   LINE      ---      ---       #32
      010080AFH   LINE      ---      ---       #34
      010080B5H   LINE      ---      ---       #35
      010080BDH   LINE      ---      ---       #36
      010080BDH   LINE      ---      ---       #37
      010080C2H   LINE      ---      ---       #40
      010080C2H   LINE      ---      ---       #41
      010080C4H   LINE      ---      ---       #42
      010080C6H   LINE      ---      ---       #43
      010080CDH   LINE      ---      ---       #44
      010080CDH   LINE      ---      ---       #45
      010080CFH   LINE      ---      ---       #46
      010080D1H   LINE      ---      ---       #47
      010080D8H   LINE      ---      ---       #48
      010080D8H   LINE      ---      ---       #49
      010080DAH   LINE      ---      ---       #50
      010080DCH   LINE      ---      ---       #51
      010080E3H   LINE      ---      ---       #52
      010080E3H   LINE      ---      ---       #53
      010080E5H   LINE      ---      ---       #54
      010080E7H   LINE      ---      ---       #55
      010080EEH   LINE      ---      ---       #56
LX51 LINKER/LOCATER V4.66.1.0                                                         03/30/2019  12:53:22  PAGE 34


      010080EEH   LINE      ---      ---       #57
      010080F0H   LINE      ---      ---       #58
      010080F2H   LINE      ---      ---       #59
      010080F9H   LINE      ---      ---       #60
      010080F9H   LINE      ---      ---       #61
      010080FBH   LINE      ---      ---       #62
      010080FDH   LINE      ---      ---       #63
      01008104H   LINE      ---      ---       #64
      01008104H   LINE      ---      ---       #65
      01008106H   LINE      ---      ---       #66
      01008108H   LINE      ---      ---       #67
      0100810FH   LINE      ---      ---       #68
      0100810FH   LINE      ---      ---       #69
      01008111H   LINE      ---      ---       #70
      01008113H   LINE      ---      ---       #71
      0100811AH   LINE      ---      ---       #72
      0100811AH   LINE      ---      ---       #73
      0100811EH   LINE      ---      ---       #74
      0100811EH   LINE      ---      ---       #76
      01008138H   LINE      ---      ---       #81
      01008138H   LINE      ---      ---       #82
      0100813CH   LINE      ---      ---       #83
      0100813CH   LINE      ---      ---       #85
      01008158H   LINE      ---      ---       #90
      01008158H   LINE      ---      ---       #91
      01008162H   LINE      ---      ---       #93
      01008162H   LINE      ---      ---       #94
      01008166H   LINE      ---      ---       #95
      01008166H   LINE      ---      ---       #96
      01008166H   LINE      ---      ---       #97
      01008166H   LINE      ---      ---       #100
      0100816CH   LINE      ---      ---       #101
      01008172H   LINE      ---      ---       #102
      01008172H   LINE      ---      ---       #103
      01008182H   LINE      ---      ---       #107
      01008182H   LINE      ---      ---       #108
      0100818CH   LINE      ---      ---       #110
      0100818CH   LINE      ---      ---       #111
      01008190H   LINE      ---      ---       #112
      01008190H   LINE      ---      ---       #113
      01008190H   LINE      ---      ---       #115
      010081AAH   LINE      ---      ---       #120
      010081AAH   LINE      ---      ---       #121
      010081AEH   LINE      ---      ---       #122
      010081AEH   LINE      ---      ---       #123
      010081AEH   LINE      ---      ---       #126
      010081B4H   LINE      ---      ---       #127
      010081BAH   LINE      ---      ---       #128
      010081BAH   LINE      ---      ---       #129
      010081BCH   LINE      ---      ---       #130
      010081DBH   LINE      ---      ---       #136
      010081DBH   LINE      ---      ---       #137
      010081DFH   LINE      ---      ---       #138
      010081E3H   LINE      ---      ---       #139
      010081E7H   LINE      ---      ---       #140
      010081EBH   LINE      ---      ---       #141
      010081EFH   LINE      ---      ---       #142
      010081F3H   LINE      ---      ---       #143
      010081F3H   LINE      ---      ---       #144
      010081F3H   LINE      ---      ---       #145
      010081F3H   LINE      ---      ---       #146
      010081F3H   LINE      ---      ---       #147
      010081F3H   LINE      ---      ---       #148
      020002BFH   SYMBOL    XDATA    BYTE      Manage_Tik_100mS_Cnt
      020002C0H   SYMBOL    XDATA    BYTE      Manage_Tik_250mS_Cnt
LX51 LINKER/LOCATER V4.66.1.0                                                         03/30/2019  12:53:22  PAGE 35


      020002C1H   SYMBOL    XDATA    BYTE      Manage_Tik_1000mS_Cnt
      ---         BLOCKEND  CODE     ---       LVL=1
      ---         BLOCKEND  CODE     ---       LVL=0

      010089F2H   BLOCK     CODE     ---       LVL=0
      010089F2H   LINE      ---      ---       #151
      010089F2H   LINE      ---      ---       #152
      010089F2H   BLOCK     CODE     NEAR LAB  LVL=1
      010089F2H   LINE      ---      ---       #154
      010089FBH   LINE      ---      ---       #156
      010089FBH   LINE      ---      ---       #157
      010089FDH   LINE      ---      ---       #158
      010089FDH   LINE      ---      ---       #159
      01008A01H   LINE      ---      ---       #160
      01008A06H   LINE      ---      ---       #161
      01008A06H   LINE      ---      ---       #162
      01008A08H   LINE      ---      ---       #163
      01008A0AH   LINE      ---      ---       #165
      01008A0DH   LINE      ---      ---       #166
      01008A1BH   LINE      ---      ---       #168
      01008A1FH   LINE      ---      ---       #169
      01008A24H   LINE      ---      ---       #170
      01008A24H   LINE      ---      ---       #171
      01008A26H   LINE      ---      ---       #172
      01008A28H   LINE      ---      ---       #174
      01008A2BH   LINE      ---      ---       #175
      01008A39H   LINE      ---      ---       #177
      01008A3DH   LINE      ---      ---       #178
      01008A42H   LINE      ---      ---       #179
      01008A42H   LINE      ---      ---       #180
      01008A44H   LINE      ---      ---       #181
      01008A46H   LINE      ---      ---       #183
      01008A49H   LINE      ---      ---       #184
      01008A57H   LINE      ---      ---       #186
      01008A5BH   LINE      ---      ---       #187
      01008A60H   LINE      ---      ---       #188
      01008A60H   LINE      ---      ---       #189
      01008A62H   LINE      ---      ---       #190
      01008A64H   LINE      ---      ---       #192
      01008A67H   LINE      ---      ---       #193
      01008A75H   LINE      ---      ---       #194
      01008A75H   LINE      ---      ---       #195
      01008A75H   LINE      ---      ---       #196
      00000007H   SYMBOL    DATA     BYTE      bit_status
      ---         BLOCKEND  CODE     ---       LVL=1
      ---         BLOCKEND  CODE     ---       LVL=0

      01008FDAH   BLOCK     CODE     ---       LVL=0
      01008FDAH   LINE      ---      ---       #198
      01008FDAH   LINE      ---      ---       #199
      01008FDAH   LINE      ---      ---       #200
      01008FE3H   LINE      ---      ---       #202
      01008FE3H   LINE      ---      ---       #203
      01008FE5H   LINE      ---      ---       #204
      01008FE5H   LINE      ---      ---       #205
      01008FE8H   LINE      ---      ---       #206
      01008FE8H   LINE      ---      ---       #207
      01008FE8H   LINE      ---      ---       #208
      ---         BLOCKEND  ---      ---       LVL=0

      01009008H   BLOCK     CODE     ---       LVL=0
      01009008H   LINE      ---      ---       #210
      01009008H   LINE      ---      ---       #211
      01009008H   LINE      ---      ---       #212
      01009012H   LINE      ---      ---       #214
LX51 LINKER/LOCATER V4.66.1.0                                                         03/30/2019  12:53:22  PAGE 36


      01009012H   LINE      ---      ---       #215
      01009015H   LINE      ---      ---       #216
      01009015H   LINE      ---      ---       #217
      01009018H   LINE      ---      ---       #218
      01009018H   LINE      ---      ---       #219
      01009018H   LINE      ---      ---       #220
      ---         BLOCKEND  ---      ---       LVL=0

      01009019H   BLOCK     CODE     ---       LVL=0
      01009019H   LINE      ---      ---       #222
      01009019H   LINE      ---      ---       #223
      01009019H   LINE      ---      ---       #224
      01009023H   LINE      ---      ---       #226
      01009023H   LINE      ---      ---       #227
      01009026H   LINE      ---      ---       #228
      01009026H   LINE      ---      ---       #229
      01009028H   LINE      ---      ---       #231
      01009028H   LINE      ---      ---       #232
      01009028H   LINE      ---      ---       #233
      ---         BLOCKEND  ---      ---       LVL=0

      010097F1H   BLOCK     CODE     ---       LVL=0
      010097F1H   LINE      ---      ---       #235
      010097F1H   LINE      ---      ---       #236
      010097F1H   LINE      ---      ---       #237
      010097FBH   LINE      ---      ---       #239
      010097FBH   LINE      ---      ---       #240
      010097FEH   LINE      ---      ---       #241
      010097FEH   LINE      ---      ---       #242
      01009801H   LINE      ---      ---       #243
      01009801H   LINE      ---      ---       #244
      01009801H   LINE      ---      ---       #245
      ---         BLOCKEND  ---      ---       LVL=0

      01009802H   BLOCK     CODE     ---       LVL=0
      01009802H   LINE      ---      ---       #247
      01009802H   LINE      ---      ---       #248
      01009802H   LINE      ---      ---       #249
      0100980CH   LINE      ---      ---       #251
      0100980CH   LINE      ---      ---       #252
      0100980FH   LINE      ---      ---       #253
      0100980FH   LINE      ---      ---       #254
      01009811H   LINE      ---      ---       #255
      01009811H   LINE      ---      ---       #256
      01009811H   LINE      ---      ---       #257
      ---         BLOCKEND  ---      ---       LVL=0

      01009FF2H   BLOCK     CODE     ---       LVL=0
      01009FF2H   LINE      ---      ---       #259
      01009FF2H   LINE      ---      ---       #260
      01009FF2H   LINE      ---      ---       #261
      01009FFCH   LINE      ---      ---       #263
      01009FFCH   LINE      ---      ---       #264
      01009FFFH   LINE      ---      ---       #265
      01009FFFH   LINE      ---      ---       #266
      0100A002H   LINE      ---      ---       #267
      0100A002H   LINE      ---      ---       #268
      0100A002H   LINE      ---      ---       #269
      ---         BLOCKEND  ---      ---       LVL=0

      0100A003H   BLOCK     CODE     ---       LVL=0
      0100A003H   LINE      ---      ---       #271
      0100A003H   LINE      ---      ---       #272
      0100A003H   LINE      ---      ---       #273
      0100A00DH   LINE      ---      ---       #275
LX51 LINKER/LOCATER V4.66.1.0                                                         03/30/2019  12:53:22  PAGE 37


      0100A00DH   LINE      ---      ---       #276
      0100A010H   LINE      ---      ---       #277
      0100A010H   LINE      ---      ---       #278
      0100A013H   LINE      ---      ---       #279
      0100A013H   LINE      ---      ---       #280
      0100A013H   LINE      ---      ---       #281
      ---         BLOCKEND  ---      ---       LVL=0

      0100A014H   BLOCK     CODE     ---       LVL=0
      0100A014H   LINE      ---      ---       #283
      0100A014H   LINE      ---      ---       #284
      0100A014H   LINE      ---      ---       #285
      0100A01EH   LINE      ---      ---       #287
      0100A01EH   LINE      ---      ---       #288
      0100A021H   LINE      ---      ---       #289
      0100A021H   LINE      ---      ---       #290
      0100A023H   LINE      ---      ---       #291
      0100A023H   LINE      ---      ---       #292
      0100A023H   LINE      ---      ---       #293
      ---         BLOCKEND  ---      ---       LVL=0

      01008F84H   BLOCK     CODE     ---       LVL=0
      01008F84H   LINE      ---      ---       #295
      01008F84H   LINE      ---      ---       #296
      01008F84H   LINE      ---      ---       #297
      01008F8DH   LINE      ---      ---       #299
      01008F8DH   LINE      ---      ---       #300
      01008F8FH   LINE      ---      ---       #301
      01008F8FH   LINE      ---      ---       #302
      01008F91H   LINE      ---      ---       #303
      01008F91H   LINE      ---      ---       #304
      01008F91H   LINE      ---      ---       #305
      ---         BLOCKEND  ---      ---       LVL=0

      0100A208H   BLOCK     CODE     ---       LVL=0
      0100A208H   LINE      ---      ---       #307
      0100A208H   LINE      ---      ---       #308
      0100A208H   LINE      ---      ---       #309
      0100A212H   LINE      ---      ---       #311
      0100A212H   LINE      ---      ---       #312
      0100A215H   LINE      ---      ---       #313
      0100A215H   LINE      ---      ---       #314
      0100A218H   LINE      ---      ---       #315
      0100A218H   LINE      ---      ---       #316
      0100A218H   LINE      ---      ---       #317
      ---         BLOCKEND  ---      ---       LVL=0

      0100A219H   BLOCK     CODE     ---       LVL=0
      0100A219H   LINE      ---      ---       #319
      0100A219H   LINE      ---      ---       #320
      0100A219H   LINE      ---      ---       #321
      0100A223H   LINE      ---      ---       #323
      0100A223H   LINE      ---      ---       #324
      0100A226H   LINE      ---      ---       #325
      0100A226H   LINE      ---      ---       #326
      0100A229H   LINE      ---      ---       #327
      0100A229H   LINE      ---      ---       #328
      0100A229H   LINE      ---      ---       #329
      ---         BLOCKEND  ---      ---       LVL=0

      0100A22AH   BLOCK     CODE     ---       LVL=0
      0100A22AH   LINE      ---      ---       #331
      0100A22AH   LINE      ---      ---       #332
      0100A22AH   LINE      ---      ---       #333
      0100A234H   LINE      ---      ---       #335
LX51 LINKER/LOCATER V4.66.1.0                                                         03/30/2019  12:53:22  PAGE 38


      0100A234H   LINE      ---      ---       #336
      0100A237H   LINE      ---      ---       #337
      0100A237H   LINE      ---      ---       #338
      0100A23AH   LINE      ---      ---       #339
      0100A23AH   LINE      ---      ---       #340
      0100A23AH   LINE      ---      ---       #341
      ---         BLOCKEND  ---      ---       LVL=0

      0100A23BH   BLOCK     CODE     ---       LVL=0
      0100A23BH   LINE      ---      ---       #343
      0100A23BH   LINE      ---      ---       #344
      0100A23BH   LINE      ---      ---       #345
      0100A245H   LINE      ---      ---       #347
      0100A245H   LINE      ---      ---       #348
      0100A248H   LINE      ---      ---       #349
      0100A248H   LINE      ---      ---       #350
      0100A24DH   LINE      ---      ---       #351
      0100A24DH   LINE      ---      ---       #352
      0100A24DH   LINE      ---      ---       #353
      ---         BLOCKEND  ---      ---       LVL=0

      0100A24EH   BLOCK     CODE     ---       LVL=0
      0100A24EH   LINE      ---      ---       #355
      0100A24EH   LINE      ---      ---       #356
      0100A24EH   LINE      ---      ---       #357
      0100A258H   LINE      ---      ---       #359
      0100A258H   LINE      ---      ---       #360
      0100A25BH   LINE      ---      ---       #361
      0100A25BH   LINE      ---      ---       #362
      0100A25FH   LINE      ---      ---       #363
      0100A25FH   LINE      ---      ---       #364
      0100A25FH   LINE      ---      ---       #365
      ---         BLOCKEND  ---      ---       LVL=0

      0100A7EDH   BLOCK     CODE     ---       LVL=0
      0100A7EDH   LINE      ---      ---       #367
      0100A7EDH   LINE      ---      ---       #368
      0100A7EDH   LINE      ---      ---       #369
      0100A7F7H   LINE      ---      ---       #371
      0100A7F7H   LINE      ---      ---       #372
      0100A7FAH   LINE      ---      ---       #373
      0100A7FAH   LINE      ---      ---       #374
      0100A808H   LINE      ---      ---       #376
      0100A808H   LINE      ---      ---       #377
      0100A80BH   LINE      ---      ---       #378
      0100A80BH   LINE      ---      ---       #380
      0100A80BH   LINE      ---      ---       #381
      0100A80BH   LINE      ---      ---       #382
      ---         BLOCKEND  ---      ---       LVL=0

      0100A80CH   BLOCK     CODE     ---       LVL=0
      0100A80CH   LINE      ---      ---       #384
      0100A80CH   LINE      ---      ---       #385
      0100A80CH   LINE      ---      ---       #386
      0100A816H   LINE      ---      ---       #388
      0100A816H   LINE      ---      ---       #389
      0100A819H   LINE      ---      ---       #390
      0100A819H   LINE      ---      ---       #391
      0100A81CH   LINE      ---      ---       #392
      0100A81CH   LINE      ---      ---       #393
      0100A81CH   LINE      ---      ---       #394
      ---         BLOCKEND  ---      ---       LVL=0

      0100A81DH   BLOCK     CODE     ---       LVL=0
      0100A81DH   LINE      ---      ---       #396
LX51 LINKER/LOCATER V4.66.1.0                                                         03/30/2019  12:53:22  PAGE 39


      0100A81DH   LINE      ---      ---       #397
      0100A81DH   LINE      ---      ---       #398
      0100A827H   LINE      ---      ---       #400
      0100A827H   LINE      ---      ---       #401
      0100A82AH   LINE      ---      ---       #402
      0100A82AH   LINE      ---      ---       #403
      0100A82CH   LINE      ---      ---       #404
      0100A82CH   LINE      ---      ---       #405
      0100A82CH   LINE      ---      ---       #406
      ---         BLOCKEND  ---      ---       LVL=0

      0100AFF1H   BLOCK     CODE     ---       LVL=0
      0100AFF1H   LINE      ---      ---       #408
      0100AFF1H   LINE      ---      ---       #409
      0100AFF1H   LINE      ---      ---       #410
      0100AFFBH   LINE      ---      ---       #412
      0100AFFBH   LINE      ---      ---       #413
      0100AFFEH   LINE      ---      ---       #414
      0100AFFEH   LINE      ---      ---       #415
      0100B000H   LINE      ---      ---       #416
      0100B000H   LINE      ---      ---       #417
      0100B000H   LINE      ---      ---       #418
      ---         BLOCKEND  ---      ---       LVL=0

      0100B04BH   BLOCK     CODE     ---       LVL=0
      0100B04BH   LINE      ---      ---       #420
      0100B04BH   LINE      ---      ---       #421
      0100B04BH   LINE      ---      ---       #422
      0100B055H   LINE      ---      ---       #424
      0100B055H   LINE      ---      ---       #425
      0100B058H   LINE      ---      ---       #426
      0100B058H   LINE      ---      ---       #427
      0100B05BH   LINE      ---      ---       #428
      0100B05BH   LINE      ---      ---       #429
      0100B05BH   LINE      ---      ---       #430
      ---         BLOCKEND  ---      ---       LVL=0

      0100B05CH   BLOCK     CODE     ---       LVL=0
      0100B05CH   LINE      ---      ---       #432
      0100B05CH   LINE      ---      ---       #433
      0100B05CH   LINE      ---      ---       #434
      0100B066H   LINE      ---      ---       #436
      0100B066H   LINE      ---      ---       #437
      0100B069H   LINE      ---      ---       #438
      0100B069H   LINE      ---      ---       #439
      0100B06BH   LINE      ---      ---       #440
      0100B06BH   LINE      ---      ---       #441
      0100B06BH   LINE      ---      ---       #442
      ---         BLOCKEND  ---      ---       LVL=0

      0100B7FBH   BLOCK     CODE     ---       LVL=0
      0100B7FBH   LINE      ---      ---       #444
      0100B7FBH   LINE      ---      ---       #445
      0100B7FBH   LINE      ---      ---       #446
      0100B805H   LINE      ---      ---       #448
      0100B805H   LINE      ---      ---       #449
      0100B808H   LINE      ---      ---       #450
      0100B808H   LINE      ---      ---       #451
      0100B80BH   LINE      ---      ---       #452
      0100B80BH   LINE      ---      ---       #453
      0100B80BH   LINE      ---      ---       #454
      ---         BLOCKEND  ---      ---       LVL=0

      0100B80CH   BLOCK     CODE     ---       LVL=0
      0100B80CH   LINE      ---      ---       #456
LX51 LINKER/LOCATER V4.66.1.0                                                         03/30/2019  12:53:22  PAGE 40


      0100B80CH   LINE      ---      ---       #457
      0100B80CH   LINE      ---      ---       #458
      0100B816H   LINE      ---      ---       #460
      0100B816H   LINE      ---      ---       #461
      0100B819H   LINE      ---      ---       #462
      0100B81BH   LINE      ---      ---       #463
      0100B81BH   LINE      ---      ---       #464
      ---         BLOCKEND  ---      ---       LVL=0

      ---         MODULE    ---      ---       ACTIVITYFUNCTIONS
      02000091H   PUBLIC    XDATA    WORD      Working_Normal
      02000090H   PUBLIC    XDATA    BYTE      No_HeatSensor_Times
      0200008FH   PUBLIC    XDATA    BYTE      AlarmInfoIndex
      0200008EH   PUBLIC    XDATA    BYTE      AlarmSoundPauseStatus
      0200008DH   PUBLIC    XDATA    BYTE      Test_Mode_Dis_Jrp_Ctl
      0200007DH   PUBLIC    XDATA    ---       SaveData
      0200007BH   PUBLIC    XDATA    WORD      HP_CNT_Int_End_Rem
      00000020H.0 PUBLIC    BIT      BIT       Wire_Mode_Mismatch
      0200007AH   PUBLIC    XDATA    BYTE      ERR_Kind
      02000078H   PUBLIC    XDATA    WORD      HP_CNT_Int
      02000077H   PUBLIC    XDATA    BYTE      HeaterPlate_State
      02000076H   PUBLIC    XDATA    BYTE      WireOut_State
      02000075H   PUBLIC    XDATA    BYTE      WireIn_State
      02000073H   PUBLIC    XDATA    WORD      Diplay_RTtemp
      02000072H   PUBLIC    XDATA    BYTE      CQK_Temp_Reach_Set_Cnt
      02000071H   PUBLIC    XDATA    BYTE      RT_Temp_Reach_Set_Cnt
      0200006FH   PUBLIC    XDATA    WORD      Set_CQK_YCTemp
      0200006DH   PUBLIC    XDATA    WORD      Set_CQK_WCTemp
      0200006BH   PUBLIC    XDATA    WORD      Set_CQK_Temp
      02000069H   PUBLIC    XDATA    WORD      Set_RT_YCTemp
      02000067H   PUBLIC    XDATA    WORD      Set_RT_WCTemp
      02000065H   PUBLIC    XDATA    INT       Set_RT_Temp
      02000061H   PUBLIC    XDATA    LONG      CQK_Temp
      0200005FH   PUBLIC    XDATA    INT       JEP_Temp
      0200005DH   PUBLIC    XDATA    INT       RT_Temp
      0200005BH   PUBLIC    XDATA    WORD      Micro_Temp_Out
      02000059H   PUBLIC    XDATA    WORD      Micro_Temp_In
      02000058H   PUBLIC    XDATA    BYTE      Micro_Temp_Val
      02000057H   PUBLIC    XDATA    BYTE      In_Exp_Ratio
      02000047H   PUBLIC    XDATA    ---       show_str
      02000046H   PUBLIC    XDATA    BYTE      defalut_mode
      02000045H   PUBLIC    XDATA    BYTE      Work_Mode
      0200003DH   PUBLIC    XDATA    ---       data_flash
      01008820H   PUBLIC    CODE     ---       HeaterPlateWireDriveFbTask
      0100C238H   PUBLIC    CODE     ---       WireInOut_State_Confirm
      0100A82DH   PUBLIC    CODE     ---       LowPowerModeFunc
      0100BF70H   PUBLIC    CODE     ---       Load_Settings_Before_Choice
      01006309H   PUBLIC    CODE     ---       Mem_Flash_Recall
      0100683EH   PUBLIC    CODE     ---       Setting_write_to_flash
      01009B62H   PUBLIC    CODE     ---       ServiceMode_TempHumidy_Disp
      0100BD1AH   PUBLIC    CODE     ---       Main_Init
      01008200H   PUBLIC    CODE     ---       Init_port
      0100A641H   PUBLIC    CODE     ---       SaveDateToFlashFunc
      0100B06CH   PUBLIC    CODE     ---       LowTempDet1SFunc
      0100A89FH   PUBLIC    CODE     ---       AlarmErrorFunc
      0100BF41H   PUBLIC    CODE     ---       Error_Base_HeaterWire_DISP_Enable
      0100704FH   PUBLIC    CODE     ---       HeaterPlateWireControlFunc
      01007813H   PUBLIC    CODE     ---       GetTemp_HpChamberFunc
      01007C0FH   PUBLIC    CODE     ---       GetTempHumidity_PatientFunc
      01008F16H   PUBLIC    CODE     ---       RefreshRTCTimeFunc
      0100A260H   PUBLIC    CODE     ---       _RefreshRunTimeFunc
      0100996DH   PUBLIC    CODE     ---       _RefreshTempHumidyFunc
      0100B001H   PUBLIC    CODE     ---       HeaterWireModeDetFunc
      0100B81CH   PUBLIC    CODE     ---       UART_RecData_Func
      000000B4H   SFRSYM    DATA     BYTE      P4M0
LX51 LINKER/LOCATER V4.66.1.0                                                         03/30/2019  12:53:22  PAGE 41


      000000B3H   SFRSYM    DATA     BYTE      P4M1
      000000BBH   SFRSYM    DATA     BYTE      P4SW
      000000C1H   SFRSYM    DATA     BYTE      WDT_CONTR
      000000A8H.7 SFRSYM    DATA     BIT       EA
      000000A8H.2 SFRSYM    DATA     BIT       EX1
      000000A8H.1 SFRSYM    DATA     BIT       ET0
      00000092H   SFRSYM    DATA     BYTE      P1M0
      00000091H   SFRSYM    DATA     BYTE      P1M1
      00000090H   SFRSYM    DATA     BIT       P10
      00000090H.2 SFRSYM    DATA     BIT       P12
      00000090H.3 SFRSYM    DATA     BIT       P13
      00000090H.7 SFRSYM    DATA     BIT       P17
      000000A0H   SFRSYM    DATA     BIT       P20
      000000A0H.1 SFRSYM    DATA     BIT       P21
      000000A0H.2 SFRSYM    DATA     BIT       P22
      000000A0H.7 SFRSYM    DATA     BIT       P27
      00000096H   SFRSYM    DATA     BYTE      P2M0
      00000095H   SFRSYM    DATA     BYTE      P2M1
      000000B0H.2 SFRSYM    DATA     BIT       P32
      000000B0H.4 SFRSYM    DATA     BIT       P34
      000000B0H.5 SFRSYM    DATA     BIT       P35
      000000B0H.6 SFRSYM    DATA     BIT       P36
      000000B0H.7 SFRSYM    DATA     BIT       P37
      000000B2H   SFRSYM    DATA     BYTE      P3M0
      000000B1H   SFRSYM    DATA     BYTE      P3M1
      000000C0H   SFRSYM    DATA     BIT       P40
      000000C0H.3 SFRSYM    DATA     BIT       P43
      00000098H.1 SFRSYM    DATA     BIT       TI
      00000098H   SFRSYM    DATA     BIT       RI
      00000088H.4 SFRSYM    DATA     BIT       TR0
      00000088H.2 SFRSYM    DATA     BIT       IT1
      02000093H   SYMBOL    XDATA    BYTE      Wire_Mode_Sel
      00000020H.1 SYMBOL    BIT      BIT       JRP_Sensor_Err
      00000020H.2 SYMBOL    BIT      BIT       CQK_Sensor_Err
      00000020H.3 SYMBOL    BIT      BIT       RTD_Sensor_Err
      00000020H.4 SYMBOL    BIT      BIT       SHIDU_Sensor_Err
      02000094H   SYMBOL    XDATA    BYTE      HiTemp_Count
      02000095H   SYMBOL    XDATA    BYTE      LoTemp_Count
      02000096H   SYMBOL    XDATA    BYTE      LoTemp_CQK_Count
      02000097H   SYMBOL    XDATA    BYTE      LoHumity_Count
      02000098H   SYMBOL    XDATA    WORD      No_CQKSensor_Times
      0200009AH   SYMBOL    XDATA    WORD      CQKSensor_Hithen800_Times
      0200009CH   SYMBOL    XDATA    WORD      JRP_Sensor_Temp_No_Change_Times
      0200009EH   SYMBOL    XDATA    WORD      CQK_Sensor_Temp_No_Change_Times
      020000A0H   SYMBOL    XDATA    BYTE      ERR_RT_Temp_Times
      020000A1H   SYMBOL    XDATA    BYTE      No_ReadData_SHIDU_Times
      020000A2H   SYMBOL    XDATA    WORD      RT_Temp_Not_Updated_10mS
      020000A4H   SYMBOL    XDATA    BYTE      No_ReadData_Temp_Times
      020000A5H   SYMBOL    XDATA    WORD      Nochange_Times
      020000A7H   SYMBOL    XDATA    BYTE      Work_Day
      020000A8H   SYMBOL    XDATA    BYTE      Work_Hour
      020000A9H   SYMBOL    XDATA    BYTE      Work_Min
      020000AAH   SYMBOL    XDATA    BYTE      Work_Sec
      020000ABH   SYMBOL    XDATA    WORD      Run_Count
      020000ADH   SYMBOL    XDATA    BYTE      Rec_Count
      020000AEH   SYMBOL    XDATA    WORD      Tick_20ms
      020000B0H   SYMBOL    XDATA    WORD      RT_SHIDU
      020000B2H   SYMBOL    XDATA    WORD      CONTROL_RT_SHIDU
      020000B4H   SYMBOL    XDATA    WORD      Aim_SHIDU
      020000B6H   SYMBOL    XDATA    INT       JEP_Temp_Aim
      020000B8H   SYMBOL    XDATA    WORD      Wire_Warm_Up_Sec
      020000BAH   SYMBOL    XDATA    WORD      Plate_Warm_Up_Sec
      020000BCH   SYMBOL    XDATA    WORD      Humidity_No_Change_Sec
      020000BEH   SYMBOL    XDATA    WORD      Low_Power_Mode_Flag
      020000C0H   SYMBOL    XDATA    BYTE      Micro_Adj_Mode_Test
LX51 LINKER/LOCATER V4.66.1.0                                                         03/30/2019  12:53:22  PAGE 42


      020000C1H   SYMBOL    XDATA    ---       PID_temp
      020000CBH   SYMBOL    XDATA    ---       PID_temp2
      020000D5H   SYMBOL    XDATA    ---       PID_temp3
      020000DFH   SYMBOL    XDATA    ---       NowTime
      0100BE9AH   SYMBOL    CODE     ---       Store_Data
      0100BA85H   SYMBOL    CODE     ---       Get_RunCount
      0100BF4CH   SYMBOL    CODE     ---       Write_Default_Setting_to_flash
      0100BFE1H   SYMBOL    CODE     ---       PatientTemp_NoneHeatWire_Adj
      0100B6C3H   SYMBOL    CODE     ---       PID_Calc
      0100B5CAH   SYMBOL    CODE     ---       HeatPlateTemp_Aim_PID_Calc
      0100B4E3H   SYMBOL    CODE     ---       HeatPlate_PID_Calc
      0100BEFFH   SYMBOL    CODE     ---       Interrupt_EXT1
      0100BF20H   SYMBOL    CODE     ---       Interrupt_Time0
      0100BE6CH   SYMBOL    CODE     ---       Serial
      020000E6H   SYMBOL    XDATA    BYTE      UART_RecState
      020000E7H   SYMBOL    XDATA    ---       UART_Rec_Buf
      0100B926H   SYMBOL    CODE     ---       UART_RecBuf_Clear_Fun
      020000FBH   SYMBOL    XDATA    INT       Temp1_Int
      020000FDH   SYMBOL    XDATA    INT       Temp2_Int
      020000FFH   SYMBOL    XDATA    WORD      NoneWire_Heat_Sec
      02000101H   SYMBOL    XDATA    INT       Set_CQK_Temp_Comp
      02000103H   SYMBOL    XDATA    BYTE      Wire_Mode_Sel_Rem
      02000104H   SYMBOL    XDATA    BYTE      Disp_ERR_VHB80_Code
      02000105H   SYMBOL    XDATA    WORD      NoneWire_Warm_Up_Sec

      0100BEFFH   BLOCK     CODE     ---       LVL=0
      0100BF0CH   LINE      ---      ---       #169
      0100BF0CH   LINE      ---      ---       #171
      0100BF12H   LINE      ---      ---       #172
      ---         BLOCKEND  ---      ---       LVL=0

      0100BF20H   BLOCK     CODE     ---       LVL=0
      0100BF2DH   LINE      ---      ---       #174
      0100BF2DH   LINE      ---      ---       #176
      0100BF30H   LINE      ---      ---       #177
      0100BF36H   LINE      ---      ---       #179
      ---         BLOCKEND  ---      ---       LVL=0

      0100BE6CH   BLOCK     CODE     ---       LVL=0
      0100BE79H   LINE      ---      ---       #181
      0100BE79H   LINE      ---      ---       #183
      0100BE7CH   LINE      ---      ---       #184
      0100BE7CH   LINE      ---      ---       #185
      0100BE7EH   LINE      ---      ---       #187
      0100BE80H   LINE      ---      ---       #188
      0100BE80H   LINE      ---      ---       #190
      0100BE83H   LINE      ---      ---       #191
      0100BE83H   LINE      ---      ---       #192
      0100BE85H   LINE      ---      ---       #193
      0100BE87H   LINE      ---      ---       #194
      0100BE87H   LINE      ---      ---       #195
      ---         BLOCKEND  ---      ---       LVL=0

      0100B926H   BLOCK     CODE     ---       LVL=0
      0100B926H   LINE      ---      ---       #210
      0100B926H   LINE      ---      ---       #211
      0100B926H   BLOCK     CODE     NEAR LAB  LVL=1
      0100B926H   LINE      ---      ---       #214
      0100B926H   LINE      ---      ---       #215
      0100B926H   LINE      ---      ---       #216
      0100B930H   LINE      ---      ---       #217
      0100B930H   LINE      ---      ---       #218
      00000007H   SYMBOL    DATA     BYTE      i
      ---         BLOCKEND  CODE     ---       LVL=1
      ---         BLOCKEND  CODE     ---       LVL=0
LX51 LINKER/LOCATER V4.66.1.0                                                         03/30/2019  12:53:22  PAGE 43



      0100B81CH   BLOCK     CODE     ---       LVL=0
      0100B81CH   LINE      ---      ---       #222
      0100B81CH   LINE      ---      ---       #223
      0100B81CH   BLOCK     CODE     NEAR LAB  LVL=1
      0100B81CH   LINE      ---      ---       #231
      0100B824H   LINE      ---      ---       #232
      0100B824H   LINE      ---      ---       #233
      0100B829H   LINE      ---      ---       #235
      0100B830H   LINE      ---      ---       #236
      0100B830H   LINE      ---      ---       #237
      0100B836H   LINE      ---      ---       #238
      0100B83DH   LINE      ---      ---       #239
      0100B83DH   LINE      ---      ---       #240
      0100B83FH   LINE      ---      ---       #241
      0100B841H   LINE      ---      ---       #242
      0100B846H   LINE      ---      ---       #243
      0100B84CH   LINE      ---      ---       #245
      0100B84EH   LINE      ---      ---       #246
      0100B853H   LINE      ---      ---       #247
      0100B853H   LINE      ---      ---       #248
      0100B85CH   LINE      ---      ---       #249
      0100B862H   LINE      ---      ---       #250
      0100B862H   LINE      ---      ---       #251
      0100B86EH   LINE      ---      ---       #253
      0100B86EH   LINE      ---      ---       #255
      0100B874H   LINE      ---      ---       #256
      0100B876H   LINE      ---      ---       #257
      0100B87BH   LINE      ---      ---       #258
      0100B87DH   LINE      ---      ---       #260
      0100B87DH   LINE      ---      ---       #261
      0100B883H   LINE      ---      ---       #262
      0100B885H   LINE      ---      ---       #263
      0100B885H   LINE      ---      ---       #264
      0100B89DH   LINE      ---      ---       #265
      0100B8A4H   LINE      ---      ---       #266
      0100B8A4H   LINE      ---      ---       #267
      0100B8A4H   LINE      ---      ---       #268
      0100B8A4H   LINE      ---      ---       #269
      0100B8ABH   LINE      ---      ---       #270
      0100B8ABH   LINE      ---      ---       #271
      0100B8B7H   LINE      ---      ---       #273
      0100B8BDH   LINE      ---      ---       #274
      0100B8BDH   LINE      ---      ---       #275
      0100B8C3H   LINE      ---      ---       #276
      0100B8C3H   LINE      ---      ---       #277
      0100B8C3H   LINE      ---      ---       #279
      0100B8CDH   LINE      ---      ---       #280
      0100B8CDH   LINE      ---      ---       #281
      0100B8CEH   LINE      ---      ---       #283
      0100B908H   LINE      ---      ---       #287
      0100B90FH   LINE      ---      ---       #288
      0100B90FH   LINE      ---      ---       #289
      0100B90FH   LINE      ---      ---       #290
      0100B911H   LINE      ---      ---       #291
      02000000H   SYMBOL    XDATA    BYTE      UART_Rec_Cnt
      00000007H   SYMBOL    DATA     BYTE      i
      00000006H   SYMBOL    DATA     BYTE      uart_data
      02000269H   SYMBOL    XDATA    DWORD     Adress
      ---         BLOCKEND  CODE     ---       LVL=1
      ---         BLOCKEND  CODE     ---       LVL=0

      0100B001H   BLOCK     CODE     ---       LVL=0
      0100B001H   LINE      ---      ---       #293
      0100B001H   LINE      ---      ---       #294
LX51 LINKER/LOCATER V4.66.1.0                                                         03/30/2019  12:53:22  PAGE 44


      0100B001H   LINE      ---      ---       #295
      0100B008H   LINE      ---      ---       #296
      0100B008H   LINE      ---      ---       #297
      0100B012H   LINE      ---      ---       #298
      0100B012H   LINE      ---      ---       #299
      0100B014H   LINE      ---      ---       #300
      0100B015H   LINE      ---      ---       #302
      0100B015H   LINE      ---      ---       #303
      0100B017H   LINE      ---      ---       #304
      0100B017H   LINE      ---      ---       #305
      0100B018H   LINE      ---      ---       #306
      0100B01CH   LINE      ---      ---       #307
      0100B01CH   LINE      ---      ---       #308
      0100B029H   LINE      ---      ---       #309
      0100B029H   LINE      ---      ---       #310
      0100B02BH   LINE      ---      ---       #311
      0100B02CH   LINE      ---      ---       #313
      0100B02CH   LINE      ---      ---       #314
      0100B02EH   LINE      ---      ---       #315
      0100B02EH   LINE      ---      ---       #316
      0100B02FH   LINE      ---      ---       #317
      0100B036H   LINE      ---      ---       #318
      0100B036H   LINE      ---      ---       #319
      0100B045H   LINE      ---      ---       #320
      0100B045H   LINE      ---      ---       #321
      0100B047H   LINE      ---      ---       #322
      0100B048H   LINE      ---      ---       #324
      0100B048H   LINE      ---      ---       #325
      0100B04AH   LINE      ---      ---       #326
      0100B04AH   LINE      ---      ---       #327
      0100B04AH   LINE      ---      ---       #328
      ---         BLOCKEND  ---      ---       LVL=0

      0100996DH   BLOCK     CODE     ---       LVL=0
      0100996DH   LINE      ---      ---       #330
      0100996DH   LINE      ---      ---       #331
      00000007H   SYMBOL    DATA     BYTE      Refresh_En
      0100996DH   BLOCK     CODE     NEAR LAB  LVL=1
      0100996DH   LINE      ---      ---       #336
      0100996FH   LINE      ---      ---       #339
      01009975H   LINE      ---      ---       #340
      0100997BH   LINE      ---      ---       #341
      0100997BH   LINE      ---      ---       #342
      0100997DH   LINE      ---      ---       #343
      0100997DH   LINE      ---      ---       #345
      01009985H   LINE      ---      ---       #347
      01009987H   LINE      ---      ---       #349
      0100998AH   LINE      ---      ---       #350
      0100998CH   LINE      ---      ---       #352
      0100998EH   LINE      ---      ---       #353
      01009999H   LINE      ---      ---       #355
      010099A5H   LINE      ---      ---       #358
      010099A5H   LINE      ---      ---       #359
      010099AEH   LINE      ---      ---       #362
      010099AEH   LINE      ---      ---       #363
      010099B1H   LINE      ---      ---       #364
      010099B1H   LINE      ---      ---       #365
      010099B3H   LINE      ---      ---       #366
      010099C9H   LINE      ---      ---       #368
      010099C9H   LINE      ---      ---       #369
      010099CEH   LINE      ---      ---       #372
      010099D7H   LINE      ---      ---       #373
      010099D9H   LINE      ---      ---       #375
      010099D9H   LINE      ---      ---       #376
      010099E1H   LINE      ---      ---       #377
LX51 LINKER/LOCATER V4.66.1.0                                                         03/30/2019  12:53:22  PAGE 45


      010099E1H   LINE      ---      ---       #379
      010099EFH   LINE      ---      ---       #380
      010099EFH   LINE      ---      ---       #381
      010099F7H   LINE      ---      ---       #382
      010099F7H   LINE      ---      ---       #383
      010099FCH   LINE      ---      ---       #384
      01009A00H   LINE      ---      ---       #386
      01009A02H   LINE      ---      ---       #387
      01009A05H   LINE      ---      ---       #388
      01009A05H   LINE      ---      ---       #389
      01009A14H   LINE      ---      ---       #390
      01009A18H   LINE      ---      ---       #391
      01009A18H   LINE      ---      ---       #393
      01009A1BH   LINE      ---      ---       #394
      01009A1BH   LINE      ---      ---       #395
      01009A51H   LINE      ---      ---       #400
      01009A53H   LINE      ---      ---       #401
      01009A60H   LINE      ---      ---       #402
      01009A60H   LINE      ---      ---       #403
      01009A76H   LINE      ---      ---       #406
      01009A7FH   LINE      ---      ---       #407
      01009A81H   LINE      ---      ---       #409
      01009A81H   LINE      ---      ---       #410
      01009A9DH   LINE      ---      ---       #413
      01009AB0H   LINE      ---      ---       #414
      01009AB0H   LINE      ---      ---       #415
      01009AB0H   LINE      ---      ---       #418
      01009AB5H   LINE      ---      ---       #420
      01009AB5H   LINE      ---      ---       #421
      01009ABAH   LINE      ---      ---       #424
      01009ABAH   LINE      ---      ---       #425
      01009AC3H   LINE      ---      ---       #426
      01009AC3H   LINE      ---      ---       #427
      01009AC5H   LINE      ---      ---       #429
      01009AC5H   LINE      ---      ---       #430
      01009ACDH   LINE      ---      ---       #431
      01009ACDH   LINE      ---      ---       #433
      01009AD9H   LINE      ---      ---       #434
      01009AD9H   LINE      ---      ---       #435
      01009ADCH   LINE      ---      ---       #436
      01009ADCH   LINE      ---      ---       #437
      01009B13H   LINE      ---      ---       #440
      01009B13H   LINE      ---      ---       #442
      01009B13H   LINE      ---      ---       #443
      01009B34H   LINE      ---      ---       #445
      01009B34H   LINE      ---      ---       #446
      01009B34H   LINE      ---      ---       #447
      02000001H   SYMBOL    XDATA    BYTE      Refresh_WenDu_Cnt
      02000002H   SYMBOL    XDATA    BYTE      Alarm_WenDu_Cnt
      02000271H   SYMBOL    XDATA    WORD      Disp
      02000273H   SYMBOL    XDATA    WORD      color
      02000275H   SYMBOL    XDATA    WORD      Temp_Dis_En
      00000020H.5 SYMBOL    BIT      BIT       Disp_Err
      ---         BLOCKEND  CODE     ---       LVL=1
      ---         BLOCKEND  CODE     ---       LVL=0

      0100A260H   BLOCK     CODE     ---       LVL=0
      0100A260H   LINE      ---      ---       #450
      0100A265H   LINE      ---      ---       #452
      02000271H   SYMBOL    XDATA    BYTE      Refresh_En
      0100A265H   BLOCK     CODE     NEAR LAB  LVL=1
      0100A265H   LINE      ---      ---       #456
      0100A26AH   LINE      ---      ---       #459
      0100A271H   LINE      ---      ---       #460
      0100A271H   LINE      ---      ---       #461
LX51 LINKER/LOCATER V4.66.1.0                                                         03/30/2019  12:53:22  PAGE 46


      0100A273H   LINE      ---      ---       #462
      0100A27CH   LINE      ---      ---       #463
      0100A27CH   LINE      ---      ---       #464
      0100A27CH   LINE      ---      ---       #465
      0100A27EH   LINE      ---      ---       #467
      0100A27EH   LINE      ---      ---       #468
      0100A283H   LINE      ---      ---       #469
      0100A285H   LINE      ---      ---       #470
      0100A28EH   LINE      ---      ---       #471
      0100A28EH   LINE      ---      ---       #472
      0100A28EH   LINE      ---      ---       #473
      0100A290H   LINE      ---      ---       #474
      0100A290H   LINE      ---      ---       #475
      0100A295H   LINE      ---      ---       #476
      0100A29EH   LINE      ---      ---       #477
      0100A29EH   LINE      ---      ---       #478
      0100A29EH   LINE      ---      ---       #479
      0100A2A0H   LINE      ---      ---       #480
      0100A2A0H   LINE      ---      ---       #481
      0100A2A5H   LINE      ---      ---       #482
      0100A2B1H   LINE      ---      ---       #483
      0100A2B1H   LINE      ---      ---       #484
      0100A2B1H   LINE      ---      ---       #485
      0100A2B1H   LINE      ---      ---       #486
      0100A2B1H   LINE      ---      ---       #488
      0100A2BBH   LINE      ---      ---       #489
      0100A2BBH   LINE      ---      ---       #490
      0100A2C0H   LINE      ---      ---       #491
      0100A2C4H   LINE      ---      ---       #492
      0100A2C4H   LINE      ---      ---       #493
      0100A2C7H   LINE      ---      ---       #494
      0100A2D3H   LINE      ---      ---       #495
      0100A2DDH   LINE      ---      ---       #496
      0100A2E9H   LINE      ---      ---       #497
      0100A2F3H   LINE      ---      ---       #498
      0100A2FFH   LINE      ---      ---       #499
      0100A309H   LINE      ---      ---       #500
      0100A309H   LINE      ---      ---       #501
      0100A309H   LINE      ---      ---       #502
      00000007H   SYMBOL    DATA     BYTE      t
      02000003H   SYMBOL    XDATA    BYTE      Last_Sec
      ---         BLOCKEND  CODE     ---       LVL=1
      ---         BLOCKEND  CODE     ---       LVL=0

      01008F16H   BLOCK     CODE     ---       LVL=0
      01008F16H   LINE      ---      ---       #505
      01008F16H   LINE      ---      ---       #506
      01008F16H   BLOCK     CODE     NEAR LAB  LVL=1
      01008F16H   LINE      ---      ---       #514
      01008F1AH   LINE      ---      ---       #516
      01008F21H   LINE      ---      ---       #517
      01008F21H   LINE      ---      ---       #518
      01008F23H   LINE      ---      ---       #520
      01008F2FH   LINE      ---      ---       #521
      01008F2FH   LINE      ---      ---       #522
      01008F31H   LINE      ---      ---       #523
      01008F31H   LINE      ---      ---       #524
      01008F37H   LINE      ---      ---       #525
      01008F5FH   LINE      ---      ---       #531
      01008F5FH   LINE      ---      ---       #532
      02000004H   SYMBOL    XDATA    BYTE      Last_Min
      02000269H   SYMBOL    XDATA    BYTE      color
      00000007H   SYMBOL    DATA     BYTE      t
      02000005H   SYMBOL    XDATA    BYTE      Last_Sec
      ---         BLOCKEND  CODE     ---       LVL=1
LX51 LINKER/LOCATER V4.66.1.0                                                         03/30/2019  12:53:22  PAGE 47


      ---         BLOCKEND  CODE     ---       LVL=0

      01007C0FH   BLOCK     CODE     ---       LVL=0
      01007C0FH   LINE      ---      ---       #534
      01007C0FH   LINE      ---      ---       #535
      01007C0FH   BLOCK     CODE     NEAR LAB  LVL=1
      01007C0FH   LINE      ---      ---       #549
      01007C15H   LINE      ---      ---       #550
      01007C1BH   LINE      ---      ---       #551
      01007C1BH   LINE      ---      ---       #552
      01007C1DH   LINE      ---      ---       #553
      01007C2BH   LINE      ---      ---       #554
      01007C36H   LINE      ---      ---       #555
      01007C45H   LINE      ---      ---       #556
      01007C63H   LINE      ---      ---       #557
      01007C63H   LINE      ---      ---       #570
      01007C75H   LINE      ---      ---       #572
      01007C75H   LINE      ---      ---       #573
      01007C7BH   LINE      ---      ---       #574
      01007C7BH   LINE      ---      ---       #575
      01007C82H   LINE      ---      ---       #576
      01007C84H   LINE      ---      ---       #577
      01007C84H   LINE      ---      ---       #578
      01007C84H   LINE      ---      ---       #579
      01007C86H   LINE      ---      ---       #581
      01007C86H   LINE      ---      ---       #582
      01007C8BH   LINE      ---      ---       #583
      01007C8BH   LINE      ---      ---       #584
      01007C8BH   LINE      ---      ---       #585
      01007C8DH   LINE      ---      ---       #586
      01007C97H   LINE      ---      ---       #587
      01007C97H   LINE      ---      ---       #589
      01007C9BH   LINE      ---      ---       #590
      01007CA0H   LINE      ---      ---       #591
      01007CA0H   LINE      ---      ---       #592
      01007CA2H   LINE      ---      ---       #597
      01007CB6H   LINE      ---      ---       #598
      01007CB6H   LINE      ---      ---       #600
      01007CBBH   LINE      ---      ---       #601
      01007CBDH   LINE      ---      ---       #603
      01007CBDH   LINE      ---      ---       #604
      01007CC2H   LINE      ---      ---       #605
      01007CCDH   LINE      ---      ---       #608
      01007CCDH   LINE      ---      ---       #610
      01007CD3H   LINE      ---      ---       #611
      01007D03H   LINE      ---      ---       #613
      01007D33H   LINE      ---      ---       #615
      01007D40H   LINE      ---      ---       #616
      01007D74H   LINE      ---      ---       #619
      01007D7FH   LINE      ---      ---       #620
      01007D7FH   LINE      ---      ---       #621
      01007D8CH   LINE      ---      ---       #622
      01007D8EH   LINE      ---      ---       #623
      01007D8EH   LINE      ---      ---       #624
      01007D93H   LINE      ---      ---       #625
      01007D93H   LINE      ---      ---       #626
      01007D93H   LINE      ---      ---       #628
      01007D93H   LINE      ---      ---       #629
      01007D95H   LINE      ---      ---       #631
      01007D95H   LINE      ---      ---       #632
      01007DA3H   LINE      ---      ---       #634
      01007DA3H   LINE      ---      ---       #635
      01007DA3H   LINE      ---      ---       #636
      01007DA5H   LINE      ---      ---       #638
      01007DA5H   LINE      ---      ---       #640
LX51 LINKER/LOCATER V4.66.1.0                                                         03/30/2019  12:53:22  PAGE 48


      01007DA5H   LINE      ---      ---       #643
      01007DA5H   LINE      ---      ---       #644
      01007DACH   LINE      ---      ---       #645
      01007DACH   LINE      ---      ---       #646
      01007DB3H   LINE      ---      ---       #647
      01007DB8H   LINE      ---      ---       #648
      01007DB8H   LINE      ---      ---       #649
      01007DB8H   LINE      ---      ---       #650
      01007DBAH   LINE      ---      ---       #652
      01007DBAH   LINE      ---      ---       #653
      01007DBDH   LINE      ---      ---       #654
      01007DC2H   LINE      ---      ---       #655
      01007DC2H   LINE      ---      ---       #656
      01007DC4H   LINE      ---      ---       #657
      01007DCEH   LINE      ---      ---       #658
      01007DCEH   LINE      ---      ---       #660
      01007DD2H   LINE      ---      ---       #661
      01007DD7H   LINE      ---      ---       #662
      01007DD7H   LINE      ---      ---       #664
      01007DD9H   LINE      ---      ---       #667
      01007DF4H   LINE      ---      ---       #668
      01007DF4H   LINE      ---      ---       #669
      01007E00H   LINE      ---      ---       #670
      01007E07H   LINE      ---      ---       #671
      01007E0DH   LINE      ---      ---       #673
      01007E0FH   LINE      ---      ---       #675
      01007E0FH   LINE      ---      ---       #676
      01007E14H   LINE      ---      ---       #677
      01007E1FH   LINE      ---      ---       #678
      01007E24H   LINE      ---      ---       #679
      01007E38H   LINE      ---      ---       #680
      01007E42H   LINE      ---      ---       #681
      01007E4DH   LINE      ---      ---       #684
      01007E4DH   LINE      ---      ---       #685
      01007E5BH   LINE      ---      ---       #686
      01007E5BH   LINE      ---      ---       #687
      01007E68H   LINE      ---      ---       #688
      01007E68H   LINE      ---      ---       #689
      01007E84H   LINE      ---      ---       #690
      01007E95H   LINE      ---      ---       #691
      01007E97H   LINE      ---      ---       #692
      01007E9EH   LINE      ---      ---       #693
      01007EAEH   LINE      ---      ---       #694
      01007EB0H   LINE      ---      ---       #696
      01007EB0H   LINE      ---      ---       #697
      01007EBAH   LINE      ---      ---       #699
      01007EBAH   LINE      ---      ---       #701
      01007EC7H   LINE      ---      ---       #702
      01007EC7H   LINE      ---      ---       #703
      01007EDCH   LINE      ---      ---       #704
      01007EDCH   LINE      ---      ---       #705
      01007EDCH   LINE      ---      ---       #707
      01007EDCH   LINE      ---      ---       #709
      01007EDCH   LINE      ---      ---       #710
      01007EE2H   LINE      ---      ---       #711
      01007EF8H   LINE      ---      ---       #712
      01007EF8H   LINE      ---      ---       #713
      01007EF8H   LINE      ---      ---       #715
      01007EF8H   LINE      ---      ---       #717
      01007EF8H   LINE      ---      ---       #721
      01007EF8H   LINE      ---      ---       #723
      01007F08H   LINE      ---      ---       #724
      01007F08H   LINE      ---      ---       #725
      01007F14H   LINE      ---      ---       #726
      01007F20H   LINE      ---      ---       #728
LX51 LINKER/LOCATER V4.66.1.0                                                         03/30/2019  12:53:22  PAGE 49


      01007F22H   LINE      ---      ---       #729
      01007F22H   LINE      ---      ---       #730
      01007F27H   LINE      ---      ---       #731
      01007F2BH   LINE      ---      ---       #732
      01007F2BH   LINE      ---      ---       #734
      01007F31H   LINE      ---      ---       #735
      01007F37H   LINE      ---      ---       #736
      01007F37H   LINE      ---      ---       #737
      01007F39H   LINE      ---      ---       #738
      01007F42H   LINE      ---      ---       #739
      01007F4DH   LINE      ---      ---       #740
      01007F52H   LINE      ---      ---       #741
      01007F52H   LINE      ---      ---       #742
      01007F52H   LINE      ---      ---       #743
      02000006H   SYMBOL    XDATA    BYTE      Get_time_out
      02000007H   SYMBOL    XDATA    BYTE      Read_Order
      02000269H   SYMBOL    XDATA    BYTE      Read_SHT21_Err
      00000020H.5 SYMBOL    BIT      BIT       Read_SCL_CONF
      0200026AH   SYMBOL    XDATA    DWORD     TempLong
      0200026EH   SYMBOL    XDATA    WORD      Temp2
      02000008H   SYMBOL    XDATA    WORD      RT_Temp_Mem_L1
      0200000AH   SYMBOL    XDATA    WORD      RT_Temp_Mem_L2
      0200000CH   SYMBOL    XDATA    WORD      RT_Temp_Mem_L3
      0200000EH   SYMBOL    XDATA    BYTE      ReCnt
      ---         BLOCKEND  CODE     ---       LVL=1
      ---         BLOCKEND  CODE     ---       LVL=0

      01007813H   BLOCK     CODE     ---       LVL=0
      01007813H   LINE      ---      ---       #746
      01007813H   LINE      ---      ---       #747
      01007813H   BLOCK     CODE     NEAR LAB  LVL=1
      01007813H   LINE      ---      ---       #775
      01007819H   LINE      ---      ---       #776
      01007821H   LINE      ---      ---       #778
      01007833H   LINE      ---      ---       #779
      0100783FH   LINE      ---      ---       #781
      01007845H   LINE      ---      ---       #782
      01007845H   LINE      ---      ---       #783
      01007847H   LINE      ---      ---       #793
      0100784BH   LINE      ---      ---       #794
      0100784BH   LINE      ---      ---       #795
      01007855H   LINE      ---      ---       #797
      01007855H   LINE      ---      ---       #798
      01007857H   LINE      ---      ---       #808
      0100785BH   LINE      ---      ---       #809
      0100785DH   LINE      ---      ---       #810
      01007863H   LINE      ---      ---       #812
      0100786BH   LINE      ---      ---       #813
      01007871H   LINE      ---      ---       #815
      01007879H   LINE      ---      ---       #817
      0100787EH   LINE      ---      ---       #818
      0100787EH   LINE      ---      ---       #819
      01007886H   LINE      ---      ---       #820
      010078AEH   LINE      ---      ---       #839
      010078BAH   LINE      ---      ---       #841
      010078BEH   LINE      ---      ---       #842
      010078BEH   LINE      ---      ---       #843
      010078C0H   LINE      ---      ---       #844
      010078C0H   LINE      ---      ---       #846
      010078C5H   LINE      ---      ---       #847
      010078C5H   LINE      ---      ---       #848
      010078CAH   LINE      ---      ---       #849
      010078CFH   LINE      ---      ---       #851
      010078D2H   LINE      ---      ---       #852
      010078D5H   LINE      ---      ---       #853
LX51 LINKER/LOCATER V4.66.1.0                                                         03/30/2019  12:53:22  PAGE 50


      010078D5H   LINE      ---      ---       #854
      010078DAH   LINE      ---      ---       #856
      010078DCH   LINE      ---      ---       #857
      010078DCH   LINE      ---      ---       #858
      010078E4H   LINE      ---      ---       #860
      010078E4H   LINE      ---      ---       #862
      010078FBH   LINE      ---      ---       #863
      010078FBH   LINE      ---      ---       #864
      01007901H   LINE      ---      ---       #865
      01007917H   LINE      ---      ---       #866
      01007919H   LINE      ---      ---       #868
      01007919H   LINE      ---      ---       #869
      01007920H   LINE      ---      ---       #870
      01007920H   LINE      ---      ---       #872
      0100792FH   LINE      ---      ---       #873
      0100792FH   LINE      ---      ---       #875
      0100792FH   LINE      ---      ---       #877
      01007936H   LINE      ---      ---       #880
      0100796EH   LINE      ---      ---       #882
      0100796EH   LINE      ---      ---       #883
      01007980H   LINE      ---      ---       #884
      01007980H   LINE      ---      ---       #885
      01007989H   LINE      ---      ---       #886
      0100798DH   LINE      ---      ---       #887
      0100798DH   LINE      ---      ---       #888
      010079ABH   LINE      ---      ---       #889
      010079ABH   LINE      ---      ---       #890
      010079ABH   LINE      ---      ---       #891
      010079ABH   LINE      ---      ---       #893
      010079ABH   LINE      ---      ---       #894
      010079ABH   LINE      ---      ---       #895
      010079BAH   LINE      ---      ---       #896
      010079BAH   LINE      ---      ---       #897
      010079BAH   LINE      ---      ---       #899
      010079BDH   LINE      ---      ---       #900
      010079BDH   LINE      ---      ---       #902
      010079BDH   LINE      ---      ---       #903
      010079C4H   LINE      ---      ---       #906
      010079C9H   LINE      ---      ---       #907
      010079CEH   LINE      ---      ---       #909
      010079CEH   LINE      ---      ---       #910
      010079CEH   LINE      ---      ---       #913
      010079CEH   LINE      ---      ---       #916
      010079D1H   LINE      ---      ---       #917
      010079D4H   LINE      ---      ---       #918
      010079D4H   LINE      ---      ---       #919
      010079D9H   LINE      ---      ---       #921
      010079DBH   LINE      ---      ---       #923
      010079DBH   LINE      ---      ---       #924
      010079E3H   LINE      ---      ---       #926
      010079E3H   LINE      ---      ---       #929
      010079F1H   LINE      ---      ---       #930
      010079F1H   LINE      ---      ---       #931
      010079F7H   LINE      ---      ---       #932
      01007A0DH   LINE      ---      ---       #933
      01007A0FH   LINE      ---      ---       #935
      01007A0FH   LINE      ---      ---       #936
      01007A16H   LINE      ---      ---       #937
      01007A16H   LINE      ---      ---       #938
      01007A20H   LINE      ---      ---       #940
      01007A28H   LINE      ---      ---       #942
      01007A44H   LINE      ---      ---       #943
      01007A44H   LINE      ---      ---       #945
      01007A44H   LINE      ---      ---       #946
      01007A49H   LINE      ---      ---       #947
LX51 LINKER/LOCATER V4.66.1.0                                                         03/30/2019  12:53:22  PAGE 51


      01007A49H   LINE      ---      ---       #948
      00000020H.5 SYMBOL    BIT      BIT       HeaterSensorExist
      00000020H.6 SYMBOL    BIT      BIT       CQKSensorExist
      02000269H   SYMBOL    XDATA    BYTE      T18B20_L
      0200026AH   SYMBOL    XDATA    BYTE      T18B20_H
      0200026BH   SYMBOL    XDATA    BYTE      CQK_T18B20_L
      0200026CH   SYMBOL    XDATA    BYTE      CQK_T18B20_H
      00000005H   SYMBOL    DATA     BYTE      T18B20_H_GET
      00000004H   SYMBOL    DATA     BYTE      T18B20_L_GET
      00000005H   SYMBOL    DATA     BYTE      CQK_T18B20_H_GET
      00000004H   SYMBOL    DATA     BYTE      CQK_T18B20_L_GET
      0200000FH   SYMBOL    XDATA    WORD      CQK_Temp_Last
      00000007H   SYMBOL    DATA     BYTE      CRC8_error
      00000007H   SYMBOL    DATA     BYTE      checksum
      0200026DH   SYMBOL    XDATA    ---       DS18B20_Cdata
      02000275H   SYMBOL    XDATA    WORD      temp
      02000011H   SYMBOL    XDATA    WORD      JRP_Temp_Last
      02000013H   SYMBOL    XDATA    BYTE      Get_Temp_Cnt
      ---         BLOCKEND  CODE     ---       LVL=1
      ---         BLOCKEND  CODE     ---       LVL=0

      0100704FH   BLOCK     CODE     ---       LVL=0
      0100704FH   LINE      ---      ---       #954
      0100704FH   LINE      ---      ---       #955
      0100704FH   BLOCK     CODE     NEAR LAB  LVL=1
      0100704FH   LINE      ---      ---       #966
      0100705DH   LINE      ---      ---       #967
      0100705DH   LINE      ---      ---       #968
      01007060H   LINE      ---      ---       #969
      0100713FH   LINE      ---      ---       #990
      01007147H   LINE      ---      ---       #991
      01007147H   LINE      ---      ---       #992
      0100716AH   LINE      ---      ---       #995
      01007179H   LINE      ---      ---       #996
      01007184H   LINE      ---      ---       #998
      01007193H   LINE      ---      ---       #1000
      010071A6H   LINE      ---      ---       #1003
      010071B5H   LINE      ---      ---       #1004
      010071C0H   LINE      ---      ---       #1006
      010071CFH   LINE      ---      ---       #1008
      010071E4H   LINE      ---      ---       #1010
      010071E6H   LINE      ---      ---       #1012
      010071E6H   LINE      ---      ---       #1013
      01007209H   LINE      ---      ---       #1015
      01007209H   LINE      ---      ---       #1017
      01007262H   LINE      ---      ---       #1023
      01007262H   LINE      ---      ---       #1025
      01007279H   LINE      ---      ---       #1031
      01007279H   LINE      ---      ---       #1032
      0100727FH   LINE      ---      ---       #1034
      01007284H   LINE      ---      ---       #1036
      0100728BH   LINE      ---      ---       #1038
      0100728EH   LINE      ---      ---       #1039
      0100728EH   LINE      ---      ---       #1041
      0100728EH   LINE      ---      ---       #1044
      01007297H   LINE      ---      ---       #1045
      01007297H   LINE      ---      ---       #1046
      0100729EH   LINE      ---      ---       #1047
      010072A0H   LINE      ---      ---       #1048
      010072A0H   LINE      ---      ---       #1049
      010072A7H   LINE      ---      ---       #1050
      010072A7H   LINE      ---      ---       #1052
      010072A9H   LINE      ---      ---       #1054
      010072B5H   LINE      ---      ---       #1055
      010072B5H   LINE      ---      ---       #1056
LX51 LINKER/LOCATER V4.66.1.0                                                         03/30/2019  12:53:22  PAGE 52


      010072BDH   LINE      ---      ---       #1057
      010072BDH   LINE      ---      ---       #1059
      010072C1H   LINE      ---      ---       #1060
      010072C1H   LINE      ---      ---       #1061
      010072C8H   LINE      ---      ---       #1062
      010072CAH   LINE      ---      ---       #1064
      010072CAH   LINE      ---      ---       #1065
      010072D9H   LINE      ---      ---       #1066
      010072D9H   LINE      ---      ---       #1067
      010072F0H   LINE      ---      ---       #1071
      01007307H   LINE      ---      ---       #1072
      0100730AH   LINE      ---      ---       #1073
      01007314H   LINE      ---      ---       #1075
      0100731AH   LINE      ---      ---       #1076
      0100731AH   LINE      ---      ---       #1077
      01007333H   LINE      ---      ---       #1078
      01007333H   LINE      ---      ---       #1080
      01007333H   LINE      ---      ---       #1081
      01007344H   LINE      ---      ---       #1082
      01007344H   LINE      ---      ---       #1084
      01007344H   LINE      ---      ---       #1085
      0100734EH   LINE      ---      ---       #1086
      0100734EH   LINE      ---      ---       #1088
      0100734EH   LINE      ---      ---       #1089
      0100735CH   LINE      ---      ---       #1090
      0100735CH   LINE      ---      ---       #1092
      0100735CH   LINE      ---      ---       #1094
      0100735CH   LINE      ---      ---       #1095
      0100735EH   LINE      ---      ---       #1097
      0100735EH   LINE      ---      ---       #1098
      0100735EH   LINE      ---      ---       #1099
      0100735EH   LINE      ---      ---       #1100
      01007360H   LINE      ---      ---       #1102
      01007360H   LINE      ---      ---       #1103
      01007362H   LINE      ---      ---       #1104
      01007362H   LINE      ---      ---       #1106
      01007366H   LINE      ---      ---       #1107
      01007366H   LINE      ---      ---       #1109
      01007366H   LINE      ---      ---       #1111
      01007366H   LINE      ---      ---       #1112
      01007377H   LINE      ---      ---       #1113
      01007377H   LINE      ---      ---       #1116
      01007382H   LINE      ---      ---       #1118
      01007384H   LINE      ---      ---       #1119
      0100738AH   LINE      ---      ---       #1120
      0100738AH   LINE      ---      ---       #1121
      0100738AH   LINE      ---      ---       #1122
      010073A0H   LINE      ---      ---       #1123
      010073ADH   LINE      ---      ---       #1124
      010073B3H   LINE      ---      ---       #1125
      010073B3H   LINE      ---      ---       #1126
      010073BDH   LINE      ---      ---       #1127
      010073BDH   LINE      ---      ---       #1128
      010073D1H   LINE      ---      ---       #1129
      010073D1H   LINE      ---      ---       #1131
      010073D1H   LINE      ---      ---       #1132
      010073DAH   LINE      ---      ---       #1133
      010073DAH   LINE      ---      ---       #1134
      010073DAH   LINE      ---      ---       #1135
      010073DAH   LINE      ---      ---       #1136
      010073DAH   LINE      ---      ---       #1137
      010073DCH   LINE      ---      ---       #1139
      010073DCH   LINE      ---      ---       #1140
      010073DEH   LINE      ---      ---       #1141
      010073DEH   LINE      ---      ---       #1142
LX51 LINKER/LOCATER V4.66.1.0                                                         03/30/2019  12:53:22  PAGE 53


      010073E9H   LINE      ---      ---       #1143
      010073E9H   LINE      ---      ---       #1146
      010073E9H   LINE      ---      ---       #1148
      010073F4H   LINE      ---      ---       #1149
      010073F4H   LINE      ---      ---       #1150
      0100740EH   LINE      ---      ---       #1152
      01007410H   LINE      ---      ---       #1153
      01007417H   LINE      ---      ---       #1155
      0100742FH   LINE      ---      ---       #1158
      0100743BH   LINE      ---      ---       #1159
      0100743BH   LINE      ---      ---       #1160
      0100743EH   LINE      ---      ---       #1161
      0100743EH   LINE      ---      ---       #1162
      0100744DH   LINE      ---      ---       #1164
      0100745CH   LINE      ---      ---       #1165
      0100745CH   LINE      ---      ---       #1166
      01007463H   LINE      ---      ---       #1167
      01007469H   LINE      ---      ---       #1169
      01007469H   LINE      ---      ---       #1171
      0100747DH   LINE      ---      ---       #1172
      0100747DH   LINE      ---      ---       #1173
      01007484H   LINE      ---      ---       #1175
      01007485H   LINE      ---      ---       #1177
      0100748DH   LINE      ---      ---       #1178
      0100748DH   LINE      ---      ---       #1179
      01007499H   LINE      ---      ---       #1180
      01007499H   LINE      ---      ---       #1181
      010074A0H   LINE      ---      ---       #1182
      010074A0H   LINE      ---      ---       #1183
      010074A2H   LINE      ---      ---       #1184
      010074A8H   LINE      ---      ---       #1185
      010074AAH   LINE      ---      ---       #1187
      010074AAH   LINE      ---      ---       #1188
      010074BBH   LINE      ---      ---       #1191
      010074BBH   LINE      ---      ---       #1192
      010074C5H   LINE      ---      ---       #1193
      010074C5H   LINE      ---      ---       #1195
      010074C9H   LINE      ---      ---       #1196
      010074C9H   LINE      ---      ---       #1197
      010074CBH   LINE      ---      ---       #1199
      010074CBH   LINE      ---      ---       #1200
      010074D5H   LINE      ---      ---       #1201
      010074D5H   LINE      ---      ---       #1202
      010074E2H   LINE      ---      ---       #1203
      010074E2H   LINE      ---      ---       #1204
      010074E2H   LINE      ---      ---       #1206
      010074F0H   LINE      ---      ---       #1207
      010074F0H   LINE      ---      ---       #1209
      01007504H   LINE      ---      ---       #1210
      01007504H   LINE      ---      ---       #1212
      0100750BH   LINE      ---      ---       #1213
      0100750BH   LINE      ---      ---       #1215
      0100751EH   LINE      ---      ---       #1216
      01007520H   LINE      ---      ---       #1218
      01007520H   LINE      ---      ---       #1219
      0100752FH   LINE      ---      ---       #1220
      0100752FH   LINE      ---      ---       #1225
      0100754AH   LINE      ---      ---       #1226
      0100754AH   LINE      ---      ---       #1227
      01007551H   LINE      ---      ---       #1228
      01007553H   LINE      ---      ---       #1230
      01007553H   LINE      ---      ---       #1231
      01007558H   LINE      ---      ---       #1232
      01007569H   LINE      ---      ---       #1233
      01007569H   LINE      ---      ---       #1234
LX51 LINKER/LOCATER V4.66.1.0                                                         03/30/2019  12:53:22  PAGE 54


      0100756DH   LINE      ---      ---       #1235
      01007582H   LINE      ---      ---       #1236
      01007585H   LINE      ---      ---       #1238
      01007593H   LINE      ---      ---       #1240
      0100759AH   LINE      ---      ---       #1241
      0100759AH   LINE      ---      ---       #1242
      010075AEH   LINE      ---      ---       #1243
      010075B0H   LINE      ---      ---       #1245
      010075B0H   LINE      ---      ---       #1246
      010075C4H   LINE      ---      ---       #1247
      010075C4H   LINE      ---      ---       #1249
      010075C8H   LINE      ---      ---       #1251
      010075C8H   LINE      ---      ---       #1252
      010075DCH   LINE      ---      ---       #1253
      010075DEH   LINE      ---      ---       #1255
      010075DEH   LINE      ---      ---       #1256
      010075EEH   LINE      ---      ---       #1257
      010075EEH   LINE      ---      ---       #1258
      010075EEH   LINE      ---      ---       #1259
      010075EEH   LINE      ---      ---       #1262
      01007603H   LINE      ---      ---       #1266
      01007624H   LINE      ---      ---       #1267
      01007624H   LINE      ---      ---       #1268
      01007634H   LINE      ---      ---       #1269
      0100763FH   LINE      ---      ---       #1270
      0100763FH   LINE      ---      ---       #1271
      0100763FH   LINE      ---      ---       #1272
      0100763FH   LINE      ---      ---       #1274
      0100763FH   LINE      ---      ---       #1275
      0100763FH   LINE      ---      ---       #1276
      0100763FH   LINE      ---      ---       #1279
      01007650H   LINE      ---      ---       #1280
      0100765AH   LINE      ---      ---       #1281
      01007663H   LINE      ---      ---       #1282
      01007664H   LINE      ---      ---       #1283
      0100766EH   LINE      ---      ---       #1284
      0100766EH   LINE      ---      ---       #1285
      01007671H   LINE      ---      ---       #1287
      01007671H   LINE      ---      ---       #1288
      01007671H   LINE      ---      ---       #1289
      01007671H   LINE      ---      ---       #1290
      02000269H   SYMBOL    XDATA    WORD      Val_Calc
      0200026BH   SYMBOL    XDATA    INT       Humidity_Err
      0200026DH   SYMBOL    XDATA    INT       Humidity_Comp
      02000014H   SYMBOL    XDATA    WORD      Last_Rem_Humidity
      02000016H   SYMBOL    XDATA    WORD      WarmUp_S_Cnt
      ---         BLOCKEND  CODE     ---       LVL=1
      ---         BLOCKEND  CODE     ---       LVL=0

      0100BE9AH   BLOCK     CODE     ---       LVL=0
      0100BE9AH   LINE      ---      ---       #1293
      0100BE9AH   LINE      ---      ---       #1294
      0100BE9AH   BLOCK     CODE     NEAR LAB  LVL=1
      0100BE9AH   LINE      ---      ---       #1297
      0100BEA9H   LINE      ---      ---       #1298
      0100BEC8H   LINE      ---      ---       #1299
      0100BECCH   LINE      ---      ---       #1300
      0100BEDBH   LINE      ---      ---       #1301
      0100BEEBH   LINE      ---      ---       #1302
      0100BEFEH   LINE      ---      ---       #1305
      00000006H   SYMBOL    DATA     WORD      i
      00000005H   SYMBOL    DATA     BYTE      N
      0200026FH   SYMBOL    XDATA    BYTE      j
      ---         BLOCKEND  CODE     ---       LVL=1
      ---         BLOCKEND  CODE     ---       LVL=0
LX51 LINKER/LOCATER V4.66.1.0                                                         03/30/2019  12:53:22  PAGE 55



      0100BA85H   BLOCK     CODE     ---       LVL=0
      0100BA85H   LINE      ---      ---       #1307
      0100BA85H   LINE      ---      ---       #1308
      0100BA85H   BLOCK     CODE     NEAR LAB  LVL=1
      0100BA85H   LINE      ---      ---       #1311
      0100BA8AH   LINE      ---      ---       #1312
      0100BA91H   LINE      ---      ---       #1313
      0100BA95H   LINE      ---      ---       #1314
      0100BA95H   LINE      ---      ---       #1315
      0100BAB1H   LINE      ---      ---       #1317
      0100BAB8H   LINE      ---      ---       #1318
      0100BABFH   LINE      ---      ---       #1319
      0100BABFH   LINE      ---      ---       #1320
      0100BACEH   LINE      ---      ---       #1321
      0100BAD0H   LINE      ---      ---       #1322
      0100BAD0H   LINE      ---      ---       #1323
      0100BAFBH   LINE      ---      ---       #1325
      0100BB0BH   LINE      ---      ---       #1326
      0100BB13H   LINE      ---      ---       #1327
      0100BB15H   LINE      ---      ---       #1329
      0100BB15H   LINE      ---      ---       #1330
      0100BB1BH   LINE      ---      ---       #1331
      0100BB20H   LINE      ---      ---       #1332
      0100BB20H   LINE      ---      ---       #1333
      0100BB20H   LINE      ---      ---       #1334
      0100BB2BH   LINE      ---      ---       #1335
      0100BB57H   LINE      ---      ---       #1337
      0100BB57H   LINE      ---      ---       #1338
      0100BB6DH   LINE      ---      ---       #1339
      0100BB72H   LINE      ---      ---       #1340
      02000269H   SYMBOL    XDATA    WORD      Start1
      0200026BH   SYMBOL    XDATA    WORD      Start2
      0200026DH   SYMBOL    XDATA    WORD      StartAdr
      0200026FH   SYMBOL    XDATA    BYTE      N
      02000270H   SYMBOL    XDATA    BYTE      K
      02000271H   SYMBOL    XDATA    BYTE      j
      ---         BLOCKEND  CODE     ---       LVL=1
      ---         BLOCKEND  CODE     ---       LVL=0

      0100BF41H   BLOCK     CODE     ---       LVL=0
      0100BF41H   LINE      ---      ---       #1372
      0100BF41H   LINE      ---      ---       #1373
      0100BF41H   LINE      ---      ---       #1374
      0100BF47H   LINE      ---      ---       #1375
      0100BF4BH   LINE      ---      ---       #1376
      ---         BLOCKEND  ---      ---       LVL=0

      0100A89FH   BLOCK     CODE     ---       LVL=0
      0100A89FH   LINE      ---      ---       #1379
      0100A89FH   LINE      ---      ---       #1380
      0100A89FH   BLOCK     CODE     NEAR LAB  LVL=1
      0100A89FH   LINE      ---      ---       #1381
      0100A89FH   LINE      ---      ---       #1388
      0100A8A6H   LINE      ---      ---       #1390
      0100A8A6H   LINE      ---      ---       #1391
      0100A8A8H   LINE      ---      ---       #1392
      0100A8A8H   LINE      ---      ---       #1393
      0100A8ADH   LINE      ---      ---       #1394
      0100A8B0H   LINE      ---      ---       #1399
      0100A8E3H   LINE      ---      ---       #1403
      0100A8E3H   LINE      ---      ---       #1404
      0100A8E5H   LINE      ---      ---       #1405
      0100A8EFH   LINE      ---      ---       #1406
      0100A8F6H   LINE      ---      ---       #1408
LX51 LINKER/LOCATER V4.66.1.0                                                         03/30/2019  12:53:22  PAGE 56


      0100A8FDH   LINE      ---      ---       #1409
      0100A8FFH   LINE      ---      ---       #1411
      0100A8FFH   LINE      ---      ---       #1412
      0100A901H   LINE      ---      ---       #1413
      0100A908H   LINE      ---      ---       #1414
      0100A908H   LINE      ---      ---       #1416
      0100A920H   LINE      ---      ---       #1417
      0100A920H   LINE      ---      ---       #1418
      0100A922H   LINE      ---      ---       #1419
      0100A924H   LINE      ---      ---       #1420
      0100A926H   LINE      ---      ---       #1421
      0100A929H   LINE      ---      ---       #1425
      0100A930H   LINE      ---      ---       #1426
      0100A932H   LINE      ---      ---       #1428
      0100A932H   LINE      ---      ---       #1429
      0100A934H   LINE      ---      ---       #1430
      0100A93BH   LINE      ---      ---       #1431
      0100A93BH   LINE      ---      ---       #1433
      0100A958H   LINE      ---      ---       #1435
      0100A958H   LINE      ---      ---       #1436
      0100A95AH   LINE      ---      ---       #1437
      0100A963H   LINE      ---      ---       #1438
      0100A963H   LINE      ---      ---       #1439
      0100A966H   LINE      ---      ---       #1441
      0100A966H   LINE      ---      ---       #1442
      0100A96AH   LINE      ---      ---       #1446
      0100A96CH   LINE      ---      ---       #1448
      0100A96EH   LINE      ---      ---       #1450
      0100A985H   LINE      ---      ---       #1451
      0100A985H   LINE      ---      ---       #1452
      0100A987H   LINE      ---      ---       #1453
      0100A98EH   LINE      ---      ---       #1454
      0100A990H   LINE      ---      ---       #1456
      0100A990H   LINE      ---      ---       #1457
      0100A992H   LINE      ---      ---       #1458
      0100A999H   LINE      ---      ---       #1459
      0100A999H   LINE      ---      ---       #1460
      0100A9A1H   LINE      ---      ---       #1461
      0100A9A1H   LINE      ---      ---       #1462
      0100A9A4H   LINE      ---      ---       #1463
      0100A9A6H   LINE      ---      ---       #1465
      0100A9A9H   LINE      ---      ---       #1466
      0100A9B1H   LINE      ---      ---       #1467
      0100A9B6H   LINE      ---      ---       #1469
      0100A9B9H   LINE      ---      ---       #1471
      0100A9BDH   LINE      ---      ---       #1472
      0100A9BDH   LINE      ---      ---       #1473
      0100A9C4H   LINE      ---      ---       #1474
      0100A9C6H   LINE      ---      ---       #1476
      0100A9C6H   LINE      ---      ---       #1477
      0100A9CDH   LINE      ---      ---       #1478
      0100A9CDH   LINE      ---      ---       #1479
      0100A9D0H   LINE      ---      ---       #1480
      0100A9D0H   LINE      ---      ---       #1481
      0100A9D0H   LINE      ---      ---       #1495
      0100A9D7H   LINE      ---      ---       #1496
      0100A9D7H   LINE      ---      ---       #1497
      0100A9DDH   LINE      ---      ---       #1498
      0100A9DDH   LINE      ---      ---       #1499
      0100A9F0H   LINE      ---      ---       #1500
      0100A9F0H   LINE      ---      ---       #1501
      0100A9F3H   LINE      ---      ---       #1502
      0100A9F3H   LINE      ---      ---       #1503
      0100AA03H   LINE      ---      ---       #1504
      0100AA03H   LINE      ---      ---       #1505
LX51 LINKER/LOCATER V4.66.1.0                                                         03/30/2019  12:53:22  PAGE 57


      0100AA06H   LINE      ---      ---       #1506
      0100AA06H   LINE      ---      ---       #1507
      0100AA16H   LINE      ---      ---       #1508
      0100AA16H   LINE      ---      ---       #1509
      0100AA1AH   LINE      ---      ---       #1510
      0100AA1AH   LINE      ---      ---       #1511
      0100AA25H   LINE      ---      ---       #1512
      0100AA25H   LINE      ---      ---       #1513
      0100AA29H   LINE      ---      ---       #1514
      0100AA29H   LINE      ---      ---       #1515
      0100AA39H   LINE      ---      ---       #1516
      0100AA39H   LINE      ---      ---       #1517
      0100AA3DH   LINE      ---      ---       #1518
      0100AA3DH   LINE      ---      ---       #1519
      0100AA4DH   LINE      ---      ---       #1520
      0100AA4DH   LINE      ---      ---       #1521
      0100AA53H   LINE      ---      ---       #1522
      0100AA53H   LINE      ---      ---       #1523
      0100AA62H   LINE      ---      ---       #1524
      0100AA62H   LINE      ---      ---       #1525
      0100AA65H   LINE      ---      ---       #1526
      0100AA65H   LINE      ---      ---       #1527
      0100AA75H   LINE      ---      ---       #1528
      0100AA75H   LINE      ---      ---       #1529
      0100AA7CH   LINE      ---      ---       #1530
      0100AA7CH   LINE      ---      ---       #1531
      0100AA8CH   LINE      ---      ---       #1532
      0100AA8CH   LINE      ---      ---       #1533
      0100AA8CH   LINE      ---      ---       #1536
      0100AA92H   LINE      ---      ---       #1537
      0100AA92H   LINE      ---      ---       #1538
      0100AA97H   LINE      ---      ---       #1539
      0100AA99H   LINE      ---      ---       #1540
      0100AAA1H   LINE      ---      ---       #1541
      0100AAA1H   LINE      ---      ---       #1542
      0100AAA7H   LINE      ---      ---       #1543
      0100AAA9H   LINE      ---      ---       #1544
      0100AAB2H   LINE      ---      ---       #1545
      0100AAB2H   LINE      ---      ---       #1546
      0100AAB8H   LINE      ---      ---       #1547
      0100AABAH   LINE      ---      ---       #1548
      0100AABEH   LINE      ---      ---       #1549
      0100AABEH   LINE      ---      ---       #1550
      0100AAC4H   LINE      ---      ---       #1551
      0100AAC6H   LINE      ---      ---       #1552
      0100AACAH   LINE      ---      ---       #1553
      0100AACAH   LINE      ---      ---       #1554
      0100AAD0H   LINE      ---      ---       #1555
      0100AAD2H   LINE      ---      ---       #1556
      0100AAD6H   LINE      ---      ---       #1557
      0100AAD6H   LINE      ---      ---       #1558
      0100AADCH   LINE      ---      ---       #1559
      0100AADEH   LINE      ---      ---       #1560
      0100AAE5H   LINE      ---      ---       #1561
      0100AAE5H   LINE      ---      ---       #1562
      0100AAEBH   LINE      ---      ---       #1563
      0100AAEDH   LINE      ---      ---       #1564
      0100AAF0H   LINE      ---      ---       #1565
      0100AAF0H   LINE      ---      ---       #1566
      0100AAF6H   LINE      ---      ---       #1567
      0100AAF8H   LINE      ---      ---       #1569
      0100AAF8H   LINE      ---      ---       #1570
      0100AAFDH   LINE      ---      ---       #1571
      0100AB01H   LINE      ---      ---       #1572
      0100AB01H   LINE      ---      ---       #1574
LX51 LINKER/LOCATER V4.66.1.0                                                         03/30/2019  12:53:22  PAGE 58


      0100AB0DH   LINE      ---      ---       #1575
      0100AB0DH   LINE      ---      ---       #1576
      0100AB0FH   LINE      ---      ---       #1578
      0100AB0FH   LINE      ---      ---       #1580
      0100AB17H   LINE      ---      ---       #1584
      0100AB1EH   LINE      ---      ---       #1585
      0100AB2AH   LINE      ---      ---       #1586
      0100AB2AH   LINE      ---      ---       #1587
      0100AB31H   LINE      ---      ---       #1588
      0100AB31H   LINE      ---      ---       #1590
      0100AB3CH   LINE      ---      ---       #1591
      0100AB3CH   LINE      ---      ---       #1592
      0100AB42H   LINE      ---      ---       #1593
      0100AB42H   LINE      ---      ---       #1594
      0100AB45H   LINE      ---      ---       #1596
      0100AB4AH   LINE      ---      ---       #1597
      0100AB4AH   LINE      ---      ---       #1598
      0100AB52H   LINE      ---      ---       #1599
      0100AB52H   LINE      ---      ---       #1600
      0100AB56H   LINE      ---      ---       #1603
      0100AB5AH   LINE      ---      ---       #1604
      0100AB5AH   LINE      ---      ---       #1605
      0100AB5FH   LINE      ---      ---       #1606
      0100AB5FH   LINE      ---      ---       #1607
      0100AB64H   LINE      ---      ---       #1608
      0100AB64H   LINE      ---      ---       #1609
      0100AB70H   LINE      ---      ---       #1611
      0100AB70H   LINE      ---      ---       #1612
      0100AB70H   LINE      ---      ---       #1614
      0100AB79H   LINE      ---      ---       #1615
      0100AB79H   LINE      ---      ---       #1616
      0100AB7EH   LINE      ---      ---       #1617
      0100AB7EH   LINE      ---      ---       #1618
      0100AB92H   LINE      ---      ---       #1621
      0100AB92H   LINE      ---      ---       #1622
      0100AB92H   LINE      ---      ---       #1623
      0100AB92H   LINE      ---      ---       #1624
      0100AB94H   LINE      ---      ---       #1625
      0100AB94H   LINE      ---      ---       #1626
      0100AB9AH   LINE      ---      ---       #1627
      0100ABA0H   LINE      ---      ---       #1628
      0100ABA9H   LINE      ---      ---       #1629
      0100ABABH   LINE      ---      ---       #1632
      0100ABABH   LINE      ---      ---       #1633
      0100ABADH   LINE      ---      ---       #1635
      0100ABADH   LINE      ---      ---       #1636
      0100ABB2H   LINE      ---      ---       #1637
      0100ABB2H   LINE      ---      ---       #1638
      0100ABB3H   LINE      ---      ---       #1639
      0100ABBAH   LINE      ---      ---       #1641
      0100ABBAH   LINE      ---      ---       #1643
      0100ABC2H   LINE      ---      ---       #1644
      0100ABC2H   LINE      ---      ---       #1645
      0100ABC5H   LINE      ---      ---       #1646
      0100ABC8H   LINE      ---      ---       #1647
      0100ABC8H   LINE      ---      ---       #1648
      0100ABCEH   LINE      ---      ---       #1649
      0100ABD4H   LINE      ---      ---       #1650
      0100ABDBH   LINE      ---      ---       #1651
      0100ABE1H   LINE      ---      ---       #1652
      0100ABF7H   LINE      ---      ---       #1654
      0100ABF9H   LINE      ---      ---       #1655
      0100AC12H   LINE      ---      ---       #1658
      0100AC12H   LINE      ---      ---       #1660
      0100AC1AH   LINE      ---      ---       #1661
LX51 LINKER/LOCATER V4.66.1.0                                                         03/30/2019  12:53:22  PAGE 59


      0100AC1AH   LINE      ---      ---       #1662
      0100AC1DH   LINE      ---      ---       #1663
      0100AC21H   LINE      ---      ---       #1664
      0100AC21H   LINE      ---      ---       #1666
      0100AC27H   LINE      ---      ---       #1667
      0100AC27H   LINE      ---      ---       #1668
      0100AC2BH   LINE      ---      ---       #1669
      0100AC2DH   LINE      ---      ---       #1670
      0100AC34H   LINE      ---      ---       #1671
      0100AC34H   LINE      ---      ---       #1672
      0100AC36H   LINE      ---      ---       #1673
      0100AC36H   LINE      ---      ---       #1676
      0100AC36H   LINE      ---      ---       #1678
      0100AC3DH   LINE      ---      ---       #1679
      0100AC3DH   LINE      ---      ---       #1680
      0100AC42H   LINE      ---      ---       #1681
      0100AC44H   LINE      ---      ---       #1682
      0100AC44H   LINE      ---      ---       #1683
      0100AC48H   LINE      ---      ---       #1684
      0100AC48H   LINE      ---      ---       #1685
      0100AC55H   LINE      ---      ---       #1686
      0100AC55H   LINE      ---      ---       #1687
      0100AC5AH   LINE      ---      ---       #1688
      0100AC5CH   LINE      ---      ---       #1689
      0100AC5CH   LINE      ---      ---       #1690
      0100AC60H   LINE      ---      ---       #1691
      0100AC60H   LINE      ---      ---       #1692
      0100AC60H   LINE      ---      ---       #1693
      0100AC60H   LINE      ---      ---       #1695
      0100AC60H   LINE      ---      ---       #1697
      0100AC60H   LINE      ---      ---       #1698
      0100AC60H   LINE      ---      ---       #1699
      0100AC62H   LINE      ---      ---       #1701
      0100AC62H   LINE      ---      ---       #1702
      0100AC62H   LINE      ---      ---       #1704
      0100AC64H   LINE      ---      ---       #1705
      0100AC69H   LINE      ---      ---       #1707
      0100AC69H   LINE      ---      ---       #1708
      0100AC6DH   LINE      ---      ---       #1710
      0100AC6DH   LINE      ---      ---       #1711
      0100AC75H   LINE      ---      ---       #1712
      0100AC75H   LINE      ---      ---       #1713
      0100AC78H   LINE      ---      ---       #1714
      0100AC7CH   LINE      ---      ---       #1715
      0100AC7CH   LINE      ---      ---       #1718
      0100AC83H   LINE      ---      ---       #1719
      0100AC83H   LINE      ---      ---       #1720
      0100AC86H   LINE      ---      ---       #1721
      0100AC88H   LINE      ---      ---       #1723
      0100AC88H   LINE      ---      ---       #1724
      0100AC8BH   LINE      ---      ---       #1725
      0100AC8BH   LINE      ---      ---       #1726
      0100AC8FH   LINE      ---      ---       #1727
      0100AC8FH   LINE      ---      ---       #1728
      0100AC8FH   LINE      ---      ---       #1729
      0100AC93H   LINE      ---      ---       #1730
      0100AC93H   LINE      ---      ---       #1731
      0100ACB6H   LINE      ---      ---       #1735
      0100ACB6H   LINE      ---      ---       #1736
      0100ACB6H   LINE      ---      ---       #1738
      0100ACB6H   LINE      ---      ---       #1739
      0100ACBBH   LINE      ---      ---       #1740
      0100ACBBH   LINE      ---      ---       #1741
      0100ACBBH   LINE      ---      ---       #1743
      0100ACC8H   LINE      ---      ---       #1748
LX51 LINKER/LOCATER V4.66.1.0                                                         03/30/2019  12:53:22  PAGE 60


      0100ACD5H   LINE      ---      ---       #1749
      0100ACD5H   LINE      ---      ---       #1750
      0100ACD8H   LINE      ---      ---       #1751
      0100ACDAH   LINE      ---      ---       #1753
      0100ACDAH   LINE      ---      ---       #1754
      0100ACDDH   LINE      ---      ---       #1755
      0100ACDDH   LINE      ---      ---       #1756
      0100ACE1H   LINE      ---      ---       #1757
      0100ACE1H   LINE      ---      ---       #1758
      0100ACE1H   LINE      ---      ---       #1759
      0100ACE5H   LINE      ---      ---       #1760
      0100ACE5H   LINE      ---      ---       #1761
      0100AD07H   LINE      ---      ---       #1765
      0100AD07H   LINE      ---      ---       #1766
      0100AD07H   LINE      ---      ---       #1768
      0100AD07H   LINE      ---      ---       #1769
      0100AD0CH   LINE      ---      ---       #1770
      0100AD0CH   LINE      ---      ---       #1771
      0100AD0CH   LINE      ---      ---       #1773
      0100AD2AH   LINE      ---      ---       #1776
      0100AD2AH   LINE      ---      ---       #1777
      0100AD2AH   LINE      ---      ---       #1778
      0100AD2DH   LINE      ---      ---       #1779
      0100AD2DH   LINE      ---      ---       #1780
      0100AD31H   LINE      ---      ---       #1782
      0100AD39H   LINE      ---      ---       #1783
      0100AD39H   LINE      ---      ---       #1784
      0100AD3CH   LINE      ---      ---       #1785
      0100AD3FH   LINE      ---      ---       #1786
      0100AD3FH   LINE      ---      ---       #1787
      0100AD45H   LINE      ---      ---       #1788
      0100AD45H   LINE      ---      ---       #1790
      0100AD4BH   LINE      ---      ---       #1791
      0100AD4DH   LINE      ---      ---       #1793
      0100AD54H   LINE      ---      ---       #1794
      0100AD54H   LINE      ---      ---       #1795
      0100AD56H   LINE      ---      ---       #1796
      0100AD56H   LINE      ---      ---       #1797
      0100AD63H   LINE      ---      ---       #1799
      0100AD63H   LINE      ---      ---       #1800
      0100AD6CH   LINE      ---      ---       #1801
      0100AD6CH   LINE      ---      ---       #1803
      0100AD71H   LINE      ---      ---       #1804
      0100AD71H   LINE      ---      ---       #1805
      0100AD79H   LINE      ---      ---       #1806
      0100AD79H   LINE      ---      ---       #1807
      0100AD7DH   LINE      ---      ---       #1809
      0100AD7DH   LINE      ---      ---       #1812
      0100AD82H   LINE      ---      ---       #1813
      0100AD82H   LINE      ---      ---       #1814
      0100AD86H   LINE      ---      ---       #1815
      0100AD86H   LINE      ---      ---       #1816
      0100AD8BH   LINE      ---      ---       #1817
      0100AD8BH   LINE      ---      ---       #1818
      0100AD94H   LINE      ---      ---       #1821
      0100AD94H   LINE      ---      ---       #1822
      0100AD94H   LINE      ---      ---       #1823
      0100AD94H   LINE      ---      ---       #1824
      0100AD96H   LINE      ---      ---       #1825
      0100AD9AH   LINE      ---      ---       #1826
      0100AD9AH   LINE      ---      ---       #1827
      0100ADAEH   LINE      ---      ---       #1830
      0100ADC3H   LINE      ---      ---       #1833
      0100ADC3H   LINE      ---      ---       #1834
      0100ADC3H   LINE      ---      ---       #1835
LX51 LINKER/LOCATER V4.66.1.0                                                         03/30/2019  12:53:22  PAGE 61


      0100ADC5H   LINE      ---      ---       #1836
      0100ADC5H   LINE      ---      ---       #1837
      0100ADC5H   LINE      ---      ---       #1838
      0100ADC5H   LINE      ---      ---       #1840
      0100ADC5H   LINE      ---      ---       #1841
      0100ADCBH   LINE      ---      ---       #1842
      0100ADCBH   LINE      ---      ---       #1843
      0100ADCDH   LINE      ---      ---       #1844
      0100ADD1H   LINE      ---      ---       #1845
      0100ADD1H   LINE      ---      ---       #1846
      0100ADD1H   LINE      ---      ---       #1847
      0100ADD1H   LINE      ---      ---       #1849
      0100ADD1H   LINE      ---      ---       #1850
      02000269H   SYMBOL    XDATA    BYTE      color
      02000018H   SYMBOL    XDATA    BYTE      Err_Event_Cnt
      0200026AH   SYMBOL    XDATA    BYTE      Err_Event_1
      0200026BH   SYMBOL    XDATA    BYTE      Err_Event_2
      02000019H   SYMBOL    XDATA    BYTE      AlarmInfoRem
      ---         BLOCKEND  CODE     ---       LVL=1
      ---         BLOCKEND  CODE     ---       LVL=0

      0100B06CH   BLOCK     CODE     ---       LVL=0
      0100B06CH   LINE      ---      ---       #1853
      0100B06CH   LINE      ---      ---       #1854
      0100B06CH   BLOCK     CODE     NEAR LAB  LVL=1
      0100B06CH   LINE      ---      ---       #1861
      0100B086H   LINE      ---      ---       #1864
      0100B08FH   LINE      ---      ---       #1865
      0100B08FH   LINE      ---      ---       #1866
      0100B0BEH   LINE      ---      ---       #1868
      0100B0BEH   LINE      ---      ---       #1871
      0100B0D0H   LINE      ---      ---       #1873
      0100B0E2H   LINE      ---      ---       #1874
      0100B0E8H   LINE      ---      ---       #1876
      0100B0EFH   LINE      ---      ---       #1877
      0100B0EFH   LINE      ---      ---       #1878
      0100B117H   LINE      ---      ---       #1879
      0100B117H   LINE      ---      ---       #1880
      0100B129H   LINE      ---      ---       #1881
      0100B12BH   LINE      ---      ---       #1883
      0100B12BH   LINE      ---      ---       #1884
      0100B12DH   LINE      ---      ---       #1885
      0100B12DH   LINE      ---      ---       #1889
      0100B135H   LINE      ---      ---       #1890
      0100B140H   LINE      ---      ---       #1891
      0100B142H   LINE      ---      ---       #1893
      0100B142H   LINE      ---      ---       #1894
      0100B144H   LINE      ---      ---       #1895
      0100B144H   LINE      ---      ---       #1901
      0100B147H   LINE      ---      ---       #1902
      0100B147H   LINE      ---      ---       #1904
      0100B147H   LINE      ---      ---       #1906
      0100B147H   LINE      ---      ---       #1907
      0100B149H   LINE      ---      ---       #1908
      0100B149H   LINE      ---      ---       #1910
      0100B156H   LINE      ---      ---       #1911
      0100B156H   LINE      ---      ---       #1912
      0100B15EH   LINE      ---      ---       #1914
      0100B15EH   LINE      ---      ---       #1915
      0100B161H   LINE      ---      ---       #1916
      0100B161H   LINE      ---      ---       #1917
      0100B163H   LINE      ---      ---       #1919
      0100B163H   LINE      ---      ---       #1920
      0100B16CH   LINE      ---      ---       #1921
      0100B16CH   LINE      ---      ---       #1922
LX51 LINKER/LOCATER V4.66.1.0                                                         03/30/2019  12:53:22  PAGE 62


      0100B16EH   LINE      ---      ---       #1923
      0100B16EH   LINE      ---      ---       #1924
      0100B16EH   LINE      ---      ---       #1928
      0100B17AH   LINE      ---      ---       #1929
      0100B17AH   LINE      ---      ---       #1930
      0100B182H   LINE      ---      ---       #1931
      0100B182H   LINE      ---      ---       #1932
      0100B18EH   LINE      ---      ---       #1933
      0100B194H   LINE      ---      ---       #1934
      0100B194H   LINE      ---      ---       #1935
      0100B194H   LINE      ---      ---       #1936
      0100B194H   LINE      ---      ---       #1937
      0100B196H   LINE      ---      ---       #1938
      0100B196H   LINE      ---      ---       #1939
      0100B19BH   LINE      ---      ---       #1940
      0100B19BH   LINE      ---      ---       #1941
      0100B1A4H   LINE      ---      ---       #1942
      0100B1A4H   LINE      ---      ---       #1943
      0100B1ABH   LINE      ---      ---       #1944
      0100B1ABH   LINE      ---      ---       #1945
      0100B1ABH   LINE      ---      ---       #1947
      0100B1BAH   LINE      ---      ---       #1948
      0100B1BAH   LINE      ---      ---       #1949
      0100B1BFH   LINE      ---      ---       #1950
      0100B1C1H   LINE      ---      ---       #1951
      0100B1C1H   LINE      ---      ---       #1956
      0100B1C1H   LINE      ---      ---       #1957
      0100B1C1H   LINE      ---      ---       #1958
      0100B1D0H   LINE      ---      ---       #1959
      0100B1D0H   LINE      ---      ---       #1960
      0100B1D6H   LINE      ---      ---       #1961
      0100B1DBH   LINE      ---      ---       #1962
      0100B1DBH   LINE      ---      ---       #1963
      0100B1DEH   LINE      ---      ---       #1964
      0100B1DEH   LINE      ---      ---       #1965
      0100B1E0H   LINE      ---      ---       #1967
      0100B1E0H   LINE      ---      ---       #1968
      0100B1E9H   LINE      ---      ---       #1969
      0100B1E9H   LINE      ---      ---       #1970
      0100B1EBH   LINE      ---      ---       #1971
      0100B1EBH   LINE      ---      ---       #1972
      0100B1EBH   LINE      ---      ---       #1973
      0100B1EBH   LINE      ---      ---       #1975
      0100B1F2H   LINE      ---      ---       #1976
      0100B1F2H   LINE      ---      ---       #1977
      0100B1FEH   LINE      ---      ---       #1979
      0100B1FEH   LINE      ---      ---       #1980
      0100B200H   LINE      ---      ---       #1981
      0100B202H   LINE      ---      ---       #1983
      0100B202H   LINE      ---      ---       #1984
      0100B209H   LINE      ---      ---       #1985
      0100B209H   LINE      ---      ---       #1987
      0100B20FH   LINE      ---      ---       #1988
      0100B211H   LINE      ---      ---       #1989
      0100B215H   LINE      ---      ---       #1990
      0100B215H   LINE      ---      ---       #1991
      0100B222H   LINE      ---      ---       #1993
      0100B222H   LINE      ---      ---       #1994
      0100B225H   LINE      ---      ---       #1995
      0100B227H   LINE      ---      ---       #1997
      0100B227H   LINE      ---      ---       #1998
      0100B229H   LINE      ---      ---       #1999
      0100B229H   LINE      ---      ---       #2001
      0100B233H   LINE      ---      ---       #2002
      0100B233H   LINE      ---      ---       #2004
LX51 LINKER/LOCATER V4.66.1.0                                                         03/30/2019  12:53:22  PAGE 63


      0100B244H   LINE      ---      ---       #2005
      0100B244H   LINE      ---      ---       #2006
      0100B24FH   LINE      ---      ---       #2007
      0100B251H   LINE      ---      ---       #2008
      0100B251H   LINE      ---      ---       #2009
      0100B256H   LINE      ---      ---       #2010
      0100B256H   LINE      ---      ---       #2021
      0100B25FH   LINE      ---      ---       #2022
      0100B25FH   LINE      ---      ---       #2023
      0100B278H   LINE      ---      ---       #2026
      0100B278H   LINE      ---      ---       #2027
      0100B28DH   LINE      ---      ---       #2030
      0100B28DH   LINE      ---      ---       #2031
      0100B299H   LINE      ---      ---       #2032
      0100B29BH   LINE      ---      ---       #2034
      0100B29BH   LINE      ---      ---       #2036
      0100B29BH   LINE      ---      ---       #2037
      0100B29BH   LINE      ---      ---       #2038
      0100B2A7H   LINE      ---      ---       #2039
      0100B2A7H   LINE      ---      ---       #2040
      0100B2B6H   LINE      ---      ---       #2041
      0100B2B6H   LINE      ---      ---       #2042
      0100B2BEH   LINE      ---      ---       #2043
      0100B2BEH   LINE      ---      ---       #2044
      0100B2C1H   LINE      ---      ---       #2045
      0100B2C1H   LINE      ---      ---       #2046
      0100B2C1H   LINE      ---      ---       #2047
      0100B2C3H   LINE      ---      ---       #2054
      0100B2C3H   LINE      ---      ---       #2055
      0100B2C8H   LINE      ---      ---       #2056
      0100B2C8H   LINE      ---      ---       #2060
      0100B2CDH   LINE      ---      ---       #2061
      0100B2CDH   LINE      ---      ---       #2062
      0100B2DCH   LINE      ---      ---       #2063
      0100B2DCH   LINE      ---      ---       #2064
      0100B2E8H   LINE      ---      ---       #2065
      0100B2EAH   LINE      ---      ---       #2070
      0100B2EAH   LINE      ---      ---       #2072
      0100B2EFH   LINE      ---      ---       #2073
      0100B2EFH   LINE      ---      ---       #2077
      0100B2F6H   LINE      ---      ---       #2078
      0100B2F6H   LINE      ---      ---       #2079
      0100B2FEH   LINE      ---      ---       #2081
      0100B2FEH   LINE      ---      ---       #2082
      0100B301H   LINE      ---      ---       #2083
      0100B301H   LINE      ---      ---       #2084
      0100B303H   LINE      ---      ---       #2086
      0100B303H   LINE      ---      ---       #2087
      0100B307H   LINE      ---      ---       #2088
      0100B307H   LINE      ---      ---       #2089
      0100B309H   LINE      ---      ---       #2090
      0100B309H   LINE      ---      ---       #2091
      0100B309H   LINE      ---      ---       #2093
      0100B30EH   LINE      ---      ---       #2094
      0100B30EH   LINE      ---      ---       #2095
      0100B31CH   LINE      ---      ---       #2097
      0100B31CH   LINE      ---      ---       #2098
      0100B325H   LINE      ---      ---       #2099
      0100B325H   LINE      ---      ---       #2100
      0100B327H   LINE      ---      ---       #2101
      0100B327H   LINE      ---      ---       #2103
      0100B327H   LINE      ---      ---       #2104
      0100B327H   LINE      ---      ---       #2106
      0100B32DH   LINE      ---      ---       #2107
      0100B32DH   LINE      ---      ---       #2108
LX51 LINKER/LOCATER V4.66.1.0                                                         03/30/2019  12:53:22  PAGE 64


      0100B32EH   LINE      ---      ---       #2109
      0100B32EH   LINE      ---      ---       #2110
      0100B32EH   LINE      ---      ---       #2111
      0100B32EH   LINE      ---      ---       #2112
      0100B330H   LINE      ---      ---       #2113
      0100B330H   LINE      ---      ---       #2114
      0100B335H   LINE      ---      ---       #2115
      0100B335H   LINE      ---      ---       #2116
      02000269H   SYMBOL    XDATA    WORD      a
      0200026BH   SYMBOL    XDATA    WORD      b
      0200026DH   SYMBOL    XDATA    WORD      c
      0200001AH   SYMBOL    XDATA    BYTE      No_Water_Times
      0200001BH   SYMBOL    XDATA    BYTE      RT_SHIDU_More_then_90_Cnt
      0200001CH   SYMBOL    XDATA    WORD      Last1s_RThumity
      0200001EH   SYMBOL    XDATA    WORD      Last1s_RTtemp
      ---         BLOCKEND  CODE     ---       LVL=1
      ---         BLOCKEND  CODE     ---       LVL=0

      0100A641H   BLOCK     CODE     ---       LVL=0
      0100A641H   LINE      ---      ---       #2118
      0100A641H   LINE      ---      ---       #2119
      0100A641H   BLOCK     CODE     NEAR LAB  LVL=1
      0100A641H   LINE      ---      ---       #2123
      0100A64AH   LINE      ---      ---       #2124
      0100A64AH   LINE      ---      ---       #2125
      0100A650H   LINE      ---      ---       #2128
      0100A650H   LINE      ---      ---       #2129
      0100A658H   LINE      ---      ---       #2130
      0100A658H   LINE      ---      ---       #2131
      0100A65FH   LINE      ---      ---       #2132
      0100A65FH   LINE      ---      ---       #2134
      0100A662H   LINE      ---      ---       #2137
      0100A668H   LINE      ---      ---       #2138
      0100A668H   LINE      ---      ---       #2139
      0100A674H   LINE      ---      ---       #2140
      0100A674H   LINE      ---      ---       #2141
      0100A67AH   LINE      ---      ---       #2145
      0100A67AH   LINE      ---      ---       #2146
      0100A67EH   LINE      ---      ---       #2150
      0100A699H   LINE      ---      ---       #2151
      0100A69EH   LINE      ---      ---       #2155
      0100A6A5H   LINE      ---      ---       #2156
      0100A6A5H   LINE      ---      ---       #2157
      0100A6A7H   LINE      ---      ---       #2158
      0100A6ABH   LINE      ---      ---       #2159
      0100A6ADH   LINE      ---      ---       #2161
      0100A6ADH   LINE      ---      ---       #2162
      0100A6AFH   LINE      ---      ---       #2163
      0100A6AFH   LINE      ---      ---       #2164
      0100A6BEH   LINE      ---      ---       #2165
      0100A6C3H   LINE      ---      ---       #2166
      0100A6D2H   LINE      ---      ---       #2170
      0100A6D2H   LINE      ---      ---       #2172
      0100A6DAH   LINE      ---      ---       #2173
      0100A6E1H   LINE      ---      ---       #2174
      0100A6EBH   LINE      ---      ---       #2175
      0100A6F5H   LINE      ---      ---       #2176
      0100A704H   LINE      ---      ---       #2178
      0100A711H   LINE      ---      ---       #2179
      0100A728H   LINE      ---      ---       #2185
      0100A737H   LINE      ---      ---       #2187
      0100A749H   LINE      ---      ---       #2189
      0100A750H   LINE      ---      ---       #2190
      0100A750H   LINE      ---      ---       #2191
      0100A753H   LINE      ---      ---       #2192
LX51 LINKER/LOCATER V4.66.1.0                                                         03/30/2019  12:53:22  PAGE 65


      0100A75AH   LINE      ---      ---       #2193
      0100A75AH   LINE      ---      ---       #2195
      0100A75EH   LINE      ---      ---       #2196
      0100A769H   LINE      ---      ---       #2198
      0100A770H   LINE      ---      ---       #2199
      0100A770H   LINE      ---      ---       #2201
      0100A774H   LINE      ---      ---       #2202
      0100A774H   LINE      ---      ---       #2203
      0100A77FH   LINE      ---      ---       #2204
      0100A786H   LINE      ---      ---       #2205
      0100A786H   LINE      ---      ---       #2206
      0100A786H   LINE      ---      ---       #2207
      0100A786H   LINE      ---      ---       #2209
      0100A786H   LINE      ---      ---       #2210
      02000020H   SYMBOL    XDATA    BYTE      Enable_Save_Data
      00000006H   SYMBOL    DATA     WORD      a
      02000269H   SYMBOL    XDATA    WORD      b
      00000004H   SYMBOL    DATA     WORD      c
      0200026BH   SYMBOL    XDATA    DWORD     Adress
      ---         BLOCKEND  CODE     ---       LVL=1
      ---         BLOCKEND  CODE     ---       LVL=0

      01008200H   BLOCK     CODE     ---       LVL=0
      01008200H   LINE      ---      ---       #2213
      01008200H   LINE      ---      ---       #2214
      01008200H   BLOCK     CODE     NEAR LAB  LVL=1
      01008200H   LINE      ---      ---       #2215
      01008203H   LINE      ---      ---       #2217
      01008206H   LINE      ---      ---       #2218
      01008208H   LINE      ---      ---       #2219
      0100820BH   LINE      ---      ---       #2220
      0100820EH   LINE      ---      ---       #2221
      01008211H   LINE      ---      ---       #2222
      01008214H   LINE      ---      ---       #2223
      01008216H   LINE      ---      ---       #2224
      01008219H   LINE      ---      ---       #2225
      0100821CH   LINE      ---      ---       #2227
      0100821FH   LINE      ---      ---       #2228
      01008221H   LINE      ---      ---       #2229
      01008225H   LINE      ---      ---       #2230
      01008227H   LINE      ---      ---       #2231
      01008229H   LINE      ---      ---       #2232
      0100822BH   LINE      ---      ---       #2233
      0100822DH   LINE      ---      ---       #2234
      0100822FH   LINE      ---      ---       #2235
      01008231H   LINE      ---      ---       #2236
      01008233H   LINE      ---      ---       #2237
      01008235H   LINE      ---      ---       #2238
      0100823BH   LINE      ---      ---       #2239
      0100823DH   LINE      ---      ---       #2241
      01008240H   LINE      ---      ---       #2242
      01008243H   LINE      ---      ---       #2243
      01008245H   LINE      ---      ---       #2246
      0100824BH   LINE      ---      ---       #2247
      0100824BH   LINE      ---      ---       #2248
      01008251H   LINE      ---      ---       #2249
      01008253H   LINE      ---      ---       #2251
      01008253H   LINE      ---      ---       #2252
      01008259H   LINE      ---      ---       #2253
      01008259H   LINE      ---      ---       #2256
      01008263H   LINE      ---      ---       #2257
      01008263H   LINE      ---      ---       #2258
      01008269H   LINE      ---      ---       #2259
      0100826BH   LINE      ---      ---       #2260
      0100826DH   LINE      ---      ---       #2261
LX51 LINKER/LOCATER V4.66.1.0                                                         03/30/2019  12:53:22  PAGE 66


      01008270H   LINE      ---      ---       #2263
      01008279H   LINE      ---      ---       #2265
      0100827FH   LINE      ---      ---       #2266
      0100827FH   LINE      ---      ---       #2267
      0100829EH   LINE      ---      ---       #2269
      010082B5H   LINE      ---      ---       #2270
      010082B5H   LINE      ---      ---       #2271
      010082C7H   LINE      ---      ---       #2273
      010082DFH   LINE      ---      ---       #2278
      010082E2H   LINE      ---      ---       #2279
      010082E4H   LINE      ---      ---       #2280
      010082E4H   LINE      ---      ---       #2282
      010082E9H   LINE      ---      ---       #2283
      02000269H   SYMBOL    XDATA    WORD      j
      ---         BLOCKEND  CODE     ---       LVL=1
      ---         BLOCKEND  CODE     ---       LVL=0

      0100BD1AH   BLOCK     CODE     ---       LVL=0
      0100BD1AH   LINE      ---      ---       #2285
      0100BD1AH   LINE      ---      ---       #2286
      0100BD1AH   LINE      ---      ---       #2287
      0100BD1CH   LINE      ---      ---       #2289
      0100BD26H   LINE      ---      ---       #2291
      0100BD28H   LINE      ---      ---       #2292
      0100BD2AH   LINE      ---      ---       #2293
      0100BD2CH   LINE      ---      ---       #2294
      0100BD2EH   LINE      ---      ---       #2296
      0100BD34H   LINE      ---      ---       #2298
      0100BD39H   LINE      ---      ---       #2299
      0100BD3DH   LINE      ---      ---       #2301
      0100BD41H   LINE      ---      ---       #2302
      0100BD43H   LINE      ---      ---       #2304
      0100BD49H   LINE      ---      ---       #2307
      0100BD52H   LINE      ---      ---       #2308
      0100BD54H   LINE      ---      ---       #2310
      0100BD68H   LINE      ---      ---       #2311
      0100BD6FH   LINE      ---      ---       #2313
      ---         BLOCKEND  ---      ---       LVL=0

      01009B62H   BLOCK     CODE     ---       LVL=0
      01009B62H   LINE      ---      ---       #2321
      01009B62H   LINE      ---      ---       #2322
      01009B62H   BLOCK     CODE     NEAR LAB  LVL=1
      01009B62H   LINE      ---      ---       #2325
      01009B65H   LINE      ---      ---       #2326
      01009B67H   LINE      ---      ---       #2328
      01009B7FH   LINE      ---      ---       #2329
      01009B7FH   LINE      ---      ---       #2330
      01009B81H   LINE      ---      ---       #2331
      01009B8BH   LINE      ---      ---       #2332
      01009B8DH   LINE      ---      ---       #2334
      01009B8FH   LINE      ---      ---       #2336
      01009B98H   LINE      ---      ---       #2337
      01009B98H   LINE      ---      ---       #2338
      01009B9AH   LINE      ---      ---       #2339
      01009B9DH   LINE      ---      ---       #2340
      01009B9FH   LINE      ---      ---       #2342
      01009BA1H   LINE      ---      ---       #2344
      01009BB2H   LINE      ---      ---       #2345
      01009BB2H   LINE      ---      ---       #2346
      01009BB4H   LINE      ---      ---       #2347
      01009BB7H   LINE      ---      ---       #2349
      01009BB9H   LINE      ---      ---       #2351
      01009BBBH   LINE      ---      ---       #2353
      01009BC4H   LINE      ---      ---       #2354
LX51 LINKER/LOCATER V4.66.1.0                                                         03/30/2019  12:53:22  PAGE 67


      01009BC4H   LINE      ---      ---       #2355
      01009BC6H   LINE      ---      ---       #2356
      01009BCDH   LINE      ---      ---       #2357
      01009BCFH   LINE      ---      ---       #2360
      01009BD1H   LINE      ---      ---       #2363
      01009BD1H   LINE      ---      ---       #2364
      01009BD7H   LINE      ---      ---       #2365
      01009BDBH   LINE      ---      ---       #2366
      01009BDBH   LINE      ---      ---       #2367
      01009BE2H   LINE      ---      ---       #2369
      01009BE8H   LINE      ---      ---       #2370
      01009BE8H   LINE      ---      ---       #2371
      01009BF2H   LINE      ---      ---       #2372
      01009BFAH   LINE      ---      ---       #2373
      01009BFEH   LINE      ---      ---       #2374
      01009C07H   LINE      ---      ---       #2375
      01009C09H   LINE      ---      ---       #2376
      01009C09H   LINE      ---      ---       #2377
      01009C11H   LINE      ---      ---       #2378
      01009C17H   LINE      ---      ---       #2379
      01009C1FH   LINE      ---      ---       #2380
      01009C32H   LINE      ---      ---       #2381
      01009C32H   LINE      ---      ---       #2384
      01009C39H   LINE      ---      ---       #2386
      01009C39H   LINE      ---      ---       #2387
      01009C53H   LINE      ---      ---       #2390
      01009C5CH   LINE      ---      ---       #2391
      01009C5EH   LINE      ---      ---       #2392
      01009C5EH   LINE      ---      ---       #2393
      01009C6EH   LINE      ---      ---       #2395
      01009C76H   LINE      ---      ---       #2396
      01009C87H   LINE      ---      ---       #2397
      01009C87H   LINE      ---      ---       #2400
      01009C8EH   LINE      ---      ---       #2402
      01009C8EH   LINE      ---      ---       #2403
      01009CA4H   LINE      ---      ---       #2406
      01009CB6H   LINE      ---      ---       #2407
      01009CB8H   LINE      ---      ---       #2408
      01009CB8H   LINE      ---      ---       #2409
      01009CC4H   LINE      ---      ---       #2411
      01009CCCH   LINE      ---      ---       #2412
      01009CDDH   LINE      ---      ---       #2413
      01009CDDH   LINE      ---      ---       #2416
      01009CDDH   LINE      ---      ---       #2417
      02000269H   SYMBOL    XDATA    WORD      Disp
      0200026BH   SYMBOL    XDATA    WORD      color
      00000020H.5 SYMBOL    BIT      BIT       Disp_Err
      ---         BLOCKEND  CODE     ---       LVL=1
      ---         BLOCKEND  CODE     ---       LVL=0

      0100683AH   BLOCK     CODE     ---       LVL=0
      0100683EH   LINE      ---      ---       #2424
      0100683EH   LINE      ---      ---       #2425
      0100683EH   LINE      ---      ---       #2426
      01006844H   LINE      ---      ---       #2427
      0100684FH   LINE      ---      ---       #2428
      0100685BH   LINE      ---      ---       #2429
      01006867H   LINE      ---      ---       #2430
      01006873H   LINE      ---      ---       #2431
      0100687FH   LINE      ---      ---       #2432
      0100688BH   LINE      ---      ---       #2433
      01006897H   LINE      ---      ---       #2434
      ---         BLOCKEND  ---      ---       LVL=0

      0100BF4CH   BLOCK     CODE     ---       LVL=0
LX51 LINKER/LOCATER V4.66.1.0                                                         03/30/2019  12:53:22  PAGE 68


      0100BF4CH   LINE      ---      ---       #2438
      0100BF4CH   LINE      ---      ---       #2439
      0100BF4CH   LINE      ---      ---       #2440
      0100BF52H   LINE      ---      ---       #2441
      0100BF56H   LINE      ---      ---       #2442
      0100BF5AH   LINE      ---      ---       #2443
      0100BF5DH   LINE      ---      ---       #2445
      0100BF61H   LINE      ---      ---       #2446
      0100BF65H   LINE      ---      ---       #2449
      ---         BLOCKEND  ---      ---       LVL=0

      01006309H   BLOCK     CODE     ---       LVL=0
      01006309H   LINE      ---      ---       #2453
      01006309H   LINE      ---      ---       #2454
      01006309H   LINE      ---      ---       #2455
      01006313H   LINE      ---      ---       #2456
      0100631EH   LINE      ---      ---       #2457
      01006329H   LINE      ---      ---       #2458
      01006334H   LINE      ---      ---       #2459
      0100633FH   LINE      ---      ---       #2460
      0100634AH   LINE      ---      ---       #2461
      01006355H   LINE      ---      ---       #2462
      01006360H   LINE      ---      ---       #2464
      010063BBH   LINE      ---      ---       #2479
      010063BBH   LINE      ---      ---       #2480
      010063C0H   LINE      ---      ---       #2481
      010063C3H   LINE      ---      ---       #2482
      010063C3H   LINE      ---      ---       #2483
      ---         BLOCKEND  ---      ---       LVL=0

      0100BF70H   BLOCK     CODE     ---       LVL=0
      0100BF70H   LINE      ---      ---       #2487
      0100BF70H   LINE      ---      ---       #2488
      0100BF70H   LINE      ---      ---       #2489
      0100BF77H   LINE      ---      ---       #2490
      0100BF77H   LINE      ---      ---       #2491
      0100BF79H   LINE      ---      ---       #2492
      0100BF79H   LINE      ---      ---       #2494
      0100BF82H   LINE      ---      ---       #2495
      0100BF8CH   LINE      ---      ---       #2496
      0100BF96H   LINE      ---      ---       #2497
      0100BFA0H   LINE      ---      ---       #2498
      0100BFAAH   LINE      ---      ---       #2499
      0100BFB2H   LINE      ---      ---       #2501
      0100BFB5H   LINE      ---      ---       #2502
      0100BFB5H   LINE      ---      ---       #2503
      0100BFBBH   LINE      ---      ---       #2504
      0100BFBEH   LINE      ---      ---       #2505
      0100BFC0H   LINE      ---      ---       #2507
      0100BFC0H   LINE      ---      ---       #2508
      0100BFC3H   LINE      ---      ---       #2509
      ---         BLOCKEND  ---      ---       LVL=0

      0100A82DH   BLOCK     CODE     ---       LVL=0
      0100A82DH   LINE      ---      ---       #2522
      0100A82DH   LINE      ---      ---       #2523
      0100A82DH   LINE      ---      ---       #2524
      0100A83EH   LINE      ---      ---       #2525
      0100A83EH   LINE      ---      ---       #2526
      0100A851H   LINE      ---      ---       #2531
      0100A851H   LINE      ---      ---       #2532
      0100A851H   LINE      ---      ---       #2534
      0100A851H   LINE      ---      ---       #2535
      0100A857H   LINE      ---      ---       #2536
      0100A857H   LINE      ---      ---       #2537
LX51 LINKER/LOCATER V4.66.1.0                                                         03/30/2019  12:53:22  PAGE 69


      0100A85EH   LINE      ---      ---       #2538
      0100A86BH   LINE      ---      ---       #2539
      0100A86BH   LINE      ---      ---       #2540
      0100A871H   LINE      ---      ---       #2541
      0100A873H   LINE      ---      ---       #2543
      0100A873H   LINE      ---      ---       #2544
      0100A878H   LINE      ---      ---       #2545
      0100A878H   LINE      ---      ---       #2546
      0100A881H   LINE      ---      ---       #2547
      0100A888H   LINE      ---      ---       #2548
      0100A88EH   LINE      ---      ---       #2549
      0100A88FH   LINE      ---      ---       #2555
      0100A896H   LINE      ---      ---       #2556
      ---         BLOCKEND  ---      ---       LVL=0

      0100B6C3H   BLOCK     CODE     ---       LVL=0
      0100B6C3H   LINE      ---      ---       #2578
      0100B6C3H   LINE      ---      ---       #2579
      0100B6C3H   BLOCK     CODE     NEAR LAB  LVL=1
      0100B6C3H   LINE      ---      ---       #2586
      0100B6D4H   LINE      ---      ---       #2587
      0100B6D4H   LINE      ---      ---       #2588
      0100B6D7H   LINE      ---      ---       #2589
      0100B6D7H   LINE      ---      ---       #2590
      0100B6E8H   LINE      ---      ---       #2591
      0100B6E8H   LINE      ---      ---       #2592
      0100B6EAH   LINE      ---      ---       #2593
      0100B6EAH   LINE      ---      ---       #2595
      0100B6F7H   LINE      ---      ---       #2596
      0100B708H   LINE      ---      ---       #2597
      0100B708H   LINE      ---      ---       #2598
      0100B70AH   LINE      ---      ---       #2599
      0100B70AH   LINE      ---      ---       #2600
      0100B70AH   LINE      ---      ---       #2601
      0100B70AH   LINE      ---      ---       #2603
      0100B70AH   LINE      ---      ---       #2604
      0100B717H   LINE      ---      ---       #2606
      0100B71EH   LINE      ---      ---       #2608
      0100B749H   LINE      ---      ---       #2609
      0100B74EH   LINE      ---      ---       #2610
      0100B757H   LINE      ---      ---       #2613
      0100B75EH   LINE      ---      ---       #2614
      0100B769H   LINE      ---      ---       #2615
      0100B76DH   LINE      ---      ---       #2617
      0100B77FH   LINE      ---      ---       #2619
      0100B784H   LINE      ---      ---       #2620
      00000002H   SYMBOL    DATA     INT       Vlaue1
      00000006H   SYMBOL    DATA     INT       tmp
      02000021H   SYMBOL    XDATA    INT       PID_Kp
      02000023H   SYMBOL    XDATA    INT       PID_Ki
      02000025H   SYMBOL    XDATA    INT       PID_Kd
      ---         BLOCKEND  CODE     ---       LVL=1
      ---         BLOCKEND  CODE     ---       LVL=0

      0100B4E3H   BLOCK     CODE     ---       LVL=0
      0100B4E3H   LINE      ---      ---       #2625
      0100B4E3H   LINE      ---      ---       #2626
      0100B4E3H   BLOCK     CODE     NEAR LAB  LVL=1
      0100B4E3H   LINE      ---      ---       #2634
      0100B4F4H   LINE      ---      ---       #2635
      0100B4F4H   LINE      ---      ---       #2636
      0100B4F7H   LINE      ---      ---       #2637
      0100B4F7H   LINE      ---      ---       #2638
      0100B508H   LINE      ---      ---       #2639
      0100B508H   LINE      ---      ---       #2640
LX51 LINKER/LOCATER V4.66.1.0                                                         03/30/2019  12:53:22  PAGE 70


      0100B50AH   LINE      ---      ---       #2641
      0100B50AH   LINE      ---      ---       #2643
      0100B517H   LINE      ---      ---       #2644
      0100B528H   LINE      ---      ---       #2645
      0100B528H   LINE      ---      ---       #2646
      0100B52AH   LINE      ---      ---       #2647
      0100B52AH   LINE      ---      ---       #2648
      0100B53BH   LINE      ---      ---       #2649
      0100B53BH   LINE      ---      ---       #2650
      0100B542H   LINE      ---      ---       #2651
      0100B542H   LINE      ---      ---       #2653
      0100B54FH   LINE      ---      ---       #2655
      0100B556H   LINE      ---      ---       #2657
      0100B581H   LINE      ---      ---       #2658
      0100B586H   LINE      ---      ---       #2659
      0100B58FH   LINE      ---      ---       #2662
      0100B596H   LINE      ---      ---       #2663
      0100B5A1H   LINE      ---      ---       #2664
      0100B5A5H   LINE      ---      ---       #2666
      0100B5B7H   LINE      ---      ---       #2668
      0100B5BCH   LINE      ---      ---       #2669
      00000002H   SYMBOL    DATA     INT       Vlaue1
      00000006H   SYMBOL    DATA     INT       tmp
      02000027H   SYMBOL    XDATA    INT       PID_Kp2
      02000029H   SYMBOL    XDATA    INT       PID_Ki2
      0200002BH   SYMBOL    XDATA    INT       PID_Kd2
      ---         BLOCKEND  CODE     ---       LVL=1
      ---         BLOCKEND  CODE     ---       LVL=0

      0100B5CAH   BLOCK     CODE     ---       LVL=0
      0100B5CAH   LINE      ---      ---       #2674
      0100B5CAH   LINE      ---      ---       #2675
      0100B5CAH   BLOCK     CODE     NEAR LAB  LVL=1
      0100B5CAH   LINE      ---      ---       #2682
      0100B5DBH   LINE      ---      ---       #2683
      0100B5DBH   LINE      ---      ---       #2684
      0100B5DEH   LINE      ---      ---       #2685
      0100B5DEH   LINE      ---      ---       #2686
      0100B5EFH   LINE      ---      ---       #2687
      0100B5EFH   LINE      ---      ---       #2688
      0100B5F1H   LINE      ---      ---       #2689
      0100B5F1H   LINE      ---      ---       #2691
      0100B5FBH   LINE      ---      ---       #2692
      0100B60CH   LINE      ---      ---       #2693
      0100B60CH   LINE      ---      ---       #2694
      0100B613H   LINE      ---      ---       #2695
      0100B613H   LINE      ---      ---       #2696
      0100B624H   LINE      ---      ---       #2697
      0100B624H   LINE      ---      ---       #2698
      0100B62BH   LINE      ---      ---       #2699
      0100B62BH   LINE      ---      ---       #2701
      0100B638H   LINE      ---      ---       #2704
      0100B645H   LINE      ---      ---       #2705
      0100B647H   LINE      ---      ---       #2707
      0100B665H   LINE      ---      ---       #2708
      0100B667H   LINE      ---      ---       #2709
      0100B670H   LINE      ---      ---       #2711
      0100B67AH   LINE      ---      ---       #2712
      0100B686H   LINE      ---      ---       #2713
      0100B697H   LINE      ---      ---       #2714
      0100B69EH   LINE      ---      ---       #2716
      0100B6B0H   LINE      ---      ---       #2718
      0100B6B5H   LINE      ---      ---       #2719
      00000002H   SYMBOL    DATA     INT       Vlaue1
      00000006H   SYMBOL    DATA     INT       tmp
LX51 LINKER/LOCATER V4.66.1.0                                                         03/30/2019  12:53:22  PAGE 71


      0200002DH   SYMBOL    XDATA    INT       PID_Kp3
      0200002FH   SYMBOL    XDATA    INT       PID_Ki3
      02000031H   SYMBOL    XDATA    INT       PID_Kd3
      ---         BLOCKEND  CODE     ---       LVL=1
      ---         BLOCKEND  CODE     ---       LVL=0

      0100BFE1H   BLOCK     CODE     ---       LVL=0
      0100BFE1H   LINE      ---      ---       #2725
      0100BFE1H   LINE      ---      ---       #2726
      0100BFE1H   BLOCK     CODE     NEAR LAB  LVL=1
      0100BFE1H   LINE      ---      ---       #2730
      0100BFE8H   LINE      ---      ---       #2734
      0100BFEFH   LINE      ---      ---       #2735
      0100BFEFH   LINE      ---      ---       #2739
      0100C009H   LINE      ---      ---       #2742
      0100C00DH   LINE      ---      ---       #2744
      0100C017H   LINE      ---      ---       #2746
      0100C018H   LINE      ---      ---       #2748
      0100C018H   LINE      ---      ---       #2749
      0100C01EH   LINE      ---      ---       #2750
      0100C034H   LINE      ---      ---       #2751
      0100C043H   LINE      ---      ---       #2752
      0100C043H   LINE      ---      ---       #2754
      0100C069H   LINE      ---      ---       #2755
      0100C06EH   LINE      ---      ---       #2756
      0100C06EH   LINE      ---      ---       #2757
      0100C070H   LINE      ---      ---       #2759
      0100C070H   LINE      ---      ---       #2760
      0100C08FH   LINE      ---      ---       #2761
      0100C0A4H   LINE      ---      ---       #2762
      0100C0BCH   LINE      ---      ---       #2767
      0100C0C6H   LINE      ---      ---       #2768
      0100C0C6H   LINE      ---      ---       #2769
      0100C0C9H   LINE      ---      ---       #2770
      0100C0DCH   LINE      ---      ---       #2771
      0100C0ECH   LINE      ---      ---       #2772
      0100C104H   LINE      ---      ---       #2773
      0100C104H   LINE      ---      ---       #2775
      0100C10AH   LINE      ---      ---       #2776
      0100C11BH   LINE      ---      ---       #2777
      0100C11BH   LINE      ---      ---       #2778
      0100C11FH   LINE      ---      ---       #2780
      0100C12EH   LINE      ---      ---       #2784
      0100C180H   LINE      ---      ---       #2786
      0100C18FH   LINE      ---      ---       #2788
      0100C19AH   LINE      ---      ---       #2789
      0100C19AH   LINE      ---      ---       #2790
      0100C19AH   LINE      ---      ---       #2793
      0100C1B3H   LINE      ---      ---       #2796
      0100C1BCH   LINE      ---      ---       #2797
      0100C1BCH   LINE      ---      ---       #2798
      0100C1BDH   LINE      ---      ---       #2800
      0100C1BFH   LINE      ---      ---       #2802
      0100C1C8H   LINE      ---      ---       #2803
      0100C1C8H   LINE      ---      ---       #2804
      0100C1C8H   LINE      ---      ---       #2805
      02000033H   SYMBOL    XDATA    INT       err_sum
      02000035H   SYMBOL    XDATA    INT       RT_Temp_Mem
      0200026FH   SYMBOL    XDATA    INT       Calc_int
      02000271H   SYMBOL    XDATA    WORD      Val_Calc
      ---         BLOCKEND  CODE     ---       LVL=1
      ---         BLOCKEND  CODE     ---       LVL=0

      0100C238H   BLOCK     CODE     ---       LVL=0
      0100C238H   LINE      ---      ---       #2808
LX51 LINKER/LOCATER V4.66.1.0                                                         03/30/2019  12:53:22  PAGE 72


      0100C238H   LINE      ---      ---       #2809
      0100C238H   LINE      ---      ---       #2810
      0100C244H   LINE      ---      ---       #2811
      0100C244H   LINE      ---      ---       #2812
      0100C249H   LINE      ---      ---       #2813
      0100C24AH   LINE      ---      ---       #2814
      0100C256H   LINE      ---      ---       #2815
      0100C256H   LINE      ---      ---       #2816
      0100C25BH   LINE      ---      ---       #2817
      0100C25CH   LINE      ---      ---       #2818
      0100C266H   LINE      ---      ---       #2819
      0100C266H   LINE      ---      ---       #2820
      0100C26CH   LINE      ---      ---       #2821
      0100C26CH   LINE      ---      ---       #2822
      ---         BLOCKEND  ---      ---       LVL=0

      01008820H   BLOCK     CODE     ---       LVL=0
      01008820H   LINE      ---      ---       #2824
      01008820H   LINE      ---      ---       #2825
      01008820H   BLOCK     CODE     NEAR LAB  LVL=1
      01008820H   LINE      ---      ---       #2833
      01008826H   LINE      ---      ---       #2834
      0100882CH   LINE      ---      ---       #2835
      0100882CH   LINE      ---      ---       #2836
      0100882EH   LINE      ---      ---       #2839
      0100883EH   LINE      ---      ---       #2840
      01008845H   LINE      ---      ---       #2841
      01008845H   LINE      ---      ---       #2842
      0100884BH   LINE      ---      ---       #2843
      01008851H   LINE      ---      ---       #2844
      01008851H   LINE      ---      ---       #2845
      01008854H   LINE      ---      ---       #2846
      01008859H   LINE      ---      ---       #2847
      01008859H   LINE      ---      ---       #2848
      0100885BH   LINE      ---      ---       #2850
      0100885BH   LINE      ---      ---       #2851
      01008860H   LINE      ---      ---       #2852
      01008865H   LINE      ---      ---       #2853
      01008865H   LINE      ---      ---       #2854
      0100886CH   LINE      ---      ---       #2855
      0100886CH   LINE      ---      ---       #2858
      01008879H   LINE      ---      ---       #2859
      01008879H   LINE      ---      ---       #2860
      0100887BH   LINE      ---      ---       #2861
      0100887DH   LINE      ---      ---       #2863
      0100887DH   LINE      ---      ---       #2864
      0100887FH   LINE      ---      ---       #2865
      0100887FH   LINE      ---      ---       #2868
      0100888EH   LINE      ---      ---       #2869
      0100888EH   LINE      ---      ---       #2870
      01008890H   LINE      ---      ---       #2871
      01008892H   LINE      ---      ---       #2872
      01008894H   LINE      ---      ---       #2874
      01008894H   LINE      ---      ---       #2875
      01008897H   LINE      ---      ---       #2876
      01008897H   LINE      ---      ---       #2877
      01008899H   LINE      ---      ---       #2878
      0100889BH   LINE      ---      ---       #2879
      0100889BH   LINE      ---      ---       #2880
      0100889BH   LINE      ---      ---       #2881
      0100889DH   LINE      ---      ---       #2883
      0100889DH   LINE      ---      ---       #2884
      010088A3H   LINE      ---      ---       #2885
      010088ACH   LINE      ---      ---       #2886
      010088B5H   LINE      ---      ---       #2887
LX51 LINKER/LOCATER V4.66.1.0                                                         03/30/2019  12:53:22  PAGE 73


      010088B5H   LINE      ---      ---       #2888
      010088BDH   LINE      ---      ---       #2889
      010088BDH   LINE      ---      ---       #2890
      010088C2H   LINE      ---      ---       #2891
      010088C4H   LINE      ---      ---       #2893
      010088C4H   LINE      ---      ---       #2894
      010088CAH   LINE      ---      ---       #2895
      010088CAH   LINE      ---      ---       #2896
      010088CFH   LINE      ---      ---       #2897
      010088D3H   LINE      ---      ---       #2898
      010088D3H   LINE      ---      ---       #2899
      010088D3H   LINE      ---      ---       #2900
      010088D3H   LINE      ---      ---       #2903
      010088E0H   LINE      ---      ---       #2904
      010088E0H   LINE      ---      ---       #2905
      010088E2H   LINE      ---      ---       #2906
      010088E4H   LINE      ---      ---       #2907
      010088E5H   LINE      ---      ---       #2909
      010088E5H   LINE      ---      ---       #2910
      010088E8H   LINE      ---      ---       #2911
      010088E8H   LINE      ---      ---       #2912
      010088EAH   LINE      ---      ---       #2913
      010088ECH   LINE      ---      ---       #2914
      010088ECH   LINE      ---      ---       #2915
      010088ECH   LINE      ---      ---       #2916
      010088EEH   LINE      ---      ---       #2917
      010088EEH   LINE      ---      ---       #2918
      010088F4H   LINE      ---      ---       #2919
      010088FDH   LINE      ---      ---       #2920
      01008906H   LINE      ---      ---       #2921
      01008906H   LINE      ---      ---       #2922
      0100890EH   LINE      ---      ---       #2923
      0100890EH   LINE      ---      ---       #2924
      01008913H   LINE      ---      ---       #2925
      01008915H   LINE      ---      ---       #2927
      01008915H   LINE      ---      ---       #2928
      0100891BH   LINE      ---      ---       #2929
      0100891BH   LINE      ---      ---       #2930
      01008920H   LINE      ---      ---       #2931
      01008924H   LINE      ---      ---       #2932
      01008924H   LINE      ---      ---       #2933
      01008924H   LINE      ---      ---       #2934
      01008924H   LINE      ---      ---       #2935
      02000037H   SYMBOL    XDATA    BYTE      Micro_Temp_CLK
      02000038H   SYMBOL    XDATA    BYTE      Check_WireInTimes
      02000039H   SYMBOL    XDATA    BYTE      Check_WireOutTimes
      0200003AH   SYMBOL    XDATA    BYTE      WireIn_FB_Count
      0200003BH   SYMBOL    XDATA    BYTE      WireOut_FB_Count
      0200003CH   SYMBOL    XDATA    BYTE      NoHpCheck_Times
      ---         BLOCKEND  CODE     ---       LVL=1
      ---         BLOCKEND  CODE     ---       LVL=0

      ---         MODULE    ---      ---       SOUND_TYPE
      010089ADH   PUBLIC    CODE     ---       Sound_Type_Drive
      0100AFDDH   PUBLIC    CODE     ---       Sound_Alarm_Pause_Disable
      0100C26DH   PUBLIC    CODE     ---       Sound_Alarm_Pause_Enable
      0100971CH   PUBLIC    CODE     ---       Sound_Short
      000000C0H.3 SFRSYM    DATA     BIT       P43
      020002C4H   SYMBOL    XDATA    BYTE      Sound_En_Cnt
      020002C5H   SYMBOL    XDATA    WORD      SoundPauseCnt

      0100971CH   BLOCK     CODE     ---       LVL=0
      0100971CH   LINE      ---      ---       #10
      0100971CH   LINE      ---      ---       #11
      0100971CH   LINE      ---      ---       #12
LX51 LINKER/LOCATER V4.66.1.0                                                         03/30/2019  12:53:22  PAGE 74


      01009722H   LINE      ---      ---       #13
      01009722H   LINE      ---      ---       #14
      01009722H   LINE      ---      ---       #16
      01009722H   LINE      ---      ---       #17
      01009728H   LINE      ---      ---       #18
      01009728H   LINE      ---      ---       #19
      ---         BLOCKEND  ---      ---       LVL=0

      0100C26DH   BLOCK     CODE     ---       LVL=0
      0100C26DH   LINE      ---      ---       #21
      0100C26DH   LINE      ---      ---       #22
      0100C26DH   LINE      ---      ---       #23
      0100C277H   LINE      ---      ---       #24
      ---         BLOCKEND  ---      ---       LVL=0

      0100AFD8H   BLOCK     CODE     ---       LVL=0
      0100AFDDH   LINE      ---      ---       #26
      0100AFDDH   LINE      ---      ---       #27
      0100AFDDH   LINE      ---      ---       #28
      0100AFE4H   LINE      ---      ---       #29
      ---         BLOCKEND  ---      ---       LVL=0

      010089ADH   BLOCK     CODE     ---       LVL=0
      010089ADH   LINE      ---      ---       #31
      010089ADH   LINE      ---      ---       #32
      010089ADH   LINE      ---      ---       #33
      010089B3H   LINE      ---      ---       #34
      010089B3H   LINE      ---      ---       #35
      010089BDH   LINE      ---      ---       #36
      010089BDH   LINE      ---      ---       #37
      010089BFH   LINE      ---      ---       #38
      010089C3H   LINE      ---      ---       #39
      010089C4H   LINE      ---      ---       #41
      010089C4H   LINE      ---      ---       #42
      010089CEH   LINE      ---      ---       #43
      010089D0H   LINE      ---      ---       #44
      010089D0H   LINE      ---      ---       #45
      010089D1H   LINE      ---      ---       #47
      010089D1H   LINE      ---      ---       #48
      010089D7H   LINE      ---      ---       #49
      010089D7H   LINE      ---      ---       #50
      010089D9H   LINE      ---      ---       #51
      010089DBH   LINE      ---      ---       #52
      010089DCH   LINE      ---      ---       #54
      010089DCH   LINE      ---      ---       #55
      010089DEH   LINE      ---      ---       #56
      010089DEH   LINE      ---      ---       #57
      010089DEH   LINE      ---      ---       #58
      ---         BLOCKEND  ---      ---       LVL=0

      ---         MODULE    ---      ---       MAIN
      01008028H   PUBLIC    CODE     ---       main
      000000C1H   SFRSYM    DATA     BYTE      WDT_CONTR

      01008028H   BLOCK     CODE     ---       LVL=0
      01008028H   LINE      ---      ---       #6
      01008028H   LINE      ---      ---       #7
      01008028H   LINE      ---      ---       #8
      0100802AH   LINE      ---      ---       #9
      0100802CH   LINE      ---      ---       #10
      0100802FH   LINE      ---      ---       #11
      01008037H   LINE      ---      ---       #13
      01008037H   LINE      ---      ---       #14
      01008037H   LINE      ---      ---       #15
      0100803AH   LINE      ---      ---       #16
LX51 LINKER/LOCATER V4.66.1.0                                                         03/30/2019  12:53:22  PAGE 75


      0100803CH   LINE      ---      ---       #17
      0100803FH   LINE      ---      ---       #18
      01008042H   LINE      ---      ---       #19
      01008045H   LINE      ---      ---       #20
      01008048H   LINE      ---      ---       #21
      0100804BH   LINE      ---      ---       #22
      0100804EH   LINE      ---      ---       #23
      01008051H   LINE      ---      ---       #24
      01008054H   LINE      ---      ---       #25
      01008057H   LINE      ---      ---       #26
      0100805AH   LINE      ---      ---       #27
      0100805DH   LINE      ---      ---       #28
      01008060H   LINE      ---      ---       #29
      01008063H   LINE      ---      ---       #30
      01008066H   LINE      ---      ---       #31
      01008069H   LINE      ---      ---       #32
      0100806CH   LINE      ---      ---       #33
      0100806FH   LINE      ---      ---       #34
      01008072H   LINE      ---      ---       #35
      01008075H   LINE      ---      ---       #36
      01008078H   LINE      ---      ---       #37
      0100807BH   LINE      ---      ---       #38
      0100807EH   LINE      ---      ---       #39
      01008081H   LINE      ---      ---       #40
      ---         BLOCKEND  ---      ---       LVL=0

      ---         MODULE    ---      ---       STCROMCRC16

      ---         MODULE    ---      ---       LCD
      020002CDH   PUBLIC    XDATA    BYTE      Back_Color
      01004920H   PUBLIC    CODE     ---       asc2_2412
      01004330H   PUBLIC    CODE     ---       asc2_1608
      01003750H   PUBLIC    CODE     ---       NUM38X64
      0100358EH   PUBLIC    CODE     ---       FNT10X24
      01003510H   PUBLIC    CODE     ---       RH14X24
      010034BEH   PUBLIC    CODE     ---       JQK41X16
      0100346AH   PUBLIC    CODE     ---       RTD28X24
      0100341FH   PUBLIC    CODE     ---       CQK25X24
      010033B3H   PUBLIC    CODE     ---       HEAT36X32
      0100329BH   PUBLIC    CODE     ---       VHB8056X40
      01003087H   PUBLIC    CODE     ---       DHM14X16
      01002E47H   PUBLIC    CODE     ---       ICO48X48
      01002D1BH   PUBLIC    CODE     ---       gImage_LAN_SEL_FR
      01002C07H   PUBLIC    CODE     ---       gImage_LAN_SEL_ES
      01002AABH   PUBLIC    CODE     ---       gImage_LAN_SEL_PT
      010029B5H   PUBLIC    CODE     ---       gImage_LAN_SEL_EN
      0100284DH   PUBLIC    CODE     ---       ICO24X24
      01002145H   PUBLIC    CODE     ---       ICO40X40
      01001CE5H   PUBLIC    CODE     ---       ICO32X40
      01001B7DH   PUBLIC    CODE     ---       Num8X24
      01001A8DH   PUBLIC    CODE     ---       Num8X16
      010019C5H   PUBLIC    CODE     ---       NUM10X16
      01001673H   PUBLIC    CODE     ---       NUM17X40
      01000E3FH   PUBLIC    CODE     ---       NUM30X56
      010009CBH   PUBLIC    CODE     ---       gImage_FANEM
      0100099BH   PUBLIC    CODE     ---       gImage_LOGO5
      01000962H   PUBLIC    CODE     ---       gImage_LOGO4
      010008FCH   PUBLIC    CODE     ---       gImage_LOGO3
      01000890H   PUBLIC    CODE     ---       gImage_LOGO2
      01000830H   PUBLIC    CODE     ---       gImage_LOGO1
      010005E0H   PUBLIC    CODE     ---       Shangbiao8
      01000306H   PUBLIC    CODE     ---       PIC_WuChuang
      01000040H   PUBLIC    CODE     ---       PIC_YouChuang
      0100A190H   PUBLIC    CODE     ---       LCD_Show_Verion
      01006A3FH   PUBLIC    CODE     ---       DrawWorkWindows
LX51 LINKER/LOCATER V4.66.1.0                                                         03/30/2019  12:53:22  PAGE 76


      0100AF86H   PUBLIC    CODE     ---       Refresh_Work_Mode
      02000271H   PUBLIC    XDATA    BYTE      ?_Draw_Circle?BYTE
      01008463H   PUBLIC    CODE     ---       _Draw_Circle
      02000273H   PUBLIC    XDATA    BYTE      ?_LCD_ShowxNum?BYTE
      01007693H   PUBLIC    CODE     ---       _LCD_ShowxNum
      02000272H   PUBLIC    XDATA    BYTE      ?_LCD_ShowString?BYTE
      0100656BH   PUBLIC    CODE     ---       _LCD_ShowString
      02000282H   PUBLIC    XDATA    BYTE      ?_LCD_ShowChar?BYTE
      0100B47EH   PUBLIC    CODE     ---       _LCD_ShowChar
      0200028AH   PUBLIC    XDATA    BYTE      ?_DISP_FNT12X24?BYTE
      010085A7H   PUBLIC    CODE     ---       _DISP_FNT12X24
      0200028AH   PUBLIC    XDATA    BYTE      ?_DISP_FNT8X16?BYTE
      0100B374H   PUBLIC    CODE     ---       _DISP_FNT8X16
      0100ADE6H   PUBLIC    CODE     ---       _DISP_VHB80_PIC
      0100AF74H   PUBLIC    CODE     ---       _Disp_WuChuang
      0100AF5CH   PUBLIC    CODE     ---       _Disp_YouChuang
      0100AF10H   PUBLIC    CODE     ---       _DISP_VHB80_56X40
      02000271H   PUBLIC    XDATA    BYTE      ?_DISP_DHM?BYTE
      0100979AH   PUBLIC    CODE     ---       _DISP_DHM
      02000271H   PUBLIC    XDATA    BYTE      ?_DISP_ICO_52X64?BYTE
      010097B7H   PUBLIC    CODE     ---       _DISP_ICO_52X64
      02000271H   PUBLIC    XDATA    BYTE      ?_DISP_ICO_40X40?BYTE
      010093A5H   PUBLIC    CODE     ---       _DISP_ICO_40X40
      02000271H   PUBLIC    XDATA    BYTE      ?_DISP_ICO_32X40?BYTE
      010095A9H   PUBLIC    CODE     ---       _DISP_ICO_32X40
      02000272H   PUBLIC    XDATA    BYTE      ?_DISP_TIME_10X16?BYTE
      01008CBAH   PUBLIC    CODE     ---       _DISP_TIME_10X16
      02000271H   PUBLIC    XDATA    BYTE      ?_DISP_RH14X24?BYTE
      01006F6DH   PUBLIC    CODE     ---       _DISP_RH14X24
      0200026BH   PUBLIC    XDATA    BYTE      ?_DISP_FNT10X24?BYTE
      0100857DH   PUBLIC    CODE     ---       _DISP_FNT10X24
      02000277H   PUBLIC    XDATA    BYTE      ?_DISP_RH_17X40?BYTE
      01009D04H   PUBLIC    CODE     ---       _DISP_RH_17X40
      0100AEF7H   PUBLIC    CODE     ---       _DISP_HEAT_36X24
      0100AE49H   PUBLIC    CODE     ---       _DISP_JQK41X16
      0100AF4AH   PUBLIC    CODE     ---       _DISP_RTD28X24
      0100AF32H   PUBLIC    CODE     ---       _DISP_CQK25X24
      0200026CH   PUBLIC    XDATA    BYTE      ?_DISP_TEMP_38X64?BYTE
      01009ED3H   PUBLIC    CODE     ---       _DISP_TEMP_38X64
      02000277H   PUBLIC    XDATA    BYTE      ?_DISP_TEMP_30X56?BYTE
      01009D41H   PUBLIC    CODE     ---       _DISP_TEMP_30X56
      02000277H   PUBLIC    XDATA    BYTE      ?_Draw_Rectangle_Real?BYTE
      01006BC7H   PUBLIC    CODE     ---       _Draw_Rectangle_Real
      02000271H   PUBLIC    XDATA    BYTE      ?_Draw_Rectangle?BYTE
      01006913H   PUBLIC    CODE     ---       _Draw_Rectangle
      02000299H   PUBLIC    XDATA    BYTE      ?_LCD_CrtlWrite_Area?BYTE
      010086FCH   PUBLIC    CODE     ---       _LCD_CrtlWrite_Area
      010082EAH   PUBLIC    CODE     ---       LCD_Initial
      01008429H   PUBLIC    CODE     ---       _LCD_CtrlWrite_Color
      0100843CH   PUBLIC    CODE     ---       _LCD_CtrlWrite_ILI9328
      00000080H   SFRSYM    DATA     BYTE      P0
      00000090H.4 SFRSYM    DATA     BIT       P14
      00000090H.5 SFRSYM    DATA     BIT       P15
      00000090H.6 SFRSYM    DATA     BIT       P16
      000000C0H   SFRSYM    DATA     BIT       P40
      000000C0H.6 SFRSYM    DATA     BIT       P46
      010056A0H   SYMBOL    CODE     ---       Table_Color
      0100000EH   SYMBOL    CODE     ---       _SdCmd
      010083D0H   SYMBOL    CODE     ---       _SdData
      01006F89H   SYMBOL    CODE     ---       _DISP_MONO_GRAP
      01008401H   SYMBOL    CODE     ---       _LCD_DrawPoint
      0100C292H   SYMBOL    CODE     ---       _LCD_Pow

      0100000EH   BLOCK     CODE     ---       LVL=0
      0100000EH   LINE      ---      ---       #32
LX51 LINKER/LOCATER V4.66.1.0                                                         03/30/2019  12:53:22  PAGE 77


      0100000EH   LINE      ---      ---       #33
      0100000EH   LINE      ---      ---       #34
      01000010H   LINE      ---      ---       #35
      00000007H   SYMBOL    DATA     BYTE      data8
      ---         BLOCKEND  ---      ---       LVL=0

      010083D0H   BLOCK     CODE     ---       LVL=0
      010083FDH   LINE      ---      ---       #43
      010083FDH   LINE      ---      ---       #44
      010083FDH   LINE      ---      ---       #45
      010083FFH   LINE      ---      ---       #46
      00000007H   SYMBOL    DATA     BYTE      data8
      ---         BLOCKEND  ---      ---       LVL=0

      0100843CH   BLOCK     CODE     ---       LVL=0
      0100843CH   LINE      ---      ---       #53
      01008442H   LINE      ---      ---       #54
      01008442H   LINE      ---      ---       #55
      01008444H   LINE      ---      ---       #56
      01008446H   LINE      ---      ---       #57
      01008449H   LINE      ---      ---       #58
      0100844BH   LINE      ---      ---       #59
      0100844DH   LINE      ---      ---       #60
      01008452H   LINE      ---      ---       #61
      01008454H   LINE      ---      ---       #62
      01008456H   LINE      ---      ---       #63
      01008458H   LINE      ---      ---       #64
      0100845AH   LINE      ---      ---       #65
      00000004H   SYMBOL    DATA     WORD      i
      ---         BLOCKEND  ---      ---       LVL=0

      01008429H   BLOCK     CODE     ---       LVL=0
      01008429H   LINE      ---      ---       #67
      01008429H   LINE      ---      ---       #68
      01008429H   LINE      ---      ---       #69
      00000007H   SYMBOL    DATA     BYTE      color
      ---         BLOCKEND  ---      ---       LVL=0

      010082EAH   BLOCK     CODE     ---       LVL=0
      010082EAH   LINE      ---      ---       #72
      010082EAH   LINE      ---      ---       #73
      010082EAH   LINE      ---      ---       #75
      010082ECH   LINE      ---      ---       #76
      010082F3H   LINE      ---      ---       #77
      010082F5H   LINE      ---      ---       #78
      010082FCH   LINE      ---      ---       #80
      01008301H   LINE      ---      ---       #81
      01008308H   LINE      ---      ---       #82
      0100830CH   LINE      ---      ---       #84
      01008311H   LINE      ---      ---       #85
      01008314H   LINE      ---      ---       #86
      01008319H   LINE      ---      ---       #88
      0100831EH   LINE      ---      ---       #89
      01008322H   LINE      ---      ---       #91
      01008325H   LINE      ---      ---       #92
      01008329H   LINE      ---      ---       #95
      0100832EH   LINE      ---      ---       #96
      01008332H   LINE      ---      ---       #98
      01008337H   LINE      ---      ---       #99
      0100833BH   LINE      ---      ---       #101
      01008340H   LINE      ---      ---       #102
      01008344H   LINE      ---      ---       #104
      01008349H   LINE      ---      ---       #105
      0100834DH   LINE      ---      ---       #107
      01008352H   LINE      ---      ---       #108
LX51 LINKER/LOCATER V4.66.1.0                                                         03/30/2019  12:53:22  PAGE 78


      01008356H   LINE      ---      ---       #110
      0100835BH   LINE      ---      ---       #111
      0100835FH   LINE      ---      ---       #113
      01008364H   LINE      ---      ---       #114
      01008368H   LINE      ---      ---       #116
      0100836DH   LINE      ---      ---       #117
      01008371H   LINE      ---      ---       #118
      01008375H   LINE      ---      ---       #120
      0100837AH   LINE      ---      ---       #121
      0100837EH   LINE      ---      ---       #123
      01008382H   LINE      ---      ---       #136
      01008384H   LINE      ---      ---       #140
      01008388H   LINE      ---      ---       #153
      0100838AH   LINE      ---      ---       #156
      01008393H   LINE      ---      ---       #157
      01008398H   LINE      ---      ---       #159
      0100839EH   LINE      ---      ---       #161
      010083A3H   LINE      ---      ---       #162
      010083A6H   LINE      ---      ---       #164
      010083A8H   LINE      ---      ---       #165
      010083ACH   LINE      ---      ---       #167
      010083B1H   LINE      ---      ---       #168
      010083B3H   LINE      ---      ---       #170
      010083B6H   LINE      ---      ---       #171
      010083BAH   LINE      ---      ---       #173
      010083C0H   LINE      ---      ---       #174
      ---         BLOCKEND  ---      ---       LVL=0

      010086FCH   BLOCK     CODE     ---       LVL=0
      010086FCH   LINE      ---      ---       #177
      010086FFH   LINE      ---      ---       #178
      010086FFH   LINE      ---      ---       #179
      01008703H   LINE      ---      ---       #181
      01008708H   LINE      ---      ---       #182
      0100870BH   LINE      ---      ---       #184
      01008710H   LINE      ---      ---       #185
      01008714H   LINE      ---      ---       #186
      01008719H   LINE      ---      ---       #187
      0100871EH   LINE      ---      ---       #189
      00000004H   SYMBOL    DATA     BYTE      SX
      00000005H   SYMBOL    DATA     BYTE      EX
      00000002H   SYMBOL    DATA     WORD      SY
      0200029DH   SYMBOL    XDATA    WORD      EY
      ---         BLOCKEND  ---      ---       LVL=0

      0100690AH   BLOCK     CODE     ---       LVL=0
      01006913H   LINE      ---      ---       #194
      0100691EH   LINE      ---      ---       #195
      02000271H   SYMBOL    XDATA    BYTE      Start_X
      02000272H   SYMBOL    XDATA    WORD      Start_Y
      00000001H   SYMBOL    DATA     BYTE      End_X
      02000275H   SYMBOL    XDATA    WORD      End_Y
      02000277H   SYMBOL    XDATA    BYTE      color
      02000278H   SYMBOL    XDATA    BYTE      LineW
      0100691EH   BLOCK     CODE     NEAR LAB  LVL=1
      0100691EH   LINE      ---      ---       #197
      0100692CH   LINE      ---      ---       #198
      01006947H   LINE      ---      ---       #200
      0100695AH   LINE      ---      ---       #201
      01006967H   LINE      ---      ---       #202
      01006967H   LINE      ---      ---       #203
      01006972H   LINE      ---      ---       #204
      01006972H   LINE      ---      ---       #205
      0100697AH   LINE      ---      ---       #207
      01006981H   LINE      ---      ---       #208
LX51 LINKER/LOCATER V4.66.1.0                                                         03/30/2019  12:53:22  PAGE 79


      010069AEH   LINE      ---      ---       #210
      010069AEH   LINE      ---      ---       #211
      010069B9H   LINE      ---      ---       #212
      010069B9H   LINE      ---      ---       #213
      010069C1H   LINE      ---      ---       #215
      010069C8H   LINE      ---      ---       #216
      010069E8H   LINE      ---      ---       #218
      010069E8H   LINE      ---      ---       #219
      010069F5H   LINE      ---      ---       #220
      010069F5H   LINE      ---      ---       #221
      010069FDH   LINE      ---      ---       #223
      01006A04H   LINE      ---      ---       #224
      01006A22H   LINE      ---      ---       #226
      01006A22H   LINE      ---      ---       #227
      01006A2FH   LINE      ---      ---       #228
      01006A2FH   LINE      ---      ---       #229
      01006A37H   LINE      ---      ---       #231
      01006A3EH   LINE      ---      ---       #232
      02000279H   SYMBOL    XDATA    WORD      i
      00000002H   SYMBOL    DATA     WORD      j
      0200027BH   SYMBOL    XDATA    WORD      w
      0200027DH   SYMBOL    XDATA    WORD      h
      ---         BLOCKEND  CODE     ---       LVL=1
      ---         BLOCKEND  CODE     ---       LVL=0

      01006BBAH   BLOCK     CODE     ---       LVL=0
      01006BC7H   LINE      ---      ---       #235
      01006BD2H   LINE      ---      ---       #236
      00000002H   SYMBOL    DATA     BYTE      Start_X
      02000278H   SYMBOL    XDATA    WORD      Start_Y
      00000003H   SYMBOL    DATA     BYTE      End_X
      0200027BH   SYMBOL    XDATA    WORD      End_Y
      0200027DH   SYMBOL    XDATA    BYTE      color
      01006BD2H   BLOCK     CODE     NEAR LAB  LVL=1
      01006BD2H   LINE      ---      ---       #238
      01006BE2H   LINE      ---      ---       #239
      01006BFAH   LINE      ---      ---       #240
      01006C1BH   LINE      ---      ---       #241
      01006C37H   LINE      ---      ---       #242
      01006C37H   LINE      ---      ---       #243
      01006C47H   LINE      ---      ---       #244
      01006C47H   LINE      ---      ---       #245
      01006C4FH   LINE      ---      ---       #247
      01006C56H   LINE      ---      ---       #248
      01006C5EH   LINE      ---      ---       #249
      00000002H   SYMBOL    DATA     WORD      i
      0200027EH   SYMBOL    XDATA    WORD      j
      02000280H   SYMBOL    XDATA    WORD      w
      02000282H   SYMBOL    XDATA    WORD      h
      ---         BLOCKEND  CODE     ---       LVL=1
      ---         BLOCKEND  CODE     ---       LVL=0

      01006F89H   BLOCK     CODE     ---       LVL=0
      01006F89H   LINE      ---      ---       #259
      01006F94H   LINE      ---      ---       #260
      00000006H   SYMBOL    DATA     BYTE      X1
      0200027DH   SYMBOL    XDATA    WORD      Y1
      0200027FH   SYMBOL    XDATA    BYTE      H
      02000280H   SYMBOL    XDATA    BYTE      W
      02000281H   SYMBOL    XDATA    ---       gp
      02000284H   SYMBOL    XDATA    BYTE      color
      01006F94H   BLOCK     CODE     NEAR LAB  LVL=1
      01006F94H   LINE      ---      ---       #262
      01006FB6H   LINE      ---      ---       #263
      01006FE0H   LINE      ---      ---       #264
LX51 LINKER/LOCATER V4.66.1.0                                                         03/30/2019  12:53:22  PAGE 80


      01006FE0H   LINE      ---      ---       #265
      01006FE7H   LINE      ---      ---       #266
      01006FE7H   LINE      ---      ---       #267
      01007012H   LINE      ---      ---       #268
      01007017H   LINE      ---      ---       #270
      0100701FH   LINE      ---      ---       #271
      01007033H   LINE      ---      ---       #272
      0100703AH   LINE      ---      ---       #273
      02000285H   SYMBOL    XDATA    WORD      w
      02000287H   SYMBOL    XDATA    WORD      j
      ---         BLOCKEND  CODE     ---       LVL=1
      ---         BLOCKEND  CODE     ---       LVL=0

      01009D3BH   BLOCK     CODE     ---       LVL=0
      01009D41H   LINE      ---      ---       #276
      01009D49H   LINE      ---      ---       #277
      01009D49H   LINE      ---      ---       #278
      02000277H   SYMBOL    XDATA    BYTE      X
      02000278H   SYMBOL    XDATA    WORD      Y
      00000003H   SYMBOL    DATA     BYTE      NUM
      0200027BH   SYMBOL    XDATA    BYTE      color
      ---         BLOCKEND  ---      ---       LVL=0

      01009EC6H   BLOCK     CODE     ---       LVL=0
      01009ED3H   LINE      ---      ---       #281
      01009EDBH   LINE      ---      ---       #282
      01009EDBH   LINE      ---      ---       #283
      0200026CH   SYMBOL    XDATA    BYTE      X
      0200026DH   SYMBOL    XDATA    WORD      Y
      00000003H   SYMBOL    DATA     BYTE      NUM
      02000270H   SYMBOL    XDATA    BYTE      color
      ---         BLOCKEND  ---      ---       LVL=0

      0100AF2CH   BLOCK     CODE     ---       LVL=0
      0100AF32H   LINE      ---      ---       #286
      00000007H   SYMBOL    DATA     BYTE      X
      00000004H   SYMBOL    DATA     WORD      Y
      00000006H   SYMBOL    DATA     BYTE      color
      ---         BLOCKEND  ---      ---       LVL=0

      0100AF44H   BLOCK     CODE     ---       LVL=0
      0100AF4AH   LINE      ---      ---       #291
      00000007H   SYMBOL    DATA     BYTE      X
      00000004H   SYMBOL    DATA     WORD      Y
      00000006H   SYMBOL    DATA     BYTE      color
      ---         BLOCKEND  ---      ---       LVL=0

      0100AE49H   BLOCK     CODE     ---       LVL=0
      0100AE49H   LINE      ---      ---       #296
      00000007H   SYMBOL    DATA     BYTE      X
      00000004H   SYMBOL    DATA     WORD      Y
      00000006H   SYMBOL    DATA     BYTE      color
      ---         BLOCKEND  ---      ---       LVL=0

      0100AEF7H   BLOCK     CODE     ---       LVL=0
      0100AEF7H   LINE      ---      ---       #303
      00000007H   SYMBOL    DATA     BYTE      X
      00000004H   SYMBOL    DATA     WORD      Y
      00000006H   SYMBOL    DATA     BYTE      color
      ---         BLOCKEND  ---      ---       LVL=0

      01009CFEH   BLOCK     CODE     ---       LVL=0
      01009D04H   LINE      ---      ---       #308
      01009D0CH   LINE      ---      ---       #309
      01009D0CH   LINE      ---      ---       #310
LX51 LINKER/LOCATER V4.66.1.0                                                         03/30/2019  12:53:22  PAGE 81


      02000277H   SYMBOL    XDATA    BYTE      X
      02000278H   SYMBOL    XDATA    WORD      Y
      00000003H   SYMBOL    DATA     BYTE      NUM
      0200027BH   SYMBOL    XDATA    BYTE      color
      ---         BLOCKEND  ---      ---       LVL=0

      0100857DH   BLOCK     CODE     ---       LVL=0
      0100857DH   LINE      ---      ---       #313
      01008584H   LINE      ---      ---       #314
      01008584H   LINE      ---      ---       #315
      0200026BH   SYMBOL    XDATA    BYTE      X
      0200026CH   SYMBOL    XDATA    WORD      Y
      00000003H   SYMBOL    DATA     BYTE      NUM
      0200026FH   SYMBOL    XDATA    BYTE      color
      ---         BLOCKEND  ---      ---       LVL=0

      01006F6DH   BLOCK     CODE     ---       LVL=0
      01006F6DH   LINE      ---      ---       #318
      01006F75H   LINE      ---      ---       #319
      01006F75H   LINE      ---      ---       #320
      02000271H   SYMBOL    XDATA    BYTE      X
      02000272H   SYMBOL    XDATA    WORD      Y
      00000003H   SYMBOL    DATA     BYTE      NUM
      02000275H   SYMBOL    XDATA    BYTE      color
      ---         BLOCKEND  ---      ---       LVL=0

      01008CB6H   BLOCK     CODE     ---       LVL=0
      01008CBAH   LINE      ---      ---       #323
      01008CC2H   LINE      ---      ---       #324
      01008CC2H   LINE      ---      ---       #325
      02000272H   SYMBOL    XDATA    BYTE      X
      02000273H   SYMBOL    XDATA    WORD      Y
      00000003H   SYMBOL    DATA     BYTE      NUM
      02000276H   SYMBOL    XDATA    BYTE      color
      ---         BLOCKEND  ---      ---       LVL=0

      01009591H   BLOCK     CODE     ---       LVL=0
      010095A9H   LINE      ---      ---       #327
      010095B1H   LINE      ---      ---       #328
      010095B1H   LINE      ---      ---       #329
      02000271H   SYMBOL    XDATA    BYTE      X
      02000272H   SYMBOL    XDATA    WORD      Y
      00000003H   SYMBOL    DATA     BYTE      NUM
      02000275H   SYMBOL    XDATA    BYTE      color
      ---         BLOCKEND  ---      ---       LVL=0

      0100939EH   BLOCK     CODE     ---       LVL=0
      010093A5H   LINE      ---      ---       #332
      010093ADH   LINE      ---      ---       #333
      010093ADH   LINE      ---      ---       #334
      02000271H   SYMBOL    XDATA    BYTE      X
      02000272H   SYMBOL    XDATA    WORD      Y
      00000003H   SYMBOL    DATA     BYTE      NUM
      02000275H   SYMBOL    XDATA    BYTE      color
      ---         BLOCKEND  ---      ---       LVL=0

      010097B7H   BLOCK     CODE     ---       LVL=0
      010097B7H   LINE      ---      ---       #339
      010097BFH   LINE      ---      ---       #340
      010097BFH   LINE      ---      ---       #341
      02000271H   SYMBOL    XDATA    BYTE      X
      02000272H   SYMBOL    XDATA    WORD      Y
      00000003H   SYMBOL    DATA     BYTE      NUM
      02000275H   SYMBOL    XDATA    BYTE      color
      ---         BLOCKEND  ---      ---       LVL=0
LX51 LINKER/LOCATER V4.66.1.0                                                         03/30/2019  12:53:22  PAGE 82



      01009796H   BLOCK     CODE     ---       LVL=0
      0100979AH   LINE      ---      ---       #345
      010097A2H   LINE      ---      ---       #346
      010097A2H   LINE      ---      ---       #347
      02000271H   SYMBOL    XDATA    BYTE      X
      02000272H   SYMBOL    XDATA    WORD      Y
      00000003H   SYMBOL    DATA     BYTE      NUM
      02000275H   SYMBOL    XDATA    BYTE      color
      ---         BLOCKEND  ---      ---       LVL=0

      0100AF10H   BLOCK     CODE     ---       LVL=0
      0100AF10H   LINE      ---      ---       #350
      00000007H   SYMBOL    DATA     BYTE      X
      00000004H   SYMBOL    DATA     WORD      Y
      00000006H   SYMBOL    DATA     BYTE      color
      ---         BLOCKEND  ---      ---       LVL=0

      0100AF5CH   BLOCK     CODE     ---       LVL=0
      0100AF5CH   LINE      ---      ---       #356
      00000007H   SYMBOL    DATA     BYTE      X
      00000004H   SYMBOL    DATA     WORD      Y
      00000006H   SYMBOL    DATA     BYTE      color
      ---         BLOCKEND  ---      ---       LVL=0

      0100AF6EH   BLOCK     CODE     ---       LVL=0
      0100AF74H   LINE      ---      ---       #361
      00000007H   SYMBOL    DATA     BYTE      X
      00000004H   SYMBOL    DATA     WORD      Y
      00000006H   SYMBOL    DATA     BYTE      color
      ---         BLOCKEND  ---      ---       LVL=0

      0100ADE3H   BLOCK     CODE     ---       LVL=0
      0100ADE6H   LINE      ---      ---       #366
      0100ADECH   LINE      ---      ---       #367
      0100ADECH   LINE      ---      ---       #368
      0100ADF4H   LINE      ---      ---       #369
      0100AE01H   LINE      ---      ---       #370
      0100AE08H   LINE      ---      ---       #371
      0100AE15H   LINE      ---      ---       #373
      0100AE1CH   LINE      ---      ---       #374
      0100AE3EH   LINE      ---      ---       #377
      0200026CH   SYMBOL    XDATA    BYTE      color
      ---         BLOCKEND  ---      ---       LVL=0

      01008401H   BLOCK     CODE     ---       LVL=0
      01008406H   LINE      ---      ---       #384
      0100840EH   LINE      ---      ---       #385
      0100840EH   LINE      ---      ---       #386
      01008413H   LINE      ---      ---       #387
      01008415H   LINE      ---      ---       #389
      01008417H   LINE      ---      ---       #391
      0100841CH   LINE      ---      ---       #392
      0100841FH   LINE      ---      ---       #394
      01008421H   LINE      ---      ---       #396
      01008426H   LINE      ---      ---       #397
      02000299H   SYMBOL    XDATA    WORD      x
      00000004H   SYMBOL    DATA     WORD      y
      00000003H   SYMBOL    DATA     BYTE      color
      ---         BLOCKEND  ---      ---       LVL=0

      0100B374H   BLOCK     CODE     ---       LVL=0
      0100B374H   LINE      ---      ---       #407
      0100B382H   LINE      ---      ---       #408
      0200028AH   SYMBOL    XDATA    WORD      X
LX51 LINKER/LOCATER V4.66.1.0                                                         03/30/2019  12:53:22  PAGE 83


      0200028CH   SYMBOL    XDATA    WORD      Y
      00000001H   SYMBOL    DATA     BYTE      NUM
      0200028FH   SYMBOL    XDATA    BYTE      mode
      02000290H   SYMBOL    XDATA    BYTE      color
      0100B382H   BLOCK     CODE     NEAR LAB  LVL=1
      0100B382H   LINE      ---      ---       #412
      0100B385H   LINE      ---      ---       #413
      0100B38BH   LINE      ---      ---       #415
      0100B3AAH   LINE      ---      ---       #417
      0100B3AEH   LINE      ---      ---       #418
      0100B3B1H   LINE      ---      ---       #419
      0100B3B1H   LINE      ---      ---       #420
      0100B3C0H   LINE      ---      ---       #421
      0100B3C0H   LINE      ---      ---       #422
      0100B3DAH   LINE      ---      ---       #423
      0100B3DAH   LINE      ---      ---       #424
      0100B3E0H   LINE      ---      ---       #425
      0100B3E3H   LINE      ---      ---       #427
      0100B3E8H   LINE      ---      ---       #429
      0100B3EAH   LINE      ---      ---       #431
      0100B3EAH   LINE      ---      ---       #432
      0100B3F0H   LINE      ---      ---       #433
      0100B3F8H   LINE      ---      ---       #434
      0100B3F8H   LINE      ---      ---       #435
      0100B3FDH   LINE      ---      ---       #437
      0100B40CH   LINE      ---      ---       #438
      0100B40CH   LINE      ---      ---       #439
      0100B426H   LINE      ---      ---       #440
      0100B426H   LINE      ---      ---       #441
      0100B42CH   LINE      ---      ---       #442
      0100B42FH   LINE      ---      ---       #444
      0100B434H   LINE      ---      ---       #446
      0100B436H   LINE      ---      ---       #448
      0100B436H   LINE      ---      ---       #449
      0100B43CH   LINE      ---      ---       #450
      0100B444H   LINE      ---      ---       #451
      0100B444H   LINE      ---      ---       #452
      0100B449H   LINE      ---      ---       #454
      0100B44FH   LINE      ---      ---       #455
      0100B466H   LINE      ---      ---       #457
      02000291H   SYMBOL    XDATA    WORD      w
      02000293H   SYMBOL    XDATA    WORD      j
      02000295H   SYMBOL    XDATA    WORD      F_x
      02000297H   SYMBOL    XDATA    WORD      F_y
      ---         BLOCKEND  CODE     ---       LVL=1
      ---         BLOCKEND  CODE     ---       LVL=0

      010085A7H   BLOCK     CODE     ---       LVL=0
      010085A7H   LINE      ---      ---       #466
      010085AFH   LINE      ---      ---       #467
      0200028AH   SYMBOL    XDATA    WORD      X
      0200028CH   SYMBOL    XDATA    WORD      Y
      0200028EH   SYMBOL    XDATA    BYTE      NUM
      0200028FH   SYMBOL    XDATA    BYTE      mode
      02000290H   SYMBOL    XDATA    BYTE      color
      010085AFH   BLOCK     CODE     NEAR LAB  LVL=1
      010085AFH   LINE      ---      ---       #471
      010085B2H   LINE      ---      ---       #472
      010085C2H   LINE      ---      ---       #474
      010085DEH   LINE      ---      ---       #476
      010085E5H   LINE      ---      ---       #477
      010085E8H   LINE      ---      ---       #478
      010085E8H   LINE      ---      ---       #479
      010085EAH   LINE      ---      ---       #480
      010085EAH   LINE      ---      ---       #481
LX51 LINKER/LOCATER V4.66.1.0                                                         03/30/2019  12:53:22  PAGE 84


      0100861CH   LINE      ---      ---       #482
      0100861CH   LINE      ---      ---       #483
      01008622H   LINE      ---      ---       #484
      01008625H   LINE      ---      ---       #486
      01008638H   LINE      ---      ---       #488
      0100863AH   LINE      ---      ---       #490
      0100863AH   LINE      ---      ---       #491
      01008640H   LINE      ---      ---       #492
      01008647H   LINE      ---      ---       #493
      01008647H   LINE      ---      ---       #494
      0100864EH   LINE      ---      ---       #497
      01008650H   LINE      ---      ---       #498
      01008650H   LINE      ---      ---       #499
      01008672H   LINE      ---      ---       #500
      01008672H   LINE      ---      ---       #501
      01008678H   LINE      ---      ---       #502
      0100867BH   LINE      ---      ---       #504
      01008680H   LINE      ---      ---       #506
      01008682H   LINE      ---      ---       #508
      01008682H   LINE      ---      ---       #509
      01008688H   LINE      ---      ---       #510
      0100868FH   LINE      ---      ---       #511
      0100868FH   LINE      ---      ---       #512
      01008696H   LINE      ---      ---       #515
      01008698H   LINE      ---      ---       #516
      01008698H   LINE      ---      ---       #517
      010086BAH   LINE      ---      ---       #518
      010086BAH   LINE      ---      ---       #519
      010086C0H   LINE      ---      ---       #520
      010086C3H   LINE      ---      ---       #522
      010086C8H   LINE      ---      ---       #524
      010086CAH   LINE      ---      ---       #526
      010086CAH   LINE      ---      ---       #527
      010086D0H   LINE      ---      ---       #528
      010086D7H   LINE      ---      ---       #529
      010086D7H   LINE      ---      ---       #530
      010086DEH   LINE      ---      ---       #533
      010086E4H   LINE      ---      ---       #534
      010086FBH   LINE      ---      ---       #536
      02000291H   SYMBOL    XDATA    WORD      w
      02000293H   SYMBOL    XDATA    WORD      j
      02000295H   SYMBOL    XDATA    WORD      F_x
      02000297H   SYMBOL    XDATA    WORD      F_y
      ---         BLOCKEND  CODE     ---       LVL=1
      ---         BLOCKEND  CODE     ---       LVL=0

      0100B47EH   BLOCK     CODE     ---       LVL=0
      0100B47EH   LINE      ---      ---       #544
      0100B48CH   LINE      ---      ---       #545
      0100B48CH   LINE      ---      ---       #548
      0100B48FH   LINE      ---      ---       #549
      0100B498H   LINE      ---      ---       #550
      0100B49FH   LINE      ---      ---       #551
      0100B4A9H   LINE      ---      ---       #552
      02000282H   SYMBOL    XDATA    WORD      x
      02000284H   SYMBOL    XDATA    WORD      y
      02000286H   SYMBOL    XDATA    BYTE      size
      02000287H   SYMBOL    XDATA    BYTE      num
      02000288H   SYMBOL    XDATA    BYTE      mode
      02000289H   SYMBOL    XDATA    BYTE      color
      ---         BLOCKEND  ---      ---       LVL=0

      0100655CH   BLOCK     CODE     ---       LVL=0
      0100656BH   LINE      ---      ---       #562
      01006576H   LINE      ---      ---       #563
LX51 LINKER/LOCATER V4.66.1.0                                                         03/30/2019  12:53:22  PAGE 85


      02000272H   SYMBOL    XDATA    WORD      x
      02000274H   SYMBOL    XDATA    WORD      y
      00000002H   SYMBOL    DATA     WORD      height_x
      02000278H   SYMBOL    XDATA    WORD      width_y
      0200027AH   SYMBOL    XDATA    ---       p
      0200027DH   SYMBOL    XDATA    BYTE      mode
      0200027EH   SYMBOL    XDATA    BYTE      color
      01006576H   BLOCK     CODE     NEAR LAB  LVL=1
      01006576H   LINE      ---      ---       #566
      01006582H   LINE      ---      ---       #570
      01006587H   LINE      ---      ---       #571
      01006587H   LINE      ---      ---       #572
      0100658FH   LINE      ---      ---       #573
      0100659EH   LINE      ---      ---       #574
      0100659EH   LINE      ---      ---       #575
      010065C6H   LINE      ---      ---       #577
      010065E5H   LINE      ---      ---       #579
      010065EEH   LINE      ---      ---       #580
      010065F8H   LINE      ---      ---       #581
      010065FAH   LINE      ---      ---       #582
      0200027FH   SYMBOL    XDATA    BYTE      size
      02000280H   SYMBOL    XDATA    BYTE      y0
      ---         BLOCKEND  CODE     ---       LVL=1
      ---         BLOCKEND  CODE     ---       LVL=0

      0100C292H   BLOCK     CODE     ---       LVL=0
      0100C292H   LINE      ---      ---       #586
      0100C29AH   LINE      ---      ---       #587
      02000282H   SYMBOL    XDATA    BYTE      m
      02000283H   SYMBOL    XDATA    BYTE      n
      0100C29AH   BLOCK     CODE     NEAR LAB  LVL=1
      0100C29AH   LINE      ---      ---       #588
      0100C2A2H   LINE      ---      ---       #589
      0100C2C1H   LINE      ---      ---       #590
      02000284H   SYMBOL    XDATA    DWORD     result
      ---         BLOCKEND  CODE     ---       LVL=1
      ---         BLOCKEND  CODE     ---       LVL=0

      0100768DH   BLOCK     CODE     ---       LVL=0
      01007693H   LINE      ---      ---       #604
      010076A1H   LINE      ---      ---       #605
      02000273H   SYMBOL    XDATA    WORD      x
      02000275H   SYMBOL    XDATA    WORD      y
      02000277H   SYMBOL    XDATA    BYTE      size
      02000278H   SYMBOL    XDATA    BYTE      len
      02000279H   SYMBOL    XDATA    DWORD     num
      0200027DH   SYMBOL    XDATA    BYTE      mode
      0200027EH   SYMBOL    XDATA    BYTE      color
      010076A1H   BLOCK     CODE     NEAR LAB  LVL=1
      010076A1H   LINE      ---      ---       #607
      010076A6H   LINE      ---      ---       #608
      010076B5H   LINE      ---      ---       #609
      010076B5H   LINE      ---      ---       #610
      010076D6H   LINE      ---      ---       #611
      010076E4H   LINE      ---      ---       #612
      010076E4H   LINE      ---      ---       #613
      010076E8H   LINE      ---      ---       #614
      010076E8H   LINE      ---      ---       #615
      01007705H   LINE      ---      ---       #616
      0100770FH   LINE      ---      ---       #617
      01007711H   LINE      ---      ---       #618
      01007717H   LINE      ---      ---       #619
      01007717H   LINE      ---      ---       #620
      01007736H   LINE      ---      ---       #621
      0100773EH   LINE      ---      ---       #622
LX51 LINKER/LOCATER V4.66.1.0                                                         03/30/2019  12:53:22  PAGE 86


      0200027FH   SYMBOL    XDATA    BYTE      t
      02000280H   SYMBOL    XDATA    BYTE      temp
      02000281H   SYMBOL    XDATA    BYTE      enshow
      ---         BLOCKEND  CODE     ---       LVL=1
      ---         BLOCKEND  CODE     ---       LVL=0

      0100845BH   BLOCK     CODE     ---       LVL=0
      01008463H   LINE      ---      ---       #627
      01008468H   LINE      ---      ---       #628
      02000271H   SYMBOL    XDATA    WORD      x0
      02000273H   SYMBOL    XDATA    WORD      y0
      00000003H   SYMBOL    DATA     BYTE      r
      02000276H   SYMBOL    XDATA    BYTE      color
      01008468H   BLOCK     CODE     NEAR LAB  LVL=1
      01008468H   LINE      ---      ---       #632
      01008479H   LINE      ---      ---       #633
      0100848DH   LINE      ---      ---       #634
      01008499H   LINE      ---      ---       #635
      01008499H   LINE      ---      ---       #636
      010084F5H   LINE      ---      ---       #646
      01008517H   LINE      ---      ---       #648
      01008517H   LINE      ---      ---       #649
      01008538H   LINE      ---      ---       #650
      01008542H   LINE      ---      ---       #651
      01008542H   LINE      ---      ---       #652
      01008544H   LINE      ---      ---       #653
      02000277H   SYMBOL    XDATA    INT       a
      02000279H   SYMBOL    XDATA    INT       b
      0200027BH   SYMBOL    XDATA    INT       di
      ---         BLOCKEND  CODE     ---       LVL=1
      ---         BLOCKEND  CODE     ---       LVL=0

      0100AF86H   BLOCK     CODE     ---       LVL=0
      0100AF86H   LINE      ---      ---       #655
      0100AF86H   LINE      ---      ---       #656
      0100AF86H   LINE      ---      ---       #657
      0100AF89H   LINE      ---      ---       #658
      0100AF8FH   LINE      ---      ---       #659
      0100AF8FH   LINE      ---      ---       #660
      0100AF98H   LINE      ---      ---       #661
      0100AF9FH   LINE      ---      ---       #662
      0100AF9FH   LINE      ---      ---       #663
      0100AFA9H   LINE      ---      ---       #664
      0100AFA9H   LINE      ---      ---       #665
      0100AFA9H   LINE      ---      ---       #667
      0100AFA9H   LINE      ---      ---       #668
      ---         BLOCKEND  ---      ---       LVL=0

      01006A3FH   BLOCK     CODE     ---       LVL=0
      01006A3FH   LINE      ---      ---       #675
      01006A3FH   LINE      ---      ---       #676
      01006A3FH   LINE      ---      ---       #677
      01006A41H   LINE      ---      ---       #679
      01006A47H   LINE      ---      ---       #681
      01006A4BH   LINE      ---      ---       #682
      01006A58H   LINE      ---      ---       #685
      01006A5BH   LINE      ---      ---       #686
      01006A5EH   LINE      ---      ---       #687
      01006A6DH   LINE      ---      ---       #688
      01006A72H   LINE      ---      ---       #689
      01006A7CH   LINE      ---      ---       #691
      01006A83H   LINE      ---      ---       #693
      01006A88H   LINE      ---      ---       #696
      01006A94H   LINE      ---      ---       #697
      01006A9AH   LINE      ---      ---       #698
LX51 LINKER/LOCATER V4.66.1.0                                                         03/30/2019  12:53:22  PAGE 87


      01006A9AH   LINE      ---      ---       #699
      01006AA9H   LINE      ---      ---       #701
      01006AABH   LINE      ---      ---       #702
      01006AB2H   LINE      ---      ---       #703
      01006AB2H   LINE      ---      ---       #704
      01006ABDH   LINE      ---      ---       #706
      01006ABFH   LINE      ---      ---       #707
      01006AC6H   LINE      ---      ---       #708
      01006AC6H   LINE      ---      ---       #709
      01006AD1H   LINE      ---      ---       #711
      01006AD3H   LINE      ---      ---       #712
      01006ADAH   LINE      ---      ---       #713
      01006ADAH   LINE      ---      ---       #714
      01006AE9H   LINE      ---      ---       #716
      01006AE9H   LINE      ---      ---       #718
      01006AF5H   LINE      ---      ---       #719
      01006AFEH   LINE      ---      ---       #720
      01006B07H   LINE      ---      ---       #723
      01006B3DH   LINE      ---      ---       #729
      01006B4BH   LINE      ---      ---       #730
      01006B58H   LINE      ---      ---       #732
      ---         BLOCKEND  ---      ---       LVL=0

      0100A190H   BLOCK     CODE     ---       LVL=0
      0100A190H   LINE      ---      ---       #745
      0100A190H   LINE      ---      ---       #746
      0100A190H   LINE      ---      ---       #747
      ---         BLOCKEND  ---      ---       LVL=0

      ---         MODULE    ---      ---       W25X
      0100B9F6H   PUBLIC    CODE     ---       _SPI_Erase_Sector
      0100BE49H   PUBLIC    CODE     ---       SPI_Get_Byte
      0100B992H   PUBLIC    CODE     ---       _SPI_Send_Byte
      0100BE14H   PUBLIC    CODE     ---       SPI_init
      02000270H   PUBLIC    XDATA    BYTE      ?_SPI_Write_nBytes?BYTE
      0100B9B0H   PUBLIC    CODE     ---       _SPI_Write_nBytes
      02000272H   PUBLIC    XDATA    BYTE      ?_SPI_Read_nBytes?BYTE
      0100B935H   PUBLIC    CODE     ---       _SPI_Read_nBytes
      0100BE0BH   PUBLIC    CODE     ---       SPI_Write_Disable
      0100BA20H   PUBLIC    CODE     ---       SPI_Write_Enable
      00000090H.7 SFRSYM    DATA     BIT       P17
      000000C0H.1 SFRSYM    DATA     BIT       P41
      000000C0H.2 SFRSYM    DATA     BIT       P42
      000000C0H.4 SFRSYM    DATA     BIT       P44
      000000C0H.5 SFRSYM    DATA     BIT       P45

      0100BA20H   BLOCK     CODE     ---       LVL=0
      0100BA20H   LINE      ---      ---       #41
      0100BA20H   LINE      ---      ---       #42
      0100BA22H   LINE      ---      ---       #43
      0100BA26H   LINE      ---      ---       #44
      0100BA28H   LINE      ---      ---       #45
      ---         BLOCKEND  ---      ---       LVL=0

      0100BE0BH   BLOCK     CODE     ---       LVL=0
      0100BE0BH   LINE      ---      ---       #46
      0100BE0BH   LINE      ---      ---       #47
      0100BE0BH   LINE      ---      ---       #48
      0100BE0DH   LINE      ---      ---       #49
      0100BE11H   LINE      ---      ---       #50
      0100BE13H   LINE      ---      ---       #51
      ---         BLOCKEND  ---      ---       LVL=0

      0100B931H   BLOCK     CODE     ---       LVL=0
      0100B935H   LINE      ---      ---       #57
LX51 LINKER/LOCATER V4.66.1.0                                                         03/30/2019  12:53:22  PAGE 88


      0100B93BH   LINE      ---      ---       #58
      02000272H   SYMBOL    XDATA    DWORD     Dst_Addr
      02000276H   SYMBOL    XDATA    BYTE      nBytes_128
      02000277H   SYMBOL    XDATA    ---       Read_Adr
      0100B93BH   BLOCK     CODE     NEAR LAB  LVL=1
      0100B93BH   LINE      ---      ---       #59
      0100B940H   LINE      ---      ---       #60
      0100B942H   LINE      ---      ---       #61
      0100B944H   LINE      ---      ---       #62
      0100B948H   LINE      ---      ---       #63
      0100B94DH   LINE      ---      ---       #64
      0100B952H   LINE      ---      ---       #65
      0100B957H   LINE      ---      ---       #67
      0100B969H   LINE      ---      ---       #68
      0100B982H   LINE      ---      ---       #69
      0100B984H   LINE      ---      ---       #70
      0100B986H   LINE      ---      ---       #71
      0200027AH   SYMBOL    XDATA    BYTE      i
      ---         BLOCKEND  CODE     ---       LVL=1
      ---         BLOCKEND  CODE     ---       LVL=0

      0100B9B0H   BLOCK     CODE     ---       LVL=0
      0100B9B0H   LINE      ---      ---       #77
      02000270H   SYMBOL    XDATA    DWORD     Dst_Addr
      02000274H   SYMBOL    XDATA    BYTE      nBytes_128
      02000275H   SYMBOL    XDATA    ---       Data_Adr
      0100B9B3H   BLOCK     CODE     NEAR LAB  LVL=1
      0100B9B5H   LINE      ---      ---       #83
      0100B9B9H   LINE      ---      ---       #84
      0100B9BEH   LINE      ---      ---       #85
      0100B9C3H   LINE      ---      ---       #86
      0100B9CCH   LINE      ---      ---       #87
      0100B9DFH   LINE      ---      ---       #88
      0100B9DFH   LINE      ---      ---       #89
      0100B9E9H   LINE      ---      ---       #90
      0100B9EBH   LINE      ---      ---       #91
      0100B9F3H   LINE      ---      ---       #92
      0100B9F5H   LINE      ---      ---       #93
      02000278H   SYMBOL    XDATA    BYTE      i
      02000279H   SYMBOL    XDATA    BYTE      byte
      ---         BLOCKEND  CODE     ---       LVL=1
      ---         BLOCKEND  CODE     ---       LVL=0

      0100BE14H   BLOCK     CODE     ---       LVL=0
      0100BE14H   LINE      ---      ---       #96
      0100BE14H   LINE      ---      ---       #97
      0100BE14H   LINE      ---      ---       #98
      0100BE16H   LINE      ---      ---       #99
      0100BE18H   LINE      ---      ---       #100
      0100BE1CH   LINE      ---      ---       #101
      ---         BLOCKEND  ---      ---       LVL=0

      0100B987H   BLOCK     CODE     ---       LVL=0
      0100B992H   LINE      ---      ---       #105
      0100B992H   LINE      ---      ---       #106
      00000007H   SYMBOL    DATA     BYTE      out
      0100B992H   BLOCK     CODE     NEAR LAB  LVL=1
      0100B992H   LINE      ---      ---       #107
      0100B994H   LINE      ---      ---       #108
      0100B994H   LINE      ---      ---       #109
      0100B994H   LINE      ---      ---       #110
      0100B998H   LINE      ---      ---       #111
      0100B99CH   LINE      ---      ---       #113
      0100B99EH   LINE      ---      ---       #114
      0100B9A0H   LINE      ---      ---       #115
LX51 LINKER/LOCATER V4.66.1.0                                                         03/30/2019  12:53:22  PAGE 89


      0100B9A4H   LINE      ---      ---       #116
      0100B9A8H   LINE      ---      ---       #117
      0100B9AAH   LINE      ---      ---       #118
      0100B9AFH   LINE      ---      ---       #119
      00000006H   SYMBOL    DATA     BYTE      i
      ---         BLOCKEND  CODE     ---       LVL=1
      ---         BLOCKEND  CODE     ---       LVL=0

      0100BE49H   BLOCK     CODE     ---       LVL=0
      0100BE49H   LINE      ---      ---       #122
      0100BE49H   LINE      ---      ---       #123
      0100BE49H   BLOCK     CODE     NEAR LAB  LVL=1
      0100BE49H   LINE      ---      ---       #124
      0100BE4CH   LINE      ---      ---       #126
      0100BE4CH   LINE      ---      ---       #127
      0100BE4CH   LINE      ---      ---       #128
      0100BE50H   LINE      ---      ---       #129
      0100BE54H   LINE      ---      ---       #130
      0100BE56H   LINE      ---      ---       #131
      0100BE57H   LINE      ---      ---       #132
      0100BE5AH   LINE      ---      ---       #133
      0100BE5DH   LINE      ---      ---       #134
      0100BE5EH   LINE      ---      ---       #135
      0100BE5FH   LINE      ---      ---       #136
      0100BE60H   LINE      ---      ---       #137
      0100BE61H   LINE      ---      ---       #138
      0100BE63H   LINE      ---      ---       #139
      0100BE68H   LINE      ---      ---       #140
      0100BE6BH   LINE      ---      ---       #141
      00000007H   SYMBOL    DATA     BYTE      i
      00000006H   SYMBOL    DATA     BYTE      in
      00000020H.5 SYMBOL    BIT      BIT       temp
      ---         BLOCKEND  CODE     ---       LVL=1
      ---         BLOCKEND  CODE     ---       LVL=0

      0100B9F6H   BLOCK     CODE     ---       LVL=0
      0100B9F6H   LINE      ---      ---       #144
      0100B9FBH   LINE      ---      ---       #149
      0100B9FFH   LINE      ---      ---       #150
      0100BA04H   LINE      ---      ---       #151
      0100BA09H   LINE      ---      ---       #152
      0100BA11H   LINE      ---      ---       #153
      0100BA13H   LINE      ---      ---       #154
      0200026FH   SYMBOL    XDATA    DWORD     Dst_Addr
      ---         BLOCKEND  ---      ---       LVL=0

      ---         MODULE    ---      ---       SHT21
      02000279H   PUBLIC    XDATA    BYTE      ?_SHT2x_CheckCrc?BYTE
      0100BCC3H   PUBLIC    CODE     ---       _SHT2x_CheckCrc
      0100BBA9H   PUBLIC    CODE     ---       SHT21_ReadData
      01007C09H   PUBLIC    CODE     ---       SHT21_WriteRH
      01007BF6H   PUBLIC    CODE     ---       SHT21_WriteTemp
      00000092H   SFRSYM    DATA     BYTE      P1M0
      00000091H   SFRSYM    DATA     BYTE      P1M1
      00000090H.1 SFRSYM    DATA     BIT       P11
      00000090H.2 SFRSYM    DATA     BIT       P12
      01007BEAH   SYMBOL    CODE     ---       SHT21_Start
      01007F7CH   SYMBOL    CODE     ---       SHT21_Stop
      01007B6BH   SYMBOL    CODE     ---       _SHT21_Write8Bit
      01007AEDH   SYMBOL    CODE     ---       SHT21_Read8Bit

      01007BEAH   BLOCK     CODE     ---       LVL=0
      01007BEAH   LINE      ---      ---       #43
      01007BEAH   LINE      ---      ---       #44
      01007BEAH   LINE      ---      ---       #45
LX51 LINKER/LOCATER V4.66.1.0                                                         03/30/2019  12:53:22  PAGE 90


      01007BECH   LINE      ---      ---       #46
      01007BEEH   LINE      ---      ---       #47
      01007BF0H   LINE      ---      ---       #48
      01007BF2H   LINE      ---      ---       #49
      01007BF4H   LINE      ---      ---       #50
      ---         BLOCKEND  ---      ---       LVL=0

      01007F7CH   BLOCK     CODE     ---       LVL=0
      01007F7CH   LINE      ---      ---       #54
      01007F7CH   LINE      ---      ---       #55
      01007F7CH   LINE      ---      ---       #56
      01007F7EH   LINE      ---      ---       #57
      01007F80H   LINE      ---      ---       #58
      01007F83H   LINE      ---      ---       #60
      01007F85H   LINE      ---      ---       #61
      ---         BLOCKEND  ---      ---       LVL=0

      01007B6BH   BLOCK     CODE     ---       LVL=0
      01007B6FH   LINE      ---      ---       #67
      01007B74H   LINE      ---      ---       #68
      02000270H   SYMBOL    XDATA    BYTE      i_input
      01007B74H   BLOCK     CODE     NEAR LAB  LVL=1
      01007B74H   LINE      ---      ---       #71
      01007B8BH   LINE      ---      ---       #72
      01007B8BH   LINE      ---      ---       #73
      01007B8DH   LINE      ---      ---       #74
      01007B96H   LINE      ---      ---       #75
      01007B9AH   LINE      ---      ---       #77
      01007B9CH   LINE      ---      ---       #79
      01007B9FH   LINE      ---      ---       #82
      01007BACH   LINE      ---      ---       #83
      01007BAEH   LINE      ---      ---       #84
      01007BB0H   LINE      ---      ---       #85
      01007BB2H   LINE      ---      ---       #87
      01007BB5H   LINE      ---      ---       #90
      01007BBCH   LINE      ---      ---       #91
      01007BBFH   LINE      ---      ---       #92
      01007BBFH   LINE      ---      ---       #93
      01007BD5H   LINE      ---      ---       #94
      01007BD5H   LINE      ---      ---       #95
      01007BD7H   LINE      ---      ---       #96
      01007BD9H   LINE      ---      ---       #97
      02000271H   SYMBOL    XDATA    WORD      i
      ---         BLOCKEND  CODE     ---       LVL=1
      ---         BLOCKEND  CODE     ---       LVL=0

      01007AEDH   BLOCK     CODE     ---       LVL=0
      01007AEDH   LINE      ---      ---       #100
      01007AEDH   LINE      ---      ---       #101
      00000020H.6 SYMBOL    BIT      BIT       ask
      01007AEDH   BLOCK     CODE     NEAR LAB  LVL=1
      01007AEDH   LINE      ---      ---       #102
      01007AF2H   LINE      ---      ---       #104
      01007AF4H   LINE      ---      ---       #106
      01007B03H   LINE      ---      ---       #107
      01007B03H   LINE      ---      ---       #108
      01007B06H   LINE      ---      ---       #110
      01007B13H   LINE      ---      ---       #111
      01007B15H   LINE      ---      ---       #112
      01007B17H   LINE      ---      ---       #113
      01007B20H   LINE      ---      ---       #114
      01007B23H   LINE      ---      ---       #115
      01007B23H   LINE      ---      ---       #116
      01007B25H   LINE      ---      ---       #117
      01007B27H   LINE      ---      ---       #119
LX51 LINKER/LOCATER V4.66.1.0                                                         03/30/2019  12:53:22  PAGE 91


      01007B27H   LINE      ---      ---       #120
      01007B29H   LINE      ---      ---       #121
      01007B29H   LINE      ---      ---       #122
      01007B2CH   LINE      ---      ---       #125
      01007B2EH   LINE      ---      ---       #126
      01007B30H   LINE      ---      ---       #127
      01007B32H   LINE      ---      ---       #128
      01007B34H   LINE      ---      ---       #129
      01007B36H   LINE      ---      ---       #130
      01007B3BH   LINE      ---      ---       #131
      02000279H   SYMBOL    XDATA    BYTE      mask
      0200027AH   SYMBOL    XDATA    BYTE      rxByte
      ---         BLOCKEND  CODE     ---       LVL=1
      ---         BLOCKEND  CODE     ---       LVL=0

      01007BF6H   BLOCK     CODE     ---       LVL=0
      01007BF6H   LINE      ---      ---       #136
      01007BF6H   LINE      ---      ---       #137
      01007BF6H   BLOCK     CODE     NEAR LAB  LVL=1
      01007BF6H   LINE      ---      ---       #139
      01007BF8H   LINE      ---      ---       #141
      00000007H   SYMBOL    DATA     BYTE      Read_SHT21_Err
      ---         BLOCKEND  CODE     ---       LVL=1
      ---         BLOCKEND  CODE     ---       LVL=0

      01007C09H   BLOCK     CODE     ---       LVL=0
      01007C09H   LINE      ---      ---       #149
      01007C09H   LINE      ---      ---       #150
      01007C09H   BLOCK     CODE     NEAR LAB  LVL=1
      01007C09H   LINE      ---      ---       #152
      01007C0BH   LINE      ---      ---       #154
      00000007H   SYMBOL    DATA     BYTE      Read_SHT21_Err
      ---         BLOCKEND  CODE     ---       LVL=1
      ---         BLOCKEND  CODE     ---       LVL=0

      0100BBA9H   BLOCK     CODE     ---       LVL=0
      0100BBA9H   LINE      ---      ---       #196
      0100BBA9H   LINE      ---      ---       #197
      0100BBA9H   BLOCK     CODE     NEAR LAB  LVL=1
      0100BBA9H   LINE      ---      ---       #204
      0100BBB3H   LINE      ---      ---       #206
      0100BBBDH   LINE      ---      ---       #208
      0100BBC7H   LINE      ---      ---       #210
      0100BBCAH   LINE      ---      ---       #212
      0100BBD2H   LINE      ---      ---       #213
      0100BBDAH   LINE      ---      ---       #214
      0100BBECH   LINE      ---      ---       #215
      0100BBF0H   LINE      ---      ---       #216
      0100BBF0H   LINE      ---      ---       #217
      0100BBF2H   LINE      ---      ---       #218
      0100BBF2H   LINE      ---      ---       #220
      0100BBFEH   LINE      ---      ---       #221
      0100BC15H   LINE      ---      ---       #224
      0100BC15H   LINE      ---      ---       #228
      0100BC15H   LINE      ---      ---       #231
      0100BC2BH   LINE      ---      ---       #233
      0100BC32H   LINE      ---      ---       #234
      0100BC32H   LINE      ---      ---       #235
      0100BC44H   LINE      ---      ---       #238
      0100BC46H   LINE      ---      ---       #240
      0100BC46H   LINE      ---      ---       #242
      0100BC46H   LINE      ---      ---       #243
      02000270H   SYMBOL    XDATA    BYTE      TempH
      02000271H   SYMBOL    XDATA    BYTE      TempL
      02000272H   SYMBOL    XDATA    DWORD     TempLong
LX51 LINKER/LOCATER V4.66.1.0                                                         03/30/2019  12:53:22  PAGE 92


      02000276H   SYMBOL    XDATA    BYTE      checksum
      02000277H   SYMBOL    XDATA    ---       Cdata
      00000007H   SYMBOL    DATA     BYTE      CRC8_error
      ---         BLOCKEND  CODE     ---       LVL=1
      ---         BLOCKEND  CODE     ---       LVL=0

      0100BCC3H   BLOCK     CODE     ---       LVL=0
      0100BCC3H   LINE      ---      ---       #252
      0100BCCEH   LINE      ---      ---       #254
      02000279H   SYMBOL    XDATA    ---       Cdata
      0200027CH   SYMBOL    XDATA    BYTE      nbrOfBytes
      0200027DH   SYMBOL    XDATA    BYTE      checksum
      0100BCCEH   BLOCK     CODE     NEAR LAB  LVL=1
      0100BCCEH   LINE      ---      ---       #255
      0100BCD0H   LINE      ---      ---       #259
      0100BCDBH   LINE      ---      ---       #260
      0100BCDBH   LINE      ---      ---       #261
      0100BCE2H   LINE      ---      ---       #262
      0100BCE4H   LINE      ---      ---       #263
      0100BCE4H   LINE      ---      ---       #264
      0100BCEFH   LINE      ---      ---       #265
      0100BCF3H   LINE      ---      ---       #266
      0100BCF5H   LINE      ---      ---       #267
      0100BCF8H   LINE      ---      ---       #268
      0100BCFCH   LINE      ---      ---       #269
      0100BCFCH   LINE      ---      ---       #270
      0100BCFEH   LINE      ---      ---       #271
      0100BCFEH   LINE      ---      ---       #272
      0100BCFEH   LINE      ---      ---       #273
      00000007H   SYMBOL    DATA     BYTE      crc
      00000006H   SYMBOL    DATA     BYTE      byteCtr
      00000005H   SYMBOL    DATA     BYTE      bit8
      ---         BLOCKEND  CODE     ---       LVL=1
      ---         BLOCKEND  CODE     ---       LVL=0

      ---         MODULE    ---      ---       RX8010
      0100A326H   PUBLIC    CODE     ---       _RX8010_GetTime
      0100A56AH   PUBLIC    CODE     ---       _RX8010_SetTime
      0100A4A6H   PUBLIC    CODE     ---       RX8010_Initialize
      0100A382H   PUBLIC    CODE     ---       _readEEone
      000000C1H   SFRSYM    DATA     BYTE      WDT_CONTR
      000000A8H.7 SFRSYM    DATA     BIT       EA
      000000A0H.5 SFRSYM    DATA     BIT       P25
      000000A0H.6 SFRSYM    DATA     BIT       P26
      00000096H   SFRSYM    DATA     BYTE      P2M0
      00000095H   SFRSYM    DATA     BYTE      P2M1
      0100A5D0H   SYMBOL    CODE     ---       IC_start
      01007F8BH   SYMBOL    CODE     ---       IC_stop
      0100A3FCH   SYMBOL    CODE     ---       _IC_WriteByte
      0100A5E7H   SYMBOL    CODE     ---       IC_ReadByte
      0100A458H   SYMBOL    CODE     ---       _writeEEone

      0100A5D0H   BLOCK     CODE     ---       LVL=0
      0100A5D0H   LINE      ---      ---       #33
      0100A5D0H   LINE      ---      ---       #34
      0100A5D0H   LINE      ---      ---       #35
      0100A5D6H   LINE      ---      ---       #36
      0100A5D8H   LINE      ---      ---       #37
      0100A5DAH   LINE      ---      ---       #38
      0100A5DCH   LINE      ---      ---       #39
      0100A5DFH   LINE      ---      ---       #40
      0100A5E1H   LINE      ---      ---       #41
      0100A5E4H   LINE      ---      ---       #42
      0100A5E6H   LINE      ---      ---       #43
      ---         BLOCKEND  ---      ---       LVL=0
LX51 LINKER/LOCATER V4.66.1.0                                                         03/30/2019  12:53:22  PAGE 93



      01007F8BH   BLOCK     CODE     ---       LVL=0
      01007F8BH   LINE      ---      ---       #49
      01007F8BH   LINE      ---      ---       #50
      01007F8BH   LINE      ---      ---       #51
      01007F8DH   LINE      ---      ---       #52
      01007F90H   LINE      ---      ---       #53
      01007F92H   LINE      ---      ---       #54
      01007F94H   LINE      ---      ---       #55
      01007F96H   LINE      ---      ---       #56
      01007F98H   LINE      ---      ---       #57
      01007F9AH   LINE      ---      ---       #58
      ---         BLOCKEND  ---      ---       LVL=0

      0100A3FCH   BLOCK     CODE     ---       LVL=0
      0100A3FCH   LINE      ---      ---       #67
      0100A401H   LINE      ---      ---       #68
      02000282H   SYMBOL    XDATA    BYTE      wdata
      0100A401H   BLOCK     CODE     NEAR LAB  LVL=1
      0100A401H   LINE      ---      ---       #70
      0100A403H   LINE      ---      ---       #71
      0100A406H   LINE      ---      ---       #72
      0100A406H   LINE      ---      ---       #73
      0100A408H   LINE      ---      ---       #74
      0100A40BH   LINE      ---      ---       #75
      0100A416H   LINE      ---      ---       #76
      0100A418H   LINE      ---      ---       #77
      0100A41BH   LINE      ---      ---       #78
      0100A41DH   LINE      ---      ---       #79
      0100A420H   LINE      ---      ---       #80
      0100A42BH   LINE      ---      ---       #82
      0100A42DH   LINE      ---      ---       #83
      0100A430H   LINE      ---      ---       #84
      0100A436H   LINE      ---      ---       #85
      0100A438H   LINE      ---      ---       #86
      0100A43BH   LINE      ---      ---       #87
      0100A440H   LINE      ---      ---       #88
      0100A443H   LINE      ---      ---       #89
      0100A443H   LINE      ---      ---       #90
      0100A453H   LINE      ---      ---       #91
      0100A453H   LINE      ---      ---       #92
      0100A455H   LINE      ---      ---       #93
      0100A457H   LINE      ---      ---       #94
      02000283H   SYMBOL    XDATA    BYTE      i
      ---         BLOCKEND  CODE     ---       LVL=1
      ---         BLOCKEND  CODE     ---       LVL=0

      0100A5E7H   BLOCK     CODE     ---       LVL=0
      0100A5E7H   LINE      ---      ---       #101
      0100A5E7H   LINE      ---      ---       #102
      0100A5E7H   BLOCK     CODE     NEAR LAB  LVL=1
      0100A5E7H   LINE      ---      ---       #104
      0100A5ECH   LINE      ---      ---       #105
      0100A5EEH   LINE      ---      ---       #106
      0100A5F0H   LINE      ---      ---       #107
      0100A5F2H   LINE      ---      ---       #108
      0100A5F8H   LINE      ---      ---       #109
      0100A5FCH   LINE      ---      ---       #110
      0100A5FCH   LINE      ---      ---       #111
      0100A5FEH   LINE      ---      ---       #112
      0100A601H   LINE      ---      ---       #113
      0100A609H   LINE      ---      ---       #114
      0100A60FH   LINE      ---      ---       #116
      0100A611H   LINE      ---      ---       #117
      0100A614H   LINE      ---      ---       #118
LX51 LINKER/LOCATER V4.66.1.0                                                         03/30/2019  12:53:22  PAGE 94


      0100A616H   LINE      ---      ---       #119
      0100A619H   LINE      ---      ---       #120
      0100A621H   LINE      ---      ---       #121
      0100A624H   LINE      ---      ---       #122
      0100A626H   LINE      ---      ---       #123
      0100A628H   LINE      ---      ---       #124
      0100A62AH   LINE      ---      ---       #125
      0100A62FH   LINE      ---      ---       #126
      02000282H   SYMBOL    XDATA    BYTE      i
      02000283H   SYMBOL    XDATA    BYTE      IC_data
      ---         BLOCKEND  CODE     ---       LVL=1
      ---         BLOCKEND  CODE     ---       LVL=0

      0100A382H   BLOCK     CODE     ---       LVL=0
      0100A382H   LINE      ---      ---       #133
      0200027CH   SYMBOL    XDATA    BYTE      addr
      0200027DH   SYMBOL    XDATA    BYTE      num
      0200027EH   SYMBOL    XDATA    ---       Data
      0100A385H   BLOCK     CODE     NEAR LAB  LVL=1
      0100A389H   LINE      ---      ---       #138
      0100A389H   LINE      ---      ---       #139
      0100A38BH   LINE      ---      ---       #140
      0100A38BH   LINE      ---      ---       #141
      0100A395H   LINE      ---      ---       #142
      0100A395H   LINE      ---      ---       #143
      0100A397H   LINE      ---      ---       #144
      0100A397H   LINE      ---      ---       #145
      0100A399H   LINE      ---      ---       #146
      0100A3A0H   LINE      ---      ---       #147
      0100A3A0H   LINE      ---      ---       #148
      0100A3A6H   LINE      ---      ---       #149
      0100A3A6H   LINE      ---      ---       #150
      0100A3B9H   LINE      ---      ---       #151
      0100A3B9H   LINE      ---      ---       #152
      0100A3CCH   LINE      ---      ---       #154
      0100A3CEH   LINE      ---      ---       #155
      0100A3D0H   LINE      ---      ---       #156
      0100A3D8H   LINE      ---      ---       #157
      0100A3EFH   LINE      ---      ---       #159
      0100A3F1H   LINE      ---      ---       #160
      0100A3F4H   LINE      ---      ---       #161
      0100A3F6H   LINE      ---      ---       #162
      0100A3F9H   LINE      ---      ---       #163
      0100A3FBH   LINE      ---      ---       #164
      02000281H   SYMBOL    XDATA    BYTE      i
      ---         BLOCKEND  CODE     ---       LVL=1
      ---         BLOCKEND  CODE     ---       LVL=0

      0100A458H   BLOCK     CODE     ---       LVL=0
      0100A45CH   LINE      ---      ---       #173
      02000274H   SYMBOL    XDATA    BYTE      addr
      02000275H   SYMBOL    XDATA    BYTE      num
      02000276H   SYMBOL    XDATA    ---       Data
      0100A45FH   BLOCK     CODE     NEAR LAB  LVL=1
      0100A463H   LINE      ---      ---       #179
      0100A463H   LINE      ---      ---       #180
      0100A465H   LINE      ---      ---       #181
      0100A465H   LINE      ---      ---       #182
      0100A46FH   LINE      ---      ---       #183
      0100A46FH   LINE      ---      ---       #184
      0100A471H   LINE      ---      ---       #185
      0100A471H   LINE      ---      ---       #186
      0100A47FH   LINE      ---      ---       #187
      0100A47FH   LINE      ---      ---       #188
      0100A48BH   LINE      ---      ---       #189
LX51 LINKER/LOCATER V4.66.1.0                                                         03/30/2019  12:53:22  PAGE 95


      0100A48BH   LINE      ---      ---       #190
      0100A491H   LINE      ---      ---       #191
      0100A491H   LINE      ---      ---       #192
      0100A499H   LINE      ---      ---       #193
      0100A49CH   LINE      ---      ---       #194
      0100A49FH   LINE      ---      ---       #195
      0100A4A1H   LINE      ---      ---       #196
      0100A4A3H   LINE      ---      ---       #198
      0100A4A5H   LINE      ---      ---       #199
      02000279H   SYMBOL    XDATA    BYTE      i
      ---         BLOCKEND  CODE     ---       LVL=1
      ---         BLOCKEND  CODE     ---       LVL=0

      0100A4A6H   BLOCK     CODE     ---       LVL=0
      0100A4A6H   LINE      ---      ---       #203
      0100A4A6H   LINE      ---      ---       #204
      0100A4A6H   BLOCK     CODE     NEAR LAB  LVL=1
      0100A4A6H   LINE      ---      ---       #209
      0100A4A8H   LINE      ---      ---       #210
      0100A4ADH   LINE      ---      ---       #212
      0100A4B1H   LINE      ---      ---       #213
      0100A4B5H   LINE      ---      ---       #214
      0100A4B5H   LINE      ---      ---       #215
      0100A4C0H   LINE      ---      ---       #216
      0100A4C0H   LINE      ---      ---       #217
      0100A4C5H   LINE      ---      ---       #218
      0100A4C7H   LINE      ---      ---       #219
      0100A4C7H   LINE      ---      ---       #220
      0100A4CEH   LINE      ---      ---       #221
      0100A4D1H   LINE      ---      ---       #222
      0100A4D7H   LINE      ---      ---       #223
      0100A4DFH   LINE      ---      ---       #225
      0100A4E5H   LINE      ---      ---       #226
      0100A4E5H   LINE      ---      ---       #227
      0100A4ECH   LINE      ---      ---       #228
      0100A4ECH   LINE      ---      ---       #229
      0100A4F2H   LINE      ---      ---       #230
      0100A500H   LINE      ---      ---       #233
      0100A504H   LINE      ---      ---       #234
      0100A50DH   LINE      ---      ---       #236
      0100A513H   LINE      ---      ---       #237
      0100A516H   LINE      ---      ---       #238
      0100A522H   LINE      ---      ---       #242
      0100A524H   LINE      ---      ---       #243
      0100A526H   LINE      ---      ---       #244
      0100A52AH   LINE      ---      ---       #245
      0100A52EH   LINE      ---      ---       #246
      0100A530H   LINE      ---      ---       #247
      0100A53CH   LINE      ---      ---       #251
      0100A551H   LINE      ---      ---       #261
      0100A551H   LINE      ---      ---       #262
      0100A551H   LINE      ---      ---       #263
      0100A553H   LINE      ---      ---       #264
      0100A558H   LINE      ---      ---       #265
      0200026AH   SYMBOL    XDATA    ---       Rdata
      02000271H   SYMBOL    XDATA    BYTE      i
      02000272H   SYMBOL    XDATA    BYTE      Init_State
      ---         BLOCKEND  CODE     ---       LVL=1
      ---         BLOCKEND  CODE     ---       LVL=0

      0100A56AH   BLOCK     CODE     ---       LVL=0
      0100A56AH   LINE      ---      ---       #269
      0200026AH   SYMBOL    XDATA    ---       p
      0100A56AH   BLOCK     CODE     NEAR LAB  LVL=1
      0100A573H   LINE      ---      ---       #276
LX51 LINKER/LOCATER V4.66.1.0                                                         03/30/2019  12:53:22  PAGE 96


      0100A57DH   LINE      ---      ---       #277
      0100A584H   LINE      ---      ---       #278
      0100A58BH   LINE      ---      ---       #279
      0100A595H   LINE      ---      ---       #284
      0100A59CH   LINE      ---      ---       #285
      0100A5A3H   LINE      ---      ---       #286
      0100A5B1H   LINE      ---      ---       #289
      0200026DH   SYMBOL    XDATA    ---       Rdata
      ---         BLOCKEND  CODE     ---       LVL=1
      ---         BLOCKEND  CODE     ---       LVL=0

      0100A326H   BLOCK     CODE     ---       LVL=0
      0100A326H   LINE      ---      ---       #295
      0100A32CH   LINE      ---      ---       #296
      02000272H   SYMBOL    XDATA    ---       p
      0100A32CH   BLOCK     CODE     NEAR LAB  LVL=1
      0100A32CH   LINE      ---      ---       #299
      0100A338H   LINE      ---      ---       #300
      0100A341H   LINE      ---      ---       #301
      0100A34DH   LINE      ---      ---       #302
      0100A357H   LINE      ---      ---       #303
      0100A361H   LINE      ---      ---       #320
      0100A370H   LINE      ---      ---       #322
      02000275H   SYMBOL    XDATA    ---       Rdata
      ---         BLOCKEND  CODE     ---       LVL=1
      ---         BLOCKEND  CODE     ---       LVL=0

      ---         MODULE    ---      ---       DS18B20
      020002CCH   PUBLIC    XDATA    BYTE      Read_18B20_Value2
      020002CBH   PUBLIC    XDATA    BYTE      Read_18B20_Value
      02000277H   PUBLIC    XDATA    BYTE      ?_DS18B20_CheckCrc?BYTE
      0100BD73H   PUBLIC    CODE     ---       _DS18B20_CheckCrc
      01007ABFH   PUBLIC    CODE     ---       _DS18B20_WriteByte
      01007A4AH   PUBLIC    CODE     ---       DS18B20_ReadByte
      00000090H   SFRSYM    DATA     BIT       P10
      000000B0H.7 SFRSYM    DATA     BIT       P37

      01007A4AH   BLOCK     CODE     ---       LVL=0
      01007A4AH   LINE      ---      ---       #15
      01007A4AH   LINE      ---      ---       #16
      01007A4AH   BLOCK     CODE     NEAR LAB  LVL=1
      01007A4AH   LINE      ---      ---       #20
      01007A4FH   LINE      ---      ---       #21
      01007A51H   LINE      ---      ---       #23
      01007A55H   LINE      ---      ---       #24
      01007A55H   LINE      ---      ---       #25
      01007A5CH   LINE      ---      ---       #26
      01007A61H   LINE      ---      ---       #27
      01007A63H   LINE      ---      ---       #28
      01007A65H   LINE      ---      ---       #29
      01007A69H   LINE      ---      ---       #33
      01007A6DH   LINE      ---      ---       #34
      01007A71H   LINE      ---      ---       #35
      01007A7BH   LINE      ---      ---       #36
      01007A85H   LINE      ---      ---       #37
      01007A8BH   LINE      ---      ---       #38
      01007A92H   LINE      ---      ---       #40
      02000277H   SYMBOL    XDATA    BYTE      i
      00000020H.7 SYMBOL    BIT      BIT       Wei
      00000021H.0 SYMBOL    BIT      BIT       Wei2
      ---         BLOCKEND  CODE     ---       LVL=1
      ---         BLOCKEND  CODE     ---       LVL=0

      01007A9BH   BLOCK     CODE     ---       LVL=0
      01007ABFH   LINE      ---      ---       #42
LX51 LINKER/LOCATER V4.66.1.0                                                         03/30/2019  12:53:22  PAGE 97


      01007AC4H   LINE      ---      ---       #43
      02000277H   SYMBOL    XDATA    BYTE      dat
      01007AC4H   BLOCK     CODE     NEAR LAB  LVL=1
      01007AC4H   LINE      ---      ---       #46
      01007AC7H   LINE      ---      ---       #47
      01007AC7H   LINE      ---      ---       #48
      01007AC9H   LINE      ---      ---       #49
      01007ACBH   LINE      ---      ---       #50
      01007ACDH   LINE      ---      ---       #51
      01007AD4H   LINE      ---      ---       #52
      01007AD4H   LINE      ---      ---       #53
      01007AD6H   LINE      ---      ---       #54
      01007AD8H   LINE      ---      ---       #55
      01007ADAH   LINE      ---      ---       #57
      01007ADAH   LINE      ---      ---       #58
      01007ADCH   LINE      ---      ---       #59
      01007ADEH   LINE      ---      ---       #60
      01007ADEH   LINE      ---      ---       #61
      01007AE2H   LINE      ---      ---       #65
      01007AECH   LINE      ---      ---       #68
      02000278H   SYMBOL    XDATA    BYTE      i
      ---         BLOCKEND  CODE     ---       LVL=1
      ---         BLOCKEND  CODE     ---       LVL=0

      0100BD73H   BLOCK     CODE     ---       LVL=0
      0100BD73H   LINE      ---      ---       #70
      0100BD7EH   LINE      ---      ---       #72
      02000277H   SYMBOL    XDATA    ---       Cdata
      0200027AH   SYMBOL    XDATA    BYTE      nbrOfBytes
      0200027BH   SYMBOL    XDATA    BYTE      checksum
      0100BD7EH   BLOCK     CODE     NEAR LAB  LVL=1
      0100BD7EH   LINE      ---      ---       #73
      0100BD83H   LINE      ---      ---       #76
      0100BD85H   LINE      ---      ---       #78
      0100BD89H   LINE      ---      ---       #79
      0100BD94H   LINE      ---      ---       #80
      0100BD94H   LINE      ---      ---       #81
      0100BDAAH   LINE      ---      ---       #82
      0100BDADH   LINE      ---      ---       #83
      0100BDAFH   LINE      ---      ---       #84
      0100BDAFH   LINE      ---      ---       #85
      0100BDBBH   LINE      ---      ---       #86
      0100BDBBH   LINE      ---      ---       #87
      0100BDBFH   LINE      ---      ---       #88
      0100BDC3H   LINE      ---      ---       #89
      0100BDC6H   LINE      ---      ---       #90
      0100BDC8H   LINE      ---      ---       #91
      0100BDCFH   LINE      ---      ---       #92
      0100BDD6H   LINE      ---      ---       #93
      0100BDDBH   LINE      ---      ---       #95
      0100BDDEH   LINE      ---      ---       #96
      0100BDE7H   LINE      ---      ---       #97
      0100BDE7H   LINE      ---      ---       #98
      0100BDE9H   LINE      ---      ---       #99
      0100BDE9H   LINE      ---      ---       #100
      0100BDE9H   LINE      ---      ---       #101
      0200027CH   SYMBOL    XDATA    BYTE      crc
      00000005H   SYMBOL    DATA     BYTE      byteCtr
      00000007H   SYMBOL    DATA     BYTE      bit8
      0200027DH   SYMBOL    XDATA    BYTE      crc_1byte
      ---         BLOCKEND  CODE     ---       LVL=1
      ---         BLOCKEND  CODE     ---       LVL=0

      ---         MODULE    ---      ---       KEY_DATAS
      02000268H   PUBLIC    XDATA    BYTE      Key_State_Present
LX51 LINKER/LOCATER V4.66.1.0                                                         03/30/2019  12:53:22  PAGE 98


      02000261H   PUBLIC    XDATA    ---       Key_Mute
      02000253H   PUBLIC    XDATA    ---       Key_Mute_Element
      02000252H   PUBLIC    XDATA    BYTE      Key_Mute_Tik
      0200024BH   PUBLIC    XDATA    ---       Key_OK
      0200023DH   PUBLIC    XDATA    ---       Key_OK_Element
      0200023CH   PUBLIC    XDATA    BYTE      Key_OK_Tik
      02000235H   PUBLIC    XDATA    ---       Key_Down
      02000227H   PUBLIC    XDATA    ---       Key_Down_Element
      02000226H   PUBLIC    XDATA    BYTE      Key_Down_Tik
      0200021FH   PUBLIC    XDATA    ---       Key_UP
      02000211H   PUBLIC    XDATA    ---       Key_UP_Element
      02000210H   PUBLIC    XDATA    BYTE      Key_UP_Tik
      0100896DH   PUBLIC    CODE     ---       Key_Mute_TikFunc
      01008960H   PUBLIC    CODE     ---       Key_OK_TikFunc
      01008953H   PUBLIC    CODE     ---       Key_Down_TikFunc
      01008946H   PUBLIC    CODE     ---       Key_UP_TikFunc
      0100C2C7H   SYMBOL    CODE     ---       KeyUpPressShortAction
      0100C2CEH   SYMBOL    CODE     ---       KeyUpPressLongFirstAction
      0100C2D5H   SYMBOL    CODE     ---       KeyUpPressLongRepeatAction
      0100C2DCH   SYMBOL    CODE     ---       KeyDownPressShortAction
      0100C2E3H   SYMBOL    CODE     ---       KeyDownPressLongFirstAction
      0100C2EAH   SYMBOL    CODE     ---       KeyDownPressLongRepeatAction
      0100C2F1H   SYMBOL    CODE     ---       KeyOKPressShortAction
      0100C2F8H   SYMBOL    CODE     ---       KeyOKPressLongFirstAction
      0100C2FFH   SYMBOL    CODE     ---       KeyOKPressLongRepeatAction
      0100C278H   SYMBOL    CODE     ---       KeyMutePressShortAction
      0100C306H   SYMBOL    CODE     ---       KeyMutePressLongFirstAction
      0100C30DH   SYMBOL    CODE     ---       KeyMutePressLongRepeatAction

      01008946H   BLOCK     CODE     ---       LVL=0
      01008946H   LINE      ---      ---       #34
      01008946H   LINE      ---      ---       #35
      01008946H   LINE      ---      ---       #36
      0100894FH   LINE      ---      ---       #37
      0100894FH   LINE      ---      ---       #38
      01008952H   LINE      ---      ---       #39
      01008952H   LINE      ---      ---       #40
      ---         BLOCKEND  ---      ---       LVL=0

      0100C2C7H   BLOCK     CODE     ---       LVL=0
      0100C2C7H   LINE      ---      ---       #42
      0100C2C7H   LINE      ---      ---       #43
      0100C2C7H   LINE      ---      ---       #44
      0100C2CDH   LINE      ---      ---       #45
      ---         BLOCKEND  ---      ---       LVL=0

      0100C2CEH   BLOCK     CODE     ---       LVL=0
      0100C2CEH   LINE      ---      ---       #47
      0100C2CEH   LINE      ---      ---       #48
      0100C2CEH   LINE      ---      ---       #49
      0100C2D4H   LINE      ---      ---       #50
      ---         BLOCKEND  ---      ---       LVL=0

      0100C2D5H   BLOCK     CODE     ---       LVL=0
      0100C2D5H   LINE      ---      ---       #52
      0100C2D5H   LINE      ---      ---       #53
      0100C2D5H   LINE      ---      ---       #54
      0100C2DBH   LINE      ---      ---       #55
      ---         BLOCKEND  ---      ---       LVL=0

      01008953H   BLOCK     CODE     ---       LVL=0
      01008953H   LINE      ---      ---       #85
      01008953H   LINE      ---      ---       #86
      01008953H   LINE      ---      ---       #87
      0100895CH   LINE      ---      ---       #88
LX51 LINKER/LOCATER V4.66.1.0                                                         03/30/2019  12:53:22  PAGE 99


      0100895CH   LINE      ---      ---       #89
      0100895FH   LINE      ---      ---       #90
      0100895FH   LINE      ---      ---       #91
      ---         BLOCKEND  ---      ---       LVL=0

      0100C2DCH   BLOCK     CODE     ---       LVL=0
      0100C2DCH   LINE      ---      ---       #94
      0100C2DCH   LINE      ---      ---       #95
      0100C2DCH   LINE      ---      ---       #96
      0100C2E2H   LINE      ---      ---       #97
      ---         BLOCKEND  ---      ---       LVL=0

      0100C2E3H   BLOCK     CODE     ---       LVL=0
      0100C2E3H   LINE      ---      ---       #99
      0100C2E3H   LINE      ---      ---       #100
      0100C2E3H   LINE      ---      ---       #101
      0100C2E9H   LINE      ---      ---       #102
      ---         BLOCKEND  ---      ---       LVL=0

      0100C2EAH   BLOCK     CODE     ---       LVL=0
      0100C2EAH   LINE      ---      ---       #104
      0100C2EAH   LINE      ---      ---       #105
      0100C2EAH   LINE      ---      ---       #106
      0100C2F0H   LINE      ---      ---       #107
      ---         BLOCKEND  ---      ---       LVL=0

      01008960H   BLOCK     CODE     ---       LVL=0
      01008960H   LINE      ---      ---       #137
      01008960H   LINE      ---      ---       #138
      01008960H   LINE      ---      ---       #139
      01008969H   LINE      ---      ---       #140
      01008969H   LINE      ---      ---       #141
      0100896CH   LINE      ---      ---       #142
      0100896CH   LINE      ---      ---       #143
      ---         BLOCKEND  ---      ---       LVL=0

      0100C2F1H   BLOCK     CODE     ---       LVL=0
      0100C2F1H   LINE      ---      ---       #146
      0100C2F1H   LINE      ---      ---       #147
      0100C2F1H   LINE      ---      ---       #148
      0100C2F7H   LINE      ---      ---       #149
      ---         BLOCKEND  ---      ---       LVL=0

      0100C2F8H   BLOCK     CODE     ---       LVL=0
      0100C2F8H   LINE      ---      ---       #151
      0100C2F8H   LINE      ---      ---       #152
      0100C2F8H   LINE      ---      ---       #153
      0100C2FEH   LINE      ---      ---       #154
      ---         BLOCKEND  ---      ---       LVL=0

      0100C2FFH   BLOCK     CODE     ---       LVL=0
      0100C2FFH   LINE      ---      ---       #156
      0100C2FFH   LINE      ---      ---       #157
      0100C2FFH   LINE      ---      ---       #158
      0100C305H   LINE      ---      ---       #159
      ---         BLOCKEND  ---      ---       LVL=0

      0100896DH   BLOCK     CODE     ---       LVL=0
      0100896DH   LINE      ---      ---       #190
      0100896DH   LINE      ---      ---       #191
      0100896DH   LINE      ---      ---       #192
      01008976H   LINE      ---      ---       #193
      01008976H   LINE      ---      ---       #194
      01008979H   LINE      ---      ---       #195
      01008979H   LINE      ---      ---       #196
LX51 LINKER/LOCATER V4.66.1.0                                                         03/30/2019  12:53:22  PAGE 100


      ---         BLOCKEND  ---      ---       LVL=0

      0100C278H   BLOCK     CODE     ---       LVL=0
      0100C278H   LINE      ---      ---       #199
      0100C278H   LINE      ---      ---       #200
      0100C278H   LINE      ---      ---       #201
      0100C27EH   LINE      ---      ---       #203
      0100C284H   LINE      ---      ---       #204
      0100C284H   LINE      ---      ---       #205
      0100C28AH   LINE      ---      ---       #206
      0100C28AH   LINE      ---      ---       #207
      0100C28CH   LINE      ---      ---       #208
      0100C28EH   LINE      ---      ---       #209
      0100C28EH   LINE      ---      ---       #211
      0100C28EH   LINE      ---      ---       #212
      0100C291H   LINE      ---      ---       #214
      0100C291H   LINE      ---      ---       #215
      0100C291H   LINE      ---      ---       #216
      ---         BLOCKEND  ---      ---       LVL=0

      0100C306H   BLOCK     CODE     ---       LVL=0
      0100C306H   LINE      ---      ---       #218
      0100C306H   LINE      ---      ---       #219
      0100C306H   LINE      ---      ---       #220
      0100C30CH   LINE      ---      ---       #221
      ---         BLOCKEND  ---      ---       LVL=0

      0100C30DH   BLOCK     CODE     ---       LVL=0
      0100C30DH   LINE      ---      ---       #223
      0100C30DH   LINE      ---      ---       #224
      0100C30DH   LINE      ---      ---       #225
      0100C313H   LINE      ---      ---       #226
      ---         BLOCKEND  ---      ---       LVL=0

      ---         MODULE    ---      ---       KEY_MULTIFUN
      020002CEH   PUBLIC    XDATA    BYTE      step_step_times
      02000269H   PUBLIC    XDATA    BYTE      ?Key_Multifun?BYTE
      01008A7CH   PUBLIC    CODE     ---       Key_Multifun

      01008A76H   BLOCK     CODE     ---       LVL=0
      01008A7CH   LINE      ---      ---       #6
      01008A7CH   LINE      ---      ---       #7
      01008A7CH   LINE      ---      ---       #8
      01008A91H   LINE      ---      ---       #9
      01008A91H   LINE      ---      ---       #11
      01008A91H   LINE      ---      ---       #12
      01008A9DH   LINE      ---      ---       #13
      01008A9DH   LINE      ---      ---       #14
      01008A9FH   LINE      ---      ---       #15
      01008A9FH   LINE      ---      ---       #16
      01008AA1H   LINE      ---      ---       #18
      01008AA1H   LINE      ---      ---       #19
      01008AA9H   LINE      ---      ---       #21
      01008AA9H   LINE      ---      ---       #22
      01008AA9H   LINE      ---      ---       #23
      01008AA9H   LINE      ---      ---       #24
      01008AB2H   LINE      ---      ---       #25
      01008AB2H   LINE      ---      ---       #26
      01008AB8H   LINE      ---      ---       #28
      01008ABBH   LINE      ---      ---       #29
      01008ABDH   LINE      ---      ---       #30
      01008AC6H   LINE      ---      ---       #31
      01008AC6H   LINE      ---      ---       #32
      01008ADFH   LINE      ---      ---       #33
      01008ADFH   LINE      ---      ---       #34
LX51 LINKER/LOCATER V4.66.1.0                                                         03/30/2019  12:53:22  PAGE 101


      01008AE7H   LINE      ---      ---       #36
      01008AEAH   LINE      ---      ---       #37
      01008AECH   LINE      ---      ---       #39
      01008AECH   LINE      ---      ---       #40
      01008AEEH   LINE      ---      ---       #41
      01008AEEH   LINE      ---      ---       #42
      01008AF0H   LINE      ---      ---       #44
      01008AF2H   LINE      ---      ---       #45
      01008AF4H   LINE      ---      ---       #46
      01008AF4H   LINE      ---      ---       #47
      01008AFDH   LINE      ---      ---       #48
      01008AFDH   LINE      ---      ---       #49
      01008B03H   LINE      ---      ---       #51
      01008B07H   LINE      ---      ---       #52
      01008B08H   LINE      ---      ---       #53
      01008B0FH   LINE      ---      ---       #54
      01008B0FH   LINE      ---      ---       #55
      01008B2CH   LINE      ---      ---       #59
      01008B2CH   LINE      ---      ---       #61
      01008B39H   LINE      ---      ---       #62
      01008B3DH   LINE      ---      ---       #65
      01008B46H   LINE      ---      ---       #66
      01008B46H   LINE      ---      ---       #67
      01008B46H   LINE      ---      ---       #70
      01008B4BH   LINE      ---      ---       #71
      01008B4BH   LINE      ---      ---       #72
      01008B4BH   LINE      ---      ---       #73
      02000269H   SYMBOL    XDATA    ---       Element
      02000277H   SYMBOL    XDATA    ---       Variate
      ---         BLOCKEND  ---      ---       LVL=0

      ---         MODULE    ---      ---       GUI
      020002ABH   PUBLIC    XDATA    BYTE      Display_Temp_Kind
      01009DD3H   PUBLIC    CODE     ---       HmiScreenSaverModeFunc
      01008933H   PUBLIC    CODE     ---       HmiScreenSaverMode_Tik_Cnt
      0100A024H   PUBLIC    CODE     ---       HmiSetInExpFunc
      01008CE5H   PUBLIC    CODE     ---       HmiSetTimeFunc
      010095C6H   PUBLIC    CODE     ---       HmiSetTempChamberFunc
      01009403H   PUBLIC    CODE     ---       HmiSetTempPatientFunc
      01009812H   PUBLIC    CODE     ---       HmiRunningFunc
      010068A3H   PUBLIC    CODE     ---       HmiNon_InvasiveSelFunc
      01008987H   PUBLIC    CODE     ---       HmiNon_InvasiveSel_Tik_Cnt
      01009029H   PUBLIC    CODE     ---       HmiFactoryDefaultFunc
      01008994H   PUBLIC    CODE     ---       HmiFactoryDefault_Tik_Cnt
      010065FBH   PUBLIC    CODE     ---       HmiPostFunc
      0100897AH   PUBLIC    CODE     ---       HmiPostFunc_Tik_Cnt
      01006C5FH   PUBLIC    CODE     ---       HmiServiceModeFunc
      010063C8H   PUBLIC    CODE     ---       _HmiEnterToWorkStateFunc
      01008BA5H   PUBLIC    CODE     ---       _DisPlayTime
      000000C1H   SFRSYM    DATA     BYTE      WDT_CONTR
      000000A0H.1 SFRSYM    DATA     BIT       P21
      000000A0H.2 SFRSYM    DATA     BIT       P22
      000000A0H.3 SFRSYM    DATA     BIT       P23
      000000C0H   SFRSYM    DATA     BIT       P40
      020002ACH   SYMBOL    XDATA    BYTE      Tik_POST_Tick_100mS
      020002ADH   SYMBOL    XDATA    BYTE      Tik_HmiFac_Tick_100mS_10S
      020002AEH   SYMBOL    XDATA    BYTE      OK_not_Pressed_flag
      020002AFH   SYMBOL    XDATA    BYTE      HmiFac_Mode_Changed
      020002B0H   SYMBOL    XDATA    BYTE      Tik_HmiNon_InvasiveSel_Tick_100mS
      020002B1H   SYMBOL    XDATA    WORD      Tik_ScreenSaver_Tick_100mS
      020002B3H   SYMBOL    XDATA    WORD      Remeber_Temp_Value
      01009D86H   SYMBOL    CODE     ---       _Display_SET_Temp
      0100C314H   SYMBOL    CODE     ---       EnterSetTime
      0100A1FBH   SYMBOL    CODE     ---       EnterSetInExp
      0100C320H   SYMBOL    CODE     ---       Date_Is_Correct
LX51 LINKER/LOCATER V4.66.1.0                                                         03/30/2019  12:53:22  PAGE 102


      0100A0F8H   SYMBOL    CODE     ---       _Display_In_Exp_Ratio
      020002B5H   SYMBOL    XDATA    BYTE      Tik_HmiFac_Tick_100mS_OK_flash
      020002B6H   SYMBOL    XDATA    BYTE      SetTimeKind
      020002B7H   SYMBOL    XDATA    ---       TempTime
      020002BEH   SYMBOL    XDATA    BYTE      In_Exp_Ratio_temp

      0100A0F8H   BLOCK     CODE     ---       LVL=0
      0100A0F8H   LINE      ---      ---       #26
      0100A0FDH   LINE      ---      ---       #27
      0100A0FDH   LINE      ---      ---       #28
      0100A100H   LINE      ---      ---       #29
      0100A100H   LINE      ---      ---       #30
      0100A10EH   LINE      ---      ---       #32
      0100A114H   LINE      ---      ---       #33
      0100A118H   LINE      ---      ---       #34
      0100A11CH   LINE      ---      ---       #35
      0100A129H   LINE      ---      ---       #36
      0100A129H   LINE      ---      ---       #37
      0100A12CH   LINE      ---      ---       #38
      0100A12EH   LINE      ---      ---       #39
      0100A130H   LINE      ---      ---       #41
      0100A130H   LINE      ---      ---       #42
      0100A133H   LINE      ---      ---       #43
      0100A138H   LINE      ---      ---       #44
      0100A138H   LINE      ---      ---       #45
      0100A13DH   LINE      ---      ---       #46
      0100A149H   LINE      ---      ---       #47
      0100A14BH   LINE      ---      ---       #49
      0100A14BH   LINE      ---      ---       #50
      02000271H   SYMBOL    XDATA    BYTE      Dis
      00000005H   SYMBOL    DATA     BYTE      Dp_en
      ---         BLOCKEND  ---      ---       LVL=0

      01008BA5H   BLOCK     CODE     ---       LVL=0
      01008BA5H   LINE      ---      ---       #56
      01008BAAH   LINE      ---      ---       #57
      0200026AH   SYMBOL    XDATA    ---       TempTime
      0200026DH   SYMBOL    XDATA    BYTE      TimeKind
      01008BAAH   BLOCK     CODE     NEAR LAB  LVL=1
      01008BAAH   LINE      ---      ---       #62
      01008BB0H   LINE      ---      ---       #63
      01008BB5H   LINE      ---      ---       #64
      01008BB5H   LINE      ---      ---       #65
      01008BC4H   LINE      ---      ---       #66
      01008BDEH   LINE      ---      ---       #69
      01008BE0H   LINE      ---      ---       #70
      01008BE8H   LINE      ---      ---       #71
      01008BE8H   LINE      ---      ---       #72
      01008C04H   LINE      ---      ---       #76
      01008C06H   LINE      ---      ---       #77
      01008C0EH   LINE      ---      ---       #78
      01008C0EH   LINE      ---      ---       #79
      01008C29H   LINE      ---      ---       #81
      01008C2BH   LINE      ---      ---       #82
      01008C33H   LINE      ---      ---       #83
      01008C33H   LINE      ---      ---       #84
      01008C4DH   LINE      ---      ---       #88
      01008C4FH   LINE      ---      ---       #89
      01008C57H   LINE      ---      ---       #90
      01008C57H   LINE      ---      ---       #91
      01008C71H   LINE      ---      ---       #95
      01008C73H   LINE      ---      ---       #96
      01008C7BH   LINE      ---      ---       #97
      01008C7BH   LINE      ---      ---       #98
      01008C94H   LINE      ---      ---       #102
LX51 LINKER/LOCATER V4.66.1.0                                                         03/30/2019  12:53:22  PAGE 103


      01008C94H   LINE      ---      ---       #103
      0200026EH   SYMBOL    XDATA    BYTE      i
      0200026FH   SYMBOL    XDATA    BYTE      color
      ---         BLOCKEND  CODE     ---       LVL=1
      ---         BLOCKEND  CODE     ---       LVL=0

      01009D86H   BLOCK     CODE     ---       LVL=0
      01009D86H   LINE      ---      ---       #106
      01009D88H   LINE      ---      ---       #107
      01009D88H   LINE      ---      ---       #108
      01009D8BH   LINE      ---      ---       #110
      01009DA9H   LINE      ---      ---       #113
      02000271H   SYMBOL    XDATA    WORD      Temp
      ---         BLOCKEND  ---      ---       LVL=0

      010063C4H   BLOCK     CODE     ---       LVL=0
      010063C8H   LINE      ---      ---       #118
      010063C8H   LINE      ---      ---       #119
      010063C8H   LINE      ---      ---       #120
      010063EBH   LINE      ---      ---       #121
      010063EBH   LINE      ---      ---       #122
      010063EBH   LINE      ---      ---       #123
      010063EBH   LINE      ---      ---       #124
      010063EBH   LINE      ---      ---       #125
      010063EBH   LINE      ---      ---       #126
      010063EBH   LINE      ---      ---       #128
      010063EDH   LINE      ---      ---       #129
      010063EDH   LINE      ---      ---       #130
      010063EDH   LINE      ---      ---       #131
      010063EDH   LINE      ---      ---       #132
      010063F2H   LINE      ---      ---       #133
      010063F4H   LINE      ---      ---       #134
      010063F6H   LINE      ---      ---       #135
      010063FDH   LINE      ---      ---       #136
      010063FDH   LINE      ---      ---       #137
      010063FDH   LINE      ---      ---       #138
      010063FDH   LINE      ---      ---       #139
      010063FDH   LINE      ---      ---       #140
      01006402H   LINE      ---      ---       #141
      01006404H   LINE      ---      ---       #144
      01006404H   LINE      ---      ---       #145
      01006406H   LINE      ---      ---       #147
      0100640BH   LINE      ---      ---       #148
      01006410H   LINE      ---      ---       #150
      01006412H   LINE      ---      ---       #151
      01006426H   LINE      ---      ---       #152
      0100642AH   LINE      ---      ---       #155
      0100642AH   LINE      ---      ---       #156
      0100647EH   LINE      ---      ---       #165
      01006480H   LINE      ---      ---       #166
      01006488H   LINE      ---      ---       #169
      0100649EH   LINE      ---      ---       #173
      010064B4H   LINE      ---      ---       #174
      010064C3H   LINE      ---      ---       #178
      010064DCH   LINE      ---      ---       #181
      010064DCH   LINE      ---      ---       #182
      010064DCH   LINE      ---      ---       #183
      010064DCH   LINE      ---      ---       #185
      010064DCH   LINE      ---      ---       #186
      010064DCH   LINE      ---      ---       #187
      010064E5H   LINE      ---      ---       #191
      010064EAH   LINE      ---      ---       #192
      010064F8H   LINE      ---      ---       #195
      010064FAH   LINE      ---      ---       #196
      010064FBH   LINE      ---      ---       #197
LX51 LINKER/LOCATER V4.66.1.0                                                         03/30/2019  12:53:22  PAGE 104


      010064FBH   LINE      ---      ---       #199
      010064FBH   LINE      ---      ---       #200
      010064FBH   LINE      ---      ---       #202
      010064FDH   LINE      ---      ---       #203
      01006500H   LINE      ---      ---       #204
      01006505H   LINE      ---      ---       #205
      0100650AH   LINE      ---      ---       #206
      0100650CH   LINE      ---      ---       #207
      01006513H   LINE      ---      ---       #208
      01006514H   LINE      ---      ---       #209
      01006514H   LINE      ---      ---       #211
      01006514H   LINE      ---      ---       #212
      01006514H   LINE      ---      ---       #213
      01006517H   LINE      ---      ---       #214
      01006517H   LINE      ---      ---       #215
      01006517H   LINE      ---      ---       #217
      01006519H   LINE      ---      ---       #218
      01006519H   LINE      ---      ---       #220
      01006519H   LINE      ---      ---       #221
      01006519H   LINE      ---      ---       #222
      0100651FH   LINE      ---      ---       #223
      01006525H   LINE      ---      ---       #224
      0100652BH   LINE      ---      ---       #225
      0100652BH   LINE      ---      ---       #226
      0100652BH   LINE      ---      ---       #228
      0100652BH   LINE      ---      ---       #229
      0100652BH   LINE      ---      ---       #230
      0100652EH   LINE      ---      ---       #231
      0100652EH   LINE      ---      ---       #232
      0100652EH   LINE      ---      ---       #234
      0100652EH   LINE      ---      ---       #235
      0100652EH   LINE      ---      ---       #237
      01006531H   LINE      ---      ---       #238
      01006531H   LINE      ---      ---       #239
      01006531H   LINE      ---      ---       #240
      01006531H   LINE      ---      ---       #241
      00000007H   SYMBOL    DATA     BYTE      State
      ---         BLOCKEND  ---      ---       LVL=0

      01006C5FH   BLOCK     CODE     ---       LVL=0
      01006C5FH   LINE      ---      ---       #244
      01006C5FH   LINE      ---      ---       #245
      01006C5FH   BLOCK     CODE     NEAR LAB  LVL=1
      01006C5FH   LINE      ---      ---       #248
      01006C65H   LINE      ---      ---       #249
      01006C65H   LINE      ---      ---       #250
      01006C67H   LINE      ---      ---       #251
      01006C79H   LINE      ---      ---       #252
      01006C7EH   LINE      ---      ---       #253
      01006C9FH   LINE      ---      ---       #255
      01006CA1H   LINE      ---      ---       #256
      01006CA3H   LINE      ---      ---       #257
      01006CABH   LINE      ---      ---       #258
      01006CABH   LINE      ---      ---       #259
      01006CB5H   LINE      ---      ---       #260
      01006CB5H   LINE      ---      ---       #261
      01006CBBH   LINE      ---      ---       #262
      01006CCCH   LINE      ---      ---       #263
      01006CD2H   LINE      ---      ---       #264
      01006CE9H   LINE      ---      ---       #266
      01006CE9H   LINE      ---      ---       #267
      01006CEBH   LINE      ---      ---       #268
      01006CF3H   LINE      ---      ---       #269
      01006CF3H   LINE      ---      ---       #270
      01006CFDH   LINE      ---      ---       #271
LX51 LINKER/LOCATER V4.66.1.0                                                         03/30/2019  12:53:22  PAGE 105


      01006CFDH   LINE      ---      ---       #272
      01006D03H   LINE      ---      ---       #273
      01006D11H   LINE      ---      ---       #274
      01006D17H   LINE      ---      ---       #275
      01006D2EH   LINE      ---      ---       #277
      01006D2EH   LINE      ---      ---       #278
      01006D30H   LINE      ---      ---       #279
      01006D38H   LINE      ---      ---       #280
      01006D38H   LINE      ---      ---       #281
      01006D42H   LINE      ---      ---       #282
      01006D42H   LINE      ---      ---       #283
      01006D48H   LINE      ---      ---       #284
      01006D56H   LINE      ---      ---       #285
      01006D5CH   LINE      ---      ---       #286
      01006D7CH   LINE      ---      ---       #288
      01006D7CH   LINE      ---      ---       #289
      01006D7EH   LINE      ---      ---       #290
      01006D86H   LINE      ---      ---       #291
      01006D86H   LINE      ---      ---       #292
      01006D8DH   LINE      ---      ---       #293
      01006D8DH   LINE      ---      ---       #295
      01006D93H   LINE      ---      ---       #296
      01006D99H   LINE      ---      ---       #298
      01006DB5H   LINE      ---      ---       #302
      01006DBBH   LINE      ---      ---       #303
      01006DBEH   LINE      ---      ---       #304
      01006DC5H   LINE      ---      ---       #305
      01006DD0H   LINE      ---      ---       #315
      01006DD0H   LINE      ---      ---       #316
      01006DDDH   LINE      ---      ---       #317
      01006DDFH   LINE      ---      ---       #319
      01006DDFH   LINE      ---      ---       #320
      01006DECH   LINE      ---      ---       #321
      01006DF1H   LINE      ---      ---       #322
      01006DF1H   LINE      ---      ---       #324
      01006DF4H   LINE      ---      ---       #325
      01006DF4H   LINE      ---      ---       #326
      01006DF6H   LINE      ---      ---       #327
      01006E00H   LINE      ---      ---       #328
      01006E00H   LINE      ---      ---       #329
      01006E06H   LINE      ---      ---       #330
      01006E06H   LINE      ---      ---       #332
      01006E1FH   LINE      ---      ---       #333
      01006E21H   LINE      ---      ---       #334
      01006E2BH   LINE      ---      ---       #335
      01006E2BH   LINE      ---      ---       #336
      01006E31H   LINE      ---      ---       #338
      01006E33H   LINE      ---      ---       #339
      01006E36H   LINE      ---      ---       #340
      01006E3EH   LINE      ---      ---       #341
      01006E51H   LINE      ---      ---       #343
      01006E5DH   LINE      ---      ---       #344
      01006E6AH   LINE      ---      ---       #345
      01006E6FH   LINE      ---      ---       #346
      01006E7BH   LINE      ---      ---       #347
      01006E98H   LINE      ---      ---       #350
      01006EA5H   LINE      ---      ---       #351
      01006EB0H   LINE      ---      ---       #352
      01006EBDH   LINE      ---      ---       #353
      01006EBFH   LINE      ---      ---       #354
      01006EBFH   LINE      ---      ---       #355
      01006EC1H   LINE      ---      ---       #356
      01006EC9H   LINE      ---      ---       #357
      01006EC9H   LINE      ---      ---       #358
      01006ECCH   LINE      ---      ---       #360
LX51 LINKER/LOCATER V4.66.1.0                                                         03/30/2019  12:53:22  PAGE 106


      01006ECFH   LINE      ---      ---       #361
      01006ECFH   LINE      ---      ---       #362
      01006EDDH   LINE      ---      ---       #363
      01006EDDH   LINE      ---      ---       #364
      01006EE3H   LINE      ---      ---       #365
      01006EE5H   LINE      ---      ---       #367
      01006EE5H   LINE      ---      ---       #368
      01006EEAH   LINE      ---      ---       #369
      01006EEAH   LINE      ---      ---       #370
      01006EF8H   LINE      ---      ---       #371
      01006EF8H   LINE      ---      ---       #372
      01006F01H   LINE      ---      ---       #373
      01006F0AH   LINE      ---      ---       #374
      01006F0CH   LINE      ---      ---       #376
      01006F0CH   LINE      ---      ---       #377
      01006F0DH   LINE      ---      ---       #378
      01006F0DH   LINE      ---      ---       #379
      01006F0DH   LINE      ---      ---       #380
      01006F0FH   LINE      ---      ---       #382
      01006F0FH   LINE      ---      ---       #383
      01006F14H   LINE      ---      ---       #384
      01006F1AH   LINE      ---      ---       #385
      01006F20H   LINE      ---      ---       #386
      01006F20H   LINE      ---      ---       #388
      01006F26H   LINE      ---      ---       #389
      01006F26H   LINE      ---      ---       #390
      01006F2CH   LINE      ---      ---       #391
      01006F31H   LINE      ---      ---       #392
      01006F35H   LINE      ---      ---       #393
      01006F35H   LINE      ---      ---       #394
      01006F35H   LINE      ---      ---       #395
      01006F3AH   LINE      ---      ---       #396
      0200029FH   SYMBOL    XDATA    BYTE      ServiceMode_Step
      ---         BLOCKEND  CODE     ---       LVL=1
      ---         BLOCKEND  CODE     ---       LVL=0

      0100897AH   BLOCK     CODE     ---       LVL=0
      0100897AH   LINE      ---      ---       #399
      0100897AH   LINE      ---      ---       #400
      0100897AH   LINE      ---      ---       #401
      01008986H   LINE      ---      ---       #402
      ---         BLOCKEND  ---      ---       LVL=0

      010065FBH   BLOCK     CODE     ---       LVL=0
      010065FBH   LINE      ---      ---       #404
      010065FBH   LINE      ---      ---       #405
      010065FBH   BLOCK     CODE     NEAR LAB  LVL=1
      010065FBH   LINE      ---      ---       #410
      01006601H   LINE      ---      ---       #411
      01006601H   LINE      ---      ---       #413
      01006609H   LINE      ---      ---       #414
      0100660DH   LINE      ---      ---       #415
      0100660DH   LINE      ---      ---       #416
      01006613H   LINE      ---      ---       #417
      01006615H   LINE      ---      ---       #418
      0100661CH   LINE      ---      ---       #419
      01006645H   LINE      ---      ---       #422
      01006648H   LINE      ---      ---       #423
      0100664AH   LINE      ---      ---       #424
      0100664BH   LINE      ---      ---       #425
      01006656H   LINE      ---      ---       #426
      01006656H   LINE      ---      ---       #427
      01006658H   LINE      ---      ---       #428
      01006664H   LINE      ---      ---       #431
      01006674H   LINE      ---      ---       #432
LX51 LINKER/LOCATER V4.66.1.0                                                         03/30/2019  12:53:22  PAGE 107


      01006676H   LINE      ---      ---       #433
      0100667DH   LINE      ---      ---       #434
      0100667DH   LINE      ---      ---       #440
      01006685H   LINE      ---      ---       #441
      01006685H   LINE      ---      ---       #443
      01006690H   LINE      ---      ---       #444
      01006690H   LINE      ---      ---       #445
      01006696H   LINE      ---      ---       #446
      01006696H   LINE      ---      ---       #447
      01006697H   LINE      ---      ---       #448
      0100669CH   LINE      ---      ---       #449
      0100669CH   LINE      ---      ---       #451
      010066A7H   LINE      ---      ---       #453
      010066A7H   LINE      ---      ---       #454
      010066A7H   LINE      ---      ---       #455
      010066A9H   LINE      ---      ---       #457
      010066A9H   LINE      ---      ---       #458
      010066AFH   LINE      ---      ---       #459
      010066B5H   LINE      ---      ---       #460
      010066B5H   LINE      ---      ---       #461
      010066B5H   LINE      ---      ---       #462
      010066BDH   LINE      ---      ---       #463
      010066BDH   LINE      ---      ---       #465
      010066C8H   LINE      ---      ---       #474
      010066C8H   LINE      ---      ---       #475
      010066CEH   LINE      ---      ---       #476
      010066CFH   LINE      ---      ---       #478
      010066CFH   LINE      ---      ---       #479
      010066D5H   LINE      ---      ---       #480
      010066DBH   LINE      ---      ---       #481
      010066DBH   LINE      ---      ---       #482
      010066DBH   LINE      ---      ---       #483
      010066DBH   LINE      ---      ---       #484
      010066DDH   LINE      ---      ---       #485
      010066E5H   LINE      ---      ---       #486
      010066E5H   LINE      ---      ---       #488
      010066EAH   LINE      ---      ---       #489
      010066F0H   LINE      ---      ---       #490
      010066F1H   LINE      ---      ---       #491
      010066F5H   LINE      ---      ---       #492
      010066F5H   LINE      ---      ---       #495
      010066FEH   LINE      ---      ---       #496
      010066FEH   LINE      ---      ---       #497
      0100670AH   LINE      ---      ---       #498
      0100670AH   LINE      ---      ---       #499
      0100670DH   LINE      ---      ---       #500
      01006712H   LINE      ---      ---       #501
      01006713H   LINE      ---      ---       #508
      0100671BH   LINE      ---      ---       #509
      0100671BH   LINE      ---      ---       #512
      01006724H   LINE      ---      ---       #513
      01006724H   LINE      ---      ---       #514
      01006730H   LINE      ---      ---       #515
      01006730H   LINE      ---      ---       #516
      01006733H   LINE      ---      ---       #517
      0100675CH   LINE      ---      ---       #520
      0100675CH   LINE      ---      ---       #522
      0100675CH   LINE      ---      ---       #523
      0100675FH   LINE      ---      ---       #524
      0100675FH   LINE      ---      ---       #525
      0100675FH   LINE      ---      ---       #526
      01006760H   LINE      ---      ---       #527
      01006767H   LINE      ---      ---       #528
      01006767H   LINE      ---      ---       #530
      0100676DH   LINE      ---      ---       #531
LX51 LINKER/LOCATER V4.66.1.0                                                         03/30/2019  12:53:22  PAGE 108


      01006770H   LINE      ---      ---       #532
      01006770H   LINE      ---      ---       #533
      01006777H   LINE      ---      ---       #534
      01006777H   LINE      ---      ---       #535
      01006779H   LINE      ---      ---       #536
      01006779H   LINE      ---      ---       #537
      020002A0H   SYMBOL    XDATA    BYTE      Post_Step
      02000269H   SYMBOL    XDATA    BYTE      i
      ---         BLOCKEND  CODE     ---       LVL=1
      ---         BLOCKEND  CODE     ---       LVL=0

      01008994H   BLOCK     CODE     ---       LVL=0
      01008994H   LINE      ---      ---       #542
      01008994H   LINE      ---      ---       #543
      01008994H   LINE      ---      ---       #544
      010089A0H   LINE      ---      ---       #545
      010089ACH   LINE      ---      ---       #546
      ---         BLOCKEND  ---      ---       LVL=0

      01009029H   BLOCK     CODE     ---       LVL=0
      01009029H   LINE      ---      ---       #548
      01009029H   LINE      ---      ---       #549
      01009029H   BLOCK     CODE     NEAR LAB  LVL=1
      01009029H   LINE      ---      ---       #555
      01009032H   LINE      ---      ---       #556
      01009032H   LINE      ---      ---       #557
      01009036H   LINE      ---      ---       #558
      01009036H   LINE      ---      ---       #560
      0100903CH   LINE      ---      ---       #561
      0100903CH   LINE      ---      ---       #562
      01009045H   LINE      ---      ---       #563
      01009045H   LINE      ---      ---       #565
      01009045H   LINE      ---      ---       #566
      0100904AH   LINE      ---      ---       #567
      0100904AH   LINE      ---      ---       #569
      0100904AH   LINE      ---      ---       #570
      0100904EH   LINE      ---      ---       #571
      0100904EH   LINE      ---      ---       #572
      01009051H   LINE      ---      ---       #573
      0100905AH   LINE      ---      ---       #574
      0100905DH   LINE      ---      ---       #575
      0100905FH   LINE      ---      ---       #576
      01009068H   LINE      ---      ---       #577
      01009068H   LINE      ---      ---       #578
      0100906AH   LINE      ---      ---       #579
      0100906DH   LINE      ---      ---       #580
      0100907BH   LINE      ---      ---       #581
      0100907EH   LINE      ---      ---       #582
      01009080H   LINE      ---      ---       #583
      01009080H   LINE      ---      ---       #584
      01009080H   LINE      ---      ---       #587
      01009088H   LINE      ---      ---       #590
      01009088H   LINE      ---      ---       #591
      0100908EH   LINE      ---      ---       #592
      0100908EH   LINE      ---      ---       #593
      01009093H   LINE      ---      ---       #594
      01009093H   LINE      ---      ---       #595
      01009093H   LINE      ---      ---       #596
      01009095H   LINE      ---      ---       #597
      0100909DH   LINE      ---      ---       #599
      0100909DH   LINE      ---      ---       #600
      010090A5H   LINE      ---      ---       #601
      010090A5H   LINE      ---      ---       #602
      010090AAH   LINE      ---      ---       #603
      010090AFH   LINE      ---      ---       #604
LX51 LINKER/LOCATER V4.66.1.0                                                         03/30/2019  12:53:22  PAGE 109


      010090AFH   LINE      ---      ---       #605
      010090B1H   LINE      ---      ---       #606
      010090BAH   LINE      ---      ---       #608
      010090BAH   LINE      ---      ---       #609
      010090BDH   LINE      ---      ---       #610
      010090C2H   LINE      ---      ---       #611
      010090C4H   LINE      ---      ---       #612
      010090CEH   LINE      ---      ---       #613
      010090CEH   LINE      ---      ---       #614
      010090D0H   LINE      ---      ---       #615
      010090D0H   LINE      ---      ---       #616
      010090D2H   LINE      ---      ---       #618
      010090D2H   LINE      ---      ---       #619
      010090D5H   LINE      ---      ---       #620
      010090D9H   LINE      ---      ---       #621
      010090D9H   LINE      ---      ---       #622
      010090D9H   LINE      ---      ---       #624
      010090E1H   LINE      ---      ---       #625
      010090E1H   LINE      ---      ---       #626
      010090E3H   LINE      ---      ---       #628
      010090E7H   LINE      ---      ---       #631
      010090EDH   LINE      ---      ---       #632
      010090EDH   LINE      ---      ---       #633
      010090F1H   LINE      ---      ---       #636
      010090F4H   LINE      ---      ---       #637
      010090F4H   LINE      ---      ---       #638
      010090F6H   LINE      ---      ---       #640
      010090F6H   LINE      ---      ---       #641
      010090FCH   LINE      ---      ---       #644
      01009113H   LINE      ---      ---       #646
      01009113H   LINE      ---      ---       #648
      0100911BH   LINE      ---      ---       #649
      0100911BH   LINE      ---      ---       #650
      0100912BH   LINE      ---      ---       #653
      0100916FH   LINE      ---      ---       #659
      01009178H   LINE      ---      ---       #660
      01009178H   LINE      ---      ---       #662
      0100917CH   LINE      ---      ---       #663
      0100917CH   LINE      ---      ---       #664
      0100917EH   LINE      ---      ---       #666
      0100917EH   LINE      ---      ---       #667
      0100918AH   LINE      ---      ---       #669
      0100918AH   LINE      ---      ---       #671
      010091A4H   LINE      ---      ---       #672
      010091B1H   LINE      ---      ---       #673
      010091B1H   LINE      ---      ---       #674
      010091C8H   LINE      ---      ---       #676
      010091CAH   LINE      ---      ---       #678
      010091CAH   LINE      ---      ---       #679
      010091E1H   LINE      ---      ---       #680
      010091FAH   LINE      ---      ---       #682
      010091FAH   LINE      ---      ---       #684
      01009214H   LINE      ---      ---       #685
      01009221H   LINE      ---      ---       #686
      01009221H   LINE      ---      ---       #687
      0100923BH   LINE      ---      ---       #689
      0100923DH   LINE      ---      ---       #691
      0100923DH   LINE      ---      ---       #692
      01009254H   LINE      ---      ---       #693
      01009271H   LINE      ---      ---       #695
      01009271H   LINE      ---      ---       #697
      0100927BH   LINE      ---      ---       #698
      0100927BH   LINE      ---      ---       #699
      01009281H   LINE      ---      ---       #700
      01009283H   LINE      ---      ---       #702
LX51 LINKER/LOCATER V4.66.1.0                                                         03/30/2019  12:53:22  PAGE 110


      01009283H   LINE      ---      ---       #703
      0100928FH   LINE      ---      ---       #704
      010092B5H   LINE      ---      ---       #705
      010092B5H   LINE      ---      ---       #706
      010092B7H   LINE      ---      ---       #708
      010092B7H   LINE      ---      ---       #709
      010092C1H   LINE      ---      ---       #712
      010092F3H   LINE      ---      ---       #717
      01009308H   LINE      ---      ---       #719
      01009310H   LINE      ---      ---       #722
      01009326H   LINE      ---      ---       #726
      01009326H   LINE      ---      ---       #727
      01009328H   LINE      ---      ---       #728
      01009328H   LINE      ---      ---       #729
      0100932DH   LINE      ---      ---       #730
      02000269H   SYMBOL    XDATA    WORD      Pre_Disp_Deg_10
      0200026BH   SYMBOL    XDATA    WORD      Pre_Disp_Deg_1
      0200026DH   SYMBOL    XDATA    WORD      Pre_Disp_Deg_CQK_10
      0200026FH   SYMBOL    XDATA    WORD      Pre_Disp_Deg_CQK_1
      ---         BLOCKEND  CODE     ---       LVL=1
      ---         BLOCKEND  CODE     ---       LVL=0

      01008987H   BLOCK     CODE     ---       LVL=0
      01008987H   LINE      ---      ---       #734
      01008987H   LINE      ---      ---       #735
      01008987H   LINE      ---      ---       #736
      01008993H   LINE      ---      ---       #737
      ---         BLOCKEND  ---      ---       LVL=0

      010068A3H   BLOCK     CODE     ---       LVL=0
      010068A3H   LINE      ---      ---       #739
      010068A3H   LINE      ---      ---       #740
      010068A3H   LINE      ---      ---       #741
      010068A6H   LINE      ---      ---       #742
      010068A6H   LINE      ---      ---       #743
      010068B0H   LINE      ---      ---       #745
      010068B0H   LINE      ---      ---       #747
      010068B6H   LINE      ---      ---       #748
      010068BAH   LINE      ---      ---       #750
      010068BFH   LINE      ---      ---       #752
      010068C8H   LINE      ---      ---       #753
      010068C8H   LINE      ---      ---       #754
      010068D6H   LINE      ---      ---       #756
      010068D8H   LINE      ---      ---       #757
      010068D8H   LINE      ---      ---       #758
      010068E0H   LINE      ---      ---       #760
      010068E0H   LINE      ---      ---       #762
      010068E2H   LINE      ---      ---       #763
      010068F5H   LINE      ---      ---       #767
      010068F5H   LINE      ---      ---       #768
      010068F7H   LINE      ---      ---       #769
      010068FAH   LINE      ---      ---       #770
      010068FEH   LINE      ---      ---       #771
      010068FEH   LINE      ---      ---       #772
      010068FEH   LINE      ---      ---       #773
      01006904H   LINE      ---      ---       #777
      01006909H   LINE      ---      ---       #778
      ---         BLOCKEND  ---      ---       LVL=0

      01009812H   BLOCK     CODE     ---       LVL=0
      01009812H   LINE      ---      ---       #784
      01009812H   LINE      ---      ---       #785
      01009812H   BLOCK     CODE     NEAR LAB  LVL=1
      01009812H   LINE      ---      ---       #787
      0100981CH   LINE      ---      ---       #789
LX51 LINKER/LOCATER V4.66.1.0                                                         03/30/2019  12:53:22  PAGE 111


      0100981CH   LINE      ---      ---       #790
      01009821H   LINE      ---      ---       #791
      01009827H   LINE      ---      ---       #792
      01009827H   LINE      ---      ---       #793
      01009829H   LINE      ---      ---       #794
      01009833H   LINE      ---      ---       #796
      01009835H   LINE      ---      ---       #798
      01009835H   LINE      ---      ---       #799
      0100983AH   LINE      ---      ---       #800
      01009844H   LINE      ---      ---       #802
      01009844H   LINE      ---      ---       #803
      01009848H   LINE      ---      ---       #804
      0100984AH   LINE      ---      ---       #805
      01009854H   LINE      ---      ---       #806
      01009854H   LINE      ---      ---       #807
      01009857H   LINE      ---      ---       #808
      0100985AH   LINE      ---      ---       #809
      01009860H   LINE      ---      ---       #810
      0100986AH   LINE      ---      ---       #811
      01009874H   LINE      ---      ---       #812
      0100987EH   LINE      ---      ---       #814
      01009883H   LINE      ---      ---       #815
      01009887H   LINE      ---      ---       #817
      0100988EH   LINE      ---      ---       #818
      0100988EH   LINE      ---      ---       #819
      01009890H   LINE      ---      ---       #820
      01009895H   LINE      ---      ---       #821
      01009898H   LINE      ---      ---       #822
      0100989AH   LINE      ---      ---       #824
      0100989AH   LINE      ---      ---       #825
      010098A0H   LINE      ---      ---       #826
      010098A2H   LINE      ---      ---       #827
      010098A8H   LINE      ---      ---       #828
      010098A8H   LINE      ---      ---       #829
      010098B3H   LINE      ---      ---       #830
      010098BEH   LINE      ---      ---       #831
      010098C9H   LINE      ---      ---       #832
      010098D8H   LINE      ---      ---       #835
      010098DBH   LINE      ---      ---       #836
      010098DDH   LINE      ---      ---       #837
      010098E5H   LINE      ---      ---       #838
      010098E5H   LINE      ---      ---       #839
      010098ECH   LINE      ---      ---       #841
      010098ECH   LINE      ---      ---       #842
      010098EFH   LINE      ---      ---       #844
      010098F2H   LINE      ---      ---       #845
      010098F4H   LINE      ---      ---       #847
      010098F4H   LINE      ---      ---       #848
      010098F7H   LINE      ---      ---       #849
      010098FBH   LINE      ---      ---       #850
      01009901H   LINE      ---      ---       #851
      01009901H   LINE      ---      ---       #852
      01009903H   LINE      ---      ---       #853
      0100990AH   LINE      ---      ---       #854
      0100990AH   LINE      ---      ---       #855
      0100990EH   LINE      ---      ---       #857
      0100990EH   LINE      ---      ---       #858
      01009914H   LINE      ---      ---       #859
      01009918H   LINE      ---      ---       #861
      01009918H   LINE      ---      ---       #862
      0100991AH   LINE      ---      ---       #863
      01009921H   LINE      ---      ---       #864
      01009921H   LINE      ---      ---       #865
      01009932H   LINE      ---      ---       #866
      01009935H   LINE      ---      ---       #867
LX51 LINKER/LOCATER V4.66.1.0                                                         03/30/2019  12:53:22  PAGE 112


      01009935H   LINE      ---      ---       #870
      01009940H   LINE      ---      ---       #871
      0100994EH   LINE      ---      ---       #873
      0100994EH   LINE      ---      ---       #874
      01009955H   LINE      ---      ---       #875
      01009955H   LINE      ---      ---       #876
      01009958H   LINE      ---      ---       #877
      0100995DH   LINE      ---      ---       #878
      01009967H   LINE      ---      ---       #880
      01009967H   LINE      ---      ---       #881
      01009967H   LINE      ---      ---       #882
      0100996CH   LINE      ---      ---       #883
      020002A1H   SYMBOL    XDATA    BYTE      Display_Return_Cnt
      ---         BLOCKEND  CODE     ---       LVL=1
      ---         BLOCKEND  CODE     ---       LVL=0

      01009403H   BLOCK     CODE     ---       LVL=0
      01009403H   LINE      ---      ---       #887
      01009403H   LINE      ---      ---       #888
      01009403H   BLOCK     CODE     NEAR LAB  LVL=1
      01009403H   LINE      ---      ---       #891
      0100940AH   LINE      ---      ---       #893
      0100940AH   LINE      ---      ---       #894
      0100940CH   LINE      ---      ---       #895
      0100940CH   LINE      ---      ---       #896
      0100940FH   LINE      ---      ---       #897
      01009415H   LINE      ---      ---       #898
      0100941CH   LINE      ---      ---       #899
      01009423H   LINE      ---      ---       #900
      01009427H   LINE      ---      ---       #902
      01009435H   LINE      ---      ---       #905
      01009435H   LINE      ---      ---       #906
      0100943BH   LINE      ---      ---       #907
      0100943BH   LINE      ---      ---       #908
      01009446H   LINE      ---      ---       #909
      01009446H   LINE      ---      ---       #910
      01009448H   LINE      ---      ---       #912
      01009448H   LINE      ---      ---       #913
      01009453H   LINE      ---      ---       #914
      01009455H   LINE      ---      ---       #915
      01009455H   LINE      ---      ---       #916
      01009455H   LINE      ---      ---       #917
      01009457H   LINE      ---      ---       #918
      01009465H   LINE      ---      ---       #921
      01009465H   LINE      ---      ---       #922
      0100946BH   LINE      ---      ---       #923
      0100946BH   LINE      ---      ---       #924
      0100946FH   LINE      ---      ---       #925
      0100946FH   LINE      ---      ---       #926
      01009471H   LINE      ---      ---       #928
      01009471H   LINE      ---      ---       #929
      0100947CH   LINE      ---      ---       #930
      0100947EH   LINE      ---      ---       #931
      0100947EH   LINE      ---      ---       #932
      01009483H   LINE      ---      ---       #933
      01009485H   LINE      ---      ---       #934
      0100948CH   LINE      ---      ---       #935
      0100948CH   LINE      ---      ---       #936
      01009492H   LINE      ---      ---       #937
      01009496H   LINE      ---      ---       #938
      0100949BH   LINE      ---      ---       #939
      010094A0H   LINE      ---      ---       #940
      010094A5H   LINE      ---      ---       #941
      010094A7H   LINE      ---      ---       #942
      010094ADH   LINE      ---      ---       #943
LX51 LINKER/LOCATER V4.66.1.0                                                         03/30/2019  12:53:22  PAGE 113


      010094ADH   LINE      ---      ---       #944
      010094AFH   LINE      ---      ---       #945
      010094BFH   LINE      ---      ---       #946
      010094BFH   LINE      ---      ---       #947
      010094C2H   LINE      ---      ---       #948
      010094C9H   LINE      ---      ---       #950
      010094C9H   LINE      ---      ---       #951
      010094D3H   LINE      ---      ---       #952
      010094DDH   LINE      ---      ---       #954
      010094F2H   LINE      ---      ---       #955
      010094F7H   LINE      ---      ---       #956
      010094FFH   LINE      ---      ---       #957
      010094FFH   LINE      ---      ---       #958
      01009501H   LINE      ---      ---       #960
      01009501H   LINE      ---      ---       #961
      0100950BH   LINE      ---      ---       #962
      01009515H   LINE      ---      ---       #964
      01009534H   LINE      ---      ---       #965
      01009539H   LINE      ---      ---       #966
      01009543H   LINE      ---      ---       #967
      0100954BH   LINE      ---      ---       #968
      0100954BH   LINE      ---      ---       #969
      0100954BH   LINE      ---      ---       #971
      0100954EH   LINE      ---      ---       #972
      01009554H   LINE      ---      ---       #975
      01009559H   LINE      ---      ---       #976
      01009559H   LINE      ---      ---       #980
      01009564H   LINE      ---      ---       #981
      01009572H   LINE      ---      ---       #983
      01009572H   LINE      ---      ---       #984
      01009578H   LINE      ---      ---       #987
      0100957DH   LINE      ---      ---       #988
      0100957DH   LINE      ---      ---       #989
      01009582H   LINE      ---      ---       #990
      020002A2H   SYMBOL    XDATA    BYTE      Set_Temp_Cnt
      020002A3H   SYMBOL    XDATA    BYTE      Display_Return_Cnt
      ---         BLOCKEND  CODE     ---       LVL=1
      ---         BLOCKEND  CODE     ---       LVL=0

      010095C6H   BLOCK     CODE     ---       LVL=0
      010095C6H   LINE      ---      ---       #993
      010095C6H   LINE      ---      ---       #994
      010095C6H   BLOCK     CODE     NEAR LAB  LVL=1
      010095C6H   LINE      ---      ---       #997
      010095CDH   LINE      ---      ---       #999
      010095CDH   LINE      ---      ---       #1000
      010095CFH   LINE      ---      ---       #1001
      010095CFH   LINE      ---      ---       #1002
      010095D2H   LINE      ---      ---       #1003
      010095D8H   LINE      ---      ---       #1004
      010095DFH   LINE      ---      ---       #1005
      010095E6H   LINE      ---      ---       #1006
      010095EAH   LINE      ---      ---       #1008
      010095F8H   LINE      ---      ---       #1011
      010095F8H   LINE      ---      ---       #1012
      010095FFH   LINE      ---      ---       #1013
      010095FFH   LINE      ---      ---       #1014
      0100960AH   LINE      ---      ---       #1015
      0100960AH   LINE      ---      ---       #1016
      0100960CH   LINE      ---      ---       #1017
      01009610H   LINE      ---      ---       #1018
      01009610H   LINE      ---      ---       #1019
      0100962FH   LINE      ---      ---       #1020
      01009634H   LINE      ---      ---       #1021
      01009634H   LINE      ---      ---       #1022
LX51 LINKER/LOCATER V4.66.1.0                                                         03/30/2019  12:53:22  PAGE 114


      01009634H   LINE      ---      ---       #1023
      01009636H   LINE      ---      ---       #1024
      01009644H   LINE      ---      ---       #1027
      01009644H   LINE      ---      ---       #1028
      0100964BH   LINE      ---      ---       #1029
      0100964BH   LINE      ---      ---       #1030
      0100964FH   LINE      ---      ---       #1031
      0100964FH   LINE      ---      ---       #1032
      01009651H   LINE      ---      ---       #1033
      01009655H   LINE      ---      ---       #1034
      01009655H   LINE      ---      ---       #1035
      01009670H   LINE      ---      ---       #1036
      01009675H   LINE      ---      ---       #1037
      01009675H   LINE      ---      ---       #1038
      0100967AH   LINE      ---      ---       #1039
      0100967CH   LINE      ---      ---       #1040
      01009680H   LINE      ---      ---       #1041
      01009680H   LINE      ---      ---       #1042
      01009682H   LINE      ---      ---       #1043
      01009690H   LINE      ---      ---       #1044
      01009690H   LINE      ---      ---       #1045
      01009693H   LINE      ---      ---       #1046
      0100969DH   LINE      ---      ---       #1048
      0100969DH   LINE      ---      ---       #1049
      010096AAH   LINE      ---      ---       #1050
      010096B1H   LINE      ---      ---       #1051
      010096B3H   LINE      ---      ---       #1053
      010096B3H   LINE      ---      ---       #1054
      010096C0H   LINE      ---      ---       #1055
      010096C7H   LINE      ---      ---       #1056
      010096C7H   LINE      ---      ---       #1058
      010096C9H   LINE      ---      ---       #1061
      010096CEH   LINE      ---      ---       #1062
      010096CEH   LINE      ---      ---       #1063
      010096CEH   LINE      ---      ---       #1065
      010096D1H   LINE      ---      ---       #1068
      010096DCH   LINE      ---      ---       #1069
      010096EAH   LINE      ---      ---       #1071
      010096EAH   LINE      ---      ---       #1072
      010096ECH   LINE      ---      ---       #1075
      010096F1H   LINE      ---      ---       #1076
      010096F1H   LINE      ---      ---       #1077
      010096F6H   LINE      ---      ---       #1078
      020002A4H   SYMBOL    XDATA    BYTE      Set_Temp_Cnt
      020002A5H   SYMBOL    XDATA    BYTE      Display_Return_Cnt
      ---         BLOCKEND  CODE     ---       LVL=1
      ---         BLOCKEND  CODE     ---       LVL=0

      0100C314H   BLOCK     CODE     ---       LVL=0
      0100C314H   LINE      ---      ---       #1084
      0100C314H   LINE      ---      ---       #1085
      0100C314H   LINE      ---      ---       #1086
      0100C31AH   LINE      ---      ---       #1087
      ---         BLOCKEND  ---      ---       LVL=0

      0100C320H   BLOCK     CODE     ---       LVL=0
      0100C320H   LINE      ---      ---       #1091
      0100C320H   LINE      ---      ---       #1092
      0100C320H   BLOCK     CODE     NEAR LAB  LVL=1
      0100C320H   LINE      ---      ---       #1096
      0100C322H   LINE      ---      ---       #1097
      0100C33AH   LINE      ---      ---       #1099
      0100C33FH   LINE      ---      ---       #1100
      0100C33FH   LINE      ---      ---       #1101
      0100C341H   LINE      ---      ---       #1102
LX51 LINKER/LOCATER V4.66.1.0                                                         03/30/2019  12:53:22  PAGE 115


      0100C341H   LINE      ---      ---       #1103
      0100C358H   LINE      ---      ---       #1104
      0100C358H   LINE      ---      ---       #1105
      0100C364H   LINE      ---      ---       #1106
      0100C364H   LINE      ---      ---       #1107
      0100C367H   LINE      ---      ---       #1108
      0100C367H   LINE      ---      ---       #1109
      0100C36EH   LINE      ---      ---       #1110
      0100C36EH   LINE      ---      ---       #1111
      0100C37AH   LINE      ---      ---       #1112
      0100C37AH   LINE      ---      ---       #1113
      0100C37BH   LINE      ---      ---       #1114
      0100C37BH   LINE      ---      ---       #1115
      0100C382H   LINE      ---      ---       #1116
      0100C382H   LINE      ---      ---       #1117
      0100C38EH   LINE      ---      ---       #1118
      0100C38EH   LINE      ---      ---       #1119
      0100C38EH   LINE      ---      ---       #1120
      00000006H   SYMBOL    DATA     WORD      temp1
      00000020H.5 SYMBOL    BIT      BIT       Temp_Bit1
      ---         BLOCKEND  CODE     ---       LVL=1
      ---         BLOCKEND  CODE     ---       LVL=0

      01008CE5H   BLOCK     CODE     ---       LVL=0
      01008CE5H   LINE      ---      ---       #1123
      01008CE5H   LINE      ---      ---       #1124
      01008CE5H   BLOCK     CODE     NEAR LAB  LVL=1
      01008CE5H   LINE      ---      ---       #1130
      01008CEDH   LINE      ---      ---       #1132
      01008CEDH   LINE      ---      ---       #1133
      01008CEFH   LINE      ---      ---       #1134
      01008CEFH   LINE      ---      ---       #1136
      01008CF7H   LINE      ---      ---       #1137
      01008CF7H   LINE      ---      ---       #1138
      01008CFDH   LINE      ---      ---       #1140
      01008D00H   LINE      ---      ---       #1141
      01008D05H   LINE      ---      ---       #1142
      01008D1FH   LINE      ---      ---       #1149
      01008D2AH   LINE      ---      ---       #1150
      01008D2AH   LINE      ---      ---       #1151
      01008D2CH   LINE      ---      ---       #1152
      01008D2CH   LINE      ---      ---       #1153
      01008D2CH   LINE      ---      ---       #1154
      01008D2EH   LINE      ---      ---       #1155
      01008D3FH   LINE      ---      ---       #1158
      01008D3FH   LINE      ---      ---       #1159
      01008D46H   LINE      ---      ---       #1161
      01008D46H   LINE      ---      ---       #1162
      01008D4DH   LINE      ---      ---       #1164
      01008D4DH   LINE      ---      ---       #1165
      01008D4FH   LINE      ---      ---       #1166
      01008D4FH   LINE      ---      ---       #1167
      01008D5AH   LINE      ---      ---       #1168
      01008D5AH   LINE      ---      ---       #1169
      01008D5DH   LINE      ---      ---       #1170
      01008D5DH   LINE      ---      ---       #1171
      01008D5DH   LINE      ---      ---       #1173
      01008D64H   LINE      ---      ---       #1174
      01008D64H   LINE      ---      ---       #1175
      01008D6BH   LINE      ---      ---       #1177
      01008D6BH   LINE      ---      ---       #1178
      01008D6DH   LINE      ---      ---       #1179
      01008D6DH   LINE      ---      ---       #1180
      01008D76H   LINE      ---      ---       #1181
      01008D76H   LINE      ---      ---       #1182
LX51 LINKER/LOCATER V4.66.1.0                                                         03/30/2019  12:53:22  PAGE 116


      01008D79H   LINE      ---      ---       #1183
      01008D79H   LINE      ---      ---       #1184
      01008D79H   LINE      ---      ---       #1185
      01008D84H   LINE      ---      ---       #1186
      01008D84H   LINE      ---      ---       #1187
      01008D8BH   LINE      ---      ---       #1189
      01008D8BH   LINE      ---      ---       #1190
      01008D8DH   LINE      ---      ---       #1191
      01008D8DH   LINE      ---      ---       #1192
      01008D96H   LINE      ---      ---       #1193
      01008D96H   LINE      ---      ---       #1194
      01008D99H   LINE      ---      ---       #1195
      01008D99H   LINE      ---      ---       #1196
      01008D99H   LINE      ---      ---       #1197
      01008D9FH   LINE      ---      ---       #1198
      01008D9FH   LINE      ---      ---       #1199
      01008D9FH   LINE      ---      ---       #1200
      01008DA6H   LINE      ---      ---       #1202
      01008DA6H   LINE      ---      ---       #1203
      01008DA8H   LINE      ---      ---       #1204
      01008DA8H   LINE      ---      ---       #1205
      01008DB3H   LINE      ---      ---       #1206
      01008DB3H   LINE      ---      ---       #1207
      01008DB6H   LINE      ---      ---       #1208
      01008DB6H   LINE      ---      ---       #1209
      01008DB6H   LINE      ---      ---       #1210
      01008DC0H   LINE      ---      ---       #1211
      01008DC0H   LINE      ---      ---       #1212
      01008DC6H   LINE      ---      ---       #1213
      01008DCFH   LINE      ---      ---       #1214
      01008DCFH   LINE      ---      ---       #1215
      01008DD5H   LINE      ---      ---       #1216
      01008DD5H   LINE      ---      ---       #1217
      01008DE0H   LINE      ---      ---       #1218
      01008DE0H   LINE      ---      ---       #1219
      01008DE0H   LINE      ---      ---       #1220
      01008DE0H   LINE      ---      ---       #1221
      01008DE9H   LINE      ---      ---       #1222
      01008DE9H   LINE      ---      ---       #1223
      01008DF0H   LINE      ---      ---       #1225
      01008DF0H   LINE      ---      ---       #1226
      01008DF2H   LINE      ---      ---       #1227
      01008DF2H   LINE      ---      ---       #1228
      01008DFDH   LINE      ---      ---       #1229
      01008DFDH   LINE      ---      ---       #1230
      01008E00H   LINE      ---      ---       #1231
      01008E00H   LINE      ---      ---       #1232
      01008E00H   LINE      ---      ---       #1233
      01008E02H   LINE      ---      ---       #1234
      01008E13H   LINE      ---      ---       #1237
      01008E13H   LINE      ---      ---       #1238
      01008E22H   LINE      ---      ---       #1240
      01008E22H   LINE      ---      ---       #1241
      01008E2AH   LINE      ---      ---       #1243
      01008E2AH   LINE      ---      ---       #1244
      01008E39H   LINE      ---      ---       #1245
      01008E39H   LINE      ---      ---       #1246
      01008E41H   LINE      ---      ---       #1248
      01008E44H   LINE      ---      ---       #1249
      01008E56H   LINE      ---      ---       #1250
      01008E56H   LINE      ---      ---       #1251
      01008E5AH   LINE      ---      ---       #1254
      01008E6DH   LINE      ---      ---       #1255
      01008E6DH   LINE      ---      ---       #1256
      01008E6DH   LINE      ---      ---       #1257
LX51 LINKER/LOCATER V4.66.1.0                                                         03/30/2019  12:53:22  PAGE 117


      01008E70H   LINE      ---      ---       #1258
      01008E7AH   LINE      ---      ---       #1259
      01008E7AH   LINE      ---      ---       #1260
      01008E89H   LINE      ---      ---       #1261
      01008E89H   LINE      ---      ---       #1262
      01008E8EH   LINE      ---      ---       #1264
      01008E9FH   LINE      ---      ---       #1265
      01008E9FH   LINE      ---      ---       #1266
      01008EA7H   LINE      ---      ---       #1268
      01008EA7H   LINE      ---      ---       #1269
      01008EA9H   LINE      ---      ---       #1270
      01008EB0H   LINE      ---      ---       #1271
      01008EB0H   LINE      ---      ---       #1272
      01008EB3H   LINE      ---      ---       #1273
      01008EB8H   LINE      ---      ---       #1274
      01008EBEH   LINE      ---      ---       #1276
      01008EBEH   LINE      ---      ---       #1278
      01008EC4H   LINE      ---      ---       #1279
      01008ECBH   LINE      ---      ---       #1280
      01008ED2H   LINE      ---      ---       #1281
      01008ED6H   LINE      ---      ---       #1282
      01008ED9H   LINE      ---      ---       #1284
      01008EDFH   LINE      ---      ---       #1285
      01008EDFH   LINE      ---      ---       #1286
      01008EE8H   LINE      ---      ---       #1287
      01008EE8H   LINE      ---      ---       #1290
      01008EF3H   LINE      ---      ---       #1291
      01008F01H   LINE      ---      ---       #1293
      01008F01H   LINE      ---      ---       #1294
      01008F07H   LINE      ---      ---       #1298
      01008F07H   LINE      ---      ---       #1301
      01008F0CH   LINE      ---      ---       #1302
      020002A6H   SYMBOL    XDATA    BYTE      Display_Return_Cnt
      020002A7H   SYMBOL    XDATA    BYTE      Set_Time_Cnt
      02000269H   SYMBOL    XDATA    BYTE      color
      ---         BLOCKEND  CODE     ---       LVL=1
      ---         BLOCKEND  CODE     ---       LVL=0

      0100A1FBH   BLOCK     CODE     ---       LVL=0
      0100A1FBH   LINE      ---      ---       #1307
      0100A1FBH   LINE      ---      ---       #1308
      0100A1FBH   LINE      ---      ---       #1309
      0100A204H   LINE      ---      ---       #1310
      ---         BLOCKEND  ---      ---       LVL=0

      0100A024H   BLOCK     CODE     ---       LVL=0
      0100A024H   LINE      ---      ---       #1313
      0100A024H   LINE      ---      ---       #1314
      0100A024H   BLOCK     CODE     NEAR LAB  LVL=1
      0100A024H   LINE      ---      ---       #1318
      0100A02BH   LINE      ---      ---       #1320
      0100A02BH   LINE      ---      ---       #1321
      0100A02DH   LINE      ---      ---       #1322
      0100A02DH   LINE      ---      ---       #1323
      0100A030H   LINE      ---      ---       #1324
      0100A036H   LINE      ---      ---       #1325
      0100A047H   LINE      ---      ---       #1326
      0100A04EH   LINE      ---      ---       #1327
      0100A05FH   LINE      ---      ---       #1329
      0100A066H   LINE      ---      ---       #1330
      0100A066H   LINE      ---      ---       #1331
      0100A06CH   LINE      ---      ---       #1333
      0100A073H   LINE      ---      ---       #1334
      0100A075H   LINE      ---      ---       #1335
      0100A07CH   LINE      ---      ---       #1336
LX51 LINKER/LOCATER V4.66.1.0                                                         03/30/2019  12:53:22  PAGE 118


      0100A07CH   LINE      ---      ---       #1337
      0100A085H   LINE      ---      ---       #1338
      0100A085H   LINE      ---      ---       #1339
      0100A088H   LINE      ---      ---       #1340
      0100A088H   LINE      ---      ---       #1341
      0100A08AH   LINE      ---      ---       #1342
      0100A08CH   LINE      ---      ---       #1343
      0100A093H   LINE      ---      ---       #1344
      0100A093H   LINE      ---      ---       #1345
      0100A09CH   LINE      ---      ---       #1346
      0100A09CH   LINE      ---      ---       #1347
      0100A09FH   LINE      ---      ---       #1348
      0100A09FH   LINE      ---      ---       #1349
      0100A0A3H   LINE      ---      ---       #1350
      0100A0A5H   LINE      ---      ---       #1351
      0100A0ACH   LINE      ---      ---       #1352
      0100A0ACH   LINE      ---      ---       #1353
      0100A0AFH   LINE      ---      ---       #1354
      0100A0BAH   LINE      ---      ---       #1356
      0100A0BEH   LINE      ---      ---       #1357
      0100A0C6H   LINE      ---      ---       #1358
      0100A0C9H   LINE      ---      ---       #1359
      0100A0C9H   LINE      ---      ---       #1363
      0100A0D4H   LINE      ---      ---       #1364
      0100A0E2H   LINE      ---      ---       #1366
      0100A0E2H   LINE      ---      ---       #1367
      0100A0E9H   LINE      ---      ---       #1369
      0100A0F2H   LINE      ---      ---       #1370
      0100A0F2H   LINE      ---      ---       #1372
      0100A0F7H   LINE      ---      ---       #1373
      020002A8H   SYMBOL    XDATA    BYTE      Display_Return_Cnt
      020002A9H   SYMBOL    XDATA    BYTE      Set_InExp_Cnt
      ---         BLOCKEND  CODE     ---       LVL=1
      ---         BLOCKEND  CODE     ---       LVL=0

      01008933H   BLOCK     CODE     ---       LVL=0
      01008933H   LINE      ---      ---       #1378
      01008933H   LINE      ---      ---       #1379
      01008933H   LINE      ---      ---       #1380
      01008945H   LINE      ---      ---       #1381
      ---         BLOCKEND  ---      ---       LVL=0

      01009DD3H   BLOCK     CODE     ---       LVL=0
      01009DD3H   LINE      ---      ---       #1383
      01009DD3H   LINE      ---      ---       #1384
      01009DD3H   BLOCK     CODE     NEAR LAB  LVL=1
      01009DD3H   LINE      ---      ---       #1386
      01009DD8H   LINE      ---      ---       #1389
      01009DD9H   LINE      ---      ---       #1390
      01009DE1H   LINE      ---      ---       #1392
      01009DE1H   LINE      ---      ---       #1393
      01009DE7H   LINE      ---      ---       #1395
      01009DE7H   LINE      ---      ---       #1396
      01009DEDH   LINE      ---      ---       #1397
      01009DEDH   LINE      ---      ---       #1398
      01009DEDH   LINE      ---      ---       #1400
      01009DF2H   LINE      ---      ---       #1401
      01009DF2H   LINE      ---      ---       #1402
      01009E01H   LINE      ---      ---       #1403
      01009E01H   LINE      ---      ---       #1404
      01009E07H   LINE      ---      ---       #1405
      01009E09H   LINE      ---      ---       #1406
      01009E18H   LINE      ---      ---       #1407
      01009E1EH   LINE      ---      ---       #1408
      01009E1EH   LINE      ---      ---       #1409
LX51 LINKER/LOCATER V4.66.1.0                                                         03/30/2019  12:53:22  PAGE 119


      01009E1EH   LINE      ---      ---       #1411
      01009E1EH   LINE      ---      ---       #1413
      01009E1EH   LINE      ---      ---       #1415
      01009E33H   LINE      ---      ---       #1420
      01009E33H   LINE      ---      ---       #1421
      01009E38H   LINE      ---      ---       #1422
      01009E3EH   LINE      ---      ---       #1423
      01009E42H   LINE      ---      ---       #1425
      01009E49H   LINE      ---      ---       #1426
      01009E49H   LINE      ---      ---       #1427
      01009E4CH   LINE      ---      ---       #1428
      01009E50H   LINE      ---      ---       #1429
      01009E53H   LINE      ---      ---       #1430
      01009E53H   LINE      ---      ---       #1431
      01009E53H   LINE      ---      ---       #1433
      01009E59H   LINE      ---      ---       #1434
      01009E59H   LINE      ---      ---       #1435
      01009E5BH   LINE      ---      ---       #1436
      01009E61H   LINE      ---      ---       #1437
      01009E68H   LINE      ---      ---       #1439
      01009E68H   LINE      ---      ---       #1440
      01009E6EH   LINE      ---      ---       #1441
      01009E7CH   LINE      ---      ---       #1442
      01009E8EH   LINE      ---      ---       #1444
      01009E8EH   LINE      ---      ---       #1445
      01009E90H   LINE      ---      ---       #1447
      01009E90H   LINE      ---      ---       #1448
      01009E94H   LINE      ---      ---       #1449
      01009E9FH   LINE      ---      ---       #1450
      01009EB2H   LINE      ---      ---       #1452
      01009EC3H   LINE      ---      ---       #1453
      01009EC3H   LINE      ---      ---       #1454
      01009EC5H   LINE      ---      ---       #1455
      01009EC5H   LINE      ---      ---       #1456
      02000269H   SYMBOL    XDATA    WORD      i
      0200026BH   SYMBOL    XDATA    BYTE      DispEnable
      020002AAH   SYMBOL    XDATA    BYTE      ReCnt
      ---         BLOCKEND  CODE     ---       LVL=1
      ---         BLOCKEND  CODE     ---       LVL=0

      ---         MODULE    ---      ---       UART_FUN
      0200018CH   PUBLIC    XDATA    BYTE      eusartRxCount
      0100BE2DH   PUBLIC    CODE     ---       EUSART_Receive_ISR
      0100BE92H   PUBLIC    CODE     ---       EUSART_Transmit_ISR
      0100BC8FH   PUBLIC    CODE     ---       _EUSART_Write_Str
      0100BCA8H   PUBLIC    CODE     ---       _EUSART_Write
      0100BCFFH   PUBLIC    CODE     ---       EUSART_Read
      0100C38FH   PUBLIC    CODE     ---       EUSART_Initialize
      00000089H   SFRSYM    DATA     BYTE      TMOD
      0000008DH   SFRSYM    DATA     BYTE      TH1
      00000098H.1 SFRSYM    DATA     BIT       TI
      00000088H.6 SFRSYM    DATA     BIT       TR1
      000000E0H   SFRSYM    DATA     BYTE      ACC
      00000087H   SFRSYM    DATA     BYTE      PCON
      00000099H   SFRSYM    DATA     BYTE      SBUF
      000000A8H   SFRSYM    DATA     BYTE      IE
      00000098H   SFRSYM    DATA     BYTE      SCON
      0200018DH   SYMBOL    XDATA    BYTE      eusartRxHead
      0200018EH   SYMBOL    XDATA    BYTE      eusartRxTail
      0200018FH   SYMBOL    XDATA    ---       eusartRxBuffer
      0200020FH   SYMBOL    XDATA    BYTE      Send_uart_busy
      0100BCAEH   SYMBOL    CODE     ---       _send_char_com

      0100C38FH   BLOCK     CODE     ---       LVL=0
      0100C38FH   LINE      ---      ---       #42
LX51 LINKER/LOCATER V4.66.1.0                                                         03/30/2019  12:53:22  PAGE 120


      0100C38FH   LINE      ---      ---       #43
      0100C38FH   LINE      ---      ---       #45
      0100C392H   LINE      ---      ---       #46
      0100C395H   LINE      ---      ---       #47
      0100C398H   LINE      ---      ---       #48
      0100C39BH   LINE      ---      ---       #49
      0100C39EH   LINE      ---      ---       #50
      0100C3A0H   LINE      ---      ---       #52
      0100C3A5H   LINE      ---      ---       #53
      0100C3A7H   LINE      ---      ---       #54
      0100C3ABH   LINE      ---      ---       #55
      ---         BLOCKEND  ---      ---       LVL=0

      0100BCFFH   BLOCK     CODE     ---       LVL=0
      0100BCFFH   LINE      ---      ---       #58
      0100BCFFH   LINE      ---      ---       #59
      0100BCFFH   BLOCK     CODE     NEAR LAB  LVL=1
      0100BCFFH   LINE      ---      ---       #60
      0100BCFFH   LINE      ---      ---       #61
      0100BD06H   LINE      ---      ---       #62
      0100BD11H   LINE      ---      ---       #63
      0100BD11H   LINE      ---      ---       #64
      0100BD13H   LINE      ---      ---       #65
      0100BD13H   LINE      ---      ---       #66
      0100BD19H   LINE      ---      ---       #67
      0100BD19H   LINE      ---      ---       #68
      00000007H   SYMBOL    DATA     BYTE      readValue
      ---         BLOCKEND  CODE     ---       LVL=1
      ---         BLOCKEND  CODE     ---       LVL=0

      0100BCAEH   BLOCK     CODE     ---       LVL=0
      0100BCAEH   LINE      ---      ---       #71
      0100BCAEH   LINE      ---      ---       #72
      0100BCAEH   LINE      ---      ---       #73
      0100BCAFH   LINE      ---      ---       #74
      0100BCB1H   LINE      ---      ---       #75
      0100BCB7H   LINE      ---      ---       #76
      00000007H   SYMBOL    DATA     BYTE      Send_ch
      ---         BLOCKEND  ---      ---       LVL=0

      0100BCA8H   BLOCK     CODE     ---       LVL=0
      0100BCA8H   LINE      ---      ---       #79
      0100BCA8H   LINE      ---      ---       #80
      0100BCA8H   LINE      ---      ---       #81
      00000007H   SYMBOL    DATA     BYTE      txData
      ---         BLOCKEND  ---      ---       LVL=0

      0100BC8FH   BLOCK     CODE     ---       LVL=0
      0100BC8FH   LINE      ---      ---       #86
      0100BC95H   LINE      ---      ---       #87
      0200026DH   SYMBOL    XDATA    ---       stra
      00000005H   SYMBOL    DATA     BYTE      cnt
      0100BC95H   BLOCK     CODE     NEAR LAB  LVL=1
      0100BC95H   LINE      ---      ---       #89
      0100BC9CH   LINE      ---      ---       #90
      0100BC9CH   LINE      ---      ---       #91
      0100BCA4H   LINE      ---      ---       #92
      0100BCA7H   LINE      ---      ---       #93
      00000006H   SYMBOL    DATA     BYTE      i
      ---         BLOCKEND  CODE     ---       LVL=1
      ---         BLOCKEND  CODE     ---       LVL=0

      0100BE92H   BLOCK     CODE     ---       LVL=0
      0100BE92H   LINE      ---      ---       #95
      0100BE92H   LINE      ---      ---       #96
LX51 LINKER/LOCATER V4.66.1.0                                                         03/30/2019  12:53:22  PAGE 121


      0100BE92H   LINE      ---      ---       #97
      0100BE94H   LINE      ---      ---       #98
      0100BE99H   LINE      ---      ---       #99
      ---         BLOCKEND  ---      ---       LVL=0

      0100BE2DH   BLOCK     CODE     ---       LVL=0
      0100BE2DH   LINE      ---      ---       #102
      0100BE2DH   LINE      ---      ---       #103
      0100BE2DH   LINE      ---      ---       #105
      0100BE35H   LINE      ---      ---       #107
      0100BE40H   LINE      ---      ---       #108
      0100BE40H   LINE      ---      ---       #109
      0100BE42H   LINE      ---      ---       #110
      0100BE42H   LINE      ---      ---       #111
      0100BE48H   LINE      ---      ---       #112
      ---         BLOCKEND  ---      ---       LVL=0

      ---         MODULE    ---      ---       ?C_STARTUP
      01000000H   PUBLIC    CODE     ---       ?C_STARTUP

      ---         MODULE    ---      ---       ?C?COPY
      01005786H   PUBLIC    CODE     ---       ?C?COPY

      ---         MODULE    ---      ---       ?C?CLDPTR
      010057ACH   PUBLIC    CODE     ---       ?C?CLDPTR

      ---         MODULE    ---      ---       ?C?CLDOPTR
      010057C5H   PUBLIC    CODE     ---       ?C?CLDOPTR

      ---         MODULE    ---      ---       ?C?CSTPTR
      010057F2H   PUBLIC    CODE     ---       ?C?CSTPTR

      ---         MODULE    ---      ---       ?C?CSTOPTR
      01005804H   PUBLIC    CODE     ---       ?C?CSTOPTR

      ---         MODULE    ---      ---       ?C?IMUL
      01005826H   PUBLIC    CODE     ---       ?C?IMUL

      ---         MODULE    ---      ---       ?C?UIDIV
      01005838H   PUBLIC    CODE     ---       ?C?UIDIV

      ---         MODULE    ---      ---       ?C?SIDIV
      0100588DH   PUBLIC    CODE     ---       ?C?SIDIV

      ---         MODULE    ---      ---       ?C?IILDX
      010058C3H   PUBLIC    CODE     ---       ?C?IILDX

      ---         MODULE    ---      ---       ?C?LADD
      010058D9H   PUBLIC    CODE     ---       ?C?LADD

      ---         MODULE    ---      ---       ?C?LSUB
      010058E6H   PUBLIC    CODE     ---       ?C?LSUB

      ---         MODULE    ---      ---       ?C?LMUL
      010058F4H   PUBLIC    CODE     ---       ?C?LMUL

      ---         MODULE    ---      ---       ?C?ULDIV
      0100597FH   PUBLIC    CODE     ---       ?C?ULDIV

      ---         MODULE    ---      ---       ?C?SLDIV
      010062AFH   PUBLIC    CODE     ---       ?C?SLDIV

      ---         MODULE    ---      ---       ?C?LAND
      01005A11H   PUBLIC    CODE     ---       ?C?LAND

LX51 LINKER/LOCATER V4.66.1.0                                                         03/30/2019  12:53:22  PAGE 122


      ---         MODULE    ---      ---       ?C?LOR
      01005A1EH   PUBLIC    CODE     ---       ?C?LOR

      ---         MODULE    ---      ---       ?C?LNOT
      01005A2BH   PUBLIC    CODE     ---       ?C?LNOT

      ---         MODULE    ---      ---       ?C?SLCMP
      01005A38H   PUBLIC    CODE     ---       ?C?SLCMP

      ---         MODULE    ---      ---       ?C?ULCMP
      01005A4EH   PUBLIC    CODE     ---       ?C?ULCMP

      ---         MODULE    ---      ---       ?C?ULSHR
      01005A5FH   PUBLIC    CODE     ---       ?C?ULSHR

      ---         MODULE    ---      ---       ?C?LSHL
      01005A72H   PUBLIC    CODE     ---       ?C?LSHL

      ---         MODULE    ---      ---       ?C?LLDXDATA
      01005A85H   PUBLIC    CODE     ---       ?C?LLDXDATA

      ---         MODULE    ---      ---       ?C?LLDXDATA0
      01005A91H   PUBLIC    CODE     ---       ?C?LLDXDATA0

      ---         MODULE    ---      ---       ?C?LSTXDATA
      01005A9DH   PUBLIC    CODE     ---       ?C?LSTXDATA

      ---         MODULE    ---      ---       ?C?LSTKXDATA
      01005AA9H   PUBLIC    CODE     ---       ?C?LSTKXDATA

      ---         MODULE    ---      ---       ?C?OFFXADD
      01005ADAH   PUBLIC    CODE     ---       ?C?OFFXADD

      ---         MODULE    ---      ---       ?C?PLDXDATA
      01005AE6H   PUBLIC    CODE     ---       ?C?PLDXDATA

      ---         MODULE    ---      ---       ?C?PSTXDATA
      01005AEFH   PUBLIC    CODE     ---       ?C?PSTXDATA

      ---         MODULE    ---      ---       ?C?PLDPTR
      01005AF8H   PUBLIC    CODE     ---       ?C?PLDPTR

      ---         MODULE    ---      ---       ?C?PLDOPTR
      01005B18H   PUBLIC    CODE     ---       ?C?PLDOPTR

      ---         MODULE    ---      ---       ?C?CCASE
      01005B48H   PUBLIC    CODE     ---       ?C?CCASE

      ---         MODULE    ---      ---       ?C?ICALL
      01005B6EH   PUBLIC    CODE     ---       ?C?ICALL
      01005B72H   PUBLIC    CODE     ---       ?C?ICALL2

      ---         MODULE    ---      ---       ABS
      01000016H   PUBLIC    CODE     ---       _ABS

      ---         MODULE    ---      ---       ?C?STRCPY
      01005C40H   PUBLIC    CODE     ---       ?C?STRCPY

      ---         MODULE    ---      ---       ?C_INIT
      0100626AH   PUBLIC    CODE     ---       ?C_START

      ---         MODULE    ---      ---       ?C?PLDIDATA
      01005C5DH   PUBLIC    CODE     ---       ?C?PLDIDATA

      ---         MODULE    ---      ---       ?C?PLDPDATA
LX51 LINKER/LOCATER V4.66.1.0                                                         03/30/2019  12:53:22  PAGE 123


      01005C66H   PUBLIC    CODE     ---       ?C?PLDPDATA

      ---         MODULE    ---      ---       ?C?PLDCODE
      01005C6FH   PUBLIC    CODE     ---       ?C?PLDCODE

Program Size: data=26.1 xdata=719 const=0 code=50777
LX51 RUN COMPLETE.  0 WARNING(S),  0 ERROR(S)
