LX51 LINKER/LOCATER V4.66.1.0                                                           04/04/2019  16:35:10  PAGE 1


LX51 LINKER/LOCATER V4.66.1.0, INVOKED BY:
D:\KEIL4\C51\BIN\LX51.EXE ..\OBJ\stc_eeprom.obj, ..\OBJ\delay.obj, ..\OBJ\Main_Tik_Tok.obj, ..\OBJ\WS_Task_Manage.obj, .
>> .\OBJ\Main_Tik_Function.obj, ..\OBJ\Sub_Tik_Function.obj, ..\OBJ\Normal_Task.obj, ..\OBJ\ActivityFunctions.obj, ..\OB
>> J\Sound_Type.obj, ..\OBJ\main.obj, ..\OBJ\StcRomCrc16.obj, ..\OBJ\lcd.obj, ..\OBJ\w25x.obj, ..\OBJ\sht21.obj, ..\OBJ\
>> RX8010.obj, ..\OBJ\ds18b20.obj, ..\OBJ\key_datas.obj, ..\OBJ\Key_Multifun.obj, ..\OBJ\GUI.obj, ..\OBJ\uart_fun.obj TO
>>  ..\OBJ\VHB15A PRINT (.\VHB15A.map) CLASSES (XDATA (X:0X0-X:0X3FF), HDATA (X:0X0-X:0X3FF), CODE (C:0X0-C:0XEFFF), CON
>> ST (C:0X0-C:0XEFFF), ECODE (C:0X0-C:0XEFFF), HCONST (C:0X0-C:0XEFFF))


CPU MODE:     8051 MODE
MEMORY MODEL: LARGE


INPUT MODULES INCLUDED:
  ..\OBJ\stc_eeprom.obj (STC_EEPROM)
         COMMENT TYPE 0: C51 V9.52.0.0
  ..\OBJ\delay.obj (DELAY)
         COMMENT TYPE 0: C51 V9.52.0.0
  ..\OBJ\Main_Tik_Tok.obj (MAIN_TIK_TOK)
         COMMENT TYPE 0: C51 V9.52.0.0
  ..\OBJ\WS_Task_Manage.obj (WS_TASK_MANAGE)
         COMMENT TYPE 0: C51 V9.52.0.0
  ..\OBJ\Main_Tik_Function.obj (MAIN_TIK_FUNCTION)
         COMMENT TYPE 0: C51 V9.52.0.0
  ..\OBJ\Sub_Tik_Function.obj (SUB_TIK_FUNCTION)
         COMMENT TYPE 0: C51 V9.52.0.0
  ..\OBJ\Normal_Task.obj (NORMAL_TASK)
         COMMENT TYPE 0: C51 V9.52.0.0
  ..\OBJ\ActivityFunctions.obj (ACTIVITYFUNCTIONS)
         COMMENT TYPE 0: C51 V9.52.0.0
  ..\OBJ\Sound_Type.obj (SOUND_TYPE)
         COMMENT TYPE 0: C51 V9.52.0.0
  ..\OBJ\main.obj (MAIN)
         COMMENT TYPE 0: C51 V9.52.0.0
  ..\OBJ\StcRomCrc16.obj (STCROMCRC16)
         COMMENT TYPE 0: C51 V9.52.0.0
  ..\OBJ\lcd.obj (LCD)
         COMMENT TYPE 0: C51 V9.52.0.0
  ..\OBJ\w25x.obj (W25X)
         COMMENT TYPE 0: C51 V9.52.0.0
  ..\OBJ\sht21.obj (SHT21)
         COMMENT TYPE 0: C51 V9.52.0.0
  ..\OBJ\RX8010.obj (RX8010)
         COMMENT TYPE 0: C51 V9.52.0.0
  ..\OBJ\ds18b20.obj (DS18B20)
         COMMENT TYPE 0: C51 V9.52.0.0
  ..\OBJ\key_datas.obj (KEY_DATAS)
         COMMENT TYPE 0: C51 V9.52.0.0
  ..\OBJ\Key_Multifun.obj (KEY_MULTIFUN)
         COMMENT TYPE 0: C51 V9.52.0.0
  ..\OBJ\GUI.obj (GUI)
         COMMENT TYPE 0: C51 V9.52.0.0
  ..\OBJ\uart_fun.obj (UART_FUN)
         COMMENT TYPE 0: C51 V9.52.0.0
  D:\KEIL4\C51\LIB\C51L.LIB (?C_STARTUP)
         COMMENT TYPE 1: A51 / ASM51 Assembler
  D:\KEIL4\C51\LIB\C51L.LIB (?C?COPY)
         COMMENT TYPE 1: A51 / ASM51 Assembler
  D:\KEIL4\C51\LIB\C51L.LIB (?C?CLDPTR)
         COMMENT TYPE 1: A51 / ASM51 Assembler
  D:\KEIL4\C51\LIB\C51L.LIB (?C?CLDOPTR)
         COMMENT TYPE 1: A51 / ASM51 Assembler
  D:\KEIL4\C51\LIB\C51L.LIB (?C?CSTPTR)
         COMMENT TYPE 1: A51 / ASM51 Assembler
  D:\KEIL4\C51\LIB\C51L.LIB (?C?CSTOPTR)
         COMMENT TYPE 1: A51 / ASM51 Assembler
LX51 LINKER/LOCATER V4.66.1.0                                                         04/04/2019  16:35:10  PAGE 2


  D:\KEIL4\C51\LIB\C51L.LIB (?C?IMUL)
         COMMENT TYPE 1: A51 / ASM51 Assembler
  D:\KEIL4\C51\LIB\C51L.LIB (?C?UIDIV)
         COMMENT TYPE 1: A51 / ASM51 Assembler
  D:\KEIL4\C51\LIB\C51L.LIB (?C?SIDIV)
         COMMENT TYPE 1: A51 / ASM51 Assembler
  D:\KEIL4\C51\LIB\C51L.LIB (?C?IILDX)
         COMMENT TYPE 1: A51 / ASM51 Assembler
  D:\KEIL4\C51\LIB\C51L.LIB (?C?LADD)
         COMMENT TYPE 1: A51 / ASM51 Assembler
  D:\KEIL4\C51\LIB\C51L.LIB (?C?LSUB)
         COMMENT TYPE 1: A51 / ASM51 Assembler
  D:\KEIL4\C51\LIB\C51L.LIB (?C?LMUL)
         COMMENT TYPE 1: A51 / ASM51 Assembler
  D:\KEIL4\C51\LIB\C51L.LIB (?C?ULDIV)
         COMMENT TYPE 1: A51 / ASM51 Assembler
  D:\KEIL4\C51\LIB\C51L.LIB (?C?SLDIV)
         COMMENT TYPE 1: A51 / ASM51 Assembler
  D:\KEIL4\C51\LIB\C51L.LIB (?C?LAND)
         COMMENT TYPE 1: A51 / ASM51 Assembler
  D:\KEIL4\C51\LIB\C51L.LIB (?C?LOR)
         COMMENT TYPE 1: A51 / ASM51 Assembler
  D:\KEIL4\C51\LIB\C51L.LIB (?C?LNOT)
         COMMENT TYPE 1: A51 / ASM51 Assembler
  D:\KEIL4\C51\LIB\C51L.LIB (?C?SLCMP)
         COMMENT TYPE 1: A51 / ASM51 Assembler
  D:\KEIL4\C51\LIB\C51L.LIB (?C?ULCMP)
         COMMENT TYPE 1: A51 / ASM51 Assembler
  D:\KEIL4\C51\LIB\C51L.LIB (?C?ULSHR)
         COMMENT TYPE 1: A51 / ASM51 Assembler
  D:\KEIL4\C51\LIB\C51L.LIB (?C?LSHL)
         COMMENT TYPE 1: A51 / ASM51 Assembler
  D:\KEIL4\C51\LIB\C51L.LIB (?C?LLDXDATA)
         COMMENT TYPE 1: A51 / ASM51 Assembler
  D:\KEIL4\C51\LIB\C51L.LIB (?C?LLDXDATA0)
         COMMENT TYPE 1: A51 / ASM51 Assembler
  D:\KEIL4\C51\LIB\C51L.LIB (?C?LSTXDATA)
         COMMENT TYPE 1: A51 / ASM51 Assembler
  D:\KEIL4\C51\LIB\C51L.LIB (?C?LSTKXDATA)
         COMMENT TYPE 1: A51 / ASM51 Assembler
  D:\KEIL4\C51\LIB\C51L.LIB (?C?OFFXADD)
         COMMENT TYPE 1: A51 / ASM51 Assembler
  D:\KEIL4\C51\LIB\C51L.LIB (?C?PLDXDATA)
         COMMENT TYPE 1: A51 / ASM51 Assembler
  D:\KEIL4\C51\LIB\C51L.LIB (?C?PSTXDATA)
         COMMENT TYPE 1: A51 / ASM51 Assembler
  D:\KEIL4\C51\LIB\C51L.LIB (?C?PLDPTR)
         COMMENT TYPE 1: A51 / ASM51 Assembler
  D:\KEIL4\C51\LIB\C51L.LIB (?C?PLDOPTR)
         COMMENT TYPE 1: A51 / ASM51 Assembler
  D:\KEIL4\C51\LIB\C51L.LIB (?C?CCASE)
         COMMENT TYPE 1: A51 / ASM51 Assembler
  D:\KEIL4\C51\LIB\C51L.LIB (?C?ICALL)
         COMMENT TYPE 1: A51 / ASM51 Assembler
  D:\KEIL4\C51\LIB\C51L.LIB (ABS)
         COMMENT TYPE 1: A51 / ASM51 Assembler
  D:\KEIL4\C51\LIB\C51L.LIB (?C?STRCPY)
         COMMENT TYPE 1: A51 / ASM51 Assembler
  D:\KEIL4\C51\LIB\C51L.LIB (?C_INIT)
         COMMENT TYPE 1: A51 / ASM51 Assembler
  D:\KEIL4\C51\LIB\C51L.LIB (?C?PLDIDATA)
         COMMENT TYPE 1: A51 / ASM51 Assembler
  D:\KEIL4\C51\LIB\C51L.LIB (?C?PLDPDATA)
         COMMENT TYPE 1: A51 / ASM51 Assembler
  D:\KEIL4\C51\LIB\C51L.LIB (?C?PLDCODE)
LX51 LINKER/LOCATER V4.66.1.0                                                         04/04/2019  16:35:10  PAGE 3


         COMMENT TYPE 1: A51 / ASM51 Assembler


ACTIVE MEMORY CLASSES OF MODULE:  ..\OBJ\VHB15A (STC_EEPROM)

BASE        START       END         USED      MEMORY CLASS
==========================================================
X:000000H   X:000000H   X:0003FFH   00035AH   XDATA
X:000000H   X:000000H   X:0003FFH             HDATA
C:000000H   C:000000H   C:00EFFFH   00C7D1H   CODE
C:000000H   C:000000H   C:00EFFFH             CONST
C:000000H   C:000000H   C:00EFFFH             ECODE
B00:0000H   C:000000H   C:00EFFFH             HCONST
I:000020H.0 I:000020H.0 I:00002FH.7 000001H.0 BIT
I:000000H   I:000000H   I:0000FFH   000001H   IDATA
I:000000H   I:000000H   I:00007FH   000018H   DATA


MEMORY MAP OF MODULE:  ..\OBJ\VHB15A (STC_EEPROM)


START     STOP      LENGTH    ALIGN  RELOC    MEMORY CLASS   SEGMENT NAME
=========================================================================

* * * * * * * * * * *   D A T A   M E M O R Y   * * * * * * * * * * * * *
000000H   000007H   000008H   ---    AT..     DATA           "REG BANK 0"
000008H   00000FH   000008H   ---    AT..     DATA           "REG BANK 1"
000010H   000017H   000008H   ---    AT..     DATA           "REG BANK 2"
000018H.0 00001FH.7 000008H.0 ---    ---      **GAP**
000020H.0 000020H.4 000000H.5 BIT    UNIT     BIT            ?BI?ACTIVITYFUNCTIONS
000020H.5 000020H.7 000000H.3 BIT    UNIT     BIT            _BIT_GROUP_
000021H   000021H   000001H   BYTE   UNIT     IDATA          ?STACK

* * * * * * * * * * *   C O D E   M E M O R Y   * * * * * * * * * * * * *
000000H   000002H   000003H   ---    OFFS..   CODE           ?CO??C_STARTUP?0
000003H   00000AH   000008H   BYTE   UNIT     CODE           ?L?COM0068
00000BH   00000DH   000003H   BYTE   OFFS..   CODE           ?ACTIVITYFUNCTIONS?0000B
00000EH   000012H   000005H   BYTE   UNIT     CODE           ?PR?_SDCMD?LCD
000013H   000015H   000003H   BYTE   OFFS..   CODE           ?ACTIVITYFUNCTIONS?00013
000016H   000021H   00000CH   BYTE   UNIT     CODE           ?PR?_ABS?ABS
000022H   000022H   000001H   ---    ---      **GAP**
000023H   000025H   000003H   BYTE   OFFS..   CODE           ?ACTIVITYFUNCTIONS?00023
000026H   0056B4H   00568FH   BYTE   UNIT     CODE           ?CO?LCD
0056B5H   005C79H   0005C5H   BYTE   UNIT     CODE           ?C?LIB_CODE
005C7AH   005FE3H   00036AH   BYTE   UNIT     CODE           ?C_INITSEG
005FE4H   006276H   000293H   BYTE   UNIT     CODE           ?CO?GUI
006277H   006302H   00008CH   BYTE   UNIT     CODE           ?C_C51STARTUP
006303H   006346H   000044H   BYTE   UNIT     CODE           ?C?LDIV
006347H   006359H   000013H   BYTE   UNIT     CODE           ?PR?_STC_IAP_BYTE_READ?STC_EEPROM
00635AH   006414H   0000BBH   BYTE   UNIT     CODE           ?PR?MEM_FLASH_RECALL?ACTIVITYFUNCTIONS
006415H   0065F6H   0001E2H   BYTE   UNIT     CODE           ?PR?_HMIENTERTOWORKSTATEFUNC?GUI
0065F7H   006620H   00002AH   BYTE   UNIT     CODE           ?L?COM0005
006621H   006630H   000010H   BYTE   UNIT     CODE           ?PR?_STC_IAP_BYTE_PROGRAM?STC_EEPROM
006631H   00663CH   00000CH   BYTE   UNIT     CODE           ?PR?IAP_DISABLE?STC_EEPROM
00663DH   006647H   00000BH   BYTE   UNIT     CODE           ?L?COM008E
006648H   006657H   000010H   BYTE   UNIT     CODE           ?L?COM002F
006658H   0066B9H   000062H   BYTE   UNIT     CODE           ?PR?SETTING_WRITE_TO_FLASH?ACTIVITYFUNCTIONS
0066BAH   0066D0H   000017H   BYTE   UNIT     CODE           ?L?COM0026
0066D1H   00678AH   0000BAH   BYTE   UNIT     CODE           ?PR?_LCD_SHOWSTRING?LCD
00678BH   0067D7H   00004DH   BYTE   UNIT     CODE           ?PR?LCD_SHOW_VERION?LCD
0067D8H   0067E0H   000009H   BYTE   UNIT     CODE           ?L?COM011F
0067E1H   0067E7H   000007H   BYTE   UNIT     CODE           ?L?COM0142
0067E8H   0067EEH   000007H   BYTE   UNIT     CODE           ?L?COM019C
0067EFH   0067F6H   000008H   BYTE   UNIT     CODE           ?L?COM01BA
0067F7H   006809H   000013H   BYTE   UNIT     CODE           ?L?COM00BC
LX51 LINKER/LOCATER V4.66.1.0                                                         04/04/2019  16:35:10  PAGE 4


00680AH   006819H   000010H   BYTE   UNIT     CODE           ?PR?_STC_IAP_SECTOR_ERASE?STC_EEPROM
00681AH   006836H   00001DH   BYTE   UNIT     CODE           ?PR?_DELAY_US?DELAY
006837H   006A63H   00022DH   BYTE   UNIT     CODE           ?PR?GETTEMP_HPCHAMBERFUNC?ACTIVITYFUNCTIONS
006A64H   006AACH   000049H   BYTE   UNIT     CODE           ?PR?DS18B20_READBYTE?DS18B20
006AADH   006AB4H   000008H   BYTE   UNIT     CODE           ?L?COM00BB
006AB5H   006B02H   00004EH   BYTE   UNIT     CODE           ?PR?_DS18B20_WRITEBYTE?DS18B20
006B03H   006B5BH   000059H   BYTE   UNIT     CODE           ?PR?_SHT21_READ8BIT?SHT21
006B5CH   006B64H   000009H   BYTE   UNIT     CODE           ?L?COM00F3
006B65H   006BC8H   000064H   BYTE   UNIT     CODE           ?PR?_SHT21_WRITE8BIT?SHT21
006BC9H   006BD1H   000009H   BYTE   UNIT     CODE           ?L?COM0098
006BD2H   006BD8H   000007H   BYTE   UNIT     CODE           ?L?COM0107
006BD9H   006BE6H   00000EH   BYTE   UNIT     CODE           ?L?COM006E
006BE7H   006BFAH   000014H   BYTE   UNIT     CODE           ?L?COM0019
006BFBH   006D1AH   000120H   BYTE   UNIT     CODE           ?PR?_DRAW_RECTANGLE?LCD
006D1BH   006D46H   00002CH   BYTE   UNIT     CODE           ?PR?_LCD_CRTLWRITE_AREA?LCD
006D47H   006D51H   00000BH   BYTE   UNIT     CODE           ?L?COM018E
006D52H   006D82H   000031H   BYTE   UNIT     CODE           ?PR?_SDDATA?LCD
006D83H   006E5DH   0000DBH   BYTE   UNIT     CODE           ?PR?LCD_INITIAL?LCD
006E5EH   006E85H   000028H   BYTE   UNIT     CODE           ?PR?_LCD_DRAWPOINT?LCD
006E86H   006E98H   000013H   BYTE   UNIT     CODE           ?PR?_LCD_CTRLWRITE_COLOR?LCD
006E99H   006EB7H   00001FH   BYTE   UNIT     CODE           ?PR?_LCD_CTRLWRITE_ILI9328?LCD
006EB8H   006EBCH   000005H   BYTE   UNIT     CODE           ?L?COM0131
006EBDH   006EDBH   00001FH   BYTE   UNIT     CODE           ?PR?_DELAY_MS?DELAY
006EDCH   006EE2H   000007H   BYTE   UNIT     CODE           ?L?COM0145
006EE3H   006EEDH   00000BH   BYTE   UNIT     CODE           ?L?COM00DE
006EEEH   006EF5H   000008H   BYTE   UNIT     CODE           ?L?COM012E
006EF6H   006F01H   00000CH   BYTE   UNIT     CODE           ?L?COM00FE
006F02H   006F14H   000013H   BYTE   UNIT     CODE           ?L?COM00CD
006F15H   006F1BH   000007H   BYTE   UNIT     CODE           ?L?COM0179
006F1CH   006F23H   000008H   BYTE   UNIT     CODE           ?L?COM0187
006F24H   006F31H   00000EH   BYTE   UNIT     CODE           ?PR?SHT21_STOP?SHT21
006F32H   006F3AH   000009H   BYTE   UNIT     CODE           ?L?COM00F5
006F3BH   006F4AH   000010H   BYTE   UNIT     CODE           ?PR?SHT21_START?SHT21
006F4BH   006F58H   00000EH   BYTE   UNIT     CODE           ?PR?SHT21_WRITETEMP?SHT21
006F59H   006F66H   00000EH   BYTE   UNIT     CODE           ?PR?SHT21_WRITERH?SHT21
006F67H   006F72H   00000CH   BYTE   UNIT     CODE           ?L?COM0149
006F73H   006F87H   000015H   BYTE   UNIT     CODE           ?PR?IC_STOP?RX8010
006F88H   006F8FH   000008H   BYTE   UNIT     CODE           ?L?COM0158
006F90H   006FA7H   000018H   BYTE   UNIT     CODE           ?L?COM0069
006FA8H   006FAEH   000007H   BYTE   UNIT     CODE           ?L?COM01DD
006FAFH   006FC5H   000017H   BYTE   UNIT     CODE           ?L?COM0089
006FC6H   006FCDH   000008H   BYTE   UNIT     CODE           ?L?COM01CB
006FCEH   006FD5H   000008H   BYTE   UNIT     CODE           ?L?COM01CC
006FD6H   006FDFH   00000AH   BYTE   UNIT     CODE           ?L?COM012B
006FE0H   006FEAH   00000BH   BYTE   UNIT     CODE           ?L?COM0185
006FEBH   006FF5H   00000BH   BYTE   UNIT     CODE           ?L?COM0186
006FF6H   00700BH   000016H   BYTE   UNIT     CODE           ?PR?MAIN_TIK_TOK_INITIAL_FUN?MAIN_TIK_TOK
00700CH   007033H   000028H   BYTE   UNIT     CODE           ?PR?TIMER_T0_INT_MAIN?MAIN_TIK_TOK
007034H   007037H   000004H   BYTE   UNIT     CODE           ?PR?MAIN_TIK_FUNCTIONS?MAIN_TIK_FUNCTION
007038H   00713CH   000105H   BYTE   UNIT     CODE           ?PR?HEATERPLATEWIREDRIVEFBTASK?ACTIVITYFUNCTIONS
00713DH   007148H   00000CH   BYTE   UNIT     CODE           ?PR?_WS_SETTASKIFG?WS_TASK_MANAGE
007149H   0072B9H   000171H   BYTE   UNIT     CODE           ?PR?MANAGETASK?NORMAL_TASK
0072BAH   0072C0H   000007H   BYTE   UNIT     CODE           ?L?COM019E
0072C1H   0073B3H   0000F3H   BYTE   UNIT     CODE           ?PR?HMISCREENSAVERMODEFUNC?GUI
0073B4H   007454H   0000A1H   BYTE   UNIT     CODE           ?PR?_DRAW_RECTANGLE_REAL?LCD
007455H   0075CEH   00017AH   BYTE   UNIT     CODE           ?PR?DRAWWORKWINDOWS?LCD
0075CFH   007600H   000032H   BYTE   UNIT     CODE           ?L?COM0010
007601H   0077B7H   0001B7H   BYTE   UNIT     CODE           ?PR?SERVICEMODE_TEMPHUMIDY_DISP?ACTIVITYFUNCTIONS
0077B8H   0077CBH   000014H   BYTE   UNIT     CODE           ?L?COM0020
0077CCH   0077DFH   000014H   BYTE   UNIT     CODE           ?L?COM007B
0077E0H   0077E7H   000008H   BYTE   UNIT     CODE           ?L?COM013E
0077E8H   0077EFH   000008H   BYTE   UNIT     CODE           ?L?COM016B
0077F0H   007808H   000019H   BYTE   UNIT     CODE           ?L?COM007D
007809H   00781CH   000014H   BYTE   UNIT     CODE           ?PR?_WS_DELTASKIFG?WS_TASK_MANAGE
00781DH   0078A0H   000084H   BYTE   UNIT     CODE           ?PR?KEYSCANTASK?NORMAL_TASK
LX51 LINKER/LOCATER V4.66.1.0                                                         04/04/2019  16:35:10  PAGE 5


0078A1H   007982H   0000E2H   BYTE   UNIT     CODE           ?PR?KEY_MULTIFUN?KEY_MULTIFUN
007983H   00798CH   00000AH   BYTE   UNIT     CODE           ?L?COM0080
00798DH   007997H   00000BH   BYTE   UNIT     CODE           ?L?COM00BD
007998H   0079A0H   000009H   BYTE   UNIT     CODE           ?L?COM0124
0079A1H   0079AAH   00000AH   BYTE   UNIT     CODE           ?L?COM010E
0079ABH   0079B8H   00000EH   BYTE   UNIT     CODE           ?L?COM00D8
0079B9H   0079BEH   000006H   BYTE   UNIT     CODE           ?L?COM0059
0079BFH   0079CCH   00000EH   BYTE   UNIT     CODE           ?PR?HMISERVICEMODETASK?NORMAL_TASK
0079CDH   007C9AH   0002CEH   BYTE   UNIT     CODE           ?PR?HMISERVICEMODEFUNC?GUI
007C9BH   007CB6H   00001CH   BYTE   UNIT     CODE           ?L?COM0014
007CB7H   007CBEH   000008H   BYTE   UNIT     CODE           ?L?COM0093
007CBFH   007E49H   00018BH   BYTE   UNIT     CODE           ?PR?HMIPOSTFUNC?GUI
007E4AH   007E57H   00000EH   BYTE   UNIT     CODE           ?L?COM0057
007E58H   007EA1H   00004AH   BYTE   UNIT     CODE           ?L?COM0029
007EA2H   007EB9H   000018H   BYTE   UNIT     CODE           ?L?COM0072
007EBAH   007ED9H   000020H   BYTE   UNIT     CODE           ?L?COM001C
007EDAH   007F16H   00003DH   BYTE   UNIT     CODE           ?PR?_SPI_WRITE_NBYTES?W25X
007F17H   007F3EH   000028H   BYTE   UNIT     CODE           ?PR?_SPI_SEND_BYTE?W25X
007F3FH   007F93H   000055H   BYTE   UNIT     CODE           ?PR?_SPI_READ_NBYTES?W25X
007F94H   007FB3H   000020H   BYTE   UNIT     CODE           ?PR?_SPI_ERASE_SECTOR?W25X
007FB4H   007FBCH   000009H   BYTE   UNIT     CODE           ?L?COM013F
007FBDH   007FC5H   000009H   BYTE   UNIT     CODE           ?PR?SPI_WRITE_ENABLE?W25X
007FC6H   007FCFH   00000AH   BYTE   UNIT     CODE           ?L?COM00EF
007FD0H   007FDAH   00000BH   BYTE   UNIT     CODE           ?L?COM0116
007FDBH   007FE4H   00000AH   BYTE   UNIT     CODE           ?L?COM0189
007FE5H   007FEBH   000007H   BYTE   UNIT     CODE           ?L?COM01B9
007FECH   007FF2H   000007H   BYTE   UNIT     CODE           ?L?COM019A
007FF3H   008021H   00002FH   BYTE   UNIT     CODE           ?PR?_WS_TASKJUDGE?WS_TASK_MANAGE
008022H   008038H   000017H   BYTE   UNIT     CODE           ?L?COM00A3
008039H   008046H   00000EH   BYTE   UNIT     CODE           ?PR?SUB_TIK_FUNCTIONS?SUB_TIK_FUNCTION
008047H   008059H   000013H   BYTE   UNIT     CODE           ?PR?HMISCREENSAVERMODE_TIK_CNT?GUI
00805AH   008066H   00000DH   BYTE   UNIT     CODE           ?PR?KEY_UP_TIKFUNC?KEY_DATAS
008067H   008073H   00000DH   BYTE   UNIT     CODE           ?PR?KEY_DOWN_TIKFUNC?KEY_DATAS
008074H   008080H   00000DH   BYTE   UNIT     CODE           ?PR?KEY_OK_TIKFUNC?KEY_DATAS
008081H   00808DH   00000DH   BYTE   UNIT     CODE           ?PR?KEY_MUTE_TIKFUNC?KEY_DATAS
00808EH   00809AH   00000DH   BYTE   UNIT     CODE           ?PR?HMIPOSTFUNC_TIK_CNT?GUI
00809BH   0080A7H   00000DH   BYTE   UNIT     CODE           ?PR?HMINON_INVASIVESEL_TIK_CNT?GUI
0080A8H   0080C0H   000019H   BYTE   UNIT     CODE           ?PR?HMIFACTORYDEFAULT_TIK_CNT?GUI
0080C1H   0080D1H   000011H   BYTE   UNIT     CODE           ?PR?HMIPOSTTASK?NORMAL_TASK
0080D2H   00812CH   00005BH   BYTE   UNIT     CODE           ?PR?MAIN?MAIN
00812DH   00821FH   0000F3H   BYTE   UNIT     CODE           ?PR?INIT_PORT?ACTIVITYFUNCTIONS
008220H   00822CH   00000DH   BYTE   UNIT     CODE           ?L?COM0100
00822DH   008252H   000026H   BYTE   UNIT     CODE           ?PR?_DISP_FNT10X24?LCD
008253H   008302H   0000B0H   BYTE   UNIT     CODE           ?PR?_DISP_MONO_GRAP?LCD
008303H   00832AH   000028H   BYTE   UNIT     CODE           ?PR?_DISP_RH_17X40?LCD
00832BH   008357H   00002DH   BYTE   UNIT     CODE           ?L?COM0009
008358H   008530H   0001D9H   BYTE   UNIT     CODE           ?PR?_REFRESHTEMPHUMIDYFUNC?ACTIVITYFUNCTIONS
008531H   008558H   000028H   BYTE   UNIT     CODE           ?PR?_DISP_TEMP_30X56?LCD
008559H   008564H   00000CH   BYTE   UNIT     CODE           ?L?COM0085
008565H   008591H   00002DH   BYTE   UNIT     CODE           ?PR?_DISPLAY_SET_TEMP?GUI
008592H   0085B3H   000022H   BYTE   UNIT     CODE           ?L?COM003B
0085B4H   008759H   0001A6H   BYTE   UNIT     CODE           ?PR?HMISETTEMPPATIENTFUNC?GUI
00875AH   00878EH   000035H   BYTE   UNIT     CODE           ?PR?_DISP_ICO_32X40?LCD
00878FH   008795H   000007H   BYTE   UNIT     CODE           ?L?COM0193
008796H   00879DH   000008H   BYTE   UNIT     CODE           ?L?COM013D
00879EH   0087ABH   00000EH   BYTE   UNIT     CODE           ?L?COM00AB
0087ACH   0087B9H   00000EH   BYTE   UNIT     CODE           ?L?COM00E4
0087BAH   0087D3H   00001AH   BYTE   UNIT     CODE           ?L?COM002C
0087D4H   0087DAH   000007H   BYTE   UNIT     CODE           ?L?COM01AF
0087DBH   0087E5H   00000BH   BYTE   UNIT     CODE           ?L?COM00A9
0087E6H   0087ECH   000007H   BYTE   UNIT     CODE           ?L?COM0146
0087EDH   0087F5H   000009H   BYTE   UNIT     CODE           ?L?COM0154
0087F6H   008805H   000010H   BYTE   UNIT     CODE           ?PR?HMIFACTORYDEFAULTSELTASK?NORMAL_TASK
008806H   008B4FH   00034AH   BYTE   UNIT     CODE           ?PR?HMIFACTORYDEFAULTFUNC?GUI
008B50H   008C0CH   0000BDH   BYTE   UNIT     CODE           ?PR?_LCD_SHOWXNUM?LCD
LX51 LINKER/LOCATER V4.66.1.0                                                         04/04/2019  16:35:10  PAGE 6


008C0DH   008C3BH   00002FH   BYTE   UNIT     CODE           ?L?COM0034
008C3CH   008C47H   00000CH   BYTE   UNIT     CODE           ?L?COM0023
008C48H   008D43H   0000FCH   BYTE   UNIT     CODE           ?PR?_DRAW_CIRCLE?LCD
008D44H   008D6AH   000027H   BYTE   UNIT     CODE           ?L?COM0043
008D6BH   0093ACH   000642H   BYTE   UNIT     CODE           ?PR?HEATERPLATEWIRECONTROLFUNC?ACTIVITYFUNCTIONS
0093ADH   0093B6H   00000AH   BYTE   UNIT     CODE           ?L?COM0070
0093B7H   0093BDH   000007H   BYTE   UNIT     CODE           ?L?COM0168
0093BEH   0093C5H   000008H   BYTE   UNIT     CODE           ?L?COM00C4
0093C6H   0093D2H   00000DH   BYTE   UNIT     CODE           ?L?COM00B8
0093D3H   0093D9H   000007H   BYTE   UNIT     CODE           ?L?COM0119
0093DAH   009523H   00014AH   BYTE   UNIT     CODE           ?PR?SAVEDATETOFLASHFUNC?ACTIVITYFUNCTIONS
009524H   009533H   000010H   BYTE   UNIT     CODE           ?L?COM0102
009534H   00971AH   0001E7H   BYTE   UNIT     CODE           ?PR?PATIENTTEMP_NONEHEATWIRE_ADJ?ACTIVITYFUNCTIONS
00971BH   009722H   000008H   BYTE   UNIT     CODE           ?L?COM0118
009723H   009729H   000007H   BYTE   UNIT     CODE           ?L?COM0197
00972AH   009733H   00000AH   BYTE   UNIT     CODE           ?L?COM00ED
009734H   009741H   00000EH   BYTE   UNIT     CODE           ?L?COM0084
009742H   009754H   000013H   BYTE   UNIT     CODE           ?L?COM00E8
009755H   00975BH   000007H   BYTE   UNIT     CODE           ?L?COM0134
00975CH   009763H   000008H   BYTE   UNIT     CODE           ?L?COM017D
009764H   00976BH   000008H   BYTE   UNIT     CODE           ?L?COM01B6
00976CH   009773H   000008H   BYTE   UNIT     CODE           ?L?COM01CD
009774H   00977BH   000008H   BYTE   UNIT     CODE           ?L?COM01CE
00977CH   009783H   000008H   BYTE   UNIT     CODE           ?L?COM01DA
009784H   00978BH   000008H   BYTE   UNIT     CODE           ?L?COM01DC
00978CH   009794H   000009H   BYTE   UNIT     CODE           ?L?COM00CF
009795H   00979DH   000009H   BYTE   UNIT     CODE           ?L?COM01A6
00979EH   0097A7H   00000AH   BYTE   UNIT     CODE           ?L?COM01A8
0097A8H   0097B1H   00000AH   BYTE   UNIT     CODE           ?L?COM01AD
0097B2H   0097BDH   00000CH   BYTE   UNIT     CODE           ?L?COM0180
0097BEH   0097CAH   00000DH   BYTE   UNIT     CODE           ?L?COM0169
0097CBH   0097D8H   00000EH   BYTE   UNIT     CODE           ?L?COM0082
0097D9H   0097E6H   00000EH   BYTE   UNIT     CODE           ?L?COM011B
0097E7H   0097EDH   000007H   BYTE   UNIT     CODE           ?L?COM010B
0097EEH   0097FCH   00000FH   BYTE   UNIT     CODE           ?L?COM014A
0097FDH   00980CH   000010H   BYTE   UNIT     CODE           ?PR?HMINON_INVASIVESELTASK?NORMAL_TASK
00980DH   00986FH   000063H   BYTE   UNIT     CODE           ?PR?HMINON_INVASIVESELFUNC?GUI
009870H   009877H   000008H   BYTE   UNIT     CODE           ?L?COM010F
009878H   0098A5H   00002EH   BYTE   UNIT     CODE           ?L?COM0047
0098A6H   0098ACH   000007H   BYTE   UNIT     CODE           ?L?COM013A
0098ADH   009AC7H   00021BH   BYTE   UNIT     CODE           ?PR?HMISETTIMEFUNC?GUI
009AC8H   009BD6H   00010FH   BYTE   UNIT     CODE           ?PR?_DISPLAYTIME?GUI
009BD7H   009BE0H   00000AH   BYTE   UNIT     CODE           ?L?COM006B
009BE1H   009BE9H   000009H   BYTE   UNIT     CODE           ?L?COM0094
009BEAH   009C00H   000017H   BYTE   UNIT     CODE           ?L?COM004A
009C01H   009C2FH   00002FH   BYTE   UNIT     CODE           ?PR?_DISP_TIME_10X16?LCD
009C30H   009C69H   00003AH   BYTE   UNIT     CODE           ?PR?REFRESHRTCTIMEFUNC?ACTIVITYFUNCTIONS
009C6AH   009C72H   000009H   BYTE   UNIT     CODE           ?L?COM00A5
009C73H   009D15H   0000A3H   BYTE   UNIT     CODE           ?PR?_REFRESHRUNTIMEFUNC?ACTIVITYFUNCTIONS
009D16H   009D23H   00000EH   BYTE   UNIT     CODE           ?L?COM008C
009D24H   009D2AH   000007H   BYTE   UNIT     CODE           ?L?COM0141
009D2BH   009D35H   00000BH   BYTE   UNIT     CODE           ?L?COM00C7
009D36H   009D40H   00000BH   BYTE   UNIT     CODE           ?L?COM00C8
009D41H   009D47H   000007H   BYTE   UNIT     CODE           ?L?COM01AE
009D48H   009D54H   00000DH   BYTE   UNIT     CODE           ?L?COM00E2
009D55H   009DB1H   00005DH   BYTE   UNIT     CODE           ?PR?_RX8010_SETTIME?RX8010
009DB2H   009DF0H   00003FH   BYTE   UNIT     CODE           ?PR?_WRITEEEONE?RX8010
009DF1H   009EA8H   0000B8H   BYTE   UNIT     CODE           ?PR?RX8010_INITIALIZE?RX8010
009EA9H   009EB2H   00000AH   BYTE   UNIT     CODE           ?L?COM00AE
009EB3H   009EB9H   000007H   BYTE   UNIT     CODE           ?L?COM0115
009EBAH   009F12H   000059H   BYTE   UNIT     CODE           ?PR?_IC_WRITEBYTE?RX8010
009F13H   009F19H   000007H   BYTE   UNIT     CODE           ?L?COM00DA
009F1AH   009F94H   00007BH   BYTE   UNIT     CODE           ?PR?_READEEONE?RX8010
009F95H   009F9FH   00000BH   BYTE   UNIT     CODE           ?L?COM00E6
009FA0H   009FB6H   000017H   BYTE   UNIT     CODE           ?PR?IC_START?RX8010
LX51 LINKER/LOCATER V4.66.1.0                                                         04/04/2019  16:35:10  PAGE 7


009FB7H   009FC7H   000011H   BYTE   UNIT     CODE           ?L?COM0120
009FC8H   009FCDH   000006H   BYTE   UNIT     CODE           ?L?COM0196
009FCEH   009FD5H   000008H   BYTE   UNIT     CODE           ?L?COM00F4
009FD6H   009FDFH   00000AH   BYTE   UNIT     CODE           ?L?COM0194
009FE0H   009FEAH   00000BH   BYTE   UNIT     CODE           ?L?COM0188
009FEBH   00A04FH   000065H   BYTE   UNIT     CODE           ?PR?_RX8010_GETTIME?RX8010
00A050H   00A05FH   000010H   BYTE   UNIT     CODE           ?PR?HMIRUNNINGTASK?NORMAL_TASK
00A060H   00A1AEH   00014FH   BYTE   UNIT     CODE           ?PR?HMIRUNNINGFUNC?GUI
00A1AFH   00A1BAH   00000CH   BYTE   UNIT     CODE           ?L?COM0099
00A1BBH   00A1C9H   00000FH   BYTE   UNIT     CODE           ?L?COM00F8
00A1CAH   00A1EAH   000021H   BYTE   UNIT     CODE           ?PR?_DISP_ICO_52X64?LCD
00A1EBH   00A1F7H   00000DH   BYTE   UNIT     CODE           ?PR?SOUND_SHORT?SOUND_TYPE
00A1F8H   00A32EH   000137H   BYTE   UNIT     CODE           ?PR?HMISETTEMPCHAMBERFUNC?GUI
00A32FH   00A339H   00000BH   BYTE   UNIT     CODE           ?L?COM00C2
00A33AH   00A34AH   000011H   BYTE   UNIT     CODE           ?L?COM009E
00A34BH   00A351H   000007H   BYTE   UNIT     CODE           ?L?COM01C1
00A352H   00A3D2H   000081H   BYTE   UNIT     CODE           ?PR?_DISPLAY_IN_EXP_RATIO?GUI
00A3D3H   00A3EDH   00001BH   BYTE   UNIT     CODE           ?L?COM0001
00A3EEH   00A4C3H   0000D6H   BYTE   UNIT     CODE           ?PR?HMISETINEXPFUNC?GUI
00A4C4H   00A4CBH   000008H   BYTE   UNIT     CODE           ?L?COM01BB
00A4CCH   00A4D3H   000008H   BYTE   UNIT     CODE           ?L?COM01BE
00A4D4H   00A4E3H   000010H   BYTE   UNIT     CODE           ?L?COM00AC
00A4E4H   00A537H   000054H   BYTE   UNIT     CODE           ?PR?LOAD_SETTINGS_BEFORE_CHOICE?ACTIVITYFUNCTIONS
00A538H   00A544H   00000DH   BYTE   UNIT     CODE           ?L?COM015C
00A545H   00A54BH   000007H   BYTE   UNIT     CODE           ?L?COM0162
00A54CH   00A552H   000007H   BYTE   UNIT     CODE           ?L?COM0163
00A553H   00A55CH   00000AH   BYTE   UNIT     CODE           ?L?COM0128
00A55DH   00A578H   00001CH   BYTE   UNIT     CODE           ?PR?WRITE_DEFAULT_SETTING_TO_FLASH?ACTIVITYFUNCTIONS
00A579H   00A580H   000008H   BYTE   UNIT     CODE           ?L?COM016A
00A581H   00A5A4H   000024H   BYTE   UNIT     CODE           ?PR?REFRESH_WORK_MODE?LCD
00A5A5H   00A5B6H   000012H   BYTE   UNIT     CODE           ?PR?_DISP_YOUCHUANG?LCD
00A5B7H   00A5CEH   000018H   BYTE   UNIT     CODE           ?PR?_DISP_WUCHUANG?LCD
00A5CFH   00A5D5H   000007H   BYTE   UNIT     CODE           ?L?COM010C
00A5D6H   00A5DFH   00000AH   BYTE   UNIT     CODE           ?L?COM0096
00A5E0H   00A5F1H   000012H   BYTE   UNIT     CODE           ?PR?_DISP_JQK41X16?LCD
00A5F2H   00A603H   000012H   BYTE   UNIT     CODE           ?PR?_DISP_HEAT_36X24?LCD
00A604H   00A615H   000012H   BYTE   UNIT     CODE           ?PR?_DISP_VHB80_56X40?LCD
00A616H   00A67DH   000068H   BYTE   UNIT     CODE           ?PR?_DISP_VHB80_PIC?LCD
00A67EH   00A688H   00000BH   BYTE   UNIT     CODE           ?L?COM0127
00A689H   00A6A0H   000018H   BYTE   UNIT     CODE           ?PR?_DISP_CQK25X24?LCD
00A6A1H   00A6B8H   000018H   BYTE   UNIT     CODE           ?PR?_DISP_RTD28X24?LCD
00A6B9H   00A6C8H   000010H   BYTE   UNIT     CODE           ?L?COM0090
00A6C9H   00A6CFH   000007H   BYTE   UNIT     CODE           ?L?COM016E
00A6D0H   00A6D6H   000007H   BYTE   UNIT     CODE           ?L?COM019F
00A6D7H   00A6DDH   000007H   BYTE   UNIT     CODE           ?L?COM01C0
00A6DEH   00A6E5H   000008H   BYTE   UNIT     CODE           ?L?COM0140
00A6E6H   00A6EDH   000008H   BYTE   UNIT     CODE           ?L?COM016D
00A6EEH   00A6F5H   000008H   BYTE   UNIT     CODE           ?L?COM016F
00A6F6H   00A6FDH   000008H   BYTE   UNIT     CODE           ?L?COM01B5
00A6FEH   00A737H   00003AH   BYTE   UNIT     CODE           ?PR?_DISP_TEMP_38X64?LCD
00A738H   00A766H   00002FH   BYTE   UNIT     CODE           ?L?COM0038
00A767H   00A76EH   000008H   BYTE   UNIT     CODE           ?L?COM01BD
00A76FH   00A776H   000008H   BYTE   UNIT     CODE           ?L?COM01BF
00A777H   00A780H   00000AH   BYTE   UNIT     CODE           ?L?COM00DB
00A781H   00A79DH   00001DH   BYTE   UNIT     CODE           ?PR?_DISP_RH14X24?LCD
00A79EH   00A7BEH   000021H   BYTE   UNIT     CODE           ?PR?_DISP_DHM?LCD
00A7BFH   00A7E2H   000024H   BYTE   UNIT     CODE           ?PR?_DISP_ICO_40X40?LCD
00A7E3H   00A7F3H   000011H   BYTE   UNIT     CODE           ?PR?HMISETTEMPPATIENTTASK?NORMAL_TASK
00A7F4H   00A804H   000011H   BYTE   UNIT     CODE           ?PR?HMISETTEMPCHAMBERTASK?NORMAL_TASK
00A805H   00A815H   000011H   BYTE   UNIT     CODE           ?PR?HMISETINEXPTASK?NORMAL_TASK
00A816H   00A826H   000011H   BYTE   UNIT     CODE           ?PR?HMISETTIMETASK?NORMAL_TASK
00A827H   00A837H   000011H   BYTE   UNIT     CODE           ?PR?HMISCREENSAVERMODETASK?NORMAL_TASK
00A838H   00A848H   000011H   BYTE   UNIT     CODE           ?PR?GETTEMP_HPCHAMBERTASK?NORMAL_TASK
00A849H   00A858H   000010H   BYTE   UNIT     CODE           ?PR?GETTEMPHUMIDITY_PATIENTTASK?NORMAL_TASK
00A859H   00AB91H   000339H   BYTE   UNIT     CODE           ?PR?GETTEMPHUMIDITY_PATIENTFUNC?ACTIVITYFUNCTIONS
LX51 LINKER/LOCATER V4.66.1.0                                                         04/04/2019  16:35:10  PAGE 8


00AB92H   00AB97H   000006H   BYTE   UNIT     CODE           ?L?COM00D5
00AB98H   00ABA3H   00000CH   BYTE   UNIT     CODE           ?L?COM0077
00ABA4H   00ABB2H   00000FH   BYTE   UNIT     CODE           ?L?COM00EB
00ABB3H   00AC66H   0000B4H   BYTE   UNIT     CODE           ?PR?SHT21_READDATA?SHT21
00AC67H   00AC72H   00000CH   BYTE   UNIT     CODE           ?L?COM0135
00AC73H   00AC80H   00000EH   BYTE   UNIT     CODE           ?L?COM00C9
00AC81H   00AC8CH   00000CH   BYTE   UNIT     CODE           ?L?COM0122
00AC8DH   00AC93H   000007H   BYTE   UNIT     CODE           ?L?COM00B5
00AC94H   00AD83H   0000F0H   BYTE   UNIT     CODE           ?PR?UART_RECDATA_FUNC?ACTIVITYFUNCTIONS
00AD84H   00AD8DH   00000AH   BYTE   UNIT     CODE           ?L?COM0133
00AD8EH   00AD94H   000007H   BYTE   UNIT     CODE           ?L?COM0192
00AD95H   00AD9BH   000007H   BYTE   UNIT     CODE           ?L?COM01DF
00AD9CH   00ADA3H   000008H   BYTE   UNIT     CODE           ?L?COM018C
00ADA4H   00ADABH   000008H   BYTE   UNIT     CODE           ?L?COM01DE
00ADACH   00ADB5H   00000AH   BYTE   UNIT     CODE           ?L?COM0195
00ADB6H   00ADC1H   00000CH   BYTE   UNIT     CODE           ?L?COM0183
00ADC2H   00ADCEH   00000DH   BYTE   UNIT     CODE           ?PR?UART_RECBUF_CLEAR_FUN?ACTIVITYFUNCTIONS
00ADCFH   00ADDBH   00000DH   BYTE   UNIT     CODE           ?L?COM0160
00ADDCH   00ADF0H   000015H   BYTE   UNIT     CODE           ?L?COM009B
00ADF1H   00ADF7H   000007H   BYTE   UNIT     CODE           ?L?COM0166
00ADF8H   00AF01H   00010AH   BYTE   UNIT     CODE           ?PR?GET_RUNCOUNT?ACTIVITYFUNCTIONS
00AF02H   00AF08H   000007H   BYTE   UNIT     CODE           ?L?COM01A2
00AF09H   00AF15H   00000DH   BYTE   UNIT     CODE           ?L?COM0167
00AF16H   00AF2EH   000019H   BYTE   UNIT     CODE           ?PR?_EUSART_WRITE_STR?UART_FUN
00AF2FH   00AF34H   000006H   BYTE   UNIT     CODE           ?PR?_EUSART_WRITE?UART_FUN
00AF35H   00AF3EH   00000AH   BYTE   UNIT     CODE           ?PR?_SEND_CHAR_COM?UART_FUN
00AF3FH   00AF5CH   00001EH   BYTE   UNIT     CODE           ?PR?EUSART_READ?UART_FUN
00AF5DH   00AF7FH   000023H   BYTE   UNIT     CODE           ?L?COM005A
00AF80H   00AF88H   000009H   BYTE   UNIT     CODE           ?L?COM014D
00AF89H   00AF92H   00000AH   BYTE   UNIT     CODE           ?L?COM019D
00AF93H   00AF9DH   00000BH   BYTE   UNIT     CODE           ?L?COM017F
00AF9EH   00AFAAH   00000DH   BYTE   UNIT     CODE           ?L?COM0152
00AFABH   00AFB8H   00000EH   BYTE   UNIT     CODE           ?L?COM00B2
00AFB9H   00AFC8H   000010H   BYTE   UNIT     CODE           ?L?COM00B6
00AFC9H   00AFD8H   000010H   BYTE   UNIT     CODE           ?PR?UARTRECTASK?NORMAL_TASK
00AFD9H   00AFEBH   000013H   BYTE   UNIT     CODE           ?PR?REFRESHTEMPHUMIDYTASK?NORMAL_TASK
00AFECH   00AFFEH   000013H   BYTE   UNIT     CODE           ?PR?REFRESHRUNTIMETASK?NORMAL_TASK
00AFFFH   00B01DH   00001FH   BYTE   UNIT     CODE           ?PR?REFRESHRTCTIMETASK?NORMAL_TASK
00B01EH   00B02EH   000011H   BYTE   UNIT     CODE           ?PR?HEATERWIRECONTROLTASK?NORMAL_TASK
00B02FH   00B03EH   000010H   BYTE   UNIT     CODE           ?PR?LOWPOWERMODETASK?NORMAL_TASK
00B03FH   00B0A8H   00006AH   BYTE   UNIT     CODE           ?PR?LOWPOWERMODEFUNC?ACTIVITYFUNCTIONS
00B0A9H   00B0B0H   000008H   BYTE   UNIT     CODE           ?L?COM017C
00B0B1H   00B600H   000550H   BYTE   UNIT     CODE           ?PR?ALARMERRORFUNC?ACTIVITYFUNCTIONS
00B601H   00B607H   000007H   BYTE   UNIT     CODE           ?L?COM00DF
00B608H   00B611H   00000AH   BYTE   UNIT     CODE           ?L?COM0097
00B612H   00B619H   000008H   BYTE   UNIT     CODE           ?L?COM0147
00B61AH   00B624H   00000BH   BYTE   UNIT     CODE           ?L?COM00FA
00B625H   00B62BH   000007H   BYTE   UNIT     CODE           ?L?COM01AA
00B62CH   00B632H   000007H   BYTE   UNIT     CODE           ?L?COM01AC
00B633H   00B63AH   000008H   BYTE   UNIT     CODE           ?L?COM016C
00B63BH   00B642H   000008H   BYTE   UNIT     CODE           ?L?COM017E
00B643H   00B64AH   000008H   BYTE   UNIT     CODE           ?L?COM01D5
00B64BH   00B652H   000008H   BYTE   UNIT     CODE           ?L?COM01D6
00B653H   00B65AH   000008H   BYTE   UNIT     CODE           ?L?COM01D7
00B65BH   00B662H   000008H   BYTE   UNIT     CODE           ?L?COM01D8
00B663H   00B66CH   00000AH   BYTE   UNIT     CODE           ?L?COM0137
00B66DH   00B677H   00000BH   BYTE   UNIT     CODE           ?L?COM0191
00B678H   00B684H   00000DH   BYTE   UNIT     CODE           ?L?COM0164
00B685H   00B691H   00000DH   BYTE   UNIT     CODE           ?L?COM0165
00B692H   00B698H   000007H   BYTE   UNIT     CODE           ?L?COM01A0
00B699H   00B6A0H   000008H   BYTE   UNIT     CODE           ?PR?SOUND_ALARM_PAUSE_DISABLE?SOUND_TYPE
00B6A1H   00B6A8H   000008H   BYTE   UNIT     CODE           ?L?COM01D1
00B6A9H   00B6B0H   000008H   BYTE   UNIT     CODE           ?L?COM01D9
00B6B1H   00B6BEH   00000EH   BYTE   UNIT     CODE           ?L?COM0156
00B6BFH   00B6CEH   000010H   BYTE   UNIT     CODE           ?PR?ALARMERRORTASK?NORMAL_TASK
LX51 LINKER/LOCATER V4.66.1.0                                                         04/04/2019  16:35:10  PAGE 9


00B6CFH   00B6ECH   00001EH   BYTE   UNIT     CODE           ?PR?KEYMUTEPRESSSHORTACTION?KEY_DATAS
00B6EDH   00B6F7H   00000BH   BYTE   UNIT     CODE           ?PR?SOUND_ALARM_PAUSE_ENABLE?SOUND_TYPE
00B6F8H   00B707H   000010H   BYTE   UNIT     CODE           ?PR?HEATERWIREMODEDETTASK?NORMAL_TASK
00B708H   00B751H   00004AH   BYTE   UNIT     CODE           ?PR?HEATERWIREMODEDETFUNC?ACTIVITYFUNCTIONS
00B752H   00B762H   000011H   BYTE   UNIT     CODE           ?PR?LOWTEMPDET1STASK?NORMAL_TASK
00B763H   00B773H   000011H   BYTE   UNIT     CODE           ?PR?SAVEDATETOFLASHTASK?NORMAL_TASK
00B774H   00B794H   000021H   BYTE   UNIT     CODE           ?PR?INTERRUPT_EXT1?ACTIVITYFUNCTIONS
00B795H   00B7B5H   000021H   BYTE   UNIT     CODE           ?PR?INTERRUPT_TIME0?ACTIVITYFUNCTIONS
00B7B6H   00B7DCH   000027H   BYTE   UNIT     CODE           ?PR?SERIAL?ACTIVITYFUNCTIONS
00B7DDH   00B7E4H   000008H   BYTE   UNIT     CODE           ?PR?EUSART_TRANSMIT_ISR?UART_FUN
00B7E5H   00B842H   00005EH   BYTE   UNIT     CODE           ?PR?STORE_DATA?ACTIVITYFUNCTIONS
00B843H   00B84DH   00000BH   BYTE   UNIT     CODE           ?PR?ERR_BASE_HEATERWIRE_DISP_ENABLE?ACTIVITYFUNCTIONS
00B84EH   00BB25H   0002D8H   BYTE   UNIT     CODE           ?PR?LOWTEMPDET1SFUNC?ACTIVITYFUNCTIONS
00BB26H   00BB2CH   000007H   BYTE   UNIT     CODE           ?L?COM01A9
00BB2DH   00BB34H   000008H   BYTE   UNIT     CODE           ?L?COM01B2
00BB35H   00BB3CH   000008H   BYTE   UNIT     CODE           ?L?COM01D2
00BB3DH   00BB44H   000008H   BYTE   UNIT     CODE           ?L?COM01D3
00BB45H   00BB4CH   000008H   BYTE   UNIT     CODE           ?L?COM01D4
00BB4DH   00BB5CH   000010H   BYTE   UNIT     CODE           ?L?COM004D
00BB5DH   00BBB5H   000059H   BYTE   UNIT     CODE           ?PR?MAIN_INIT?ACTIVITYFUNCTIONS
00BBB6H   00BBBDH   000008H   BYTE   UNIT     CODE           ?L?COM017A
00BBBEH   00BBC5H   000008H   BYTE   UNIT     CODE           ?L?COM018F
00BBC6H   00BBDAH   000015H   BYTE   UNIT     CODE           ?L?COM00F1
00BBDBH   00BBE1H   000007H   BYTE   UNIT     CODE           ?L?COM01A7
00BBE2H   00BBE9H   000008H   BYTE   UNIT     CODE           ?L?COM01B1
00BBEAH   00BBF1H   000008H   BYTE   UNIT     CODE           ?L?COM01B3
00BBF2H   00BCB7H   0000C6H   BYTE   UNIT     CODE           ?PR?CONTROLER_CALC?ACTIVITYFUNCTIONS
00BCB8H   00BCC2H   00000BH   BYTE   UNIT     CODE           ?L?COM009D
00BCC3H   00BDA2H   0000E0H   BYTE   UNIT     CODE           ?PR?HEATPLATE_CONTROLER_CALC?ACTIVITYFUNCTIONS
00BDA3H   00BDB1H   00000FH   BYTE   UNIT     CODE           ?L?COM0064
00BDB2H   00BEA4H   0000F3H   BYTE   UNIT     CODE           ?PR?HEATPLATETEMP_AIM_CONTROLER_CALC?ACTIVITYFUNCTIONS
00BEA5H   00BEABH   000007H   BYTE   UNIT     CODE           ?L?COM0199
00BEACH   00BEB3H   000008H   BYTE   UNIT     CODE           ?L?COM0121
00BEB4H   00BEBBH   000008H   BYTE   UNIT     CODE           ?L?COM013C
00BEBCH   00BEC3H   000008H   BYTE   UNIT     CODE           ?L?COM017B
00BEC4H   00BECDH   00000AH   BYTE   UNIT     CODE           ?L?COM0139
00BECEH   00BEDCH   00000FH   BYTE   UNIT     CODE           ?L?COM00EA
00BEDDH   00BEF2H   000016H   BYTE   UNIT     CODE           ?L?COM00D1
00BEF3H   00BF1EH   00002CH   BYTE   UNIT     CODE           ?PR?_LCD_SHOWCHAR?LCD
00BF1FH   00BF32H   000014H   BYTE   UNIT     CODE           ?L?COM0110
00BF33H   00BF3AH   000008H   BYTE   UNIT     CODE           ?L?COM01CF
00BF3BH   00BF42H   000008H   BYTE   UNIT     CODE           ?L?COM01D0
00BF43H   00BF4FH   00000DH   BYTE   UNIT     CODE           ?L?COM0161
00BF50H   00BF89H   00003AH   BYTE   UNIT     CODE           ?PR?WIREINOUT_STATE_CONFIRM?ACTIVITYFUNCTIONS
00BF8AH   00BFBBH   000032H   BYTE   UNIT     CODE           ?PR?SOUND_TYPE_DRIVE?SOUND_TYPE
00BFBCH   00C0A4H   0000E9H   BYTE   UNIT     CODE           ?PR?_DISP_FNT8X16?LCD
00C0A5H   00C0ACH   000008H   BYTE   UNIT     CODE           ?L?COM0117
00C0ADH   00C1FDH   000151H   BYTE   UNIT     CODE           ?PR?_DISP_FNT12X24?LCD
00C1FEH   00C205H   000008H   BYTE   UNIT     CODE           ?L?COM0175
00C206H   00C20DH   000008H   BYTE   UNIT     CODE           ?L?COM0176
00C20EH   00C215H   000008H   BYTE   UNIT     CODE           ?L?COM0177
00C216H   00C221H   00000CH   BYTE   UNIT     CODE           ?L?COM0114
00C222H   00C234H   000013H   BYTE   UNIT     CODE           ?L?COM00FC
00C235H   00C23CH   000008H   BYTE   UNIT     CODE           ?L?COM0174
00C23DH   00C24EH   000012H   BYTE   UNIT     CODE           ?L?COM012D
00C24FH   00C256H   000008H   BYTE   UNIT     CODE           ?L?COM01C9
00C257H   00C269H   000013H   BYTE   UNIT     CODE           ?L?COM011A
00C26AH   00C271H   000008H   BYTE   UNIT     CODE           ?L?COM01CA
00C272H   00C292H   000021H   BYTE   UNIT     CODE           ?L?COM00C1
00C293H   00C2CAH   000038H   BYTE   UNIT     CODE           ?PR?_LCD_POW?LCD
00C2CBH   00C2D4H   00000AH   BYTE   UNIT     CODE           ?PR?SPI_WRITE_DISABLE?W25X
00C2D5H   00C2DEH   00000AH   BYTE   UNIT     CODE           ?PR?SPI_INIT?W25X
00C2DFH   00C301H   000023H   BYTE   UNIT     CODE           ?PR?SPI_GET_BYTE?W25X
00C302H   00C339H   000038H   BYTE   UNIT     CODE           ?PR?_SHT2X_CHECKCRC?SHT21
00C33AH   00C346H   00000DH   BYTE   UNIT     CODE           ?L?COM015E
LX51 LINKER/LOCATER V4.66.1.0                                                         04/04/2019  16:35:10  PAGE 10


00C347H   00C3B5H   00006FH   BYTE   UNIT     CODE           ?PR?_DS18B20_CHECKCRC?DS18B20
00C3B6H   00C400H   00004BH   BYTE   UNIT     CODE           ?PR?IC_READBYTE?RX8010
00C401H   00C407H   000007H   BYTE   UNIT     CODE           ?PR?KEYUPPRESSSHORTACTION?KEY_DATAS
00C408H   00C40EH   000007H   BYTE   UNIT     CODE           ?PR?KEYUPPRESSLONGFIRSTACTION?KEY_DATAS
00C40FH   00C415H   000007H   BYTE   UNIT     CODE           ?PR?KEYUPPRESSLONGREPEATACTION?KEY_DATAS
00C416H   00C41CH   000007H   BYTE   UNIT     CODE           ?PR?KEYDOWNPRESSSHORTACTION?KEY_DATAS
00C41DH   00C423H   000007H   BYTE   UNIT     CODE           ?PR?KEYDOWNPRESSLONGFIRSTACTION?KEY_DATAS
00C424H   00C42AH   000007H   BYTE   UNIT     CODE           ?PR?KEYDOWNPRESSLONGREPEATACTION?KEY_DATAS
00C42BH   00C431H   000007H   BYTE   UNIT     CODE           ?PR?KEYOKPRESSSHORTACTION?KEY_DATAS
00C432H   00C438H   000007H   BYTE   UNIT     CODE           ?PR?KEYOKPRESSLONGFIRSTACTION?KEY_DATAS
00C439H   00C43FH   000007H   BYTE   UNIT     CODE           ?PR?KEYOKPRESSLONGREPEATACTION?KEY_DATAS
00C440H   00C446H   000007H   BYTE   UNIT     CODE           ?PR?KEYMUTEPRESSLONGFIRSTACTION?KEY_DATAS
00C447H   00C44DH   000007H   BYTE   UNIT     CODE           ?PR?KEYMUTEPRESSLONGREPEATACTION?KEY_DATAS
00C44EH   00C459H   00000CH   BYTE   UNIT     CODE           ?PR?ENTERSETTIME?GUI
00C45AH   00C4C8H   00006FH   BYTE   UNIT     CODE           ?PR?DATE_IS_CORRECT?GUI
00C4C9H   00C4D6H   00000EH   BYTE   UNIT     CODE           ?PR?ENTERSETINEXP?GUI
00C4D7H   00C4F3H   00001DH   BYTE   UNIT     CODE           ?PR?EUSART_INITIALIZE?UART_FUN
00C4F4H   00C513H   000020H   BYTE   UNIT     CODE           ?PR?EUSART_RECEIVE_ISR?UART_FUN
00C514H   00C52AH   000017H   BYTE   UNIT     CODE           ?L?COM0054
00C52BH   00C54FH   000025H   BYTE   UNIT     CODE           ?L?COM005F
00C550H   00C560H   000011H   BYTE   UNIT     CODE           ?L?COM0062
00C561H   00C592H   000032H   BYTE   UNIT     CODE           ?L?COM0067
00C593H   00C59EH   00000CH   BYTE   UNIT     CODE           ?L?COM0075
00C59FH   00C5BBH   00001DH   BYTE   UNIT     CODE           ?L?COM0087
00C5BCH   00C5D0H   000015H   BYTE   UNIT     CODE           ?L?COM00A2
00C5D1H   00C5E6H   000016H   BYTE   UNIT     CODE           ?L?COM00A7
00C5E7H   00C5F4H   00000EH   BYTE   UNIT     CODE           ?L?COM00C5
00C5F5H   00C608H   000014H   BYTE   UNIT     CODE           ?L?COM00CB
00C609H   00C620H   000018H   BYTE   UNIT     CODE           ?L?COM00DC
00C621H   00C630H   000010H   BYTE   UNIT     CODE           ?L?COM0104
00C631H   00C63CH   00000CH   BYTE   UNIT     CODE           ?L?COM0113
00C63DH   00C649H   00000DH   BYTE   UNIT     CODE           ?L?COM011D
00C64AH   00C655H   00000CH   BYTE   UNIT     CODE           ?L?COM0125
00C656H   00C660H   00000BH   BYTE   UNIT     CODE           ?L?COM012F
00C661H   00C672H   000012H   BYTE   UNIT     CODE           ?L?COM0130
00C673H   00C67AH   000008H   BYTE   UNIT     CODE           ?L?COM013B
00C67BH   00C683H   000009H   BYTE   UNIT     CODE           ?L?COM0143
00C684H   00C68DH   00000AH   BYTE   UNIT     CODE           ?L?COM0144
00C68EH   00C69CH   00000FH   BYTE   UNIT     CODE           ?L?COM014B
00C69DH   00C6A9H   00000DH   BYTE   UNIT     CODE           ?L?COM014C
00C6AAH   00C6B2H   000009H   BYTE   UNIT     CODE           ?L?COM0150
00C6B3H   00C6C0H   00000EH   BYTE   UNIT     CODE           ?L?COM0153
00C6C1H   00C6C8H   000008H   BYTE   UNIT     CODE           ?L?COM0155
00C6C9H   00C6D6H   00000EH   BYTE   UNIT     CODE           ?L?COM0157
00C6D7H   00C6DDH   000007H   BYTE   UNIT     CODE           ?L?COM015A
00C6DEH   00C6EAH   00000DH   BYTE   UNIT     CODE           ?L?COM015B
00C6EBH   00C6F6H   00000CH   BYTE   UNIT     CODE           ?L?COM015D
00C6F7H   00C703H   00000DH   BYTE   UNIT     CODE           ?L?COM015F
00C704H   00C70BH   000008H   BYTE   UNIT     CODE           ?L?COM0170
00C70CH   00C717H   00000CH   BYTE   UNIT     CODE           ?L?COM0171
00C718H   00C723H   00000CH   BYTE   UNIT     CODE           ?L?COM0172
00C724H   00C72FH   00000CH   BYTE   UNIT     CODE           ?L?COM0173
00C730H   00C73BH   00000CH   BYTE   UNIT     CODE           ?L?COM0178
00C73CH   00C747H   00000CH   BYTE   UNIT     CODE           ?L?COM0181
00C748H   00C753H   00000CH   BYTE   UNIT     CODE           ?L?COM0182
00C754H   00C75EH   00000BH   BYTE   UNIT     CODE           ?L?COM018A
00C75FH   00C768H   00000AH   BYTE   UNIT     CODE           ?L?COM018B
00C769H   00C771H   000009H   BYTE   UNIT     CODE           ?L?COM0198
00C772H   00C778H   000007H   BYTE   UNIT     CODE           ?L?COM019B
00C779H   00C782H   00000AH   BYTE   UNIT     CODE           ?L?COM01A5
00C783H   00C78AH   000008H   BYTE   UNIT     CODE           ?L?COM01B0
00C78BH   00C792H   000008H   BYTE   UNIT     CODE           ?L?COM01B7
00C793H   00C79AH   000008H   BYTE   UNIT     CODE           ?L?COM01B8
00C79BH   00C7A2H   000008H   BYTE   UNIT     CODE           ?L?COM01C2
00C7A3H   00C7A9H   000007H   BYTE   UNIT     CODE           ?L?COM01C3
LX51 LINKER/LOCATER V4.66.1.0                                                         04/04/2019  16:35:10  PAGE 11


00C7AAH   00C7B1H   000008H   BYTE   UNIT     CODE           ?L?COM01C4
00C7B2H   00C7B9H   000008H   BYTE   UNIT     CODE           ?L?COM01C6
00C7BAH   00C7C1H   000008H   BYTE   UNIT     CODE           ?L?COM01C7
00C7C2H   00C7C9H   000008H   BYTE   UNIT     CODE           ?L?COM01C8
00C7CAH   00C7D1H   000008H   BYTE   UNIT     CODE           ?L?COM01DB

* * * * * * * * * * *  X D A T A   M E M O R Y  * * * * * * * * * * * * *
000000H   00010DH   00010EH   BYTE   UNIT     XDATA          ?XD?ACTIVITYFUNCTIONS
00010EH   0001C7H   0000BAH   BYTE   UNIT     XDATA          _XDATA_GROUP_
0001C8H   00024CH   000085H   BYTE   UNIT     XDATA          ?XD?WS_TASK_MANAGE
00024DH   0002D0H   000084H   BYTE   UNIT     XDATA          ?XD?UART_FUN
0002D1H   000329H   000059H   BYTE   UNIT     XDATA          ?XD?KEY_DATAS
00032AH   000349H   000020H   BYTE   UNIT     XDATA          ?XD?GUI
00034AH   00034EH   000005H   BYTE   UNIT     XDATA          ?XD?NORMAL_TASK
00034FH   000351H   000003H   BYTE   UNIT     XDATA          ?XD?SOUND_TYPE
000352H   000353H   000002H   BYTE   UNIT     XDATA          ?XD?STC_EEPROM
000354H   000355H   000002H   BYTE   UNIT     XDATA          ?XD?MAIN_TIK_TOK
000356H   000357H   000002H   BYTE   UNIT     XDATA          ?XD?DS18B20
000358H   000358H   000001H   BYTE   UNIT     XDATA          ?XD?LCD
000359H   000359H   000001H   BYTE   UNIT     XDATA          ?XD?KEY_MULTIFUN



OVERLAY MAP OF MODULE:   ..\OBJ\VHB15A (STC_EEPROM)


FUNCTION/MODULE                                BIT_GROUP   XDATA_GROUP
--> CALLED FUNCTION/MODULE                    START  STOP  START  STOP
======================================================================
INTERRUPT_EXT1/ACTIVITYFUNCTIONS              ----- -----  ----- -----

*** NEW ROOT ********************************

INTERRUPT_TIME0/ACTIVITYFUNCTIONS             ----- -----  ----- -----
  +--> TIMER_T0_INT_MAIN/MAIN_TIK_TOK

TIMER_T0_INT_MAIN/MAIN_TIK_TOK                ----- -----  ----- -----
  +--> MAIN_TIK_FUNCTIONS/MAIN_TIK_FUNCTION
  +--> SOUND_TYPE_DRIVE/SOUND_TYPE
  +--> SUB_TIK_FUNCTIONS/SUB_TIK_FUNCTION

MAIN_TIK_FUNCTIONS/MAIN_TIK_FUNCTION          ----- -----  ----- -----
  +--> _WS_SETTASKIFG/WS_TASK_MANAGE
  +--> HEATERPLATEWIREDRIVEFBTASK/ACTIVITYFUNCTIONS

_WS_SETTASKIFG/WS_TASK_MANAGE                 ----- -----  ----- -----

HEATERPLATEWIREDRIVEFBTASK/ACTIVITYFUNCT+     ----- -----  ----- -----
... IONS

SOUND_TYPE_DRIVE/SOUND_TYPE                   ----- -----  ----- -----

SUB_TIK_FUNCTIONS/SUB_TIK_FUNCTION            ----- -----  ----- -----
  +--> KEY_UP_TIKFUNC/KEY_DATAS
  +--> KEY_DOWN_TIKFUNC/KEY_DATAS
  +--> KEY_OK_TIKFUNC/KEY_DATAS
  +--> KEY_MUTE_TIKFUNC/KEY_DATAS
  +--> HMIPOSTFUNC_TIK_CNT/GUI
  +--> HMIFACTORYDEFAULT_TIK_CNT/GUI
  +--> HMINON_INVASIVESEL_TIK_CNT/GUI
  +--> HMISCREENSAVERMODE_TIK_CNT/GUI

KEY_UP_TIKFUNC/KEY_DATAS                      ----- -----  ----- -----

KEY_DOWN_TIKFUNC/KEY_DATAS                    ----- -----  ----- -----
LX51 LINKER/LOCATER V4.66.1.0                                                         04/04/2019  16:35:10  PAGE 12



KEY_OK_TIKFUNC/KEY_DATAS                      ----- -----  ----- -----

KEY_MUTE_TIKFUNC/KEY_DATAS                    ----- -----  ----- -----

HMIPOSTFUNC_TIK_CNT/GUI                       ----- -----  ----- -----

HMIFACTORYDEFAULT_TIK_CNT/GUI                 ----- -----  ----- -----

HMINON_INVASIVESEL_TIK_CNT/GUI                ----- -----  ----- -----

HMISCREENSAVERMODE_TIK_CNT/GUI                ----- -----  ----- -----

*** NEW ROOT ********************************

SERIAL/ACTIVITYFUNCTIONS                      ----- -----  ----- -----
  +--> EUSART_RECEIVE_ISR/UART_FUN
  +--> EUSART_TRANSMIT_ISR/UART_FUN

EUSART_RECEIVE_ISR/UART_FUN                   ----- -----  ----- -----

EUSART_TRANSMIT_ISR/UART_FUN                  ----- -----  ----- -----

*** NEW ROOT ********************************

?C_C51STARTUP                                 ----- -----  ----- -----
  +--> MAIN/MAIN
  +--> ?C_INITSEG

MAIN/MAIN                                     ----- -----  ----- -----
  +--> MAIN_TIK_TOK_INITIAL_FUN/MAIN_TIK_TOK
  +--> INIT_PORT/ACTIVITYFUNCTIONS
  +--> MAIN_INIT/ACTIVITYFUNCTIONS
  +--> _HMIENTERTOWORKSTATEFUNC/GUI
  +--> MANAGETASK/NORMAL_TASK
  +--> KEYSCANTASK/NORMAL_TASK
  +--> HMISERVICEMODETASK/NORMAL_TASK
  +--> HMIPOSTTASK/NORMAL_TASK
  +--> HMIFACTORYDEFAULTSELTASK/NORMAL_TASK
  +--> HMINON_INVASIVESELTASK/NORMAL_TASK
  +--> HMIRUNNINGTASK/NORMAL_TASK
  +--> HMISETTEMPPATIENTTASK/NORMAL_TASK
  +--> HMISETTEMPCHAMBERTASK/NORMAL_TASK
  +--> HMISETINEXPTASK/NORMAL_TASK
  +--> HMISETTIMETASK/NORMAL_TASK
  +--> HMISCREENSAVERMODETASK/NORMAL_TASK
  +--> GETTEMP_HPCHAMBERTASK/NORMAL_TASK
  +--> GETTEMPHUMIDITY_PATIENTTASK/NORMAL_TASK
  +--> REFRESHTEMPHUMIDYTASK/NORMAL_TASK
  +--> REFRESHRTCTIMETASK/NORMAL_TASK
  +--> REFRESHRUNTIMETASK/NORMAL_TASK
  +--> HEATERWIRECONTROLTASK/NORMAL_TASK
  +--> LOWPOWERMODETASK/NORMAL_TASK
  +--> HEATERWIREMODEDETTASK/NORMAL_TASK
  +--> ALARMERRORTASK/NORMAL_TASK
  +--> LOWTEMPDET1STASK/NORMAL_TASK
  +--> SAVEDATETOFLASHTASK/NORMAL_TASK
  +--> UARTRECTASK/NORMAL_TASK

MAIN_TIK_TOK_INITIAL_FUN/MAIN_TIK_TOK         ----- -----  ----- -----

INIT_PORT/ACTIVITYFUNCTIONS                   ----- -----  010EH 010FH
  +--> EUSART_INITIALIZE/UART_FUN
  +--> SPI_INIT/W25X
  +--> LCD_INITIAL/LCD
LX51 LINKER/LOCATER V4.66.1.0                                                         04/04/2019  16:35:10  PAGE 13


  +--> _DRAW_RECTANGLE_REAL/LCD
  +--> _DISP_FNT10X24/LCD
  +--> LCD_SHOW_VERION/LCD

EUSART_INITIALIZE/UART_FUN                    ----- -----  ----- -----

SPI_INIT/W25X                                 ----- -----  ----- -----
  +--> SPI_WRITE_DISABLE/W25X

SPI_WRITE_DISABLE/W25X                        ----- -----  ----- -----
  +--> _SPI_SEND_BYTE/W25X

_SPI_SEND_BYTE/W25X                           ----- -----  ----- -----

LCD_INITIAL/LCD                               ----- -----  ----- -----
  +--> _DELAY_MS/DELAY
  +--> _SDCMD/LCD
  +--> _SDDATA/LCD

_DELAY_MS/DELAY                               ----- -----  ----- -----

_SDCMD/LCD                                    ----- -----  ----- -----

_SDDATA/LCD                                   ----- -----  ----- -----

_DRAW_RECTANGLE_REAL/LCD                      ----- -----  019AH 01A6H
  +--> _LCD_CRTLWRITE_AREA/LCD
  +--> _LCD_CTRLWRITE_COLOR/LCD

_LCD_CRTLWRITE_AREA/LCD                       ----- -----  01C2H 01C7H
  +--> _SDCMD/LCD
  +--> _SDDATA/LCD

_LCD_CTRLWRITE_COLOR/LCD                      ----- -----  ----- -----
  +--> ?CO?LCD
  +--> _LCD_CTRLWRITE_ILI9328/LCD

?CO?LCD                                       ----- -----  ----- -----

_LCD_CTRLWRITE_ILI9328/LCD                    ----- -----  ----- -----

_DISP_FNT10X24/LCD                            ----- -----  0110H 0114H
  +--> ?CO?LCD
  +--> _DISP_MONO_GRAP/LCD

_DISP_MONO_GRAP/LCD                           ----- -----  019FH 01ABH
  +--> _LCD_CRTLWRITE_AREA/LCD
  +--> _LCD_CTRLWRITE_COLOR/LCD

LCD_SHOW_VERION/LCD                           ----- -----  ----- -----
  +--> ?CO?LCD
  +--> _LCD_SHOWSTRING/LCD

_LCD_SHOWSTRING/LCD                           ----- -----  0195H 01A9H
  +--> _LCD_SHOWCHAR/LCD

_LCD_SHOWCHAR/LCD                             ----- -----  01AAH 01B1H
  +--> _DISP_FNT8X16/LCD
  +--> _DISP_FNT12X24/LCD

_DISP_FNT8X16/LCD                             ----- -----  01B2H 01C0H
  +--> _LCD_CRTLWRITE_AREA/LCD
  +--> ?CO?LCD
  +--> _LCD_DRAWPOINT/LCD
  +--> _LCD_CTRLWRITE_COLOR/LCD
LX51 LINKER/LOCATER V4.66.1.0                                                         04/04/2019  16:35:10  PAGE 14



_LCD_DRAWPOINT/LCD                            ----- -----  01C2H 01C3H
  +--> _SDCMD/LCD
  +--> _SDDATA/LCD
  +--> _LCD_CTRLWRITE_COLOR/LCD

_DISP_FNT12X24/LCD                            ----- -----  01B2H 01C1H
  +--> _LCD_CRTLWRITE_AREA/LCD
  +--> ?CO?LCD
  +--> _LCD_DRAWPOINT/LCD
  +--> _LCD_CTRLWRITE_COLOR/LCD

MAIN_INIT/ACTIVITYFUNCTIONS                   ----- -----  ----- -----
  +--> GET_RUNCOUNT/ACTIVITYFUNCTIONS

GET_RUNCOUNT/ACTIVITYFUNCTIONS                ----- -----  010EH 0116H
  +--> _SPI_READ_NBYTES/W25X
  +--> _DELAY_US/DELAY

_SPI_READ_NBYTES/W25X                         ----- -----  0117H 011FH
  +--> _SPI_SEND_BYTE/W25X
  +--> SPI_GET_BYTE/W25X

SPI_GET_BYTE/W25X                             20H.5 20H.5  ----- -----

_DELAY_US/DELAY                               ----- -----  ----- -----

_HMIENTERTOWORKSTATEFUNC/GUI                  ----- -----  0146H 0193H
  +--> _DRAW_RECTANGLE_REAL/LCD
  +--> MEM_FLASH_RECALL/ACTIVITYFUNCTIONS
  +--> _DRAW_RECTANGLE/LCD
  +--> ?CO?GUI
  +--> _LCD_SHOWSTRING/LCD
  +--> _DRAW_CIRCLE/LCD
  +--> _DISP_ICO_40X40/LCD
  +--> _DISP_WUCHUANG/LCD
  +--> _DISP_YOUCHUANG/LCD
  +--> DRAWWORKWINDOWS/LCD
  +--> _REFRESHRUNTIMEFUNC/ACTIVITYFUNCTIONS
  +--> _REFRESHTEMPHUMIDYFUNC/ACTIVITYFUNCTIONS
  +--> _DISP_ICO_32X40/LCD
  +--> _DISPLAY_SET_TEMP/GUI
  +--> ENTERSETTIME/GUI
  +--> ENTERSETINEXP/GUI

MEM_FLASH_RECALL/ACTIVITYFUNCTIONS            ----- -----  ----- -----
  +--> _STC_IAP_BYTE_READ/STC_EEPROM
  +--> WRITE_DEFAULT_SETTING_TO_FLASH/ACTIVITYFUNCTIONS

_STC_IAP_BYTE_READ/STC_EEPROM                 ----- -----  ----- -----
  +--> IAP_DISABLE/STC_EEPROM

IAP_DISABLE/STC_EEPROM                        ----- -----  ----- -----

WRITE_DEFAULT_SETTING_TO_FLASH/ACTIVITYF+     ----- -----  ----- -----
... UNCTIONS
  +--> SETTING_WRITE_TO_FLASH/ACTIVITYFUNCTIONS

SETTING_WRITE_TO_FLASH/ACTIVITYFUNCTIONS      ----- -----  ----- -----
  +--> _STC_IAP_SECTOR_ERASE/STC_EEPROM
  +--> _STC_IAP_BYTE_PROGRAM/STC_EEPROM

_STC_IAP_SECTOR_ERASE/STC_EEPROM              ----- -----  ----- -----
  +--> IAP_DISABLE/STC_EEPROM

LX51 LINKER/LOCATER V4.66.1.0                                                         04/04/2019  16:35:10  PAGE 15


_STC_IAP_BYTE_PROGRAM/STC_EEPROM              ----- -----  ----- -----
  +--> IAP_DISABLE/STC_EEPROM

_DRAW_RECTANGLE/LCD                           ----- -----  0194H 01A1H
  +--> _LCD_CRTLWRITE_AREA/LCD
  +--> _LCD_CTRLWRITE_COLOR/LCD

?CO?GUI                                       ----- -----  ----- -----

_DRAW_CIRCLE/LCD                              ----- -----  0194H 019FH
  +--> _LCD_DRAWPOINT/LCD

_DISP_ICO_40X40/LCD                           ----- -----  0194H 0198H
  +--> ?CO?LCD
  +--> _DISP_MONO_GRAP/LCD

_DISP_WUCHUANG/LCD                            ----- -----  ----- -----
  +--> ?CO?LCD
  +--> _DISP_MONO_GRAP/LCD

_DISP_YOUCHUANG/LCD                           ----- -----  ----- -----
  +--> ?CO?LCD
  +--> _DISP_MONO_GRAP/LCD

DRAWWORKWINDOWS/LCD                           ----- -----  ----- -----
  +--> _DRAW_RECTANGLE_REAL/LCD
  +--> _DISP_WUCHUANG/LCD
  +--> _DISP_YOUCHUANG/LCD
  +--> _DRAW_RECTANGLE/LCD
  +--> REFRESH_WORK_MODE/LCD
  +--> _DISP_ICO_52X64/LCD
  +--> _DISP_ICO_40X40/LCD
  +--> _DISP_ICO_32X40/LCD
  +--> _DISP_RH14X24/LCD
  +--> _DISP_DHM/LCD
  +--> _DISP_TIME_10X16/LCD

REFRESH_WORK_MODE/LCD                         ----- -----  ----- -----
  +--> _DISP_WUCHUANG/LCD
  +--> _DISP_YOUCHUANG/LCD

_DISP_ICO_52X64/LCD                           ----- -----  0194H 0198H
  +--> ?CO?LCD
  +--> _DISP_MONO_GRAP/LCD

_DISP_ICO_32X40/LCD                           ----- -----  0194H 0198H
  +--> ?CO?LCD
  +--> _DISP_MONO_GRAP/LCD

_DISP_RH14X24/LCD                             ----- -----  0194H 0198H
  +--> ?CO?LCD
  +--> _DISP_MONO_GRAP/LCD

_DISP_DHM/LCD                                 ----- -----  0194H 0198H
  +--> ?CO?LCD
  +--> _DISP_MONO_GRAP/LCD

_DISP_TIME_10X16/LCD                          ----- -----  0195H 0199H
  +--> ?CO?LCD
  +--> _DISP_MONO_GRAP/LCD

_REFRESHRUNTIMEFUNC/ACTIVITYFUNCTIONS         ----- -----  0194H 0194H
  +--> _RX8010_GETTIME/RX8010
  +--> _DISP_TIME_10X16/LCD

LX51 LINKER/LOCATER V4.66.1.0                                                         04/04/2019  16:35:10  PAGE 16


_RX8010_GETTIME/RX8010                        ----- -----  0195H 019EH
  +--> _READEEONE/RX8010

_READEEONE/RX8010                             ----- -----  019FH 01A4H
  +--> IC_START/RX8010
  +--> _IC_WRITEBYTE/RX8010
  +--> IC_STOP/RX8010
  +--> IC_READBYTE/RX8010
  +--> _DELAY_US/DELAY

IC_START/RX8010                               ----- -----  ----- -----
  +--> _DELAY_US/DELAY

_IC_WRITEBYTE/RX8010                          ----- -----  01A5H 01A6H
  +--> _DELAY_US/DELAY

IC_STOP/RX8010                                ----- -----  ----- -----
  +--> _DELAY_US/DELAY

IC_READBYTE/RX8010                            ----- -----  01A5H 01A6H
  +--> _DELAY_US/DELAY

_REFRESHTEMPHUMIDYFUNC/ACTIVITYFUNCTIONS      20H.5 20H.5  0194H 0199H
  +--> _DRAW_RECTANGLE_REAL/LCD
  +--> _DISP_TEMP_30X56/LCD
  +--> _DISP_RH_17X40/LCD

_DISP_TEMP_30X56/LCD                          ----- -----  019AH 019EH
  +--> ?CO?LCD
  +--> _DISP_MONO_GRAP/LCD

_DISP_RH_17X40/LCD                            ----- -----  019AH 019EH
  +--> ?CO?LCD
  +--> _DISP_MONO_GRAP/LCD

_DISPLAY_SET_TEMP/GUI                         ----- -----  0194H 0195H
  +--> _DISP_TEMP_30X56/LCD
  +--> _DRAW_RECTANGLE_REAL/LCD

ENTERSETTIME/GUI                              ----- -----  ----- -----
  +--> _RX8010_GETTIME/RX8010

ENTERSETINEXP/GUI                             ----- -----  ----- -----
  +--> _DISPLAY_IN_EXP_RATIO/GUI

_DISPLAY_IN_EXP_RATIO/GUI                     ----- -----  0194H 0194H
  +--> ?CO?GUI
  +--> _LCD_SHOWSTRING/LCD

MANAGETASK/NORMAL_TASK                        ----- -----  ----- -----
  +--> _WS_TASKJUDGE/WS_TASK_MANAGE
  +--> _WS_DELTASKIFG/WS_TASK_MANAGE
  +--> _WS_SETTASKIFG/WS_TASK_MANAGE

_WS_TASKJUDGE/WS_TASK_MANAGE                  ----- -----  010EH 010EH

_WS_DELTASKIFG/WS_TASK_MANAGE                 ----- -----  ----- -----

KEYSCANTASK/NORMAL_TASK                       ----- -----  ----- -----
  +--> _WS_TASKJUDGE/WS_TASK_MANAGE
  +--> _WS_DELTASKIFG/WS_TASK_MANAGE
  +--> KEY_MULTIFUN/KEY_MULTIFUN

KEY_MULTIFUN/KEY_MULTIFUN                     ----- -----  010EH 011EH

LX51 LINKER/LOCATER V4.66.1.0                                                         04/04/2019  16:35:10  PAGE 17


HMISERVICEMODETASK/NORMAL_TASK                ----- -----  ----- -----
  +--> _WS_TASKJUDGE/WS_TASK_MANAGE
  +--> _WS_DELTASKIFG/WS_TASK_MANAGE
  +--> HMISERVICEMODEFUNC/GUI

HMISERVICEMODEFUNC/GUI                        ----- -----  ----- -----
  +--> _DRAW_RECTANGLE_REAL/LCD
  +--> ?CO?GUI
  +--> _LCD_SHOWSTRING/LCD
  +--> _SPI_ERASE_SECTOR/W25X
  +--> _DELAY_MS/DELAY
  +--> _SPI_WRITE_NBYTES/W25X
  +--> _SPI_READ_NBYTES/W25X
  +--> LCD_SHOW_VERION/LCD
  +--> _DISP_ICO_52X64/LCD
  +--> _DISP_ICO_32X40/LCD
  +--> _DISP_ICO_40X40/LCD
  +--> _DISP_RH14X24/LCD
  +--> _DISP_HEAT_36X24/LCD
  +--> SERVICEMODE_TEMPHUMIDY_DISP/ACTIVITYFUNCTIONS
  +--> _HMIENTERTOWORKSTATEFUNC/GUI

_SPI_ERASE_SECTOR/W25X                        ----- -----  0114H 0117H
  +--> SPI_WRITE_ENABLE/W25X
  +--> _SPI_SEND_BYTE/W25X

SPI_WRITE_ENABLE/W25X                         ----- -----  ----- -----
  +--> _SPI_SEND_BYTE/W25X

_SPI_WRITE_NBYTES/W25X                        ----- -----  0115H 011EH
  +--> SPI_WRITE_ENABLE/W25X
  +--> _SPI_SEND_BYTE/W25X

_DISP_HEAT_36X24/LCD                          ----- -----  ----- -----
  +--> ?CO?LCD
  +--> _DISP_MONO_GRAP/LCD

SERVICEMODE_TEMPHUMIDY_DISP/ACTIVITYFUNC+     ----- -----  010EH 0111H
... TIONS
  +--> _DISP_TEMP_30X56/LCD
  +--> _DRAW_RECTANGLE_REAL/LCD
  +--> _DISP_RH_17X40/LCD

HMIPOSTTASK/NORMAL_TASK                       ----- -----  ----- -----
  +--> _WS_TASKJUDGE/WS_TASK_MANAGE
  +--> _WS_DELTASKIFG/WS_TASK_MANAGE
  +--> HMIPOSTFUNC/GUI

HMIPOSTFUNC/GUI                               ----- -----  010EH 010EH
  +--> RX8010_INITIALIZE/RX8010
  +--> _DRAW_RECTANGLE_REAL/LCD
  +--> ?CO?GUI
  +--> _LCD_SHOWSTRING/LCD
  +--> _SPI_READ_NBYTES/W25X
  +--> _SPI_ERASE_SECTOR/W25X
  +--> _SPI_WRITE_NBYTES/W25X
  +--> _DELAY_MS/DELAY
  +--> _HMIENTERTOWORKSTATEFUNC/GUI

RX8010_INITIALIZE/RX8010                      ----- -----  010FH 0117H
  +--> _READEEONE/RX8010
  +--> _DELAY_MS/DELAY
  +--> _WRITEEEONE/RX8010

_WRITEEEONE/RX8010                            ----- -----  0118H 011DH
LX51 LINKER/LOCATER V4.66.1.0                                                         04/04/2019  16:35:10  PAGE 18


  +--> IC_START/RX8010
  +--> _IC_WRITEBYTE/RX8010
  +--> IC_STOP/RX8010
  +--> _DELAY_US/DELAY

HMIFACTORYDEFAULTSELTASK/NORMAL_TASK          ----- -----  ----- -----
  +--> _WS_TASKJUDGE/WS_TASK_MANAGE
  +--> _WS_DELTASKIFG/WS_TASK_MANAGE
  +--> HMIFACTORYDEFAULTFUNC/GUI

HMIFACTORYDEFAULTFUNC/GUI                     ----- -----  010EH 0145H
  +--> _DISP_ICO_40X40/LCD
  +--> SOUND_SHORT/SOUND_TYPE
  +--> LOAD_SETTINGS_BEFORE_CHOICE/ACTIVITYFUNCTIONS
  +--> _HMIENTERTOWORKSTATEFUNC/GUI
  +--> _DRAW_RECTANGLE/LCD
  +--> _DRAW_RECTANGLE_REAL/LCD
  +--> ?CO?GUI
  +--> _LCD_SHOWSTRING/LCD
  +--> _LCD_SHOWXNUM/LCD
  +--> _DRAW_CIRCLE/LCD

SOUND_SHORT/SOUND_TYPE                        ----- -----  ----- -----

LOAD_SETTINGS_BEFORE_CHOICE/ACTIVITYFUNC+     ----- -----  ----- -----
... TIONS
  +--> WRITE_DEFAULT_SETTING_TO_FLASH/ACTIVITYFUNCTIONS

_LCD_SHOWXNUM/LCD                             ----- -----  0146H 0154H
  +--> _LCD_POW/LCD
  +--> _LCD_SHOWCHAR/LCD

_LCD_POW/LCD                                  ----- -----  0155H 015AH

HMINON_INVASIVESELTASK/NORMAL_TASK            ----- -----  ----- -----
  +--> _WS_TASKJUDGE/WS_TASK_MANAGE
  +--> _WS_DELTASKIFG/WS_TASK_MANAGE
  +--> HMINON_INVASIVESELFUNC/GUI

HMINON_INVASIVESELFUNC/GUI                    ----- -----  ----- -----
  +--> _DRAW_RECTANGLE/LCD
  +--> _HMIENTERTOWORKSTATEFUNC/GUI
  +--> SETTING_WRITE_TO_FLASH/ACTIVITYFUNCTIONS

HMIRUNNINGTASK/NORMAL_TASK                    ----- -----  ----- -----
  +--> _WS_TASKJUDGE/WS_TASK_MANAGE
  +--> _WS_DELTASKIFG/WS_TASK_MANAGE
  +--> HMIRUNNINGFUNC/GUI

HMIRUNNINGFUNC/GUI                            ----- -----  ----- -----
  +--> _DISP_ICO_52X64/LCD
  +--> _DISPLAY_IN_EXP_RATIO/GUI
  +--> _REFRESHTEMPHUMIDYFUNC/ACTIVITYFUNCTIONS
  +--> SOUND_SHORT/SOUND_TYPE
  +--> SETTING_WRITE_TO_FLASH/ACTIVITYFUNCTIONS
  +--> REFRESH_WORK_MODE/LCD
  +--> _HMIENTERTOWORKSTATEFUNC/GUI
  +--> _DRAW_RECTANGLE_REAL/LCD
  +--> WIREINOUT_STATE_CONFIRM/ACTIVITYFUNCTIONS

WIREINOUT_STATE_CONFIRM/ACTIVITYFUNCTION+     ----- -----  ----- -----
... S

HMISETTEMPPATIENTTASK/NORMAL_TASK             ----- -----  ----- -----
  +--> _WS_TASKJUDGE/WS_TASK_MANAGE
LX51 LINKER/LOCATER V4.66.1.0                                                         04/04/2019  16:35:10  PAGE 19


  +--> _WS_DELTASKIFG/WS_TASK_MANAGE
  +--> HMISETTEMPPATIENTFUNC/GUI

HMISETTEMPPATIENTFUNC/GUI                     ----- -----  ----- -----
  +--> _DISP_ICO_32X40/LCD
  +--> _DISPLAY_SET_TEMP/GUI
  +--> _HMIENTERTOWORKSTATEFUNC/GUI
  +--> _REFRESHTEMPHUMIDYFUNC/ACTIVITYFUNCTIONS
  +--> SOUND_SHORT/SOUND_TYPE
  +--> SETTING_WRITE_TO_FLASH/ACTIVITYFUNCTIONS

HMISETTEMPCHAMBERTASK/NORMAL_TASK             ----- -----  ----- -----
  +--> _WS_TASKJUDGE/WS_TASK_MANAGE
  +--> _WS_DELTASKIFG/WS_TASK_MANAGE
  +--> HMISETTEMPCHAMBERFUNC/GUI

HMISETTEMPCHAMBERFUNC/GUI                     ----- -----  ----- -----
  +--> _DISP_ICO_32X40/LCD
  +--> _DISPLAY_SET_TEMP/GUI
  +--> SOUND_SHORT/SOUND_TYPE
  +--> _REFRESHTEMPHUMIDYFUNC/ACTIVITYFUNCTIONS
  +--> SETTING_WRITE_TO_FLASH/ACTIVITYFUNCTIONS

HMISETINEXPTASK/NORMAL_TASK                   ----- -----  ----- -----
  +--> _WS_TASKJUDGE/WS_TASK_MANAGE
  +--> _WS_DELTASKIFG/WS_TASK_MANAGE
  +--> HMISETINEXPFUNC/GUI

HMISETINEXPFUNC/GUI                           ----- -----  ----- -----
  +--> ?CO?GUI
  +--> _LCD_SHOWSTRING/LCD
  +--> _HMIENTERTOWORKSTATEFUNC/GUI
  +--> _DISPLAY_IN_EXP_RATIO/GUI
  +--> SOUND_SHORT/SOUND_TYPE
  +--> SETTING_WRITE_TO_FLASH/ACTIVITYFUNCTIONS

HMISETTIMETASK/NORMAL_TASK                    ----- -----  ----- -----
  +--> _WS_TASKJUDGE/WS_TASK_MANAGE
  +--> _WS_DELTASKIFG/WS_TASK_MANAGE
  +--> HMISETTIMEFUNC/GUI

HMISETTIMEFUNC/GUI                            ----- -----  ----- -----
  +--> _DISPLAYTIME/GUI
  +--> DATE_IS_CORRECT/GUI
  +--> SOUND_SHORT/SOUND_TYPE
  +--> _RX8010_SETTIME/RX8010

_DISPLAYTIME/GUI                              ----- -----  010EH 0113H
  +--> _DISP_TIME_10X16/LCD

DATE_IS_CORRECT/GUI                           20H.5 20H.5  ----- -----

_RX8010_SETTIME/RX8010                        ----- -----  010EH 0117H
  +--> _WRITEEEONE/RX8010

HMISCREENSAVERMODETASK/NORMAL_TASK            ----- -----  ----- -----
  +--> _WS_TASKJUDGE/WS_TASK_MANAGE
  +--> _WS_DELTASKIFG/WS_TASK_MANAGE
  +--> HMISCREENSAVERMODEFUNC/GUI

HMISCREENSAVERMODEFUNC/GUI                    ----- -----  010EH 0110H
  +--> _DRAW_RECTANGLE_REAL/LCD
  +--> _HMIENTERTOWORKSTATEFUNC/GUI
  +--> ERR_BASE_HEATERWIRE_DISP_ENABLE/ACTIVITYFUNCTIONS
  +--> _DISP_TEMP_38X64/LCD
LX51 LINKER/LOCATER V4.66.1.0                                                         04/04/2019  16:35:10  PAGE 20


  +--> _DISP_ICO_32X40/LCD

ERR_BASE_HEATERWIRE_DISP_ENABLE/ACTIVITY+     ----- -----  ----- -----
... FUNCTIONS

_DISP_TEMP_38X64/LCD                          ----- -----  0111H 0115H
  +--> ?CO?LCD
  +--> _DISP_MONO_GRAP/LCD

GETTEMP_HPCHAMBERTASK/NORMAL_TASK             ----- -----  ----- -----
  +--> _WS_TASKJUDGE/WS_TASK_MANAGE
  +--> _WS_DELTASKIFG/WS_TASK_MANAGE
  +--> GETTEMP_HPCHAMBERFUNC/ACTIVITYFUNCTIONS

GETTEMP_HPCHAMBERFUNC/ACTIVITYFUNCTIONS       20H.5 20H.5  010EH 011DH
  +--> _DELAY_US/DELAY
  +--> _DS18B20_WRITEBYTE/DS18B20
  +--> DS18B20_READBYTE/DS18B20
  +--> _DS18B20_CHECKCRC/DS18B20

_DS18B20_WRITEBYTE/DS18B20                    ----- -----  011EH 011FH
  +--> _DELAY_US/DELAY

DS18B20_READBYTE/DS18B20                      20H.6 20H.7  011EH 011EH
  +--> _DELAY_US/DELAY

_DS18B20_CHECKCRC/DS18B20                     ----- -----  011EH 0124H

GETTEMPHUMIDITY_PATIENTTASK/NORMAL_TASK       ----- -----  ----- -----
  +--> _WS_TASKJUDGE/WS_TASK_MANAGE
  +--> _WS_DELTASKIFG/WS_TASK_MANAGE
  +--> GETTEMPHUMIDITY_PATIENTFUNC/ACTIVITYFUNCTIONS

GETTEMPHUMIDITY_PATIENTFUNC/ACTIVITYFUNC+     20H.5 20H.5  010EH 0114H
... TIONS
  +--> SHT21_WRITETEMP/SHT21
  +--> SHT21_READDATA/SHT21
  +--> SHT21_WRITERH/SHT21

SHT21_WRITETEMP/SHT21                         ----- -----  ----- -----
  +--> SHT21_START/SHT21
  +--> _SHT21_WRITE8BIT/SHT21

SHT21_START/SHT21                             ----- -----  ----- -----
  +--> _DELAY_US/DELAY

_SHT21_WRITE8BIT/SHT21                        ----- -----  0115H 0117H
  +--> _DELAY_US/DELAY

SHT21_READDATA/SHT21                          ----- -----  0115H 011DH
  +--> _SHT21_READ8BIT/SHT21
  +--> SHT21_STOP/SHT21
  +--> _SHT2X_CHECKCRC/SHT21

_SHT21_READ8BIT/SHT21                         ----- -----  011EH 0120H
  +--> _DELAY_US/DELAY

SHT21_STOP/SHT21                              ----- -----  ----- -----
  +--> _DELAY_US/DELAY

_SHT2X_CHECKCRC/SHT21                         ----- -----  011EH 0122H

SHT21_WRITERH/SHT21                           ----- -----  ----- -----
  +--> SHT21_START/SHT21
  +--> _SHT21_WRITE8BIT/SHT21
LX51 LINKER/LOCATER V4.66.1.0                                                         04/04/2019  16:35:10  PAGE 21



REFRESHTEMPHUMIDYTASK/NORMAL_TASK             ----- -----  ----- -----
  +--> _WS_TASKJUDGE/WS_TASK_MANAGE
  +--> _WS_DELTASKIFG/WS_TASK_MANAGE
  +--> _REFRESHTEMPHUMIDYFUNC/ACTIVITYFUNCTIONS

REFRESHRTCTIMETASK/NORMAL_TASK                ----- -----  ----- -----
  +--> _WS_TASKJUDGE/WS_TASK_MANAGE
  +--> _WS_DELTASKIFG/WS_TASK_MANAGE
  +--> REFRESHRTCTIMEFUNC/ACTIVITYFUNCTIONS

REFRESHRTCTIMEFUNC/ACTIVITYFUNCTIONS          ----- -----  ----- -----
  +--> _RX8010_GETTIME/RX8010
  +--> _DISPLAYTIME/GUI

REFRESHRUNTIMETASK/NORMAL_TASK                ----- -----  ----- -----
  +--> _WS_TASKJUDGE/WS_TASK_MANAGE
  +--> _WS_DELTASKIFG/WS_TASK_MANAGE
  +--> _REFRESHRUNTIMEFUNC/ACTIVITYFUNCTIONS

HEATERWIRECONTROLTASK/NORMAL_TASK             ----- -----  ----- -----
  +--> _WS_TASKJUDGE/WS_TASK_MANAGE
  +--> _WS_DELTASKIFG/WS_TASK_MANAGE
  +--> HEATERPLATEWIRECONTROLFUNC/ACTIVITYFUNCTIONS

HEATERPLATEWIRECONTROLFUNC/ACTIVITYFUNCT+     ----- -----  010EH 0113H
... IONS
  +--> _LCD_SHOWXNUM/LCD
  +--> _ABS/ABS
  +--> CONTROLER_CALC/ACTIVITYFUNCTIONS
  +--> HEATPLATETEMP_AIM_CONTROLER_CALC/ACTIVITYFUNCTIONS
  +--> HEATPLATE_CONTROLER_CALC/ACTIVITYFUNCTIONS
  +--> PATIENTTEMP_NONEHEATWIRE_ADJ/ACTIVITYFUNCTIONS

_ABS/ABS                                      ----- -----  ----- -----

CONTROLER_CALC/ACTIVITYFUNCTIONS              ----- -----  ----- -----

HEATPLATETEMP_AIM_CONTROLER_CALC/ACTIVIT+     ----- -----  ----- -----
... YFUNCTIONS

HEATPLATE_CONTROLER_CALC/ACTIVITYFUNCTIO+     ----- -----  ----- -----
... NS

PATIENTTEMP_NONEHEATWIRE_ADJ/ACTIVITYFUN+     ----- -----  0114H 0117H
... CTIONS
  +--> HEATPLATE_CONTROLER_CALC/ACTIVITYFUNCTIONS
  +--> _LCD_SHOWXNUM/LCD
  +--> _ABS/ABS

LOWPOWERMODETASK/NORMAL_TASK                  ----- -----  ----- -----
  +--> _WS_TASKJUDGE/WS_TASK_MANAGE
  +--> _WS_DELTASKIFG/WS_TASK_MANAGE
  +--> LOWPOWERMODEFUNC/ACTIVITYFUNCTIONS

LOWPOWERMODEFUNC/ACTIVITYFUNCTIONS            ----- -----  ----- -----

HEATERWIREMODEDETTASK/NORMAL_TASK             ----- -----  ----- -----
  +--> _WS_TASKJUDGE/WS_TASK_MANAGE
  +--> _WS_DELTASKIFG/WS_TASK_MANAGE
  +--> HEATERWIREMODEDETFUNC/ACTIVITYFUNCTIONS

HEATERWIREMODEDETFUNC/ACTIVITYFUNCTIONS       ----- -----  ----- -----

ALARMERRORTASK/NORMAL_TASK                    ----- -----  ----- -----
LX51 LINKER/LOCATER V4.66.1.0                                                         04/04/2019  16:35:10  PAGE 22


  +--> _WS_TASKJUDGE/WS_TASK_MANAGE
  +--> _WS_DELTASKIFG/WS_TASK_MANAGE
  +--> ALARMERRORFUNC/ACTIVITYFUNCTIONS

ALARMERRORFUNC/ACTIVITYFUNCTIONS              ----- -----  010EH 0110H
  +--> _DRAW_RECTANGLE_REAL/LCD
  +--> SOUND_ALARM_PAUSE_DISABLE/SOUND_TYPE
  +--> _DISP_VHB80_PIC/LCD
  +--> _DISP_CQK25X24/LCD
  +--> _DISP_RTD28X24/LCD
  +--> _DISP_HEAT_36X24/LCD

SOUND_ALARM_PAUSE_DISABLE/SOUND_TYPE          ----- -----  ----- -----

_DISP_VHB80_PIC/LCD                           ----- -----  0111H 0111H
  +--> _DISP_VHB80_56X40/LCD
  +--> _DISP_HEAT_36X24/LCD
  +--> _DISP_CQK25X24/LCD
  +--> _DRAW_RECTANGLE_REAL/LCD
  +--> _DISP_RTD28X24/LCD
  +--> _DISP_JQK41X16/LCD

_DISP_VHB80_56X40/LCD                         ----- -----  ----- -----
  +--> ?CO?LCD
  +--> _DISP_MONO_GRAP/LCD

_DISP_CQK25X24/LCD                            ----- -----  ----- -----
  +--> ?CO?LCD
  +--> _DISP_MONO_GRAP/LCD

_DISP_RTD28X24/LCD                            ----- -----  ----- -----
  +--> ?CO?LCD
  +--> _DISP_MONO_GRAP/LCD

_DISP_JQK41X16/LCD                            ----- -----  ----- -----
  +--> ?CO?LCD
  +--> _DISP_MONO_GRAP/LCD

LOWTEMPDET1STASK/NORMAL_TASK                  ----- -----  ----- -----
  +--> _WS_TASKJUDGE/WS_TASK_MANAGE
  +--> _WS_DELTASKIFG/WS_TASK_MANAGE
  +--> LOWTEMPDET1SFUNC/ACTIVITYFUNCTIONS

LOWTEMPDET1SFUNC/ACTIVITYFUNCTIONS            ----- -----  010EH 0113H
  +--> _LCD_SHOWXNUM/LCD

SAVEDATETOFLASHTASK/NORMAL_TASK               ----- -----  ----- -----
  +--> _WS_TASKJUDGE/WS_TASK_MANAGE
  +--> _WS_DELTASKIFG/WS_TASK_MANAGE
  +--> SAVEDATETOFLASHFUNC/ACTIVITYFUNCTIONS

SAVEDATETOFLASHFUNC/ACTIVITYFUNCTIONS         ----- -----  010EH 0113H
  +--> _RX8010_GETTIME/RX8010
  +--> _SPI_WRITE_NBYTES/W25X
  +--> STORE_DATA/ACTIVITYFUNCTIONS
  +--> _SPI_ERASE_SECTOR/W25X

STORE_DATA/ACTIVITYFUNCTIONS                  ----- -----  0114H 0114H
  +--> _SPI_WRITE_NBYTES/W25X

UARTRECTASK/NORMAL_TASK                       ----- -----  ----- -----
  +--> _WS_TASKJUDGE/WS_TASK_MANAGE
  +--> _WS_DELTASKIFG/WS_TASK_MANAGE
  +--> UART_RECDATA_FUNC/ACTIVITYFUNCTIONS

LX51 LINKER/LOCATER V4.66.1.0                                                         04/04/2019  16:35:10  PAGE 23


UART_RECDATA_FUNC/ACTIVITYFUNCTIONS           ----- -----  010EH 0111H
  +--> EUSART_READ/UART_FUN
  +--> UART_RECBUF_CLEAR_FUN/ACTIVITYFUNCTIONS
  +--> _SPI_READ_NBYTES/W25X
  +--> _EUSART_WRITE_STR/UART_FUN

EUSART_READ/UART_FUN                          ----- -----  ----- -----

UART_RECBUF_CLEAR_FUN/ACTIVITYFUNCTIONS       ----- -----  ----- -----

_EUSART_WRITE_STR/UART_FUN                    ----- -----  0112H 0114H
  +--> _EUSART_WRITE/UART_FUN

_EUSART_WRITE/UART_FUN                        ----- -----  ----- -----
  +--> _SEND_CHAR_COM/UART_FUN

_SEND_CHAR_COM/UART_FUN                       ----- -----  ----- -----

?C_INITSEG                                    ----- -----  ----- -----
  +--> KEYUPPRESSSHORTACTION/KEY_DATAS
  +--> KEYUPPRESSLONGFIRSTACTION/KEY_DATAS
  +--> KEYUPPRESSLONGREPEATACTION/KEY_DATAS
  +--> KEYDOWNPRESSSHORTACTION/KEY_DATAS
  +--> KEYDOWNPRESSLONGFIRSTACTION/KEY_DATAS
  +--> KEYDOWNPRESSLONGREPEATACTION/KEY_DATAS
  +--> KEYOKPRESSSHORTACTION/KEY_DATAS
  +--> KEYOKPRESSLONGFIRSTACTION/KEY_DATAS
  +--> KEYOKPRESSLONGREPEATACTION/KEY_DATAS
  +--> KEYMUTEPRESSSHORTACTION/KEY_DATAS
  +--> KEYMUTEPRESSLONGFIRSTACTION/KEY_DATAS
  +--> KEYMUTEPRESSLONGREPEATACTION/KEY_DATAS

KEYUPPRESSSHORTACTION/KEY_DATAS               ----- -----  ----- -----

KEYUPPRESSLONGFIRSTACTION/KEY_DATAS           ----- -----  ----- -----

KEYUPPRESSLONGREPEATACTION/KEY_DATAS          ----- -----  ----- -----

KEYDOWNPRESSSHORTACTION/KEY_DATAS             ----- -----  ----- -----

KEYDOWNPRESSLONGFIRSTACTION/KEY_DATAS         ----- -----  ----- -----

KEYDOWNPRESSLONGREPEATACTION/KEY_DATAS        ----- -----  ----- -----

KEYOKPRESSSHORTACTION/KEY_DATAS               ----- -----  ----- -----

KEYOKPRESSLONGFIRSTACTION/KEY_DATAS           ----- -----  ----- -----

KEYOKPRESSLONGREPEATACTION/KEY_DATAS          ----- -----  ----- -----

KEYMUTEPRESSSHORTACTION/KEY_DATAS             ----- -----  ----- -----
  +--> SOUND_ALARM_PAUSE_ENABLE/SOUND_TYPE
  +--> SOUND_ALARM_PAUSE_DISABLE/SOUND_TYPE

SOUND_ALARM_PAUSE_ENABLE/SOUND_TYPE           ----- -----  ----- -----

KEYMUTEPRESSLONGFIRSTACTION/KEY_DATAS         ----- -----  ----- -----

KEYMUTEPRESSLONGREPEATACTION/KEY_DATAS        ----- -----  ----- -----



PUBLIC SYMBOLS OF MODULE:  ..\OBJ\VHB15A (STC_EEPROM)


LX51 LINKER/LOCATER V4.66.1.0                                                         04/04/2019  16:35:10  PAGE 24


      VALUE       CLASS    TYPE      PUBLIC SYMBOL NAME
      =================================================
      02000194H   XDATA    BYTE      ?_DISP_DHM?BYTE
      02000110H   XDATA    BYTE      ?_DISP_FNT10X24?BYTE
      020001B2H   XDATA    BYTE      ?_DISP_FNT12X24?BYTE
      020001B2H   XDATA    BYTE      ?_DISP_FNT8X16?BYTE
      02000194H   XDATA    BYTE      ?_DISP_ICO_32X40?BYTE
      02000194H   XDATA    BYTE      ?_DISP_ICO_40X40?BYTE
      02000194H   XDATA    BYTE      ?_DISP_ICO_52X64?BYTE
      02000194H   XDATA    BYTE      ?_DISP_RH14X24?BYTE
      0200019AH   XDATA    BYTE      ?_DISP_RH_17X40?BYTE
      0200019AH   XDATA    BYTE      ?_DISP_TEMP_30X56?BYTE
      02000111H   XDATA    BYTE      ?_DISP_TEMP_38X64?BYTE
      02000195H   XDATA    BYTE      ?_DISP_TIME_10X16?BYTE
      02000194H   XDATA    BYTE      ?_Draw_Circle?BYTE
      02000194H   XDATA    BYTE      ?_Draw_Rectangle?BYTE
      0200019AH   XDATA    BYTE      ?_Draw_Rectangle_Real?BYTE
      0200011EH   XDATA    BYTE      ?_DS18B20_CheckCrc?BYTE
      020001C2H   XDATA    BYTE      ?_LCD_CrtlWrite_Area?BYTE
      020001AAH   XDATA    BYTE      ?_LCD_ShowChar?BYTE
      02000195H   XDATA    BYTE      ?_LCD_ShowString?BYTE
      02000146H   XDATA    BYTE      ?_LCD_ShowxNum?BYTE
      02000117H   XDATA    BYTE      ?_SPI_Read_nBytes?BYTE
      02000115H   XDATA    BYTE      ?_SPI_Write_nBytes?BYTE
      01005B47H   CODE     ---       ?C?CCASE
      010057C4H   CODE     ---       ?C?CLDOPTR
      010057ABH   CODE     ---       ?C?CLDPTR
      00000000H   NUMBER   ---       ?C?CODESEG
      01005785H   CODE     ---       ?C?COPY
      01005803H   CODE     ---       ?C?CSTOPTR
      010057F1H   CODE     ---       ?C?CSTPTR
      01005B6DH   CODE     ---       ?C?ICALL
      01005B71H   CODE     ---       ?C?ICALL2
      010058C2H   CODE     ---       ?C?IILDX
      01005825H   CODE     ---       ?C?IMUL
      010058D8H   CODE     ---       ?C?LADD
      01005A10H   CODE     ---       ?C?LAND
      01005A84H   CODE     ---       ?C?LLDXDATA
      01005A90H   CODE     ---       ?C?LLDXDATA0
      010058F3H   CODE     ---       ?C?LMUL
      01005A2AH   CODE     ---       ?C?LNOT
      01005A1DH   CODE     ---       ?C?LOR
      01005A71H   CODE     ---       ?C?LSHL
      01005AA8H   CODE     ---       ?C?LSTKXDATA
      01005A9CH   CODE     ---       ?C?LSTXDATA
      010058E5H   CODE     ---       ?C?LSUB
      01005AD9H   CODE     ---       ?C?OFFXADD
      01005C6EH   CODE     ---       ?C?PLDCODE
      01005C5CH   CODE     ---       ?C?PLDIDATA
      01005B17H   CODE     ---       ?C?PLDOPTR
      01005C65H   CODE     ---       ?C?PLDPDATA
      01005AF7H   CODE     ---       ?C?PLDPTR
      01005AE5H   CODE     ---       ?C?PLDXDATA
      01005AEEH   CODE     ---       ?C?PSTXDATA
      0100588CH   CODE     ---       ?C?SIDIV
      01005A37H   CODE     ---       ?C?SLCMP
      01006303H   CODE     ---       ?C?SLDIV
      01005C3FH   CODE     ---       ?C?STRCPY
      01005837H   CODE     ---       ?C?UIDIV
      01005A4DH   CODE     ---       ?C?ULCMP
      0100597EH   CODE     ---       ?C?ULDIV
      01005A5EH   CODE     ---       ?C?ULSHR
      00000000H   NUMBER   ---       ?C?XDATASEG
      010062BEH   CODE     ---       ?C_START
      01000000H   CODE     ---       ?C_STARTUP
LX51 LINKER/LOCATER V4.66.1.0                                                         04/04/2019  16:35:10  PAGE 25


      0200010EH   XDATA    BYTE      ?Key_Multifun?BYTE
      01000016H   CODE     ---       _ABS
      01006EBDH   CODE     ---       _delay_ms
      0100682AH   CODE     ---       _delay_us
      0100A68FH   CODE     ---       _DISP_CQK25X24
      0100A7A2H   CODE     ---       _DISP_DHM
      0100822DH   CODE     ---       _DISP_FNT10X24
      0100C0ADH   CODE     ---       _DISP_FNT12X24
      0100BFBCH   CODE     ---       _DISP_FNT8X16
      0100A5F2H   CODE     ---       _DISP_HEAT_36X24
      01008772H   CODE     ---       _DISP_ICO_32X40
      0100A7C6H   CODE     ---       _DISP_ICO_40X40
      0100A1CAH   CODE     ---       _DISP_ICO_52X64
      0100A5E0H   CODE     ---       _DISP_JQK41X16
      0100A781H   CODE     ---       _DISP_RH14X24
      01008309H   CODE     ---       _DISP_RH_17X40
      0100A6A7H   CODE     ---       _DISP_RTD28X24
      01008537H   CODE     ---       _DISP_TEMP_30X56
      0100A70AH   CODE     ---       _DISP_TEMP_38X64
      01009C05H   CODE     ---       _DISP_TIME_10X16
      0100A604H   CODE     ---       _DISP_VHB80_56X40
      0100A619H   CODE     ---       _DISP_VHB80_PIC
      0100A5BDH   CODE     ---       _Disp_WuChuang
      0100A5A5H   CODE     ---       _Disp_YouChuang
      01009AC8H   CODE     ---       _DisPlayTime
      01008C50H   CODE     ---       _Draw_Circle
      01006C04H   CODE     ---       _Draw_Rectangle
      010073BDH   CODE     ---       _Draw_Rectangle_Real
      0100C347H   CODE     ---       _DS18B20_CheckCrc
      01006AD5H   CODE     ---       _DS18B20_WriteByte
      0100AF2FH   CODE     ---       _EUSART_Write
      0100AF16H   CODE     ---       _EUSART_Write_Str
      01006419H   CODE     ---       _HmiEnterToWorkStateFunc
      01006D1BH   CODE     ---       _LCD_CrtlWrite_Area
      01006E86H   CODE     ---       _LCD_CtrlWrite_Color
      01006E99H   CODE     ---       _LCD_CtrlWrite_ILI9328
      0100BEF3H   CODE     ---       _LCD_ShowChar
      010066DBH   CODE     ---       _LCD_ShowString
      01008B56H   CODE     ---       _LCD_ShowxNum
      01009F1AH   CODE     ---       _readEEone
      01009C73H   CODE     ---       _RefreshRunTimeFunc
      01008358H   CODE     ---       _RefreshTempHumidyFunc
      01009FEBH   CODE     ---       _RX8010_GetTime
      01009D55H   CODE     ---       _RX8010_SetTime
      01007F94H   CODE     ---       _SPI_Erase_Sector
      01007F3FH   CODE     ---       _SPI_Read_nBytes
      01007F21H   CODE     ---       _SPI_Send_Byte
      01007EDAH   CODE     ---       _SPI_Write_nBytes
      01006621H   CODE     ---       _STC_IAP_Byte_Program
      01006347H   CODE     ---       _STC_IAP_Byte_Read
      0100680AH   CODE     ---       _STC_IAP_Sector_Erase
      0100780EH   CODE     ---       _WS_DelTaskIfg
      0100713DH   CODE     ---       _WS_SetTaskIfg
      01007FF3H   CODE     ---       _WS_TaskJudge
*SFR* 000000E0H   DATA     BYTE      ACC
      0100B0B1H   CODE     ---       AlarmErrorFunc
      0100B6BFH   CODE     ---       AlarmErrorTask
      02000096H   XDATA    BYTE      AlarmInfoIndex
      02000095H   XDATA    BYTE      AlarmSoundPauseStatus
      0100432FH   CODE     ---       asc2_1608
      0100491FH   CODE     ---       asc2_2412
*SFR* 0000008EH   DATA     BYTE      AUXR
      02000358H   XDATA    BYTE      Back_Color
      0100341EH   CODE     ---       CQK25X24
      02000068H   XDATA    LONG      CQK_Temp
LX51 LINKER/LOCATER V4.66.1.0                                                         04/04/2019  16:35:10  PAGE 26


      02000079H   XDATA    BYTE      CQK_Temp_Reach_Set_Cnt
      0200003DH   XDATA    ---       data_flash
      02000046H   XDATA    BYTE      defalut_mode
      01003086H   CODE     ---       DHM14X16
      0200007AH   XDATA    WORD      Diplay_RTtemp
      02000336H   XDATA    BYTE      Display_Temp_Kind
      01007455H   CODE     ---       DrawWorkWindows
      01006A64H   CODE     ---       DS18B20_ReadByte
*SFR* 000000A8H.7 DATA     BIT       EA
      0100B843H   CODE     ---       Err_Base_HeaterWire_DISP_Enable
      02000081H   XDATA    BYTE      ERR_Kind
*SFR* 000000A8H.1 DATA     BIT       ET0
      0100C4D7H   CODE     ---       EUSART_Initialize
      0100AF3FH   CODE     ---       EUSART_Read
      0100C4F4H   CODE     ---       EUSART_Receive_ISR
      0100B7DDH   CODE     ---       EUSART_Transmit_ISR
      0200024DH   XDATA    BYTE      eusartRxCount
*SFR* 000000A8H.2 DATA     BIT       EX1
      0100358DH   CODE     ---       FNT10X24
      01006837H   CODE     ---       GetTemp_HpChamberFunc
      0100A838H   CODE     ---       GetTemp_HpChamberTask
      0100A859H   CODE     ---       GetTempHumidity_PatientFunc
      0100A849H   CODE     ---       GetTempHumidity_PatientTask
      010009CAH   CODE     ---       gImage_FANEM
      010029B4H   CODE     ---       gImage_LAN_SEL_EN
      01002C06H   CODE     ---       gImage_LAN_SEL_ES
      01002D1AH   CODE     ---       gImage_LAN_SEL_FR
      01002AAAH   CODE     ---       gImage_LAN_SEL_PT
      0100082FH   CODE     ---       gImage_LOGO1
      0100088FH   CODE     ---       gImage_LOGO2
      010008FBH   CODE     ---       gImage_LOGO3
      01000961H   CODE     ---       gImage_LOGO4
      0100099AH   CODE     ---       gImage_LOGO5
      010033B2H   CODE     ---       HEAT36X32
      0200007EH   XDATA    BYTE      HeaterPlate_State
      01008D6BH   CODE     ---       HeaterPlateWireControlFunc
      01007038H   CODE     ---       HeaterPlateWireDriveFbTask
      0100B01EH   CODE     ---       HeaterWireControlTask
      0100B708H   CODE     ---       HeaterWireModeDetFunc
      0100B6F8H   CODE     ---       HeaterWireModeDetTask
      010080A8H   CODE     ---       HmiFactoryDefault_Tik_Cnt
      01008806H   CODE     ---       HmiFactoryDefaultFunc
      010087F6H   CODE     ---       HmiFactoryDefaultSelTask
      0100809BH   CODE     ---       HmiNon_InvasiveSel_Tik_Cnt
      0100980DH   CODE     ---       HmiNon_InvasiveSelFunc
      010097FDH   CODE     ---       HmiNon_InvasiveSelTask
      01007CBFH   CODE     ---       HmiPostFunc
      0100808EH   CODE     ---       HmiPostFunc_Tik_Cnt
      010080C1H   CODE     ---       HmiPostTask
      0100A060H   CODE     ---       HmiRunningFunc
      0100A050H   CODE     ---       HmiRunningTask
      01008047H   CODE     ---       HmiScreenSaverMode_Tik_Cnt
      010072C1H   CODE     ---       HmiScreenSaverModeFunc
      0100A827H   CODE     ---       HmiScreenSaverModeTask
      010079CDH   CODE     ---       HmiServiceModeFunc
      010079BFH   CODE     ---       HmiServiceModeTask
      0100A3EEH   CODE     ---       HmiSetInExpFunc
      0100A805H   CODE     ---       HmiSetInExpTask
      0100A1F8H   CODE     ---       HmiSetTempChamberFunc
      0100A7F4H   CODE     ---       HmiSetTempChamberTask
      010085B4H   CODE     ---       HmiSetTempPatientFunc
      0100A7E3H   CODE     ---       HmiSetTempPatientTask
      010098ADH   CODE     ---       HmiSetTimeFunc
      0100A816H   CODE     ---       HmiSetTimeTask
      0200007FH   XDATA    WORD      HP_CNT_Int
LX51 LINKER/LOCATER V4.66.1.0                                                         04/04/2019  16:35:10  PAGE 27


      02000082H   XDATA    WORD      HP_CNT_Int_End_Rem
*SFR* 000000C3H   DATA     BYTE      IAP_ADDRH
*SFR* 000000C4H   DATA     BYTE      IAP_ADDRL
*SFR* 000000C5H   DATA     BYTE      IAP_CMD
*SFR* 000000C7H   DATA     BYTE      IAP_CONTR
*SFR* 000000C2H   DATA     BYTE      IAP_DATA
*SFR* 000000C6H   DATA     BYTE      IAP_TRIG
      0100284CH   CODE     ---       ICO24X24
      01001CE4H   CODE     ---       ICO32X40
      01002144H   CODE     ---       ICO40X40
      01002E46H   CODE     ---       ICO48X48
*SFR* 000000A8H   DATA     BYTE      IE
      0200005EH   XDATA    BYTE      In_Exp_Ratio
      0100812DH   CODE     ---       Init_port
*SFR* 00000088H.2 DATA     BIT       IT1
      02000066H   XDATA    INT       JEP_Temp
      010034BDH   CODE     ---       JQK41X16
      020002F6H   XDATA    ---       Key_Down
      020002E8H   XDATA    ---       Key_Down_Element
      020002E7H   XDATA    BYTE      Key_Down_Tik
      01008067H   CODE     ---       Key_Down_TikFunc
      010078A7H   CODE     ---       Key_Multifun
      02000322H   XDATA    ---       Key_Mute
      02000314H   XDATA    ---       Key_Mute_Element
      02000313H   XDATA    BYTE      Key_Mute_Tik
      01008081H   CODE     ---       Key_Mute_TikFunc
      0200030CH   XDATA    ---       Key_OK
      020002FEH   XDATA    ---       Key_OK_Element
      020002FDH   XDATA    BYTE      Key_OK_Tik
      01008074H   CODE     ---       Key_OK_TikFunc
      02000329H   XDATA    BYTE      Key_State_Present
      020002E0H   XDATA    ---       Key_UP
      020002D2H   XDATA    ---       Key_UP_Element
      020002D1H   XDATA    BYTE      Key_UP_Tik
      0100805AH   CODE     ---       Key_UP_TikFunc
      0100781DH   CODE     ---       KeyScanTask
      0200034EH   XDATA    BYTE      KeyToFuncVal
      01006D83H   CODE     ---       LCD_Initial
      0100678BH   CODE     ---       LCD_Show_Verion
      0100A4E4H   CODE     ---       Load_Settings_Before_Choice
      0100B03FH   CODE     ---       LowPowerModeFunc
      0100B02FH   CODE     ---       LowPowerModeTask
      0100B84EH   CODE     ---       LowTempDet1SFunc
      0100B752H   CODE     ---       LowTempDet1STask
      010080D2H   CODE     ---       main
      0100BB5DH   CODE     ---       Main_Init
      01007034H   CODE     ---       Main_Tik_FunctionS
      01006FF6H   CODE     ---       Main_Tik_Tok_Initial_Fun
      01007149H   CODE     ---       ManageTask
      0100635AH   CODE     ---       Mem_Flash_Recall
      02000060H   XDATA    WORD      Micro_Temp_In
      02000062H   XDATA    WORD      Micro_Temp_Out
      0200005FH   XDATA    BYTE      Micro_Temp_Val
      02000097H   XDATA    BYTE      No_HeatSensor_Times
      010019C4H   CODE     ---       NUM10X16
      01001672H   CODE     ---       NUM17X40
      01000E3EH   CODE     ---       NUM30X56
      0100374FH   CODE     ---       NUM38X64
      01001A8CH   CODE     ---       Num8X16
      01001B7CH   CODE     ---       Num8X24
*SFR* 00000080H   DATA     BYTE      P0
*SFR* 00000090H   DATA     BIT       P10
*SFR* 00000090H.1 DATA     BIT       P11
*SFR* 00000090H.2 DATA     BIT       P12
*SFR* 00000090H.3 DATA     BIT       P13
LX51 LINKER/LOCATER V4.66.1.0                                                         04/04/2019  16:35:10  PAGE 28


*SFR* 00000090H.4 DATA     BIT       P14
*SFR* 00000090H.5 DATA     BIT       P15
*SFR* 00000090H.6 DATA     BIT       P16
*SFR* 00000090H.7 DATA     BIT       P17
*SFR* 00000092H   DATA     BYTE      P1M0
*SFR* 00000091H   DATA     BYTE      P1M1
*SFR* 000000A0H   DATA     BIT       P20
*SFR* 000000A0H.1 DATA     BIT       P21
*SFR* 000000A0H.2 DATA     BIT       P22
*SFR* 000000A0H.3 DATA     BIT       P23
*SFR* 000000A0H.5 DATA     BIT       P25
*SFR* 000000A0H.6 DATA     BIT       P26
*SFR* 000000A0H.7 DATA     BIT       P27
*SFR* 00000096H   DATA     BYTE      P2M0
*SFR* 00000095H   DATA     BYTE      P2M1
*SFR* 000000B0H.2 DATA     BIT       P32
*SFR* 000000B0H.4 DATA     BIT       P34
*SFR* 000000B0H.5 DATA     BIT       P35
*SFR* 000000B0H.6 DATA     BIT       P36
*SFR* 000000B0H.7 DATA     BIT       P37
*SFR* 000000B2H   DATA     BYTE      P3M0
*SFR* 000000B1H   DATA     BYTE      P3M1
*SFR* 000000C0H   DATA     BIT       P40
*SFR* 000000C0H.1 DATA     BIT       P41
*SFR* 000000C0H.2 DATA     BIT       P42
*SFR* 000000C0H.3 DATA     BIT       P43
*SFR* 000000C0H.4 DATA     BIT       P44
*SFR* 000000C0H.5 DATA     BIT       P45
*SFR* 000000C0H.6 DATA     BIT       P46
*SFR* 000000B4H   DATA     BYTE      P4M0
*SFR* 000000B3H   DATA     BYTE      P4M1
*SFR* 000000BBH   DATA     BYTE      P4SW
*SFR* 00000087H   DATA     BYTE      PCON
      01000305H   CODE     ---       PIC_WuChuang
      0100003FH   CODE     ---       PIC_YouChuang
      02000356H   XDATA    BYTE      Read_18B20_Value
      02000357H   XDATA    BYTE      Read_18B20_Value2
      0100A581H   CODE     ---       Refresh_Work_Mode
      01009C30H   CODE     ---       RefreshRTCTimeFunc
      0100AFFFH   CODE     ---       RefreshRTCTimeTask
      0100AFECH   CODE     ---       RefreshRunTimeTask
      0100AFD9H   CODE     ---       RefreshTempHumidyTask
      0100350FH   CODE     ---       RH14X24
*SFR* 00000098H   DATA     BIT       RI
      02000064H   XDATA    INT       RT_Temp
      02000078H   XDATA    BYTE      RT_Temp_Reach_Set_Cnt
      01003469H   CODE     ---       RTD28X24
      01009DF1H   CODE     ---       RX8010_Initialize
      02000084H   XDATA    ---       SaveData
      010093DAH   CODE     ---       SaveDateToFlashFunc
      0100B763H   CODE     ---       SaveDateToFlashTask
*SFR* 00000099H   DATA     BYTE      SBUF
*SFR* 00000098H   DATA     BYTE      SCON
      01007601H   CODE     ---       ServiceMode_TempHumidy_Disp
      02000072H   XDATA    WORD      Set_CQK_Temp
      02000074H   XDATA    WORD      Set_CQK_WCTemp
      02000076H   XDATA    WORD      Set_CQK_YCTemp
      0200006CH   XDATA    INT       Set_RT_Temp
      0200006EH   XDATA    WORD      Set_RT_WCTemp
      02000070H   XDATA    WORD      Set_RT_YCTemp
      0100665CH   CODE     ---       Setting_write_to_flash
      010005DFH   CODE     ---       Shangbiao8
      02000047H   XDATA    ---       show_str
      0100ABB3H   CODE     ---       SHT21_ReadData
      01006F59H   CODE     ---       SHT21_WriteRH
LX51 LINKER/LOCATER V4.66.1.0                                                         04/04/2019  16:35:10  PAGE 29


      01006F4BH   CODE     ---       SHT21_WriteTemp
      0100B699H   CODE     ---       Sound_Alarm_Pause_Disable
      0100B6EDH   CODE     ---       Sound_Alarm_Pause_Enable
      0100A1EBH   CODE     ---       Sound_Short
      0100BF8AH   CODE     ---       Sound_Type_Drive
      0100C2DFH   CODE     ---       SPI_Get_Byte
      0100C2D5H   CODE     ---       SPI_init
      0100C2CBH   CODE     ---       SPI_Write_Disable
      01007FBDH   CODE     ---       SPI_Write_Enable
      02000359H   XDATA    BYTE      step_step_times
      01008039H   CODE     ---       Sub_Tik_FunctionS
      02000094H   XDATA    BYTE      Test_Mode_Dis_Jrp_Ctl
*SFR* 00000088H.5 DATA     BIT       TF0
*SFR* 0000008CH   DATA     BYTE      TH0
*SFR* 0000008DH   DATA     BYTE      TH1
*SFR* 00000098H.1 DATA     BIT       TI
      0100700CH   CODE     ---       Timer_T0_INT_Main
*SFR* 0000008AH   DATA     BYTE      TL0
*SFR* 00000089H   DATA     BYTE      TMOD
*SFR* 00000088H.4 DATA     BIT       TR0
*SFR* 00000088H.6 DATA     BIT       TR1
      0100AC94H   CODE     ---       UART_RecData_Func
      0100AFC9H   CODE     ---       UartRecTask
      0100329AH   CODE     ---       VHB8056X40
*SFR* 000000C1H   DATA     BYTE      WDT_CONTR
      00000020H.0 BIT      BIT       Wire_Mode_Mismatch
      0200007CH   XDATA    BYTE      WireIn_State
      0100BF50H   CODE     ---       WireInOut_State_Confirm
      0200007DH   XDATA    BYTE      WireOut_State
      02000045H   XDATA    BYTE      Work_Mode
      0200034DH   XDATA    BYTE      Work_State
      02000098H   XDATA    WORD      Working_Normal
      020001C8H   XDATA    DWORD     WS_TaskIfg
      020001CCH   XDATA    ---       WS_TaskMap
      0200024CH   XDATA    BYTE      WS_TaskState



SYMBOL TABLE OF MODULE:  ..\OBJ\VHB15A (STC_EEPROM)

      VALUE       REP       CLASS    TYPE      SYMBOL NAME
      ====================================================
      ---         MODULE    ---      ---       STC_EEPROM
      0100680AH   PUBLIC    CODE     ---       _STC_IAP_Sector_Erase
      01006621H   PUBLIC    CODE     ---       _STC_IAP_Byte_Program
      01006347H   PUBLIC    CODE     ---       _STC_IAP_Byte_Read
      000000C2H   SFRSYM    DATA     BYTE      IAP_DATA
      000000C3H   SFRSYM    DATA     BYTE      IAP_ADDRH
      000000C4H   SFRSYM    DATA     BYTE      IAP_ADDRL
      000000C5H   SFRSYM    DATA     BYTE      IAP_CMD
      000000C6H   SFRSYM    DATA     BYTE      IAP_TRIG
      000000C7H   SFRSYM    DATA     BYTE      IAP_CONTR
      02000352H   SYMBOL    XDATA    ---       my_unTemp16
      01006631H   SYMBOL    CODE     ---       IAP_Disable

      01006347H   BLOCK     CODE     ---       LVL=0
      01006347H   LINE      ---      ---       #28
      01006347H   LINE      ---      ---       #29
      01006347H   LINE      ---      ---       #30
      0100634AH   LINE      ---      ---       #31
      0100634DH   LINE      ---      ---       #32
      01006350H   LINE      ---      ---       #34
      01006352H   LINE      ---      ---       #38
      01006354H   LINE      ---      ---       #40
      01006355H   LINE      ---      ---       #42
LX51 LINKER/LOCATER V4.66.1.0                                                         04/04/2019  16:35:10  PAGE 30


      01006357H   LINE      ---      ---       #44
      01006359H   LINE      ---      ---       #45
      00000006H   SYMBOL    DATA     WORD      add
      ---         BLOCKEND  ---      ---       LVL=0

      01006621H   BLOCK     CODE     ---       LVL=0
      01006621H   LINE      ---      ---       #47
      01006621H   LINE      ---      ---       #48
      01006621H   LINE      ---      ---       #49
      01006624H   LINE      ---      ---       #50
      01006627H   LINE      ---      ---       #52
      01006629H   LINE      ---      ---       #56
      0100662EH   LINE      ---      ---       #58
      01006630H   LINE      ---      ---       #60
      00000006H   SYMBOL    DATA     WORD      add
      00000005H   SYMBOL    DATA     BYTE      ch
      ---         BLOCKEND  ---      ---       LVL=0

      0100680AH   BLOCK     CODE     ---       LVL=0
      0100680AH   LINE      ---      ---       #65
      0100680AH   LINE      ---      ---       #66
      0100680AH   LINE      ---      ---       #67
      0100680DH   LINE      ---      ---       #68
      01006810H   LINE      ---      ---       #70
      01006813H   LINE      ---      ---       #74
      01006816H   LINE      ---      ---       #76
      01006817H   LINE      ---      ---       #78
      00000006H   SYMBOL    DATA     WORD      add
      ---         BLOCKEND  ---      ---       LVL=0

      01006631H   BLOCK     CODE     ---       LVL=0
      01006631H   LINE      ---      ---       #81
      01006631H   LINE      ---      ---       #82
      01006631H   LINE      ---      ---       #83
      01006634H   LINE      ---      ---       #84
      01006636H   LINE      ---      ---       #85
      01006638H   LINE      ---      ---       #86
      0100663AH   LINE      ---      ---       #87
      0100663CH   LINE      ---      ---       #88
      ---         BLOCKEND  ---      ---       LVL=0

      ---         MODULE    ---      ---       DELAY
      01006EBDH   PUBLIC    CODE     ---       _delay_ms
      0100682AH   PUBLIC    CODE     ---       _delay_us

      0100681AH   BLOCK     CODE     ---       LVL=0
      0100682AH   LINE      ---      ---       #4
      0100682AH   LINE      ---      ---       #5
      0100682AH   LINE      ---      ---       #6
      01006833H   LINE      ---      ---       #7
      01006833H   LINE      ---      ---       #8
      01006834H   LINE      ---      ---       #9
      01006836H   LINE      ---      ---       #10
      00000006H   SYMBOL    DATA     WORD      t
      ---         BLOCKEND  ---      ---       LVL=0

      01006EBDH   BLOCK     CODE     ---       LVL=0
      01006EBDH   LINE      ---      ---       #13
      01006EBDH   LINE      ---      ---       #14
      00000006H   SYMBOL    DATA     WORD      t
      01006EBDH   BLOCK     CODE     NEAR LAB  LVL=1
      01006EBDH   LINE      ---      ---       #16
      01006EC6H   LINE      ---      ---       #17
      01006EC6H   LINE      ---      ---       #18
      01006ECAH   LINE      ---      ---       #19
LX51 LINKER/LOCATER V4.66.1.0                                                         04/04/2019  16:35:10  PAGE 31


      01006ED8H   LINE      ---      ---       #20
      01006ED8H   LINE      ---      ---       #21
      01006ED9H   LINE      ---      ---       #22
      01006EDBH   LINE      ---      ---       #23
      01006EDBH   LINE      ---      ---       #24
      00000004H   SYMBOL    DATA     WORD      i
      ---         BLOCKEND  CODE     ---       LVL=1
      ---         BLOCKEND  CODE     ---       LVL=0

      ---         MODULE    ---      ---       MAIN_TIK_TOK
      0100700CH   PUBLIC    CODE     ---       Timer_T0_INT_Main
      01006FF6H   PUBLIC    CODE     ---       Main_Tik_Tok_Initial_Fun
      0000008EH   SFRSYM    DATA     BYTE      AUXR
      00000089H   SFRSYM    DATA     BYTE      TMOD
      0000008AH   SFRSYM    DATA     BYTE      TL0
      0000008CH   SFRSYM    DATA     BYTE      TH0
      000000A8H.1 SFRSYM    DATA     BIT       ET0
      00000088H.5 SFRSYM    DATA     BIT       TF0
      00000088H.4 SFRSYM    DATA     BIT       TR0
      02000354H   SYMBOL    XDATA    WORD      Sub_1_TikCount

      01006FF6H   BLOCK     CODE     ---       LVL=0
      01006FF6H   LINE      ---      ---       #19
      01006FF6H   LINE      ---      ---       #20
      01006FF6H   LINE      ---      ---       #21
      01006FF9H   LINE      ---      ---       #22
      01006FFCH   LINE      ---      ---       #23
      01006FFFH   LINE      ---      ---       #24
      01007002H   LINE      ---      ---       #25
      01007005H   LINE      ---      ---       #26
      01007007H   LINE      ---      ---       #27
      01007009H   LINE      ---      ---       #28
      0100700BH   LINE      ---      ---       #29
      ---         BLOCKEND  ---      ---       LVL=0

      0100700CH   BLOCK     CODE     ---       LVL=0
      0100700CH   LINE      ---      ---       #33
      0100700CH   LINE      ---      ---       #34
      0100700CH   LINE      ---      ---       #35
      0100700FH   LINE      ---      ---       #36
      01007012H   LINE      ---      ---       #38
      01007014H   LINE      ---      ---       #39
      01007017H   LINE      ---      ---       #40
      0100701DH   LINE      ---      ---       #41
      0100702CH   LINE      ---      ---       #42
      0100702CH   LINE      ---      ---       #43
      01007030H   LINE      ---      ---       #44
      01007033H   LINE      ---      ---       #45
      01007033H   LINE      ---      ---       #46
      ---         BLOCKEND  ---      ---       LVL=0

      ---         MODULE    ---      ---       WS_TASK_MANAGE
      0200024CH   PUBLIC    XDATA    BYTE      WS_TaskState
      020001CCH   PUBLIC    XDATA    ---       WS_TaskMap
      020001C8H   PUBLIC    XDATA    DWORD     WS_TaskIfg
      01007FF3H   PUBLIC    CODE     ---       _WS_TaskJudge
      0100780EH   PUBLIC    CODE     ---       _WS_DelTaskIfg
      0100713DH   PUBLIC    CODE     ---       _WS_SetTaskIfg

      0100713DH   BLOCK     CODE     ---       LVL=0
      0100713DH   LINE      ---      ---       #48
      0100713DH   LINE      ---      ---       #49
      0100713DH   LINE      ---      ---       #50
      00000007H   SYMBOL    DATA     BYTE      Setprio
      ---         BLOCKEND  ---      ---       LVL=0
LX51 LINKER/LOCATER V4.66.1.0                                                         04/04/2019  16:35:10  PAGE 32



      01007809H   BLOCK     CODE     ---       LVL=0
      0100780EH   LINE      ---      ---       #54
      0100780EH   LINE      ---      ---       #55
      0100780EH   LINE      ---      ---       #56
      00000007H   SYMBOL    DATA     BYTE      DelPrio
      ---         BLOCKEND  ---      ---       LVL=0

      01007FF3H   BLOCK     CODE     ---       LVL=0
      01007FF3H   LINE      ---      ---       #60
      01007FF3H   LINE      ---      ---       #61
      00000007H   SYMBOL    DATA     BYTE      AllPrio
      01007FF3H   BLOCK     CODE     NEAR LAB  LVL=1
      01007FF3H   LINE      ---      ---       #62
      01007FF8H   LINE      ---      ---       #63
      0100800FH   LINE      ---      ---       #64
      0100800FH   LINE      ---      ---       #65
      01008015H   LINE      ---      ---       #66
      01008017H   LINE      ---      ---       #68
      01008017H   LINE      ---      ---       #69
      0100801CH   LINE      ---      ---       #70
      0100801CH   LINE      ---      ---       #71
      01008021H   LINE      ---      ---       #72
      0200010EH   SYMBOL    XDATA    BYTE      res
      ---         BLOCKEND  CODE     ---       LVL=1
      ---         BLOCKEND  CODE     ---       LVL=0

      ---         MODULE    ---      ---       MAIN_TIK_FUNCTION
      01007034H   PUBLIC    CODE     ---       Main_Tik_FunctionS

      01007034H   BLOCK     CODE     ---       LVL=0
      01007034H   LINE      ---      ---       #6
      01007034H   LINE      ---      ---       #7
      01007034H   LINE      ---      ---       #8
      ---         BLOCKEND  ---      ---       LVL=0

      ---         MODULE    ---      ---       SUB_TIK_FUNCTION
      01008039H   PUBLIC    CODE     ---       Sub_Tik_FunctionS

      01008039H   BLOCK     CODE     ---       LVL=0
      01008039H   LINE      ---      ---       #8
      01008039H   LINE      ---      ---       #9
      01008039H   LINE      ---      ---       #10
      0100803BH   LINE      ---      ---       #11
      0100803DH   LINE      ---      ---       #12
      0100803FH   LINE      ---      ---       #13
      01008041H   LINE      ---      ---       #15
      01008043H   LINE      ---      ---       #16
      01008045H   LINE      ---      ---       #17
      ---         BLOCKEND  ---      ---       LVL=0

      ---         MODULE    ---      ---       NORMAL_TASK
      0200034EH   PUBLIC    XDATA    BYTE      KeyToFuncVal
      0200034DH   PUBLIC    XDATA    BYTE      Work_State
      0100AFC9H   PUBLIC    CODE     ---       UartRecTask
      0100B763H   PUBLIC    CODE     ---       SaveDateToFlashTask
      0100B752H   PUBLIC    CODE     ---       LowTempDet1STask
      0100B6BFH   PUBLIC    CODE     ---       AlarmErrorTask
      0100B6F8H   PUBLIC    CODE     ---       HeaterWireModeDetTask
      0100B02FH   PUBLIC    CODE     ---       LowPowerModeTask
      0100B01EH   PUBLIC    CODE     ---       HeaterWireControlTask
      0100AFFFH   PUBLIC    CODE     ---       RefreshRTCTimeTask
      0100AFECH   PUBLIC    CODE     ---       RefreshRunTimeTask
      0100AFD9H   PUBLIC    CODE     ---       RefreshTempHumidyTask
      0100A849H   PUBLIC    CODE     ---       GetTempHumidity_PatientTask
LX51 LINKER/LOCATER V4.66.1.0                                                         04/04/2019  16:35:10  PAGE 33


      0100A838H   PUBLIC    CODE     ---       GetTemp_HpChamberTask
      0100A827H   PUBLIC    CODE     ---       HmiScreenSaverModeTask
      0100A816H   PUBLIC    CODE     ---       HmiSetTimeTask
      0100A805H   PUBLIC    CODE     ---       HmiSetInExpTask
      0100A7F4H   PUBLIC    CODE     ---       HmiSetTempChamberTask
      0100A7E3H   PUBLIC    CODE     ---       HmiSetTempPatientTask
      0100A050H   PUBLIC    CODE     ---       HmiRunningTask
      010097FDH   PUBLIC    CODE     ---       HmiNon_InvasiveSelTask
      010087F6H   PUBLIC    CODE     ---       HmiFactoryDefaultSelTask
      010080C1H   PUBLIC    CODE     ---       HmiPostTask
      010079BFH   PUBLIC    CODE     ---       HmiServiceModeTask
      0100781DH   PUBLIC    CODE     ---       KeyScanTask
      01007149H   PUBLIC    CODE     ---       ManageTask
      000000A0H   SFRSYM    DATA     BIT       P20
      000000A0H.1 SFRSYM    DATA     BIT       P21
      000000A0H.2 SFRSYM    DATA     BIT       P22
      000000A0H.3 SFRSYM    DATA     BIT       P23

      01007149H   BLOCK     CODE     ---       LVL=0
      01007149H   LINE      ---      ---       #11
      01007149H   LINE      ---      ---       #12
      01007149H   BLOCK     CODE     NEAR LAB  LVL=1
      01007149H   LINE      ---      ---       #17
      01007154H   LINE      ---      ---       #19
      01007154H   LINE      ---      ---       #20
      01007157H   LINE      ---      ---       #21
      01007157H   LINE      ---      ---       #23
      0100715BH   LINE      ---      ---       #24
      0100715FH   LINE      ---      ---       #26
      0100716AH   LINE      ---      ---       #27
      0100716AH   LINE      ---      ---       #28
      0100716DH   LINE      ---      ---       #29
      0100716DH   LINE      ---      ---       #30
      01007171H   LINE      ---      ---       #31
      01007175H   LINE      ---      ---       #32
      01007175H   LINE      ---      ---       #34
      0100717BH   LINE      ---      ---       #35
      01007183H   LINE      ---      ---       #36
      01007183H   LINE      ---      ---       #37
      01007188H   LINE      ---      ---       #40
      01007188H   LINE      ---      ---       #41
      0100718AH   LINE      ---      ---       #42
      0100718CH   LINE      ---      ---       #43
      01007193H   LINE      ---      ---       #44
      01007193H   LINE      ---      ---       #45
      01007195H   LINE      ---      ---       #46
      01007197H   LINE      ---      ---       #47
      0100719EH   LINE      ---      ---       #48
      0100719EH   LINE      ---      ---       #49
      010071A0H   LINE      ---      ---       #50
      010071A2H   LINE      ---      ---       #51
      010071A9H   LINE      ---      ---       #52
      010071A9H   LINE      ---      ---       #53
      010071ABH   LINE      ---      ---       #54
      010071ADH   LINE      ---      ---       #55
      010071B4H   LINE      ---      ---       #56
      010071B4H   LINE      ---      ---       #57
      010071B6H   LINE      ---      ---       #58
      010071B8H   LINE      ---      ---       #59
      010071BFH   LINE      ---      ---       #60
      010071BFH   LINE      ---      ---       #61
      010071C1H   LINE      ---      ---       #62
      010071C3H   LINE      ---      ---       #63
      010071CAH   LINE      ---      ---       #64
      010071CAH   LINE      ---      ---       #65
LX51 LINKER/LOCATER V4.66.1.0                                                         04/04/2019  16:35:10  PAGE 34


      010071CCH   LINE      ---      ---       #66
      010071CEH   LINE      ---      ---       #67
      010071D5H   LINE      ---      ---       #68
      010071D5H   LINE      ---      ---       #69
      010071D7H   LINE      ---      ---       #70
      010071D9H   LINE      ---      ---       #71
      010071E0H   LINE      ---      ---       #72
      010071E0H   LINE      ---      ---       #73
      010071E4H   LINE      ---      ---       #74
      010071E4H   LINE      ---      ---       #76
      010071E4H   LINE      ---      ---       #78
      010071E4H   LINE      ---      ---       #80
      010071FEH   LINE      ---      ---       #85
      010071FEH   LINE      ---      ---       #86
      01007202H   LINE      ---      ---       #87
      01007202H   LINE      ---      ---       #90
      0100721EH   LINE      ---      ---       #95
      0100721EH   LINE      ---      ---       #96
      01007228H   LINE      ---      ---       #98
      01007228H   LINE      ---      ---       #99
      0100722CH   LINE      ---      ---       #100
      0100722CH   LINE      ---      ---       #101
      0100722CH   LINE      ---      ---       #102
      0100722CH   LINE      ---      ---       #105
      01007232H   LINE      ---      ---       #106
      01007238H   LINE      ---      ---       #107
      01007238H   LINE      ---      ---       #108
      01007248H   LINE      ---      ---       #112
      01007248H   LINE      ---      ---       #113
      01007252H   LINE      ---      ---       #115
      01007252H   LINE      ---      ---       #116
      01007256H   LINE      ---      ---       #117
      01007256H   LINE      ---      ---       #118
      01007256H   LINE      ---      ---       #120
      01007270H   LINE      ---      ---       #125
      01007270H   LINE      ---      ---       #126
      01007274H   LINE      ---      ---       #127
      01007274H   LINE      ---      ---       #128
      01007274H   LINE      ---      ---       #131
      0100727AH   LINE      ---      ---       #132
      01007280H   LINE      ---      ---       #133
      01007280H   LINE      ---      ---       #134
      01007282H   LINE      ---      ---       #135
      010072A1H   LINE      ---      ---       #141
      010072A1H   LINE      ---      ---       #142
      010072A5H   LINE      ---      ---       #143
      010072A9H   LINE      ---      ---       #144
      010072ADH   LINE      ---      ---       #145
      010072B1H   LINE      ---      ---       #146
      010072B5H   LINE      ---      ---       #147
      010072B9H   LINE      ---      ---       #148
      010072B9H   LINE      ---      ---       #149
      010072B9H   LINE      ---      ---       #150
      010072B9H   LINE      ---      ---       #151
      010072B9H   LINE      ---      ---       #152
      010072B9H   LINE      ---      ---       #153
      0200034AH   SYMBOL    XDATA    BYTE      Manage_Tik_100mS_Cnt
      0200034BH   SYMBOL    XDATA    BYTE      Manage_Tik_250mS_Cnt
      0200034CH   SYMBOL    XDATA    BYTE      Manage_Tik_1000mS_Cnt
      ---         BLOCKEND  CODE     ---       LVL=1
      ---         BLOCKEND  CODE     ---       LVL=0

      0100781DH   BLOCK     CODE     ---       LVL=0
      0100781DH   LINE      ---      ---       #156
      0100781DH   LINE      ---      ---       #157
LX51 LINKER/LOCATER V4.66.1.0                                                         04/04/2019  16:35:10  PAGE 35


      0100781DH   BLOCK     CODE     NEAR LAB  LVL=1
      0100781DH   LINE      ---      ---       #159
      01007826H   LINE      ---      ---       #161
      01007826H   LINE      ---      ---       #162
      01007828H   LINE      ---      ---       #163
      01007828H   LINE      ---      ---       #164
      0100782CH   LINE      ---      ---       #165
      01007831H   LINE      ---      ---       #166
      01007831H   LINE      ---      ---       #167
      01007833H   LINE      ---      ---       #168
      01007835H   LINE      ---      ---       #170
      01007835H   LINE      ---      ---       #171
      01007838H   LINE      ---      ---       #172
      01007838H   LINE      ---      ---       #173
      01007846H   LINE      ---      ---       #175
      0100784AH   LINE      ---      ---       #176
      0100784FH   LINE      ---      ---       #177
      0100784FH   LINE      ---      ---       #178
      01007851H   LINE      ---      ---       #179
      01007853H   LINE      ---      ---       #181
      01007853H   LINE      ---      ---       #182
      01007856H   LINE      ---      ---       #183
      01007856H   LINE      ---      ---       #185
      01007864H   LINE      ---      ---       #187
      01007868H   LINE      ---      ---       #188
      0100786DH   LINE      ---      ---       #189
      0100786DH   LINE      ---      ---       #190
      0100786FH   LINE      ---      ---       #191
      01007871H   LINE      ---      ---       #193
      01007871H   LINE      ---      ---       #194
      01007874H   LINE      ---      ---       #195
      01007874H   LINE      ---      ---       #197
      01007882H   LINE      ---      ---       #199
      01007886H   LINE      ---      ---       #200
      0100788BH   LINE      ---      ---       #201
      0100788BH   LINE      ---      ---       #202
      0100788DH   LINE      ---      ---       #203
      0100788FH   LINE      ---      ---       #205
      0100788FH   LINE      ---      ---       #206
      01007892H   LINE      ---      ---       #207
      01007892H   LINE      ---      ---       #209
      010078A0H   LINE      ---      ---       #210
      010078A0H   LINE      ---      ---       #211
      010078A0H   LINE      ---      ---       #212
      00000007H   SYMBOL    DATA     BYTE      bit_status
      ---         BLOCKEND  CODE     ---       LVL=1
      ---         BLOCKEND  CODE     ---       LVL=0

      010079BFH   BLOCK     CODE     ---       LVL=0
      010079BFH   LINE      ---      ---       #214
      010079BFH   LINE      ---      ---       #215
      010079BFH   LINE      ---      ---       #216
      010079C8H   LINE      ---      ---       #218
      010079C8H   LINE      ---      ---       #219
      010079CAH   LINE      ---      ---       #220
      010079CAH   LINE      ---      ---       #221
      010079CCH   LINE      ---      ---       #222
      010079CCH   LINE      ---      ---       #223
      010079CCH   LINE      ---      ---       #224
      ---         BLOCKEND  ---      ---       LVL=0

      010080C1H   BLOCK     CODE     ---       LVL=0
      010080C1H   LINE      ---      ---       #226
      010080C1H   LINE      ---      ---       #227
      010080C1H   LINE      ---      ---       #228
LX51 LINKER/LOCATER V4.66.1.0                                                         04/04/2019  16:35:10  PAGE 36


      010080CBH   LINE      ---      ---       #230
      010080CBH   LINE      ---      ---       #231
      010080CEH   LINE      ---      ---       #232
      010080CEH   LINE      ---      ---       #233
      010080D1H   LINE      ---      ---       #234
      010080D1H   LINE      ---      ---       #235
      010080D1H   LINE      ---      ---       #236
      ---         BLOCKEND  ---      ---       LVL=0

      010087F6H   BLOCK     CODE     ---       LVL=0
      010087F6H   LINE      ---      ---       #238
      010087F6H   LINE      ---      ---       #239
      010087F6H   LINE      ---      ---       #240
      01008800H   LINE      ---      ---       #242
      01008800H   LINE      ---      ---       #243
      01008803H   LINE      ---      ---       #244
      01008803H   LINE      ---      ---       #245
      01008805H   LINE      ---      ---       #247
      01008805H   LINE      ---      ---       #248
      01008805H   LINE      ---      ---       #249
      ---         BLOCKEND  ---      ---       LVL=0

      010097FDH   BLOCK     CODE     ---       LVL=0
      010097FDH   LINE      ---      ---       #251
      010097FDH   LINE      ---      ---       #252
      010097FDH   LINE      ---      ---       #253
      01009807H   LINE      ---      ---       #255
      01009807H   LINE      ---      ---       #256
      0100980AH   LINE      ---      ---       #257
      0100980AH   LINE      ---      ---       #258
      0100980CH   LINE      ---      ---       #259
      0100980CH   LINE      ---      ---       #260
      0100980CH   LINE      ---      ---       #261
      ---         BLOCKEND  ---      ---       LVL=0

      0100A050H   BLOCK     CODE     ---       LVL=0
      0100A050H   LINE      ---      ---       #263
      0100A050H   LINE      ---      ---       #264
      0100A050H   LINE      ---      ---       #265
      0100A05AH   LINE      ---      ---       #267
      0100A05AH   LINE      ---      ---       #268
      0100A05DH   LINE      ---      ---       #269
      0100A05DH   LINE      ---      ---       #270
      0100A05FH   LINE      ---      ---       #271
      0100A05FH   LINE      ---      ---       #272
      0100A05FH   LINE      ---      ---       #273
      ---         BLOCKEND  ---      ---       LVL=0

      0100A7E3H   BLOCK     CODE     ---       LVL=0
      0100A7E3H   LINE      ---      ---       #275
      0100A7E3H   LINE      ---      ---       #276
      0100A7E3H   LINE      ---      ---       #277
      0100A7EDH   LINE      ---      ---       #279
      0100A7EDH   LINE      ---      ---       #280
      0100A7F0H   LINE      ---      ---       #281
      0100A7F0H   LINE      ---      ---       #282
      0100A7F3H   LINE      ---      ---       #283
      0100A7F3H   LINE      ---      ---       #284
      0100A7F3H   LINE      ---      ---       #285
      ---         BLOCKEND  ---      ---       LVL=0

      0100A7F4H   BLOCK     CODE     ---       LVL=0
      0100A7F4H   LINE      ---      ---       #287
      0100A7F4H   LINE      ---      ---       #288
      0100A7F4H   LINE      ---      ---       #289
LX51 LINKER/LOCATER V4.66.1.0                                                         04/04/2019  16:35:10  PAGE 37


      0100A7FEH   LINE      ---      ---       #291
      0100A7FEH   LINE      ---      ---       #292
      0100A801H   LINE      ---      ---       #293
      0100A801H   LINE      ---      ---       #294
      0100A804H   LINE      ---      ---       #295
      0100A804H   LINE      ---      ---       #296
      0100A804H   LINE      ---      ---       #297
      ---         BLOCKEND  ---      ---       LVL=0

      0100A805H   BLOCK     CODE     ---       LVL=0
      0100A805H   LINE      ---      ---       #299
      0100A805H   LINE      ---      ---       #300
      0100A805H   LINE      ---      ---       #301
      0100A80FH   LINE      ---      ---       #303
      0100A80FH   LINE      ---      ---       #304
      0100A812H   LINE      ---      ---       #305
      0100A812H   LINE      ---      ---       #306
      0100A815H   LINE      ---      ---       #307
      0100A815H   LINE      ---      ---       #308
      0100A815H   LINE      ---      ---       #309
      ---         BLOCKEND  ---      ---       LVL=0

      0100A816H   BLOCK     CODE     ---       LVL=0
      0100A816H   LINE      ---      ---       #311
      0100A816H   LINE      ---      ---       #312
      0100A816H   LINE      ---      ---       #313
      0100A820H   LINE      ---      ---       #315
      0100A820H   LINE      ---      ---       #316
      0100A823H   LINE      ---      ---       #317
      0100A823H   LINE      ---      ---       #318
      0100A826H   LINE      ---      ---       #319
      0100A826H   LINE      ---      ---       #320
      0100A826H   LINE      ---      ---       #321
      ---         BLOCKEND  ---      ---       LVL=0

      0100A827H   BLOCK     CODE     ---       LVL=0
      0100A827H   LINE      ---      ---       #323
      0100A827H   LINE      ---      ---       #324
      0100A827H   LINE      ---      ---       #325
      0100A831H   LINE      ---      ---       #327
      0100A831H   LINE      ---      ---       #328
      0100A834H   LINE      ---      ---       #329
      0100A834H   LINE      ---      ---       #330
      0100A837H   LINE      ---      ---       #331
      0100A837H   LINE      ---      ---       #332
      0100A837H   LINE      ---      ---       #333
      ---         BLOCKEND  ---      ---       LVL=0

      0100A838H   BLOCK     CODE     ---       LVL=0
      0100A838H   LINE      ---      ---       #335
      0100A838H   LINE      ---      ---       #336
      0100A838H   LINE      ---      ---       #337
      0100A842H   LINE      ---      ---       #339
      0100A842H   LINE      ---      ---       #340
      0100A845H   LINE      ---      ---       #341
      0100A845H   LINE      ---      ---       #342
      0100A848H   LINE      ---      ---       #343
      0100A848H   LINE      ---      ---       #344
      0100A848H   LINE      ---      ---       #345
      ---         BLOCKEND  ---      ---       LVL=0

      0100A849H   BLOCK     CODE     ---       LVL=0
      0100A849H   LINE      ---      ---       #347
      0100A849H   LINE      ---      ---       #348
      0100A849H   LINE      ---      ---       #349
LX51 LINKER/LOCATER V4.66.1.0                                                         04/04/2019  16:35:10  PAGE 38


      0100A853H   LINE      ---      ---       #351
      0100A853H   LINE      ---      ---       #352
      0100A856H   LINE      ---      ---       #353
      0100A856H   LINE      ---      ---       #354
      0100A858H   LINE      ---      ---       #355
      0100A858H   LINE      ---      ---       #356
      0100A858H   LINE      ---      ---       #357
      ---         BLOCKEND  ---      ---       LVL=0

      0100AFD9H   BLOCK     CODE     ---       LVL=0
      0100AFD9H   LINE      ---      ---       #359
      0100AFD9H   LINE      ---      ---       #360
      0100AFD9H   LINE      ---      ---       #361
      0100AFE3H   LINE      ---      ---       #363
      0100AFE3H   LINE      ---      ---       #364
      0100AFE6H   LINE      ---      ---       #365
      0100AFE6H   LINE      ---      ---       #366
      0100AFEBH   LINE      ---      ---       #367
      0100AFEBH   LINE      ---      ---       #368
      0100AFEBH   LINE      ---      ---       #369
      ---         BLOCKEND  ---      ---       LVL=0

      0100AFECH   BLOCK     CODE     ---       LVL=0
      0100AFECH   LINE      ---      ---       #371
      0100AFECH   LINE      ---      ---       #372
      0100AFECH   LINE      ---      ---       #373
      0100AFF6H   LINE      ---      ---       #375
      0100AFF6H   LINE      ---      ---       #376
      0100AFF9H   LINE      ---      ---       #377
      0100AFF9H   LINE      ---      ---       #378
      0100AFFEH   LINE      ---      ---       #379
      0100AFFEH   LINE      ---      ---       #380
      0100AFFEH   LINE      ---      ---       #381
      ---         BLOCKEND  ---      ---       LVL=0

      0100AFFFH   BLOCK     CODE     ---       LVL=0
      0100AFFFH   LINE      ---      ---       #383
      0100AFFFH   LINE      ---      ---       #384
      0100AFFFH   LINE      ---      ---       #385
      0100B009H   LINE      ---      ---       #387
      0100B009H   LINE      ---      ---       #388
      0100B00CH   LINE      ---      ---       #389
      0100B00CH   LINE      ---      ---       #390
      0100B01AH   LINE      ---      ---       #392
      0100B01AH   LINE      ---      ---       #393
      0100B01DH   LINE      ---      ---       #394
      0100B01DH   LINE      ---      ---       #396
      0100B01DH   LINE      ---      ---       #397
      0100B01DH   LINE      ---      ---       #398
      ---         BLOCKEND  ---      ---       LVL=0

      0100B01EH   BLOCK     CODE     ---       LVL=0
      0100B01EH   LINE      ---      ---       #400
      0100B01EH   LINE      ---      ---       #401
      0100B01EH   LINE      ---      ---       #402
      0100B028H   LINE      ---      ---       #404
      0100B028H   LINE      ---      ---       #405
      0100B02BH   LINE      ---      ---       #406
      0100B02BH   LINE      ---      ---       #407
      0100B02EH   LINE      ---      ---       #408
      0100B02EH   LINE      ---      ---       #409
      0100B02EH   LINE      ---      ---       #410
      ---         BLOCKEND  ---      ---       LVL=0

      0100B02FH   BLOCK     CODE     ---       LVL=0
LX51 LINKER/LOCATER V4.66.1.0                                                         04/04/2019  16:35:10  PAGE 39


      0100B02FH   LINE      ---      ---       #412
      0100B02FH   LINE      ---      ---       #413
      0100B02FH   LINE      ---      ---       #414
      0100B039H   LINE      ---      ---       #416
      0100B039H   LINE      ---      ---       #417
      0100B03CH   LINE      ---      ---       #418
      0100B03CH   LINE      ---      ---       #419
      0100B03EH   LINE      ---      ---       #420
      0100B03EH   LINE      ---      ---       #421
      0100B03EH   LINE      ---      ---       #422
      ---         BLOCKEND  ---      ---       LVL=0

      0100B6F8H   BLOCK     CODE     ---       LVL=0
      0100B6F8H   LINE      ---      ---       #424
      0100B6F8H   LINE      ---      ---       #425
      0100B6F8H   LINE      ---      ---       #426
      0100B702H   LINE      ---      ---       #428
      0100B702H   LINE      ---      ---       #429
      0100B705H   LINE      ---      ---       #430
      0100B705H   LINE      ---      ---       #431
      0100B707H   LINE      ---      ---       #432
      0100B707H   LINE      ---      ---       #433
      0100B707H   LINE      ---      ---       #434
      ---         BLOCKEND  ---      ---       LVL=0

      0100B6BFH   BLOCK     CODE     ---       LVL=0
      0100B6BFH   LINE      ---      ---       #436
      0100B6BFH   LINE      ---      ---       #437
      0100B6BFH   LINE      ---      ---       #438
      0100B6C9H   LINE      ---      ---       #440
      0100B6C9H   LINE      ---      ---       #441
      0100B6CCH   LINE      ---      ---       #442
      0100B6CCH   LINE      ---      ---       #443
      0100B6CEH   LINE      ---      ---       #444
      0100B6CEH   LINE      ---      ---       #445
      0100B6CEH   LINE      ---      ---       #446
      ---         BLOCKEND  ---      ---       LVL=0

      0100B752H   BLOCK     CODE     ---       LVL=0
      0100B752H   LINE      ---      ---       #448
      0100B752H   LINE      ---      ---       #449
      0100B752H   LINE      ---      ---       #450
      0100B75CH   LINE      ---      ---       #452
      0100B75CH   LINE      ---      ---       #453
      0100B75FH   LINE      ---      ---       #454
      0100B75FH   LINE      ---      ---       #455
      0100B762H   LINE      ---      ---       #456
      0100B762H   LINE      ---      ---       #457
      0100B762H   LINE      ---      ---       #458
      ---         BLOCKEND  ---      ---       LVL=0

      0100B763H   BLOCK     CODE     ---       LVL=0
      0100B763H   LINE      ---      ---       #460
      0100B763H   LINE      ---      ---       #461
      0100B763H   LINE      ---      ---       #462
      0100B76DH   LINE      ---      ---       #464
      0100B76DH   LINE      ---      ---       #465
      0100B770H   LINE      ---      ---       #466
      0100B770H   LINE      ---      ---       #467
      0100B773H   LINE      ---      ---       #468
      0100B773H   LINE      ---      ---       #469
      0100B773H   LINE      ---      ---       #470
      ---         BLOCKEND  ---      ---       LVL=0

      0100AFC9H   BLOCK     CODE     ---       LVL=0
LX51 LINKER/LOCATER V4.66.1.0                                                         04/04/2019  16:35:10  PAGE 40


      0100AFC9H   LINE      ---      ---       #472
      0100AFC9H   LINE      ---      ---       #473
      0100AFC9H   LINE      ---      ---       #474
      0100AFD3H   LINE      ---      ---       #476
      0100AFD3H   LINE      ---      ---       #477
      0100AFD6H   LINE      ---      ---       #478
      0100AFD8H   LINE      ---      ---       #479
      0100AFD8H   LINE      ---      ---       #480
      ---         BLOCKEND  ---      ---       LVL=0

      ---         MODULE    ---      ---       ACTIVITYFUNCTIONS
      02000098H   PUBLIC    XDATA    WORD      Working_Normal
      02000097H   PUBLIC    XDATA    BYTE      No_HeatSensor_Times
      02000096H   PUBLIC    XDATA    BYTE      AlarmInfoIndex
      02000095H   PUBLIC    XDATA    BYTE      AlarmSoundPauseStatus
      02000094H   PUBLIC    XDATA    BYTE      Test_Mode_Dis_Jrp_Ctl
      02000084H   PUBLIC    XDATA    ---       SaveData
      02000082H   PUBLIC    XDATA    WORD      HP_CNT_Int_End_Rem
      00000020H.0 PUBLIC    BIT      BIT       Wire_Mode_Mismatch
      02000081H   PUBLIC    XDATA    BYTE      ERR_Kind
      0200007FH   PUBLIC    XDATA    WORD      HP_CNT_Int
      0200007EH   PUBLIC    XDATA    BYTE      HeaterPlate_State
      0200007DH   PUBLIC    XDATA    BYTE      WireOut_State
      0200007CH   PUBLIC    XDATA    BYTE      WireIn_State
      0200007AH   PUBLIC    XDATA    WORD      Diplay_RTtemp
      02000079H   PUBLIC    XDATA    BYTE      CQK_Temp_Reach_Set_Cnt
      02000078H   PUBLIC    XDATA    BYTE      RT_Temp_Reach_Set_Cnt
      02000076H   PUBLIC    XDATA    WORD      Set_CQK_YCTemp
      02000074H   PUBLIC    XDATA    WORD      Set_CQK_WCTemp
      02000072H   PUBLIC    XDATA    WORD      Set_CQK_Temp
      02000070H   PUBLIC    XDATA    WORD      Set_RT_YCTemp
      0200006EH   PUBLIC    XDATA    WORD      Set_RT_WCTemp
      0200006CH   PUBLIC    XDATA    INT       Set_RT_Temp
      02000068H   PUBLIC    XDATA    LONG      CQK_Temp
      02000066H   PUBLIC    XDATA    INT       JEP_Temp
      02000064H   PUBLIC    XDATA    INT       RT_Temp
      02000062H   PUBLIC    XDATA    WORD      Micro_Temp_Out
      02000060H   PUBLIC    XDATA    WORD      Micro_Temp_In
      0200005FH   PUBLIC    XDATA    BYTE      Micro_Temp_Val
      0200005EH   PUBLIC    XDATA    BYTE      In_Exp_Ratio
      02000047H   PUBLIC    XDATA    ---       show_str
      02000046H   PUBLIC    XDATA    BYTE      defalut_mode
      02000045H   PUBLIC    XDATA    BYTE      Work_Mode
      0200003DH   PUBLIC    XDATA    ---       data_flash
      01007038H   PUBLIC    CODE     ---       HeaterPlateWireDriveFbTask
      0100BF50H   PUBLIC    CODE     ---       WireInOut_State_Confirm
      0100B03FH   PUBLIC    CODE     ---       LowPowerModeFunc
      0100A4E4H   PUBLIC    CODE     ---       Load_Settings_Before_Choice
      0100635AH   PUBLIC    CODE     ---       Mem_Flash_Recall
      0100665CH   PUBLIC    CODE     ---       Setting_write_to_flash
      01007601H   PUBLIC    CODE     ---       ServiceMode_TempHumidy_Disp
      0100BB5DH   PUBLIC    CODE     ---       Main_Init
      0100812DH   PUBLIC    CODE     ---       Init_port
      010093DAH   PUBLIC    CODE     ---       SaveDateToFlashFunc
      0100B84EH   PUBLIC    CODE     ---       LowTempDet1SFunc
      0100B0B1H   PUBLIC    CODE     ---       AlarmErrorFunc
      0100B843H   PUBLIC    CODE     ---       Err_Base_HeaterWire_DISP_Enable
      01008D6BH   PUBLIC    CODE     ---       HeaterPlateWireControlFunc
      01006837H   PUBLIC    CODE     ---       GetTemp_HpChamberFunc
      0100A859H   PUBLIC    CODE     ---       GetTempHumidity_PatientFunc
      01009C30H   PUBLIC    CODE     ---       RefreshRTCTimeFunc
      01009C73H   PUBLIC    CODE     ---       _RefreshRunTimeFunc
      01008358H   PUBLIC    CODE     ---       _RefreshTempHumidyFunc
      0100B708H   PUBLIC    CODE     ---       HeaterWireModeDetFunc
      0100AC94H   PUBLIC    CODE     ---       UART_RecData_Func
LX51 LINKER/LOCATER V4.66.1.0                                                         04/04/2019  16:35:10  PAGE 41


      000000B4H   SFRSYM    DATA     BYTE      P4M0
      000000B3H   SFRSYM    DATA     BYTE      P4M1
      000000BBH   SFRSYM    DATA     BYTE      P4SW
      000000C1H   SFRSYM    DATA     BYTE      WDT_CONTR
      000000A8H.7 SFRSYM    DATA     BIT       EA
      000000A8H.2 SFRSYM    DATA     BIT       EX1
      000000A8H.1 SFRSYM    DATA     BIT       ET0
      00000092H   SFRSYM    DATA     BYTE      P1M0
      00000091H   SFRSYM    DATA     BYTE      P1M1
      00000090H   SFRSYM    DATA     BIT       P10
      00000090H.2 SFRSYM    DATA     BIT       P12
      00000090H.3 SFRSYM    DATA     BIT       P13
      00000090H.7 SFRSYM    DATA     BIT       P17
      000000A0H   SFRSYM    DATA     BIT       P20
      000000A0H.1 SFRSYM    DATA     BIT       P21
      000000A0H.2 SFRSYM    DATA     BIT       P22
      000000A0H.7 SFRSYM    DATA     BIT       P27
      00000096H   SFRSYM    DATA     BYTE      P2M0
      00000095H   SFRSYM    DATA     BYTE      P2M1
      000000B0H.2 SFRSYM    DATA     BIT       P32
      000000B0H.4 SFRSYM    DATA     BIT       P34
      000000B0H.5 SFRSYM    DATA     BIT       P35
      000000B0H.6 SFRSYM    DATA     BIT       P36
      000000B0H.7 SFRSYM    DATA     BIT       P37
      000000B2H   SFRSYM    DATA     BYTE      P3M0
      000000B1H   SFRSYM    DATA     BYTE      P3M1
      000000C0H   SFRSYM    DATA     BIT       P40
      000000C0H.3 SFRSYM    DATA     BIT       P43
      00000098H.1 SFRSYM    DATA     BIT       TI
      00000098H   SFRSYM    DATA     BIT       RI
      00000088H.4 SFRSYM    DATA     BIT       TR0
      00000088H.2 SFRSYM    DATA     BIT       IT1
      0100B774H   SYMBOL    CODE     ---       Interrupt_EXT1
      0100B795H   SYMBOL    CODE     ---       Interrupt_Time0
      0100B7B6H   SYMBOL    CODE     ---       Serial
      0200009AH   SYMBOL    XDATA    BYTE      Wire_Mode_Sel
      00000020H.1 SYMBOL    BIT      BIT       JRP_Sensor_Err
      00000020H.2 SYMBOL    BIT      BIT       CQK_Sensor_Err
      00000020H.3 SYMBOL    BIT      BIT       RTD_Sensor_Err
      00000020H.4 SYMBOL    BIT      BIT       SHIDU_Sensor_Err
      0200009BH   SYMBOL    XDATA    BYTE      HiTemp_Count
      0200009CH   SYMBOL    XDATA    BYTE      LoTemp_Count
      0200009DH   SYMBOL    XDATA    BYTE      LoTemp_CQK_Count
      0200009EH   SYMBOL    XDATA    BYTE      LoHumity_Count
      0200009FH   SYMBOL    XDATA    WORD      No_CQKSensor_Times
      020000A1H   SYMBOL    XDATA    WORD      CQKSensor_Hithen800_Times
      020000A3H   SYMBOL    XDATA    WORD      JRP_Sensor_Temp_No_Change_Times
      020000A5H   SYMBOL    XDATA    WORD      CQK_Sensor_Temp_No_Change_Times
      020000A7H   SYMBOL    XDATA    BYTE      ERR_RT_Temp_Times
      020000A8H   SYMBOL    XDATA    BYTE      No_ReadData_SHIDU_Times
      020000A9H   SYMBOL    XDATA    WORD      RT_Temp_Not_Updated_10mS
      020000ABH   SYMBOL    XDATA    BYTE      No_ReadData_Temp_Times
      020000ACH   SYMBOL    XDATA    WORD      Nochange_Times
      020000AEH   SYMBOL    XDATA    BYTE      Work_Day
      020000AFH   SYMBOL    XDATA    BYTE      Work_Hour
      020000B0H   SYMBOL    XDATA    BYTE      Work_Min
      020000B1H   SYMBOL    XDATA    BYTE      Work_Sec
      020000B2H   SYMBOL    XDATA    WORD      Run_Count
      020000B4H   SYMBOL    XDATA    BYTE      Rec_Count
      020000B5H   SYMBOL    XDATA    WORD      Tick_20ms
      020000B7H   SYMBOL    XDATA    WORD      RT_SHIDU
      020000B9H   SYMBOL    XDATA    WORD      CONTROL_RT_SHIDU
      020000BBH   SYMBOL    XDATA    WORD      Aim_SHIDU
      020000BDH   SYMBOL    XDATA    INT       JEP_Temp_Aim
      020000BFH   SYMBOL    XDATA    WORD      Wire_Warm_Up_Sec
LX51 LINKER/LOCATER V4.66.1.0                                                         04/04/2019  16:35:10  PAGE 42


      020000C1H   SYMBOL    XDATA    WORD      Plate_Warm_Up_Sec
      020000C3H   SYMBOL    XDATA    WORD      Humidity_No_Change_Sec
      020000C5H   SYMBOL    XDATA    WORD      Low_Power_Mode_Flag
      020000C7H   SYMBOL    XDATA    BYTE      Micro_Adj_Mode_Test
      020000C8H   SYMBOL    XDATA    ---       Controler_temp
      020000D2H   SYMBOL    XDATA    ---       Controler_temp2
      020000DCH   SYMBOL    XDATA    ---       Controler_temp3
      020000E6H   SYMBOL    XDATA    ---       NowTime
      0100B7E5H   SYMBOL    CODE     ---       Store_Data
      0100ADF8H   SYMBOL    CODE     ---       Get_RunCount
      0100A55DH   SYMBOL    CODE     ---       Write_Default_Setting_to_flash
      01009534H   SYMBOL    CODE     ---       PatientTemp_NoneHeatWire_Adj
      0100BBF2H   SYMBOL    CODE     ---       Controler_Calc
      0100BDB2H   SYMBOL    CODE     ---       HeatPlateTemp_Aim_Controler_Calc
      0100BCC3H   SYMBOL    CODE     ---       HeatPlate_Controler_Calc
      020000EDH   SYMBOL    XDATA    BYTE      UART_RecState
      020000EEH   SYMBOL    XDATA    ---       UART_Rec_Buf
      0100ADC2H   SYMBOL    CODE     ---       UART_RecBuf_Clear_Fun
      02000102H   SYMBOL    XDATA    INT       Temp1_Int
      02000104H   SYMBOL    XDATA    INT       Temp2_Int
      02000106H   SYMBOL    XDATA    WORD      NoneWire_Heat_Sec
      02000108H   SYMBOL    XDATA    INT       Set_CQK_Temp_Comp
      0200010AH   SYMBOL    XDATA    BYTE      Wire_Mode_Sel_Rem
      0200010BH   SYMBOL    XDATA    BYTE      Disp_ERR_VHB80_Code
      0200010CH   SYMBOL    XDATA    WORD      NoneWire_Warm_Up_Sec

      0100B774H   BLOCK     CODE     ---       LVL=0
      0100B781H   LINE      ---      ---       #174
      0100B781H   LINE      ---      ---       #176
      0100B787H   LINE      ---      ---       #177
      ---         BLOCKEND  ---      ---       LVL=0

      0100B795H   BLOCK     CODE     ---       LVL=0
      0100B7A2H   LINE      ---      ---       #179
      0100B7A2H   LINE      ---      ---       #181
      0100B7A5H   LINE      ---      ---       #182
      0100B7ABH   LINE      ---      ---       #183
      ---         BLOCKEND  ---      ---       LVL=0

      0100B7B6H   BLOCK     CODE     ---       LVL=0
      0100B7C3H   LINE      ---      ---       #185
      0100B7C3H   LINE      ---      ---       #187
      0100B7C6H   LINE      ---      ---       #188
      0100B7C6H   LINE      ---      ---       #189
      0100B7C9H   LINE      ---      ---       #191
      0100B7CBH   LINE      ---      ---       #192
      0100B7CBH   LINE      ---      ---       #194
      0100B7CEH   LINE      ---      ---       #195
      0100B7CEH   LINE      ---      ---       #196
      0100B7D0H   LINE      ---      ---       #197
      0100B7D2H   LINE      ---      ---       #198
      0100B7D2H   LINE      ---      ---       #199
      ---         BLOCKEND  ---      ---       LVL=0

      0100ADC2H   BLOCK     CODE     ---       LVL=0
      0100ADC2H   LINE      ---      ---       #214
      0100ADC2H   LINE      ---      ---       #215
      0100ADC2H   BLOCK     CODE     NEAR LAB  LVL=1
      0100ADC2H   LINE      ---      ---       #218
      0100ADC4H   LINE      ---      ---       #219
      0100ADC4H   LINE      ---      ---       #220
      0100ADCEH   LINE      ---      ---       #221
      0100ADCEH   LINE      ---      ---       #222
      00000006H   SYMBOL    DATA     INT       i
      ---         BLOCKEND  CODE     ---       LVL=1
LX51 LINKER/LOCATER V4.66.1.0                                                         04/04/2019  16:35:10  PAGE 43


      ---         BLOCKEND  CODE     ---       LVL=0

      0100AC94H   BLOCK     CODE     ---       LVL=0
      0100AC94H   LINE      ---      ---       #226
      0100AC94H   LINE      ---      ---       #227
      0100AC94H   BLOCK     CODE     NEAR LAB  LVL=1
      0100AC94H   LINE      ---      ---       #235
      0100AC9CH   LINE      ---      ---       #236
      0100AC9CH   LINE      ---      ---       #237
      0100ACA1H   LINE      ---      ---       #239
      0100ACA8H   LINE      ---      ---       #240
      0100ACA8H   LINE      ---      ---       #241
      0100ACAEH   LINE      ---      ---       #242
      0100ACB5H   LINE      ---      ---       #243
      0100ACB5H   LINE      ---      ---       #244
      0100ACB7H   LINE      ---      ---       #245
      0100ACB9H   LINE      ---      ---       #246
      0100ACBEH   LINE      ---      ---       #247
      0100ACC4H   LINE      ---      ---       #249
      0100ACC6H   LINE      ---      ---       #250
      0100ACCBH   LINE      ---      ---       #251
      0100ACCBH   LINE      ---      ---       #252
      0100ACD2H   LINE      ---      ---       #253
      0100ACD8H   LINE      ---      ---       #254
      0100ACD8H   LINE      ---      ---       #255
      0100ACE4H   LINE      ---      ---       #257
      0100ACE4H   LINE      ---      ---       #259
      0100ACEAH   LINE      ---      ---       #260
      0100ACECH   LINE      ---      ---       #261
      0100ACF1H   LINE      ---      ---       #262
      0100ACF3H   LINE      ---      ---       #264
      0100ACF3H   LINE      ---      ---       #265
      0100ACF9H   LINE      ---      ---       #266
      0100ACFBH   LINE      ---      ---       #267
      0100ACFBH   LINE      ---      ---       #268
      0100AD13H   LINE      ---      ---       #269
      0100AD1AH   LINE      ---      ---       #270
      0100AD1AH   LINE      ---      ---       #271
      0100AD1AH   LINE      ---      ---       #272
      0100AD1AH   LINE      ---      ---       #273
      0100AD21H   LINE      ---      ---       #274
      0100AD21H   LINE      ---      ---       #275
      0100AD28H   LINE      ---      ---       #277
      0100AD2EH   LINE      ---      ---       #278
      0100AD2EH   LINE      ---      ---       #279
      0100AD34H   LINE      ---      ---       #280
      0100AD34H   LINE      ---      ---       #281
      0100AD34H   LINE      ---      ---       #283
      0100AD34H   LINE      ---      ---       #285
      0100AD34H   LINE      ---      ---       #287
      0100AD3EH   LINE      ---      ---       #288
      0100AD3EH   LINE      ---      ---       #289
      0100AD3FH   LINE      ---      ---       #291
      0100AD77H   LINE      ---      ---       #295
      0100AD81H   LINE      ---      ---       #296
      0100AD81H   LINE      ---      ---       #297
      0100AD81H   LINE      ---      ---       #298
      0100AD83H   LINE      ---      ---       #299
      02000000H   SYMBOL    XDATA    BYTE      UART_Rec_Cnt
      00000007H   SYMBOL    DATA     BYTE      i
      00000005H   SYMBOL    DATA     BYTE      uart_data
      0200010EH   SYMBOL    XDATA    DWORD     Adress
      ---         BLOCKEND  CODE     ---       LVL=1
      ---         BLOCKEND  CODE     ---       LVL=0

LX51 LINKER/LOCATER V4.66.1.0                                                         04/04/2019  16:35:10  PAGE 44


      0100B708H   BLOCK     CODE     ---       LVL=0
      0100B708H   LINE      ---      ---       #301
      0100B708H   LINE      ---      ---       #302
      0100B708H   LINE      ---      ---       #303
      0100B70FH   LINE      ---      ---       #304
      0100B70FH   LINE      ---      ---       #305
      0100B719H   LINE      ---      ---       #306
      0100B719H   LINE      ---      ---       #307
      0100B71BH   LINE      ---      ---       #308
      0100B71CH   LINE      ---      ---       #310
      0100B71CH   LINE      ---      ---       #311
      0100B71EH   LINE      ---      ---       #312
      0100B71EH   LINE      ---      ---       #313
      0100B71FH   LINE      ---      ---       #314
      0100B723H   LINE      ---      ---       #315
      0100B723H   LINE      ---      ---       #316
      0100B730H   LINE      ---      ---       #317
      0100B730H   LINE      ---      ---       #318
      0100B732H   LINE      ---      ---       #319
      0100B733H   LINE      ---      ---       #321
      0100B733H   LINE      ---      ---       #322
      0100B735H   LINE      ---      ---       #323
      0100B735H   LINE      ---      ---       #324
      0100B736H   LINE      ---      ---       #325
      0100B73DH   LINE      ---      ---       #326
      0100B73DH   LINE      ---      ---       #327
      0100B74CH   LINE      ---      ---       #328
      0100B74CH   LINE      ---      ---       #329
      0100B74EH   LINE      ---      ---       #330
      0100B74FH   LINE      ---      ---       #332
      0100B74FH   LINE      ---      ---       #333
      0100B751H   LINE      ---      ---       #334
      0100B751H   LINE      ---      ---       #335
      0100B751H   LINE      ---      ---       #337
      0100B751H   LINE      ---      ---       #339
      0100B751H   LINE      ---      ---       #340
      ---         BLOCKEND  ---      ---       LVL=0

      01008358H   BLOCK     CODE     ---       LVL=0
      01008358H   LINE      ---      ---       #342
      01008358H   LINE      ---      ---       #343
      00000007H   SYMBOL    DATA     BYTE      Refresh_En
      01008358H   BLOCK     CODE     NEAR LAB  LVL=1
      01008358H   LINE      ---      ---       #347
      0100835FH   LINE      ---      ---       #351
      01008365H   LINE      ---      ---       #352
      0100836BH   LINE      ---      ---       #353
      0100836BH   LINE      ---      ---       #354
      0100836DH   LINE      ---      ---       #355
      0100836DH   LINE      ---      ---       #357
      01008375H   LINE      ---      ---       #359
      01008375H   LINE      ---      ---       #360
      01008377H   LINE      ---      ---       #361
      01008377H   LINE      ---      ---       #364
      0100837AH   LINE      ---      ---       #365
      0100837CH   LINE      ---      ---       #368
      0100837FH   LINE      ---      ---       #369
      0100837FH   LINE      ---      ---       #370
      01008387H   LINE      ---      ---       #371
      01008387H   LINE      ---      ---       #373
      01008394H   LINE      ---      ---       #376
      01008394H   LINE      ---      ---       #377
      0100839EH   LINE      ---      ---       #380
      0100839EH   LINE      ---      ---       #381
      010083A1H   LINE      ---      ---       #382
LX51 LINKER/LOCATER V4.66.1.0                                                         04/04/2019  16:35:10  PAGE 45


      010083A1H   LINE      ---      ---       #383
      010083A3H   LINE      ---      ---       #385
      010083BAH   LINE      ---      ---       #386
      010083BAH   LINE      ---      ---       #387
      010083C0H   LINE      ---      ---       #390
      010083C0H   LINE      ---      ---       #391
      010083C9H   LINE      ---      ---       #392
      010083C9H   LINE      ---      ---       #393
      010083CBH   LINE      ---      ---       #395
      010083CBH   LINE      ---      ---       #396
      010083D1H   LINE      ---      ---       #397
      010083D1H   LINE      ---      ---       #398
      010083D4H   LINE      ---      ---       #399
      010083D4H   LINE      ---      ---       #400
      010083D4H   LINE      ---      ---       #402
      010083E2H   LINE      ---      ---       #403
      010083E2H   LINE      ---      ---       #404
      010083EAH   LINE      ---      ---       #405
      010083EAH   LINE      ---      ---       #406
      010083EFH   LINE      ---      ---       #407
      010083F3H   LINE      ---      ---       #408
      010083F5H   LINE      ---      ---       #409
      010083F8H   LINE      ---      ---       #410
      010083F8H   LINE      ---      ---       #411
      01008407H   LINE      ---      ---       #412
      0100840BH   LINE      ---      ---       #413
      0100840BH   LINE      ---      ---       #415
      0100840BH   LINE      ---      ---       #417
      0100840BH   LINE      ---      ---       #419
      0100840EH   LINE      ---      ---       #420
      0100840EH   LINE      ---      ---       #421
      01008444H   LINE      ---      ---       #426
      01008446H   LINE      ---      ---       #427
      01008453H   LINE      ---      ---       #428
      01008453H   LINE      ---      ---       #429
      0100846BH   LINE      ---      ---       #432
      01008474H   LINE      ---      ---       #433
      01008476H   LINE      ---      ---       #435
      01008476H   LINE      ---      ---       #436
      01008494H   LINE      ---      ---       #439
      010084A8H   LINE      ---      ---       #440
      010084A8H   LINE      ---      ---       #441
      010084A8H   LINE      ---      ---       #444
      010084AEH   LINE      ---      ---       #446
      010084AEH   LINE      ---      ---       #447
      010084B4H   LINE      ---      ---       #450
      010084B4H   LINE      ---      ---       #451
      010084BDH   LINE      ---      ---       #452
      010084BDH   LINE      ---      ---       #453
      010084BFH   LINE      ---      ---       #455
      010084BFH   LINE      ---      ---       #456
      010084C5H   LINE      ---      ---       #457
      010084C5H   LINE      ---      ---       #458
      010084C8H   LINE      ---      ---       #459
      010084C8H   LINE      ---      ---       #460
      010084C8H   LINE      ---      ---       #462
      010084D4H   LINE      ---      ---       #463
      010084D4H   LINE      ---      ---       #464
      010084D7H   LINE      ---      ---       #465
      010084D7H   LINE      ---      ---       #466
      0100850EH   LINE      ---      ---       #469
      0100850EH   LINE      ---      ---       #471
      0100850EH   LINE      ---      ---       #472
      01008530H   LINE      ---      ---       #474
      01008530H   LINE      ---      ---       #475
LX51 LINKER/LOCATER V4.66.1.0                                                         04/04/2019  16:35:10  PAGE 46


      01008530H   LINE      ---      ---       #476
      02000001H   SYMBOL    XDATA    BYTE      Refresh_WenDu_Cnt
      02000002H   SYMBOL    XDATA    BYTE      Alarm_WenDu_Cnt
      02000194H   SYMBOL    XDATA    WORD      Disp
      02000196H   SYMBOL    XDATA    WORD      color
      02000198H   SYMBOL    XDATA    WORD      Temp_Dis_En
      00000020H.5 SYMBOL    BIT      BIT       Disp_Err
      ---         BLOCKEND  CODE     ---       LVL=1
      ---         BLOCKEND  CODE     ---       LVL=0

      01009C73H   BLOCK     CODE     ---       LVL=0
      01009C73H   LINE      ---      ---       #479
      01009C78H   LINE      ---      ---       #481
      02000194H   SYMBOL    XDATA    BYTE      Refresh_En
      01009C78H   BLOCK     CODE     NEAR LAB  LVL=1
      01009C78H   LINE      ---      ---       #482
      01009C7AH   LINE      ---      ---       #486
      01009C80H   LINE      ---      ---       #489
      01009C87H   LINE      ---      ---       #490
      01009C87H   LINE      ---      ---       #491
      01009C89H   LINE      ---      ---       #492
      01009C92H   LINE      ---      ---       #493
      01009C92H   LINE      ---      ---       #494
      01009C92H   LINE      ---      ---       #495
      01009C94H   LINE      ---      ---       #497
      01009C94H   LINE      ---      ---       #498
      01009C99H   LINE      ---      ---       #499
      01009C9BH   LINE      ---      ---       #500
      01009CA4H   LINE      ---      ---       #501
      01009CA4H   LINE      ---      ---       #502
      01009CA4H   LINE      ---      ---       #503
      01009CA6H   LINE      ---      ---       #505
      01009CA6H   LINE      ---      ---       #506
      01009CABH   LINE      ---      ---       #507
      01009CB4H   LINE      ---      ---       #508
      01009CB4H   LINE      ---      ---       #509
      01009CB4H   LINE      ---      ---       #510
      01009CB6H   LINE      ---      ---       #511
      01009CB6H   LINE      ---      ---       #512
      01009CBBH   LINE      ---      ---       #513
      01009CC4H   LINE      ---      ---       #514
      01009CC4H   LINE      ---      ---       #515
      01009CC7H   LINE      ---      ---       #516
      01009CC7H   LINE      ---      ---       #517
      01009CC7H   LINE      ---      ---       #518
      01009CC7H   LINE      ---      ---       #519
      01009CC7H   LINE      ---      ---       #520
      01009CC7H   LINE      ---      ---       #522
      01009CD1H   LINE      ---      ---       #523
      01009CD1H   LINE      ---      ---       #525
      01009CD6H   LINE      ---      ---       #526
      01009CD6H   LINE      ---      ---       #527
      01009CD9H   LINE      ---      ---       #528
      01009CE4H   LINE      ---      ---       #529
      01009CEDH   LINE      ---      ---       #530
      01009CF8H   LINE      ---      ---       #531
      01009D01H   LINE      ---      ---       #532
      01009D0CH   LINE      ---      ---       #533
      01009D15H   LINE      ---      ---       #534
      01009D15H   LINE      ---      ---       #535
      01009D15H   LINE      ---      ---       #536
      00000007H   SYMBOL    DATA     BYTE      t
      02000003H   SYMBOL    XDATA    BYTE      Last_Sec
      ---         BLOCKEND  CODE     ---       LVL=1
      ---         BLOCKEND  CODE     ---       LVL=0
LX51 LINKER/LOCATER V4.66.1.0                                                         04/04/2019  16:35:10  PAGE 47



      01009C30H   BLOCK     CODE     ---       LVL=0
      01009C30H   LINE      ---      ---       #539
      01009C30H   LINE      ---      ---       #540
      01009C30H   BLOCK     CODE     NEAR LAB  LVL=1
      01009C30H   LINE      ---      ---       #543
      01009C32H   LINE      ---      ---       #548
      01009C38H   LINE      ---      ---       #550
      01009C3FH   LINE      ---      ---       #551
      01009C3FH   LINE      ---      ---       #552
      01009C41H   LINE      ---      ---       #554
      01009C4DH   LINE      ---      ---       #555
      01009C4DH   LINE      ---      ---       #556
      01009C4FH   LINE      ---      ---       #557
      01009C4FH   LINE      ---      ---       #559
      01009C69H   LINE      ---      ---       #565
      01009C69H   LINE      ---      ---       #566
      02000004H   SYMBOL    XDATA    BYTE      Last_Min
      00000007H   SYMBOL    DATA     BYTE      t
      02000005H   SYMBOL    XDATA    BYTE      Last_Sec
      ---         BLOCKEND  CODE     ---       LVL=1
      ---         BLOCKEND  CODE     ---       LVL=0

      0100A859H   BLOCK     CODE     ---       LVL=0
      0100A859H   LINE      ---      ---       #568
      0100A859H   LINE      ---      ---       #569
      0100A859H   BLOCK     CODE     NEAR LAB  LVL=1
      0100A859H   LINE      ---      ---       #572
      0100A85EH   LINE      ---      ---       #583
      0100A864H   LINE      ---      ---       #584
      0100A86AH   LINE      ---      ---       #585
      0100A86AH   LINE      ---      ---       #586
      0100A86CH   LINE      ---      ---       #587
      0100A875H   LINE      ---      ---       #588
      0100A880H   LINE      ---      ---       #589
      0100A88FH   LINE      ---      ---       #590
      0100A8ADH   LINE      ---      ---       #591
      0100A8ADH   LINE      ---      ---       #604
      0100A8BCH   LINE      ---      ---       #605
      0100A8BCH   LINE      ---      ---       #606
      0100A8BFH   LINE      ---      ---       #607
      0100A8BFH   LINE      ---      ---       #609
      0100A8BFH   LINE      ---      ---       #610
      0100A8C5H   LINE      ---      ---       #611
      0100A8C5H   LINE      ---      ---       #612
      0100A8CDH   LINE      ---      ---       #613
      0100A8CFH   LINE      ---      ---       #614
      0100A8CFH   LINE      ---      ---       #615
      0100A8CFH   LINE      ---      ---       #616
      0100A8D1H   LINE      ---      ---       #618
      0100A8D1H   LINE      ---      ---       #619
      0100A8D6H   LINE      ---      ---       #620
      0100A8D6H   LINE      ---      ---       #621
      0100A8D6H   LINE      ---      ---       #622
      0100A8D8H   LINE      ---      ---       #623
      0100A8E2H   LINE      ---      ---       #624
      0100A8E2H   LINE      ---      ---       #626
      0100A8E6H   LINE      ---      ---       #627
      0100A8EBH   LINE      ---      ---       #628
      0100A8EBH   LINE      ---      ---       #629
      0100A8EDH   LINE      ---      ---       #634
      0100A901H   LINE      ---      ---       #635
      0100A901H   LINE      ---      ---       #637
      0100A906H   LINE      ---      ---       #638
      0100A908H   LINE      ---      ---       #640
LX51 LINKER/LOCATER V4.66.1.0                                                         04/04/2019  16:35:10  PAGE 48


      0100A908H   LINE      ---      ---       #641
      0100A90DH   LINE      ---      ---       #642
      0100A913H   LINE      ---      ---       #644
      0100A919H   LINE      ---      ---       #645
      0100A919H   LINE      ---      ---       #646
      0100A91FH   LINE      ---      ---       #647
      0100A91FH   LINE      ---      ---       #648
      0100A948H   LINE      ---      ---       #649
      0100A94AH   LINE      ---      ---       #651
      0100A94AH   LINE      ---      ---       #652
      0100A975H   LINE      ---      ---       #653
      0100A975H   LINE      ---      ---       #656
      0100A982H   LINE      ---      ---       #657
      0100A982H   LINE      ---      ---       #658
      0100A9B5H   LINE      ---      ---       #659
      0100A9B5H   LINE      ---      ---       #662
      0100A9C2H   LINE      ---      ---       #663
      0100A9C2H   LINE      ---      ---       #664
      0100A9CCH   LINE      ---      ---       #665
      0100A9CCH   LINE      ---      ---       #666
      0100A9CFH   LINE      ---      ---       #667
      0100A9CFH   LINE      ---      ---       #668
      0100A9D1H   LINE      ---      ---       #670
      0100A9D1H   LINE      ---      ---       #671
      0100A9D6H   LINE      ---      ---       #672
      0100A9D6H   LINE      ---      ---       #673
      0100A9D6H   LINE      ---      ---       #674
      0100A9D6H   LINE      ---      ---       #675
      0100A9D8H   LINE      ---      ---       #677
      0100A9D8H   LINE      ---      ---       #678
      0100A9E5H   LINE      ---      ---       #680
      0100A9E5H   LINE      ---      ---       #681
      0100A9E5H   LINE      ---      ---       #682
      0100A9E7H   LINE      ---      ---       #684
      0100A9E7H   LINE      ---      ---       #686
      0100A9E7H   LINE      ---      ---       #689
      0100A9E7H   LINE      ---      ---       #690
      0100A9EEH   LINE      ---      ---       #691
      0100A9EEH   LINE      ---      ---       #692
      0100A9F6H   LINE      ---      ---       #693
      0100A9FBH   LINE      ---      ---       #694
      0100A9FBH   LINE      ---      ---       #695
      0100A9FBH   LINE      ---      ---       #696
      0100A9FDH   LINE      ---      ---       #698
      0100A9FDH   LINE      ---      ---       #699
      0100AA00H   LINE      ---      ---       #700
      0100AA05H   LINE      ---      ---       #701
      0100AA05H   LINE      ---      ---       #702
      0100AA07H   LINE      ---      ---       #703
      0100AA11H   LINE      ---      ---       #704
      0100AA11H   LINE      ---      ---       #706
      0100AA15H   LINE      ---      ---       #707
      0100AA1AH   LINE      ---      ---       #708
      0100AA1AH   LINE      ---      ---       #710
      0100AA1CH   LINE      ---      ---       #713
      0100AA37H   LINE      ---      ---       #714
      0100AA37H   LINE      ---      ---       #715
      0100AA40H   LINE      ---      ---       #716
      0100AA40H   LINE      ---      ---       #717
      0100AA43H   LINE      ---      ---       #718
      0100AA43H   LINE      ---      ---       #719
      0100AA4AH   LINE      ---      ---       #720
      0100AA50H   LINE      ---      ---       #722
      0100AA52H   LINE      ---      ---       #724
      0100AA52H   LINE      ---      ---       #725
LX51 LINKER/LOCATER V4.66.1.0                                                         04/04/2019  16:35:10  PAGE 49


      0100AA57H   LINE      ---      ---       #726
      0100AA62H   LINE      ---      ---       #727
      0100AA67H   LINE      ---      ---       #728
      0100AA73H   LINE      ---      ---       #729
      0100AA73H   LINE      ---      ---       #730
      0100AA7DH   LINE      ---      ---       #731
      0100AA7DH   LINE      ---      ---       #732
      0100AA87H   LINE      ---      ---       #733
      0100AA89H   LINE      ---      ---       #735
      0100AA8FH   LINE      ---      ---       #736
      0100AA8FH   LINE      ---      ---       #737
      0100AA9CH   LINE      ---      ---       #738
      0100AA9CH   LINE      ---      ---       #739
      0100AAA9H   LINE      ---      ---       #740
      0100AAA9H   LINE      ---      ---       #741
      0100AAC4H   LINE      ---      ---       #742
      0100AACCH   LINE      ---      ---       #743
      0100AACCH   LINE      ---      ---       #744
      0100AAD5H   LINE      ---      ---       #745
      0100AAD5H   LINE      ---      ---       #746
      0100AAD7H   LINE      ---      ---       #748
      0100AAD7H   LINE      ---      ---       #749
      0100AADEH   LINE      ---      ---       #750
      0100AADEH   LINE      ---      ---       #751
      0100AAEEH   LINE      ---      ---       #752
      0100AAF0H   LINE      ---      ---       #754
      0100AAF0H   LINE      ---      ---       #755
      0100AAFAH   LINE      ---      ---       #757
      0100AAFAH   LINE      ---      ---       #759
      0100AB06H   LINE      ---      ---       #760
      0100AB06H   LINE      ---      ---       #761
      0100AB1BH   LINE      ---      ---       #762
      0100AB1BH   LINE      ---      ---       #763
      0100AB1BH   LINE      ---      ---       #765
      0100AB1BH   LINE      ---      ---       #767
      0100AB1BH   LINE      ---      ---       #768
      0100AB21H   LINE      ---      ---       #769
      0100AB30H   LINE      ---      ---       #770
      0100AB30H   LINE      ---      ---       #771
      0100AB37H   LINE      ---      ---       #772
      0100AB37H   LINE      ---      ---       #773
      0100AB37H   LINE      ---      ---       #774
      0100AB37H   LINE      ---      ---       #776
      0100AB37H   LINE      ---      ---       #778
      0100AB37H   LINE      ---      ---       #781
      0100AB37H   LINE      ---      ---       #783
      0100AB37H   LINE      ---      ---       #785
      0100AB37H   LINE      ---      ---       #787
      0100AB47H   LINE      ---      ---       #788
      0100AB47H   LINE      ---      ---       #789
      0100AB50H   LINE      ---      ---       #790
      0100AB50H   LINE      ---      ---       #791
      0100AB53H   LINE      ---      ---       #792
      0100AB53H   LINE      ---      ---       #793
      0100AB5CH   LINE      ---      ---       #794
      0100AB5CH   LINE      ---      ---       #795
      0100AB5FH   LINE      ---      ---       #796
      0100AB5FH   LINE      ---      ---       #798
      0100AB61H   LINE      ---      ---       #800
      0100AB61H   LINE      ---      ---       #801
      0100AB66H   LINE      ---      ---       #802
      0100AB6AH   LINE      ---      ---       #803
      0100AB6AH   LINE      ---      ---       #805
      0100AB70H   LINE      ---      ---       #806
      0100AB76H   LINE      ---      ---       #807
LX51 LINKER/LOCATER V4.66.1.0                                                         04/04/2019  16:35:10  PAGE 50


      0100AB76H   LINE      ---      ---       #808
      0100AB78H   LINE      ---      ---       #809
      0100AB7EH   LINE      ---      ---       #810
      0100AB7EH   LINE      ---      ---       #811
      0100AB80H   LINE      ---      ---       #812
      0100AB81H   LINE      ---      ---       #813
      0100AB85H   LINE      ---      ---       #814
      0100AB85H   LINE      ---      ---       #815
      0100AB8BH   LINE      ---      ---       #816
      0100AB8CH   LINE      ---      ---       #818
      0100AB8CH   LINE      ---      ---       #819
      0100AB91H   LINE      ---      ---       #820
      0100AB91H   LINE      ---      ---       #821
      0100AB91H   LINE      ---      ---       #822
      0100AB91H   LINE      ---      ---       #823
      02000006H   SYMBOL    XDATA    BYTE      Get_time_out
      02000007H   SYMBOL    XDATA    BYTE      Read_Order
      0200010EH   SYMBOL    XDATA    BYTE      Read_SHT21_Err
      00000020H.5 SYMBOL    BIT      BIT       Read_SCL_CONF
      0200010FH   SYMBOL    XDATA    DWORD     TempLong
      02000113H   SYMBOL    XDATA    WORD      Temp2
      02000008H   SYMBOL    XDATA    WORD      RT_Temp_Mem_L1
      0200000AH   SYMBOL    XDATA    WORD      RT_Temp_Mem_L2
      0200000CH   SYMBOL    XDATA    WORD      RT_Temp_Mem_L3
      0200000EH   SYMBOL    XDATA    BYTE      ReCnt
      ---         BLOCKEND  CODE     ---       LVL=1
      ---         BLOCKEND  CODE     ---       LVL=0

      01006837H   BLOCK     CODE     ---       LVL=0
      01006837H   LINE      ---      ---       #826
      01006837H   LINE      ---      ---       #827
      01006837H   BLOCK     CODE     NEAR LAB  LVL=1
      01006837H   LINE      ---      ---       #846
      0100683CH   LINE      ---      ---       #847
      0100683EH   LINE      ---      ---       #850
      01006844H   LINE      ---      ---       #855
      0100684AH   LINE      ---      ---       #856
      01006850H   LINE      ---      ---       #857
      01006850H   LINE      ---      ---       #858
      01006852H   LINE      ---      ---       #859
      01006852H   LINE      ---      ---       #861
      01006861H   LINE      ---      ---       #862
      01006861H   LINE      ---      ---       #863
      01006863H   LINE      ---      ---       #864
      01006863H   LINE      ---      ---       #865
      0100686CH   LINE      ---      ---       #866
      0100686CH   LINE      ---      ---       #867
      0100686FH   LINE      ---      ---       #868
      0100686FH   LINE      ---      ---       #870
      01006875H   LINE      ---      ---       #871
      01006875H   LINE      ---      ---       #872
      01006877H   LINE      ---      ---       #882
      0100687BH   LINE      ---      ---       #883
      0100687BH   LINE      ---      ---       #884
      01006885H   LINE      ---      ---       #886
      01006885H   LINE      ---      ---       #887
      01006887H   LINE      ---      ---       #897
      0100688BH   LINE      ---      ---       #898
      0100688DH   LINE      ---      ---       #899
      01006893H   LINE      ---      ---       #901
      0100689BH   LINE      ---      ---       #902
      010068A1H   LINE      ---      ---       #904
      010068A9H   LINE      ---      ---       #906
      010068AEH   LINE      ---      ---       #907
      010068AEH   LINE      ---      ---       #908
LX51 LINKER/LOCATER V4.66.1.0                                                         04/04/2019  16:35:10  PAGE 51


      010068B6H   LINE      ---      ---       #909
      010068E1H   LINE      ---      ---       #926
      010068F5H   LINE      ---      ---       #928
      010068F8H   LINE      ---      ---       #929
      010068F8H   LINE      ---      ---       #930
      010068FAH   LINE      ---      ---       #931
      010068FAH   LINE      ---      ---       #933
      010068FFH   LINE      ---      ---       #934
      010068FFH   LINE      ---      ---       #935
      01006904H   LINE      ---      ---       #936
      01006909H   LINE      ---      ---       #938
      0100690CH   LINE      ---      ---       #939
      0100690FH   LINE      ---      ---       #940
      0100690FH   LINE      ---      ---       #941
      01006913H   LINE      ---      ---       #943
      01006915H   LINE      ---      ---       #945
      01006915H   LINE      ---      ---       #946
      0100691DH   LINE      ---      ---       #948
      0100691DH   LINE      ---      ---       #950
      01006934H   LINE      ---      ---       #951
      01006934H   LINE      ---      ---       #952
      01006939H   LINE      ---      ---       #953
      01006948H   LINE      ---      ---       #954
      01006948H   LINE      ---      ---       #955
      0100694FH   LINE      ---      ---       #956
      0100694FH   LINE      ---      ---       #957
      01006951H   LINE      ---      ---       #959
      01006951H   LINE      ---      ---       #960
      01006958H   LINE      ---      ---       #961
      01006958H   LINE      ---      ---       #963
      01006967H   LINE      ---      ---       #964
      01006967H   LINE      ---      ---       #966
      01006967H   LINE      ---      ---       #968
      01006967H   LINE      ---      ---       #969
      0100696EH   LINE      ---      ---       #970
      0100696EH   LINE      ---      ---       #972
      010069AFH   LINE      ---      ---       #974
      010069AFH   LINE      ---      ---       #975
      010069BDH   LINE      ---      ---       #976
      010069BDH   LINE      ---      ---       #977
      010069C6H   LINE      ---      ---       #978
      010069CBH   LINE      ---      ---       #979
      010069CBH   LINE      ---      ---       #980
      010069E9H   LINE      ---      ---       #981
      010069E9H   LINE      ---      ---       #982
      010069E9H   LINE      ---      ---       #983
      010069E9H   LINE      ---      ---       #985
      010069E9H   LINE      ---      ---       #987
      010069E9H   LINE      ---      ---       #988
      010069F8H   LINE      ---      ---       #989
      010069F8H   LINE      ---      ---       #990
      010069F8H   LINE      ---      ---       #997
      010069F8H   LINE      ---      ---       #998
      010069FFH   LINE      ---      ---       #999
      010069FFH   LINE      ---      ---       #1001
      01006A04H   LINE      ---      ---       #1002
      01006A09H   LINE      ---      ---       #1004
      01006A09H   LINE      ---      ---       #1005
      01006A09H   LINE      ---      ---       #1008
      01006A09H   LINE      ---      ---       #1011
      01006A0CH   LINE      ---      ---       #1012
      01006A0FH   LINE      ---      ---       #1013
      01006A0FH   LINE      ---      ---       #1014
      01006A13H   LINE      ---      ---       #1016
      01006A15H   LINE      ---      ---       #1018
LX51 LINKER/LOCATER V4.66.1.0                                                         04/04/2019  16:35:10  PAGE 52


      01006A15H   LINE      ---      ---       #1019
      01006A1DH   LINE      ---      ---       #1021
      01006A1DH   LINE      ---      ---       #1024
      01006A2BH   LINE      ---      ---       #1025
      01006A2BH   LINE      ---      ---       #1026
      01006A30H   LINE      ---      ---       #1027
      01006A3FH   LINE      ---      ---       #1028
      01006A3FH   LINE      ---      ---       #1029
      01006A46H   LINE      ---      ---       #1030
      01006A46H   LINE      ---      ---       #1031
      01006A48H   LINE      ---      ---       #1033
      01006A48H   LINE      ---      ---       #1034
      01006A4FH   LINE      ---      ---       #1035
      01006A4FH   LINE      ---      ---       #1036
      01006A59H   LINE      ---      ---       #1038
      01006A63H   LINE      ---      ---       #1047
      01006A63H   LINE      ---      ---       #1048
      01006A63H   LINE      ---      ---       #1050
      01006A63H   LINE      ---      ---       #1052
      01006A63H   LINE      ---      ---       #1053
      00000020H.5 SYMBOL    BIT      BIT       CQKSensorExist
      0200010EH   SYMBOL    XDATA    BYTE      T18B20_L
      0200010FH   SYMBOL    XDATA    BYTE      T18B20_H
      02000110H   SYMBOL    XDATA    BYTE      CQK_T18B20_L
      02000111H   SYMBOL    XDATA    BYTE      CQK_T18B20_H
      00000005H   SYMBOL    DATA     BYTE      T18B20_H_GET
      00000004H   SYMBOL    DATA     BYTE      T18B20_L_GET
      00000005H   SYMBOL    DATA     BYTE      CQK_T18B20_H_GET
      00000004H   SYMBOL    DATA     BYTE      CQK_T18B20_L_GET
      0200000FH   SYMBOL    XDATA    WORD      CQK_Temp_Last
      02000112H   SYMBOL    XDATA    BYTE      CRC8_error
      02000113H   SYMBOL    XDATA    BYTE      checksum
      02000114H   SYMBOL    XDATA    ---       DS18B20_Cdata
      0200011CH   SYMBOL    XDATA    WORD      temp
      02000011H   SYMBOL    XDATA    WORD      JRP_Temp_Last
      02000013H   SYMBOL    XDATA    BYTE      Get_Temp_Cnt
      ---         BLOCKEND  CODE     ---       LVL=1
      ---         BLOCKEND  CODE     ---       LVL=0

      01008D6BH   BLOCK     CODE     ---       LVL=0
      01008D6BH   LINE      ---      ---       #1059
      01008D6BH   LINE      ---      ---       #1060
      01008D6BH   BLOCK     CODE     NEAR LAB  LVL=1
      01008D6BH   LINE      ---      ---       #1062
      01008D6EH   LINE      ---      ---       #1071
      01008D7CH   LINE      ---      ---       #1072
      01008D7CH   LINE      ---      ---       #1073
      01008D7FH   LINE      ---      ---       #1074
      01008E75H   LINE      ---      ---       #1095
      01008E7DH   LINE      ---      ---       #1096
      01008E7DH   LINE      ---      ---       #1097
      01008EA4H   LINE      ---      ---       #1100
      01008EB3H   LINE      ---      ---       #1101
      01008EB3H   LINE      ---      ---       #1102
      01008EBCH   LINE      ---      ---       #1103
      01008EBEH   LINE      ---      ---       #1105
      01008EBEH   LINE      ---      ---       #1106
      01008ECEH   LINE      ---      ---       #1107
      01008ECEH   LINE      ---      ---       #1110
      01008EE1H   LINE      ---      ---       #1113
      01008EF0H   LINE      ---      ---       #1114
      01008EF0H   LINE      ---      ---       #1115
      01008EF9H   LINE      ---      ---       #1116
      01008EFBH   LINE      ---      ---       #1118
      01008EFBH   LINE      ---      ---       #1119
LX51 LINKER/LOCATER V4.66.1.0                                                         04/04/2019  16:35:10  PAGE 53


      01008F0BH   LINE      ---      ---       #1120
      01008F0BH   LINE      ---      ---       #1123
      01008F20H   LINE      ---      ---       #1124
      01008F22H   LINE      ---      ---       #1126
      01008F22H   LINE      ---      ---       #1127
      01008F49H   LINE      ---      ---       #1129
      01008F49H   LINE      ---      ---       #1131
      01008FA9H   LINE      ---      ---       #1137
      01008FA9H   LINE      ---      ---       #1139
      01008FC0H   LINE      ---      ---       #1145
      01008FC0H   LINE      ---      ---       #1146
      01008FC7H   LINE      ---      ---       #1148
      01008FCCH   LINE      ---      ---       #1150
      01008FD3H   LINE      ---      ---       #1152
      01008FD6H   LINE      ---      ---       #1153
      01008FD6H   LINE      ---      ---       #1155
      01008FD6H   LINE      ---      ---       #1158
      01008FDFH   LINE      ---      ---       #1159
      01008FDFH   LINE      ---      ---       #1160
      01008FE6H   LINE      ---      ---       #1161
      01008FE8H   LINE      ---      ---       #1162
      01008FE8H   LINE      ---      ---       #1163
      01008FEFH   LINE      ---      ---       #1164
      01008FEFH   LINE      ---      ---       #1166
      01008FF2H   LINE      ---      ---       #1168
      01008FFFH   LINE      ---      ---       #1169
      01008FFFH   LINE      ---      ---       #1170
      01009007H   LINE      ---      ---       #1171
      01009007H   LINE      ---      ---       #1172
      0100900BH   LINE      ---      ---       #1173
      0100900BH   LINE      ---      ---       #1174
      01009012H   LINE      ---      ---       #1175
      01009014H   LINE      ---      ---       #1177
      01009014H   LINE      ---      ---       #1178
      01009023H   LINE      ---      ---       #1179
      01009023H   LINE      ---      ---       #1180
      01009035H   LINE      ---      ---       #1181
      01009035H   LINE      ---      ---       #1182
      0100903AH   LINE      ---      ---       #1183
      0100903AH   LINE      ---      ---       #1187
      01009051H   LINE      ---      ---       #1188
      01009054H   LINE      ---      ---       #1189
      0100905EH   LINE      ---      ---       #1191
      01009064H   LINE      ---      ---       #1192
      01009064H   LINE      ---      ---       #1193
      0100907DH   LINE      ---      ---       #1194
      0100907DH   LINE      ---      ---       #1196
      0100907DH   LINE      ---      ---       #1197
      0100908DH   LINE      ---      ---       #1198
      0100908DH   LINE      ---      ---       #1200
      0100908DH   LINE      ---      ---       #1201
      01009099H   LINE      ---      ---       #1202
      01009099H   LINE      ---      ---       #1204
      01009099H   LINE      ---      ---       #1205
      010090A6H   LINE      ---      ---       #1206
      010090A6H   LINE      ---      ---       #1208
      010090A6H   LINE      ---      ---       #1210
      010090A6H   LINE      ---      ---       #1211
      010090A6H   LINE      ---      ---       #1212
      010090A6H   LINE      ---      ---       #1213
      010090A8H   LINE      ---      ---       #1215
      010090A8H   LINE      ---      ---       #1216
      010090A8H   LINE      ---      ---       #1217
      010090A8H   LINE      ---      ---       #1218
      010090AAH   LINE      ---      ---       #1220
LX51 LINKER/LOCATER V4.66.1.0                                                         04/04/2019  16:35:10  PAGE 54


      010090AAH   LINE      ---      ---       #1221
      010090ACH   LINE      ---      ---       #1222
      010090ACH   LINE      ---      ---       #1224
      010090B0H   LINE      ---      ---       #1225
      010090B0H   LINE      ---      ---       #1227
      010090B0H   LINE      ---      ---       #1229
      010090B0H   LINE      ---      ---       #1230
      010090BCH   LINE      ---      ---       #1231
      010090BCH   LINE      ---      ---       #1232
      010090C2H   LINE      ---      ---       #1233
      010090C2H   LINE      ---      ---       #1234
      010090C2H   LINE      ---      ---       #1237
      010090CCH   LINE      ---      ---       #1239
      010090CEH   LINE      ---      ---       #1240
      010090D4H   LINE      ---      ---       #1241
      010090D4H   LINE      ---      ---       #1242
      010090D4H   LINE      ---      ---       #1243
      010090E9H   LINE      ---      ---       #1244
      010090F1H   LINE      ---      ---       #1245
      010090F1H   LINE      ---      ---       #1246
      010090F6H   LINE      ---      ---       #1247
      010090F6H   LINE      ---      ---       #1248
      010090FCH   LINE      ---      ---       #1249
      010090FCH   LINE      ---      ---       #1250
      01009106H   LINE      ---      ---       #1251
      01009106H   LINE      ---      ---       #1252
      01009119H   LINE      ---      ---       #1253
      01009119H   LINE      ---      ---       #1254
      01009119H   LINE      ---      ---       #1255
      01009122H   LINE      ---      ---       #1256
      01009122H   LINE      ---      ---       #1257
      01009122H   LINE      ---      ---       #1258
      01009122H   LINE      ---      ---       #1259
      01009122H   LINE      ---      ---       #1260
      01009124H   LINE      ---      ---       #1262
      01009124H   LINE      ---      ---       #1263
      01009126H   LINE      ---      ---       #1264
      01009126H   LINE      ---      ---       #1265
      01009130H   LINE      ---      ---       #1266
      01009130H   LINE      ---      ---       #1271
      01009137H   LINE      ---      ---       #1272
      01009137H   LINE      ---      ---       #1273
      0100914BH   LINE      ---      ---       #1275
      0100914BH   LINE      ---      ---       #1276
      01009150H   LINE      ---      ---       #1277
      01009150H   LINE      ---      ---       #1278
      01009152H   LINE      ---      ---       #1280
      01009152H   LINE      ---      ---       #1281
      01009159H   LINE      ---      ---       #1282
      01009159H   LINE      ---      ---       #1284
      01009169H   LINE      ---      ---       #1286
      01009169H   LINE      ---      ---       #1287
      0100916EH   LINE      ---      ---       #1288
      0100916EH   LINE      ---      ---       #1290
      0100917AH   LINE      ---      ---       #1291
      0100917AH   LINE      ---      ---       #1292
      0100917DH   LINE      ---      ---       #1293
      0100917DH   LINE      ---      ---       #1294
      0100918CH   LINE      ---      ---       #1296
      0100919BH   LINE      ---      ---       #1297
      0100919BH   LINE      ---      ---       #1298
      010091A2H   LINE      ---      ---       #1299
      010091A9H   LINE      ---      ---       #1301
      010091A9H   LINE      ---      ---       #1303
      010091B8H   LINE      ---      ---       #1304
LX51 LINKER/LOCATER V4.66.1.0                                                         04/04/2019  16:35:10  PAGE 55


      010091B8H   LINE      ---      ---       #1305
      010091BFH   LINE      ---      ---       #1307
      010091C0H   LINE      ---      ---       #1309
      010091C8H   LINE      ---      ---       #1310
      010091C8H   LINE      ---      ---       #1311
      010091D4H   LINE      ---      ---       #1312
      010091D4H   LINE      ---      ---       #1313
      010091DAH   LINE      ---      ---       #1314
      010091DAH   LINE      ---      ---       #1315
      010091DCH   LINE      ---      ---       #1316
      010091E2H   LINE      ---      ---       #1317
      010091E4H   LINE      ---      ---       #1319
      010091E4H   LINE      ---      ---       #1320
      010091F5H   LINE      ---      ---       #1323
      010091F5H   LINE      ---      ---       #1324
      010091FEH   LINE      ---      ---       #1325
      010091FEH   LINE      ---      ---       #1327
      01009202H   LINE      ---      ---       #1328
      01009202H   LINE      ---      ---       #1329
      01009204H   LINE      ---      ---       #1331
      01009204H   LINE      ---      ---       #1332
      0100920DH   LINE      ---      ---       #1333
      0100920DH   LINE      ---      ---       #1334
      01009219H   LINE      ---      ---       #1335
      01009219H   LINE      ---      ---       #1336
      01009219H   LINE      ---      ---       #1338
      01009227H   LINE      ---      ---       #1339
      01009227H   LINE      ---      ---       #1341
      0100923BH   LINE      ---      ---       #1342
      0100923BH   LINE      ---      ---       #1344
      01009242H   LINE      ---      ---       #1345
      01009242H   LINE      ---      ---       #1347
      01009253H   LINE      ---      ---       #1348
      01009253H   LINE      ---      ---       #1349
      0100925AH   LINE      ---      ---       #1350
      0100925AH   LINE      ---      ---       #1351
      0100925CH   LINE      ---      ---       #1353
      0100925CH   LINE      ---      ---       #1354
      0100926DH   LINE      ---      ---       #1355
      0100926DH   LINE      ---      ---       #1356
      01009270H   LINE      ---      ---       #1357
      01009270H   LINE      ---      ---       #1358
      01009270H   LINE      ---      ---       #1363
      0100928AH   LINE      ---      ---       #1364
      0100928AH   LINE      ---      ---       #1365
      01009291H   LINE      ---      ---       #1366
      01009293H   LINE      ---      ---       #1368
      01009293H   LINE      ---      ---       #1369
      01009299H   LINE      ---      ---       #1370
      010092AAH   LINE      ---      ---       #1371
      010092AAH   LINE      ---      ---       #1372
      010092AEH   LINE      ---      ---       #1373
      010092C3H   LINE      ---      ---       #1374
      010092C6H   LINE      ---      ---       #1376
      010092D3H   LINE      ---      ---       #1378
      010092DAH   LINE      ---      ---       #1379
      010092DAH   LINE      ---      ---       #1380
      010092E7H   LINE      ---      ---       #1381
      010092E7H   LINE      ---      ---       #1382
      010092EEH   LINE      ---      ---       #1383
      010092EEH   LINE      ---      ---       #1384
      010092F0H   LINE      ---      ---       #1386
      010092F0H   LINE      ---      ---       #1387
      010092FDH   LINE      ---      ---       #1388
      010092FDH   LINE      ---      ---       #1389
LX51 LINKER/LOCATER V4.66.1.0                                                         04/04/2019  16:35:10  PAGE 56


      01009304H   LINE      ---      ---       #1390
      01009304H   LINE      ---      ---       #1391
      01009304H   LINE      ---      ---       #1393
      01009308H   LINE      ---      ---       #1395
      01009308H   LINE      ---      ---       #1396
      01009315H   LINE      ---      ---       #1397
      01009315H   LINE      ---      ---       #1398
      0100931CH   LINE      ---      ---       #1399
      0100931CH   LINE      ---      ---       #1400
      0100931EH   LINE      ---      ---       #1402
      0100931EH   LINE      ---      ---       #1403
      0100932BH   LINE      ---      ---       #1404
      0100932BH   LINE      ---      ---       #1405
      0100932DH   LINE      ---      ---       #1406
      0100932DH   LINE      ---      ---       #1407
      0100932DH   LINE      ---      ---       #1408
      0100932DH   LINE      ---      ---       #1409
      0100932DH   LINE      ---      ---       #1412
      0100933EH   LINE      ---      ---       #1416
      0100935FH   LINE      ---      ---       #1417
      0100935FH   LINE      ---      ---       #1418
      0100936AH   LINE      ---      ---       #1419
      0100936AH   LINE      ---      ---       #1420
      01009370H   LINE      ---      ---       #1421
      01009370H   LINE      ---      ---       #1422
      0100937AH   LINE      ---      ---       #1423
      0100937AH   LINE      ---      ---       #1424
      0100937AH   LINE      ---      ---       #1425
      0100937AH   LINE      ---      ---       #1427
      0100937AH   LINE      ---      ---       #1429
      0100937AH   LINE      ---      ---       #1431
      0100937AH   LINE      ---      ---       #1432
      0100937AH   LINE      ---      ---       #1433
      0100937AH   LINE      ---      ---       #1436
      01009386H   LINE      ---      ---       #1437
      01009386H   LINE      ---      ---       #1438
      0100938CH   LINE      ---      ---       #1439
      0100938CH   LINE      ---      ---       #1440
      01009396H   LINE      ---      ---       #1441
      01009396H   LINE      ---      ---       #1442
      0100939FH   LINE      ---      ---       #1443
      0100939FH   LINE      ---      ---       #1445
      010093A0H   LINE      ---      ---       #1446
      010093AAH   LINE      ---      ---       #1447
      010093AAH   LINE      ---      ---       #1448
      010093ACH   LINE      ---      ---       #1450
      010093ACH   LINE      ---      ---       #1452
      010093ACH   LINE      ---      ---       #1454
      010093ACH   LINE      ---      ---       #1456
      010093ACH   LINE      ---      ---       #1457
      0200010EH   SYMBOL    XDATA    WORD      Val_Calc
      02000110H   SYMBOL    XDATA    INT       Humidity_Err
      02000112H   SYMBOL    XDATA    INT       Humidity_Comp
      02000014H   SYMBOL    XDATA    WORD      Last_Rem_Humidity
      02000016H   SYMBOL    XDATA    WORD      WarmUp_S_Cnt
      ---         BLOCKEND  CODE     ---       LVL=1
      ---         BLOCKEND  CODE     ---       LVL=0

      0100B7E5H   BLOCK     CODE     ---       LVL=0
      0100B7E5H   LINE      ---      ---       #1460
      0100B7E5H   LINE      ---      ---       #1461
      0100B7E5H   BLOCK     CODE     NEAR LAB  LVL=1
      0100B7E5H   LINE      ---      ---       #1464
      0100B7F4H   LINE      ---      ---       #1465
      0100B7F4H   LINE      ---      ---       #1467
LX51 LINKER/LOCATER V4.66.1.0                                                         04/04/2019  16:35:10  PAGE 57


      0100B7F4H   LINE      ---      ---       #1468
      0100B813H   LINE      ---      ---       #1469
      0100B817H   LINE      ---      ---       #1470
      0100B824H   LINE      ---      ---       #1471
      0100B824H   LINE      ---      ---       #1472
      0100B826H   LINE      ---      ---       #1473
      0100B826H   LINE      ---      ---       #1474
      0100B836H   LINE      ---      ---       #1475
      0100B842H   LINE      ---      ---       #1478
      00000006H   SYMBOL    DATA     WORD      i
      00000005H   SYMBOL    DATA     BYTE      N
      02000114H   SYMBOL    XDATA    BYTE      j
      ---         BLOCKEND  CODE     ---       LVL=1
      ---         BLOCKEND  CODE     ---       LVL=0

      0100ADF8H   BLOCK     CODE     ---       LVL=0
      0100ADF8H   LINE      ---      ---       #1480
      0100ADF8H   LINE      ---      ---       #1481
      0100ADF8H   BLOCK     CODE     NEAR LAB  LVL=1
      0100ADF8H   LINE      ---      ---       #1484
      0100ADFDH   LINE      ---      ---       #1485
      0100AE04H   LINE      ---      ---       #1486
      0100AE08H   LINE      ---      ---       #1487
      0100AE08H   LINE      ---      ---       #1488
      0100AE26H   LINE      ---      ---       #1490
      0100AE2DH   LINE      ---      ---       #1491
      0100AE34H   LINE      ---      ---       #1492
      0100AE34H   LINE      ---      ---       #1493
      0100AE43H   LINE      ---      ---       #1494
      0100AE45H   LINE      ---      ---       #1495
      0100AE45H   LINE      ---      ---       #1496
      0100AE55H   LINE      ---      ---       #1497
      0100AE75H   LINE      ---      ---       #1498
      0100AE90H   LINE      ---      ---       #1499
      0100AE98H   LINE      ---      ---       #1500
      0100AE9AH   LINE      ---      ---       #1502
      0100AE9AH   LINE      ---      ---       #1503
      0100AEA0H   LINE      ---      ---       #1504
      0100AEA5H   LINE      ---      ---       #1505
      0100AEA5H   LINE      ---      ---       #1506
      0100AEA5H   LINE      ---      ---       #1507
      0100AEAFH   LINE      ---      ---       #1508
      0100AEDBH   LINE      ---      ---       #1510
      0100AEDBH   LINE      ---      ---       #1511
      0100AEF0H   LINE      ---      ---       #1512
      0100AEF0H   LINE      ---      ---       #1513
      0100AEF0H   LINE      ---      ---       #1514
      0100AEF0H   LINE      ---      ---       #1515
      0100AEF4H   LINE      ---      ---       #1516
      0200010EH   SYMBOL    XDATA    WORD      Start1
      02000110H   SYMBOL    XDATA    WORD      Start2
      02000112H   SYMBOL    XDATA    WORD      StartAdr
      02000114H   SYMBOL    XDATA    BYTE      N
      02000115H   SYMBOL    XDATA    BYTE      K
      02000116H   SYMBOL    XDATA    BYTE      j
      ---         BLOCKEND  CODE     ---       LVL=1
      ---         BLOCKEND  CODE     ---       LVL=0

      0100B843H   BLOCK     CODE     ---       LVL=0
      0100B843H   LINE      ---      ---       #1548
      0100B843H   LINE      ---      ---       #1549
      0100B843H   LINE      ---      ---       #1550
      0100B849H   LINE      ---      ---       #1551
      0100B84DH   LINE      ---      ---       #1552
      ---         BLOCKEND  ---      ---       LVL=0
LX51 LINKER/LOCATER V4.66.1.0                                                         04/04/2019  16:35:10  PAGE 58



      0100B0B1H   BLOCK     CODE     ---       LVL=0
      0100B0B1H   LINE      ---      ---       #1555
      0100B0B1H   LINE      ---      ---       #1556
      0100B0B1H   BLOCK     CODE     NEAR LAB  LVL=1
      0100B0B1H   LINE      ---      ---       #1557
      0100B0B4H   LINE      ---      ---       #1560
      0100B0B6H   LINE      ---      ---       #1564
      0100B0BDH   LINE      ---      ---       #1566
      0100B0BDH   LINE      ---      ---       #1567
      0100B0BFH   LINE      ---      ---       #1568
      0100B0BFH   LINE      ---      ---       #1569
      0100B0C4H   LINE      ---      ---       #1570
      0100B0C7H   LINE      ---      ---       #1575
      0100B0FAH   LINE      ---      ---       #1579
      0100B0FAH   LINE      ---      ---       #1580
      0100B0FCH   LINE      ---      ---       #1581
      0100B106H   LINE      ---      ---       #1582
      0100B10DH   LINE      ---      ---       #1584
      0100B114H   LINE      ---      ---       #1585
      0100B116H   LINE      ---      ---       #1587
      0100B116H   LINE      ---      ---       #1588
      0100B118H   LINE      ---      ---       #1589
      0100B11FH   LINE      ---      ---       #1590
      0100B11FH   LINE      ---      ---       #1592
      0100B13BH   LINE      ---      ---       #1593
      0100B13BH   LINE      ---      ---       #1594
      0100B13DH   LINE      ---      ---       #1595
      0100B13FH   LINE      ---      ---       #1596
      0100B141H   LINE      ---      ---       #1597
      0100B144H   LINE      ---      ---       #1601
      0100B14BH   LINE      ---      ---       #1602
      0100B14DH   LINE      ---      ---       #1604
      0100B14DH   LINE      ---      ---       #1605
      0100B14FH   LINE      ---      ---       #1606
      0100B156H   LINE      ---      ---       #1607
      0100B156H   LINE      ---      ---       #1609
      0100B173H   LINE      ---      ---       #1611
      0100B173H   LINE      ---      ---       #1612
      0100B175H   LINE      ---      ---       #1613
      0100B17EH   LINE      ---      ---       #1614
      0100B17EH   LINE      ---      ---       #1615
      0100B180H   LINE      ---      ---       #1617
      0100B180H   LINE      ---      ---       #1618
      0100B184H   LINE      ---      ---       #1622
      0100B186H   LINE      ---      ---       #1624
      0100B186H   LINE      ---      ---       #1625
      0100B188H   LINE      ---      ---       #1626
      0100B188H   LINE      ---      ---       #1629
      0100B19FH   LINE      ---      ---       #1630
      0100B19FH   LINE      ---      ---       #1631
      0100B1A1H   LINE      ---      ---       #1632
      0100B1A8H   LINE      ---      ---       #1633
      0100B1AAH   LINE      ---      ---       #1635
      0100B1AAH   LINE      ---      ---       #1636
      0100B1ACH   LINE      ---      ---       #1637
      0100B1B3H   LINE      ---      ---       #1638
      0100B1B3H   LINE      ---      ---       #1639
      0100B1BBH   LINE      ---      ---       #1640
      0100B1BBH   LINE      ---      ---       #1641
      0100B1BEH   LINE      ---      ---       #1642
      0100B1C0H   LINE      ---      ---       #1644
      0100B1C0H   LINE      ---      ---       #1645
      0100B1C3H   LINE      ---      ---       #1646
      0100B1C3H   LINE      ---      ---       #1649
LX51 LINKER/LOCATER V4.66.1.0                                                         04/04/2019  16:35:10  PAGE 59


      0100B1CBH   LINE      ---      ---       #1650
      0100B1CBH   LINE      ---      ---       #1651
      0100B1CEH   LINE      ---      ---       #1652
      0100B1D0H   LINE      ---      ---       #1654
      0100B1D0H   LINE      ---      ---       #1655
      0100B1D3H   LINE      ---      ---       #1656
      0100B1D3H   LINE      ---      ---       #1659
      0100B1D7H   LINE      ---      ---       #1660
      0100B1D7H   LINE      ---      ---       #1661
      0100B1DEH   LINE      ---      ---       #1662
      0100B1E0H   LINE      ---      ---       #1664
      0100B1E0H   LINE      ---      ---       #1665
      0100B1E7H   LINE      ---      ---       #1666
      0100B1E7H   LINE      ---      ---       #1667
      0100B1EAH   LINE      ---      ---       #1668
      0100B1EAH   LINE      ---      ---       #1669
      0100B1EAH   LINE      ---      ---       #1683
      0100B1F1H   LINE      ---      ---       #1684
      0100B1F1H   LINE      ---      ---       #1685
      0100B1F7H   LINE      ---      ---       #1686
      0100B1F7H   LINE      ---      ---       #1687
      0100B20AH   LINE      ---      ---       #1688
      0100B20AH   LINE      ---      ---       #1689
      0100B20DH   LINE      ---      ---       #1690
      0100B20DH   LINE      ---      ---       #1691
      0100B21EH   LINE      ---      ---       #1692
      0100B21EH   LINE      ---      ---       #1693
      0100B221H   LINE      ---      ---       #1694
      0100B221H   LINE      ---      ---       #1695
      0100B231H   LINE      ---      ---       #1696
      0100B231H   LINE      ---      ---       #1697
      0100B235H   LINE      ---      ---       #1698
      0100B235H   LINE      ---      ---       #1699
      0100B240H   LINE      ---      ---       #1700
      0100B240H   LINE      ---      ---       #1701
      0100B244H   LINE      ---      ---       #1702
      0100B244H   LINE      ---      ---       #1703
      0100B254H   LINE      ---      ---       #1704
      0100B254H   LINE      ---      ---       #1705
      0100B258H   LINE      ---      ---       #1706
      0100B258H   LINE      ---      ---       #1707
      0100B268H   LINE      ---      ---       #1708
      0100B268H   LINE      ---      ---       #1709
      0100B26EH   LINE      ---      ---       #1710
      0100B26EH   LINE      ---      ---       #1711
      0100B27DH   LINE      ---      ---       #1712
      0100B27DH   LINE      ---      ---       #1713
      0100B280H   LINE      ---      ---       #1714
      0100B280H   LINE      ---      ---       #1715
      0100B290H   LINE      ---      ---       #1716
      0100B290H   LINE      ---      ---       #1717
      0100B297H   LINE      ---      ---       #1718
      0100B297H   LINE      ---      ---       #1719
      0100B2A7H   LINE      ---      ---       #1720
      0100B2A7H   LINE      ---      ---       #1721
      0100B2A7H   LINE      ---      ---       #1724
      0100B2ADH   LINE      ---      ---       #1725
      0100B2ADH   LINE      ---      ---       #1726
      0100B2B2H   LINE      ---      ---       #1727
      0100B2B4H   LINE      ---      ---       #1728
      0100B2BCH   LINE      ---      ---       #1729
      0100B2BCH   LINE      ---      ---       #1730
      0100B2C2H   LINE      ---      ---       #1731
      0100B2C4H   LINE      ---      ---       #1732
      0100B2CDH   LINE      ---      ---       #1733
LX51 LINKER/LOCATER V4.66.1.0                                                         04/04/2019  16:35:10  PAGE 60


      0100B2CDH   LINE      ---      ---       #1734
      0100B2D3H   LINE      ---      ---       #1735
      0100B2D5H   LINE      ---      ---       #1736
      0100B2D9H   LINE      ---      ---       #1737
      0100B2D9H   LINE      ---      ---       #1738
      0100B2DFH   LINE      ---      ---       #1739
      0100B2E1H   LINE      ---      ---       #1740
      0100B2E5H   LINE      ---      ---       #1741
      0100B2E5H   LINE      ---      ---       #1742
      0100B2EBH   LINE      ---      ---       #1743
      0100B2EDH   LINE      ---      ---       #1744
      0100B2F1H   LINE      ---      ---       #1745
      0100B2F1H   LINE      ---      ---       #1746
      0100B2F7H   LINE      ---      ---       #1747
      0100B2F9H   LINE      ---      ---       #1748
      0100B300H   LINE      ---      ---       #1749
      0100B300H   LINE      ---      ---       #1750
      0100B306H   LINE      ---      ---       #1751
      0100B308H   LINE      ---      ---       #1752
      0100B30BH   LINE      ---      ---       #1753
      0100B30BH   LINE      ---      ---       #1754
      0100B311H   LINE      ---      ---       #1755
      0100B313H   LINE      ---      ---       #1757
      0100B313H   LINE      ---      ---       #1758
      0100B318H   LINE      ---      ---       #1759
      0100B31CH   LINE      ---      ---       #1760
      0100B31CH   LINE      ---      ---       #1762
      0100B328H   LINE      ---      ---       #1763
      0100B328H   LINE      ---      ---       #1764
      0100B32DH   LINE      ---      ---       #1765
      0100B32FH   LINE      ---      ---       #1766
      0100B32FH   LINE      ---      ---       #1768
      0100B337H   LINE      ---      ---       #1772
      0100B33EH   LINE      ---      ---       #1773
      0100B34AH   LINE      ---      ---       #1774
      0100B34AH   LINE      ---      ---       #1775
      0100B351H   LINE      ---      ---       #1776
      0100B351H   LINE      ---      ---       #1778
      0100B35CH   LINE      ---      ---       #1779
      0100B35CH   LINE      ---      ---       #1780
      0100B362H   LINE      ---      ---       #1781
      0100B362H   LINE      ---      ---       #1782
      0100B365H   LINE      ---      ---       #1784
      0100B36AH   LINE      ---      ---       #1785
      0100B36AH   LINE      ---      ---       #1786
      0100B372H   LINE      ---      ---       #1787
      0100B372H   LINE      ---      ---       #1788
      0100B377H   LINE      ---      ---       #1791
      0100B37BH   LINE      ---      ---       #1792
      0100B37BH   LINE      ---      ---       #1793
      0100B380H   LINE      ---      ---       #1794
      0100B380H   LINE      ---      ---       #1795
      0100B385H   LINE      ---      ---       #1796
      0100B385H   LINE      ---      ---       #1797
      0100B391H   LINE      ---      ---       #1799
      0100B391H   LINE      ---      ---       #1800
      0100B391H   LINE      ---      ---       #1802
      0100B39AH   LINE      ---      ---       #1803
      0100B39AH   LINE      ---      ---       #1804
      0100B39FH   LINE      ---      ---       #1805
      0100B39FH   LINE      ---      ---       #1806
      0100B3B4H   LINE      ---      ---       #1809
      0100B3B4H   LINE      ---      ---       #1810
      0100B3B4H   LINE      ---      ---       #1811
      0100B3B4H   LINE      ---      ---       #1812
LX51 LINKER/LOCATER V4.66.1.0                                                         04/04/2019  16:35:10  PAGE 61


      0100B3B7H   LINE      ---      ---       #1813
      0100B3B7H   LINE      ---      ---       #1814
      0100B3BDH   LINE      ---      ---       #1815
      0100B3BDH   LINE      ---      ---       #1816
      0100B3C1H   LINE      ---      ---       #1817
      0100B3C3H   LINE      ---      ---       #1818
      0100B3CCH   LINE      ---      ---       #1819
      0100B3CCH   LINE      ---      ---       #1820
      0100B3CEH   LINE      ---      ---       #1821
      0100B3CEH   LINE      ---      ---       #1823
      0100B3CEH   LINE      ---      ---       #1825
      0100B3CEH   LINE      ---      ---       #1828
      0100B3CEH   LINE      ---      ---       #1829
      0100B3D0H   LINE      ---      ---       #1831
      0100B3D0H   LINE      ---      ---       #1832
      0100B3D5H   LINE      ---      ---       #1833
      0100B3D5H   LINE      ---      ---       #1834
      0100B3D6H   LINE      ---      ---       #1835
      0100B3DDH   LINE      ---      ---       #1837
      0100B3DDH   LINE      ---      ---       #1839
      0100B3E5H   LINE      ---      ---       #1840
      0100B3E5H   LINE      ---      ---       #1841
      0100B3E8H   LINE      ---      ---       #1842
      0100B3ECH   LINE      ---      ---       #1843
      0100B3ECH   LINE      ---      ---       #1844
      0100B3F2H   LINE      ---      ---       #1845
      0100B3F2H   LINE      ---      ---       #1846
      0100B3F6H   LINE      ---      ---       #1847
      0100B3F8H   LINE      ---      ---       #1848
      0100B3FFH   LINE      ---      ---       #1849
      0100B3FFH   LINE      ---      ---       #1850
      0100B405H   LINE      ---      ---       #1851
      0100B405H   LINE      ---      ---       #1853
      0100B405H   LINE      ---      ---       #1855
      0100B405H   LINE      ---      ---       #1856
      0100B415H   LINE      ---      ---       #1858
      0100B417H   LINE      ---      ---       #1859
      0100B430H   LINE      ---      ---       #1862
      0100B430H   LINE      ---      ---       #1864
      0100B438H   LINE      ---      ---       #1865
      0100B438H   LINE      ---      ---       #1866
      0100B43BH   LINE      ---      ---       #1867
      0100B440H   LINE      ---      ---       #1868
      0100B440H   LINE      ---      ---       #1870
      0100B446H   LINE      ---      ---       #1871
      0100B446H   LINE      ---      ---       #1872
      0100B44AH   LINE      ---      ---       #1873
      0100B44CH   LINE      ---      ---       #1874
      0100B453H   LINE      ---      ---       #1875
      0100B453H   LINE      ---      ---       #1876
      0100B455H   LINE      ---      ---       #1877
      0100B455H   LINE      ---      ---       #1879
      0100B455H   LINE      ---      ---       #1881
      0100B455H   LINE      ---      ---       #1884
      0100B455H   LINE      ---      ---       #1886
      0100B45CH   LINE      ---      ---       #1887
      0100B45CH   LINE      ---      ---       #1888
      0100B461H   LINE      ---      ---       #1889
      0100B463H   LINE      ---      ---       #1890
      0100B463H   LINE      ---      ---       #1891
      0100B468H   LINE      ---      ---       #1892
      0100B468H   LINE      ---      ---       #1893
      0100B475H   LINE      ---      ---       #1894
      0100B475H   LINE      ---      ---       #1895
      0100B47AH   LINE      ---      ---       #1896
LX51 LINKER/LOCATER V4.66.1.0                                                         04/04/2019  16:35:10  PAGE 62


      0100B47CH   LINE      ---      ---       #1897
      0100B47CH   LINE      ---      ---       #1898
      0100B481H   LINE      ---      ---       #1899
      0100B481H   LINE      ---      ---       #1900
      0100B481H   LINE      ---      ---       #1901
      0100B481H   LINE      ---      ---       #1903
      0100B481H   LINE      ---      ---       #1905
      0100B481H   LINE      ---      ---       #1906
      0100B481H   LINE      ---      ---       #1907
      0100B483H   LINE      ---      ---       #1909
      0100B483H   LINE      ---      ---       #1910
      0100B483H   LINE      ---      ---       #1911
      0100B485H   LINE      ---      ---       #1912
      0100B48AH   LINE      ---      ---       #1914
      0100B48AH   LINE      ---      ---       #1915
      0100B48EH   LINE      ---      ---       #1917
      0100B48EH   LINE      ---      ---       #1918
      0100B496H   LINE      ---      ---       #1919
      0100B496H   LINE      ---      ---       #1920
      0100B499H   LINE      ---      ---       #1921
      0100B49EH   LINE      ---      ---       #1922
      0100B49EH   LINE      ---      ---       #1925
      0100B4ABH   LINE      ---      ---       #1926
      0100B4ABH   LINE      ---      ---       #1927
      0100B4AEH   LINE      ---      ---       #1928
      0100B4B0H   LINE      ---      ---       #1930
      0100B4B0H   LINE      ---      ---       #1931
      0100B4B3H   LINE      ---      ---       #1932
      0100B4B3H   LINE      ---      ---       #1933
      0100B4B7H   LINE      ---      ---       #1934
      0100B4B7H   LINE      ---      ---       #1935
      0100B4B7H   LINE      ---      ---       #1936
      0100B4BCH   LINE      ---      ---       #1937
      0100B4BCH   LINE      ---      ---       #1938
      0100B4DFH   LINE      ---      ---       #1942
      0100B4DFH   LINE      ---      ---       #1943
      0100B4DFH   LINE      ---      ---       #1945
      0100B4DFH   LINE      ---      ---       #1946
      0100B4E4H   LINE      ---      ---       #1947
      0100B4E4H   LINE      ---      ---       #1948
      0100B4E4H   LINE      ---      ---       #1950
      0100B4E4H   LINE      ---      ---       #1952
      0100B4E4H   LINE      ---      ---       #1954
      0100B4F1H   LINE      ---      ---       #1959
      0100B4FEH   LINE      ---      ---       #1960
      0100B4FEH   LINE      ---      ---       #1961
      0100B501H   LINE      ---      ---       #1962
      0100B503H   LINE      ---      ---       #1964
      0100B503H   LINE      ---      ---       #1965
      0100B506H   LINE      ---      ---       #1966
      0100B506H   LINE      ---      ---       #1967
      0100B50AH   LINE      ---      ---       #1968
      0100B50AH   LINE      ---      ---       #1969
      0100B50AH   LINE      ---      ---       #1970
      0100B50FH   LINE      ---      ---       #1971
      0100B50FH   LINE      ---      ---       #1972
      0100B531H   LINE      ---      ---       #1976
      0100B531H   LINE      ---      ---       #1977
      0100B531H   LINE      ---      ---       #1979
      0100B531H   LINE      ---      ---       #1980
      0100B536H   LINE      ---      ---       #1981
      0100B536H   LINE      ---      ---       #1982
      0100B536H   LINE      ---      ---       #1984
      0100B536H   LINE      ---      ---       #1986
      0100B536H   LINE      ---      ---       #1988
LX51 LINKER/LOCATER V4.66.1.0                                                         04/04/2019  16:35:10  PAGE 63


      0100B552H   LINE      ---      ---       #1991
      0100B552H   LINE      ---      ---       #1992
      0100B552H   LINE      ---      ---       #1993
      0100B555H   LINE      ---      ---       #1994
      0100B555H   LINE      ---      ---       #1995
      0100B559H   LINE      ---      ---       #1997
      0100B561H   LINE      ---      ---       #1998
      0100B561H   LINE      ---      ---       #1999
      0100B564H   LINE      ---      ---       #2000
      0100B568H   LINE      ---      ---       #2001
      0100B568H   LINE      ---      ---       #2002
      0100B56EH   LINE      ---      ---       #2003
      0100B56EH   LINE      ---      ---       #2005
      0100B574H   LINE      ---      ---       #2006
      0100B576H   LINE      ---      ---       #2008
      0100B57DH   LINE      ---      ---       #2009
      0100B57DH   LINE      ---      ---       #2010
      0100B57FH   LINE      ---      ---       #2011
      0100B57FH   LINE      ---      ---       #2013
      0100B57FH   LINE      ---      ---       #2015
      0100B57FH   LINE      ---      ---       #2016
      0100B58DH   LINE      ---      ---       #2018
      0100B58DH   LINE      ---      ---       #2019
      0100B596H   LINE      ---      ---       #2020
      0100B596H   LINE      ---      ---       #2022
      0100B59BH   LINE      ---      ---       #2023
      0100B59BH   LINE      ---      ---       #2024
      0100B5A3H   LINE      ---      ---       #2025
      0100B5A3H   LINE      ---      ---       #2026
      0100B5A8H   LINE      ---      ---       #2028
      0100B5A8H   LINE      ---      ---       #2031
      0100B5ADH   LINE      ---      ---       #2032
      0100B5ADH   LINE      ---      ---       #2033
      0100B5B1H   LINE      ---      ---       #2034
      0100B5B1H   LINE      ---      ---       #2035
      0100B5B6H   LINE      ---      ---       #2036
      0100B5B6H   LINE      ---      ---       #2037
      0100B5BFH   LINE      ---      ---       #2040
      0100B5BFH   LINE      ---      ---       #2041
      0100B5BFH   LINE      ---      ---       #2042
      0100B5BFH   LINE      ---      ---       #2043
      0100B5C1H   LINE      ---      ---       #2044
      0100B5C5H   LINE      ---      ---       #2045
      0100B5C5H   LINE      ---      ---       #2046
      0100B5D9H   LINE      ---      ---       #2049
      0100B5EFH   LINE      ---      ---       #2052
      0100B5EFH   LINE      ---      ---       #2054
      0100B5EFH   LINE      ---      ---       #2056
      0100B5EFH   LINE      ---      ---       #2057
      0100B5EFH   LINE      ---      ---       #2058
      0100B5F2H   LINE      ---      ---       #2059
      0100B5F2H   LINE      ---      ---       #2060
      0100B5F2H   LINE      ---      ---       #2061
      0100B5F3H   LINE      ---      ---       #2063
      0100B5F3H   LINE      ---      ---       #2064
      0100B5F9H   LINE      ---      ---       #2065
      0100B5F9H   LINE      ---      ---       #2066
      0100B5FBH   LINE      ---      ---       #2067
      0100B600H   LINE      ---      ---       #2068
      0100B600H   LINE      ---      ---       #2069
      0100B600H   LINE      ---      ---       #2070
      0100B600H   LINE      ---      ---       #2072
      0100B600H   LINE      ---      ---       #2073
      0200010EH   SYMBOL    XDATA    BYTE      color
      02000018H   SYMBOL    XDATA    BYTE      Err_Event_Cnt
LX51 LINKER/LOCATER V4.66.1.0                                                         04/04/2019  16:35:10  PAGE 64


      0200010FH   SYMBOL    XDATA    BYTE      Err_Event_1
      02000110H   SYMBOL    XDATA    BYTE      Err_Event_2
      02000019H   SYMBOL    XDATA    BYTE      AlarmInfoRem
      ---         BLOCKEND  CODE     ---       LVL=1
      ---         BLOCKEND  CODE     ---       LVL=0

      0100B84EH   BLOCK     CODE     ---       LVL=0
      0100B84EH   LINE      ---      ---       #2076
      0100B84EH   LINE      ---      ---       #2077
      0100B84EH   BLOCK     CODE     NEAR LAB  LVL=1
      0100B84EH   LINE      ---      ---       #2078
      0100B850H   LINE      ---      ---       #2084
      0100B863H   LINE      ---      ---       #2085
      0100B863H   LINE      ---      ---       #2086
      0100B869H   LINE      ---      ---       #2087
      0100B869H   LINE      ---      ---       #2090
      0100B872H   LINE      ---      ---       #2091
      0100B872H   LINE      ---      ---       #2092
      0100B8A1H   LINE      ---      ---       #2094
      0100B8A1H   LINE      ---      ---       #2097
      0100B8B0H   LINE      ---      ---       #2098
      0100B8B0H   LINE      ---      ---       #2099
      0100B8B3H   LINE      ---      ---       #2100
      0100B8B3H   LINE      ---      ---       #2102
      0100B8C2H   LINE      ---      ---       #2103
      0100B8C2H   LINE      ---      ---       #2104
      0100B8C5H   LINE      ---      ---       #2105
      0100B8C5H   LINE      ---      ---       #2106
      0100B8CBH   LINE      ---      ---       #2108
      0100B8D2H   LINE      ---      ---       #2109
      0100B8D2H   LINE      ---      ---       #2110
      0100B8F5H   LINE      ---      ---       #2111
      0100B8F5H   LINE      ---      ---       #2112
      0100B904H   LINE      ---      ---       #2113
      0100B904H   LINE      ---      ---       #2114
      0100B907H   LINE      ---      ---       #2115
      0100B907H   LINE      ---      ---       #2116
      0100B909H   LINE      ---      ---       #2118
      0100B909H   LINE      ---      ---       #2119
      0100B90BH   LINE      ---      ---       #2120
      0100B90BH   LINE      ---      ---       #2124
      0100B913H   LINE      ---      ---       #2125
      0100B91DH   LINE      ---      ---       #2126
      0100B91FH   LINE      ---      ---       #2128
      0100B91FH   LINE      ---      ---       #2129
      0100B921H   LINE      ---      ---       #2130
      0100B921H   LINE      ---      ---       #2136
      0100B924H   LINE      ---      ---       #2137
      0100B924H   LINE      ---      ---       #2139
      0100B924H   LINE      ---      ---       #2141
      0100B924H   LINE      ---      ---       #2142
      0100B926H   LINE      ---      ---       #2143
      0100B926H   LINE      ---      ---       #2145
      0100B933H   LINE      ---      ---       #2146
      0100B933H   LINE      ---      ---       #2147
      0100B93AH   LINE      ---      ---       #2149
      0100B93AH   LINE      ---      ---       #2150
      0100B93DH   LINE      ---      ---       #2151
      0100B93DH   LINE      ---      ---       #2152
      0100B93FH   LINE      ---      ---       #2154
      0100B93FH   LINE      ---      ---       #2155
      0100B948H   LINE      ---      ---       #2156
      0100B948H   LINE      ---      ---       #2157
      0100B94AH   LINE      ---      ---       #2158
      0100B94AH   LINE      ---      ---       #2159
LX51 LINKER/LOCATER V4.66.1.0                                                         04/04/2019  16:35:10  PAGE 65


      0100B94AH   LINE      ---      ---       #2163
      0100B957H   LINE      ---      ---       #2164
      0100B957H   LINE      ---      ---       #2165
      0100B95FH   LINE      ---      ---       #2166
      0100B95FH   LINE      ---      ---       #2167
      0100B968H   LINE      ---      ---       #2168
      0100B968H   LINE      ---      ---       #2169
      0100B96BH   LINE      ---      ---       #2170
      0100B96BH   LINE      ---      ---       #2171
      0100B971H   LINE      ---      ---       #2172
      0100B971H   LINE      ---      ---       #2173
      0100B971H   LINE      ---      ---       #2174
      0100B971H   LINE      ---      ---       #2175
      0100B973H   LINE      ---      ---       #2177
      0100B973H   LINE      ---      ---       #2178
      0100B978H   LINE      ---      ---       #2179
      0100B978H   LINE      ---      ---       #2180
      0100B981H   LINE      ---      ---       #2181
      0100B981H   LINE      ---      ---       #2182
      0100B988H   LINE      ---      ---       #2183
      0100B988H   LINE      ---      ---       #2184
      0100B988H   LINE      ---      ---       #2186
      0100B997H   LINE      ---      ---       #2187
      0100B997H   LINE      ---      ---       #2188
      0100B99CH   LINE      ---      ---       #2189
      0100B99EH   LINE      ---      ---       #2190
      0100B99EH   LINE      ---      ---       #2196
      0100B99EH   LINE      ---      ---       #2197
      0100B9B3H   LINE      ---      ---       #2198
      0100B9B3H   LINE      ---      ---       #2199
      0100B9B9H   LINE      ---      ---       #2200
      0100B9BEH   LINE      ---      ---       #2201
      0100B9BEH   LINE      ---      ---       #2202
      0100B9C1H   LINE      ---      ---       #2203
      0100B9C1H   LINE      ---      ---       #2204
      0100B9C3H   LINE      ---      ---       #2206
      0100B9C3H   LINE      ---      ---       #2207
      0100B9CCH   LINE      ---      ---       #2208
      0100B9CCH   LINE      ---      ---       #2209
      0100B9CEH   LINE      ---      ---       #2210
      0100B9CEH   LINE      ---      ---       #2211
      0100B9CEH   LINE      ---      ---       #2212
      0100B9CEH   LINE      ---      ---       #2214
      0100B9D5H   LINE      ---      ---       #2215
      0100B9D5H   LINE      ---      ---       #2216
      0100B9DEH   LINE      ---      ---       #2217
      0100B9E7H   LINE      ---      ---       #2218
      0100B9E7H   LINE      ---      ---       #2219
      0100B9E9H   LINE      ---      ---       #2220
      0100B9EBH   LINE      ---      ---       #2222
      0100B9EBH   LINE      ---      ---       #2223
      0100B9F2H   LINE      ---      ---       #2224
      0100B9F2H   LINE      ---      ---       #2226
      0100B9F8H   LINE      ---      ---       #2227
      0100B9FAH   LINE      ---      ---       #2228
      0100B9FEH   LINE      ---      ---       #2229
      0100B9FEH   LINE      ---      ---       #2230
      0100BA08H   LINE      ---      ---       #2231
      0100BA11H   LINE      ---      ---       #2232
      0100BA11H   LINE      ---      ---       #2233
      0100BA14H   LINE      ---      ---       #2234
      0100BA16H   LINE      ---      ---       #2236
      0100BA16H   LINE      ---      ---       #2237
      0100BA18H   LINE      ---      ---       #2238
      0100BA18H   LINE      ---      ---       #2240
LX51 LINKER/LOCATER V4.66.1.0                                                         04/04/2019  16:35:10  PAGE 66


      0100BA22H   LINE      ---      ---       #2241
      0100BA22H   LINE      ---      ---       #2243
      0100BA22H   LINE      ---      ---       #2245
      0100BA22H   LINE      ---      ---       #2247
      0100BA33H   LINE      ---      ---       #2248
      0100BA33H   LINE      ---      ---       #2249
      0100BA3BH   LINE      ---      ---       #2250
      0100BA3BH   LINE      ---      ---       #2251
      0100BA3EH   LINE      ---      ---       #2252
      0100BA3EH   LINE      ---      ---       #2253
      0100BA40H   LINE      ---      ---       #2254
      0100BA40H   LINE      ---      ---       #2255
      0100BA45H   LINE      ---      ---       #2256
      0100BA45H   LINE      ---      ---       #2267
      0100BA4EH   LINE      ---      ---       #2268
      0100BA4EH   LINE      ---      ---       #2271
      0100BA67H   LINE      ---      ---       #2272
      0100BA67H   LINE      ---      ---       #2273
      0100BA7CH   LINE      ---      ---       #2276
      0100BA7CH   LINE      ---      ---       #2277
      0100BA84H   LINE      ---      ---       #2278
      0100BA84H   LINE      ---      ---       #2279
      0100BA88H   LINE      ---      ---       #2280
      0100BA88H   LINE      ---      ---       #2281
      0100BA8AH   LINE      ---      ---       #2283
      0100BA8AH   LINE      ---      ---       #2285
      0100BA8AH   LINE      ---      ---       #2286
      0100BA8AH   LINE      ---      ---       #2287
      0100BA96H   LINE      ---      ---       #2288
      0100BA96H   LINE      ---      ---       #2289
      0100BAA5H   LINE      ---      ---       #2290
      0100BAA5H   LINE      ---      ---       #2291
      0100BAADH   LINE      ---      ---       #2292
      0100BAADH   LINE      ---      ---       #2293
      0100BAB0H   LINE      ---      ---       #2294
      0100BAB0H   LINE      ---      ---       #2295
      0100BAB0H   LINE      ---      ---       #2296
      0100BAB2H   LINE      ---      ---       #2303
      0100BAB2H   LINE      ---      ---       #2304
      0100BAB7H   LINE      ---      ---       #2305
      0100BAB7H   LINE      ---      ---       #2309
      0100BABCH   LINE      ---      ---       #2310
      0100BABCH   LINE      ---      ---       #2311
      0100BACBH   LINE      ---      ---       #2312
      0100BACBH   LINE      ---      ---       #2313
      0100BAD4H   LINE      ---      ---       #2314
      0100BAD4H   LINE      ---      ---       #2315
      0100BAD7H   LINE      ---      ---       #2316
      0100BAD7H   LINE      ---      ---       #2317
      0100BAD9H   LINE      ---      ---       #2324
      0100BAD9H   LINE      ---      ---       #2325
      0100BADEH   LINE      ---      ---       #2326
      0100BADEH   LINE      ---      ---       #2330
      0100BAE6H   LINE      ---      ---       #2331
      0100BAE6H   LINE      ---      ---       #2332
      0100BAEDH   LINE      ---      ---       #2334
      0100BAEDH   LINE      ---      ---       #2335
      0100BAF0H   LINE      ---      ---       #2336
      0100BAF0H   LINE      ---      ---       #2337
      0100BAF2H   LINE      ---      ---       #2339
      0100BAF2H   LINE      ---      ---       #2340
      0100BAF6H   LINE      ---      ---       #2341
      0100BAF6H   LINE      ---      ---       #2342
      0100BAF8H   LINE      ---      ---       #2343
      0100BAF8H   LINE      ---      ---       #2344
LX51 LINKER/LOCATER V4.66.1.0                                                         04/04/2019  16:35:10  PAGE 67


      0100BAF8H   LINE      ---      ---       #2346
      0100BAFDH   LINE      ---      ---       #2347
      0100BAFDH   LINE      ---      ---       #2348
      0100BB0CH   LINE      ---      ---       #2350
      0100BB0CH   LINE      ---      ---       #2351
      0100BB15H   LINE      ---      ---       #2352
      0100BB15H   LINE      ---      ---       #2353
      0100BB17H   LINE      ---      ---       #2354
      0100BB17H   LINE      ---      ---       #2356
      0100BB17H   LINE      ---      ---       #2357
      0100BB17H   LINE      ---      ---       #2359
      0100BB17H   LINE      ---      ---       #2360
      0100BB1DH   LINE      ---      ---       #2361
      0100BB1DH   LINE      ---      ---       #2362
      0100BB1DH   LINE      ---      ---       #2363
      0100BB1EH   LINE      ---      ---       #2365
      0100BB1EH   LINE      ---      ---       #2366
      0100BB1EH   LINE      ---      ---       #2367
      0100BB1EH   LINE      ---      ---       #2368
      0100BB20H   LINE      ---      ---       #2370
      0100BB20H   LINE      ---      ---       #2371
      0100BB25H   LINE      ---      ---       #2372
      0100BB25H   LINE      ---      ---       #2373
      0200010EH   SYMBOL    XDATA    WORD      a
      02000110H   SYMBOL    XDATA    WORD      b
      02000112H   SYMBOL    XDATA    WORD      c
      0200001AH   SYMBOL    XDATA    BYTE      No_Water_Times
      0200001BH   SYMBOL    XDATA    BYTE      RT_SHIDU_More_then_90_Cnt
      0200001CH   SYMBOL    XDATA    WORD      Last1s_RThumity
      0200001EH   SYMBOL    XDATA    WORD      Last1s_RTtemp
      ---         BLOCKEND  CODE     ---       LVL=1
      ---         BLOCKEND  CODE     ---       LVL=0

      010093DAH   BLOCK     CODE     ---       LVL=0
      010093DAH   LINE      ---      ---       #2375
      010093DAH   LINE      ---      ---       #2376
      010093DAH   BLOCK     CODE     NEAR LAB  LVL=1
      010093DAH   LINE      ---      ---       #2380
      010093E3H   LINE      ---      ---       #2381
      010093E3H   LINE      ---      ---       #2382
      010093E8H   LINE      ---      ---       #2384
      010093E8H   LINE      ---      ---       #2385
      010093EAH   LINE      ---      ---       #2386
      010093EAH   LINE      ---      ---       #2387
      010093EAH   LINE      ---      ---       #2388
      010093F2H   LINE      ---      ---       #2389
      010093F2H   LINE      ---      ---       #2390
      010093FAH   LINE      ---      ---       #2391
      010093FAH   LINE      ---      ---       #2393
      010093FDH   LINE      ---      ---       #2396
      01009403H   LINE      ---      ---       #2397
      01009403H   LINE      ---      ---       #2398
      01009405H   LINE      ---      ---       #2399
      0100940FH   LINE      ---      ---       #2400
      0100940FH   LINE      ---      ---       #2401
      01009416H   LINE      ---      ---       #2405
      01009416H   LINE      ---      ---       #2406
      0100941FH   LINE      ---      ---       #2410
      0100943AH   LINE      ---      ---       #2411
      0100943FH   LINE      ---      ---       #2415
      01009446H   LINE      ---      ---       #2416
      01009446H   LINE      ---      ---       #2417
      01009448H   LINE      ---      ---       #2418
      0100944CH   LINE      ---      ---       #2419
      0100944EH   LINE      ---      ---       #2421
LX51 LINKER/LOCATER V4.66.1.0                                                         04/04/2019  16:35:10  PAGE 68


      0100944EH   LINE      ---      ---       #2422
      01009450H   LINE      ---      ---       #2423
      01009450H   LINE      ---      ---       #2424
      0100945EH   LINE      ---      ---       #2425
      01009463H   LINE      ---      ---       #2426
      01009472H   LINE      ---      ---       #2429
      01009472H   LINE      ---      ---       #2431
      0100947AH   LINE      ---      ---       #2432
      0100947DH   LINE      ---      ---       #2433
      0100947DH   LINE      ---      ---       #2434
      01009481H   LINE      ---      ---       #2435
      01009481H   LINE      ---      ---       #2436
      01009484H   LINE      ---      ---       #2437
      01009484H   LINE      ---      ---       #2438
      0100948BH   LINE      ---      ---       #2439
      0100948BH   LINE      ---      ---       #2440
      0100948EH   LINE      ---      ---       #2441
      0100948EH   LINE      ---      ---       #2442
      01009495H   LINE      ---      ---       #2443
      01009495H   LINE      ---      ---       #2444
      010094A4H   LINE      ---      ---       #2446
      010094B1H   LINE      ---      ---       #2447
      010094C6H   LINE      ---      ---       #2453
      010094D5H   LINE      ---      ---       #2455
      010094E4H   LINE      ---      ---       #2457
      010094E4H   LINE      ---      ---       #2458
      010094EBH   LINE      ---      ---       #2459
      010094EBH   LINE      ---      ---       #2460
      010094EEH   LINE      ---      ---       #2461
      010094EEH   LINE      ---      ---       #2462
      010094F5H   LINE      ---      ---       #2463
      010094F5H   LINE      ---      ---       #2465
      010094FAH   LINE      ---      ---       #2466
      010094FAH   LINE      ---      ---       #2467
      01009505H   LINE      ---      ---       #2468
      01009505H   LINE      ---      ---       #2469
      01009505H   LINE      ---      ---       #2470
      0100950CH   LINE      ---      ---       #2471
      0100950CH   LINE      ---      ---       #2473
      01009511H   LINE      ---      ---       #2474
      01009511H   LINE      ---      ---       #2475
      0100951CH   LINE      ---      ---       #2476
      01009523H   LINE      ---      ---       #2477
      01009523H   LINE      ---      ---       #2478
      01009523H   LINE      ---      ---       #2479
      01009523H   LINE      ---      ---       #2480
      01009523H   LINE      ---      ---       #2482
      01009523H   LINE      ---      ---       #2484
      01009523H   LINE      ---      ---       #2486
      01009523H   LINE      ---      ---       #2487
      02000020H   SYMBOL    XDATA    BYTE      Enable_Save_Data
      00000006H   SYMBOL    DATA     WORD      a
      0200010EH   SYMBOL    XDATA    WORD      b
      00000004H   SYMBOL    DATA     WORD      c
      02000110H   SYMBOL    XDATA    DWORD     Adress
      ---         BLOCKEND  CODE     ---       LVL=1
      ---         BLOCKEND  CODE     ---       LVL=0

      0100812DH   BLOCK     CODE     ---       LVL=0
      0100812DH   LINE      ---      ---       #2490
      0100812DH   LINE      ---      ---       #2491
      0100812DH   BLOCK     CODE     NEAR LAB  LVL=1
      0100812DH   LINE      ---      ---       #2492
      01008130H   LINE      ---      ---       #2494
      01008133H   LINE      ---      ---       #2495
LX51 LINKER/LOCATER V4.66.1.0                                                         04/04/2019  16:35:10  PAGE 69


      01008135H   LINE      ---      ---       #2496
      01008138H   LINE      ---      ---       #2497
      0100813BH   LINE      ---      ---       #2498
      0100813EH   LINE      ---      ---       #2499
      01008141H   LINE      ---      ---       #2500
      01008143H   LINE      ---      ---       #2501
      01008146H   LINE      ---      ---       #2502
      01008149H   LINE      ---      ---       #2504
      0100814CH   LINE      ---      ---       #2505
      0100814EH   LINE      ---      ---       #2506
      01008152H   LINE      ---      ---       #2507
      01008154H   LINE      ---      ---       #2508
      01008156H   LINE      ---      ---       #2509
      01008158H   LINE      ---      ---       #2510
      0100815AH   LINE      ---      ---       #2511
      0100815CH   LINE      ---      ---       #2512
      0100815EH   LINE      ---      ---       #2513
      01008160H   LINE      ---      ---       #2514
      01008162H   LINE      ---      ---       #2515
      01008168H   LINE      ---      ---       #2516
      0100816AH   LINE      ---      ---       #2518
      0100816DH   LINE      ---      ---       #2519
      01008170H   LINE      ---      ---       #2520
      01008173H   LINE      ---      ---       #2523
      01008179H   LINE      ---      ---       #2524
      01008179H   LINE      ---      ---       #2525
      0100817FH   LINE      ---      ---       #2526
      01008181H   LINE      ---      ---       #2528
      01008181H   LINE      ---      ---       #2529
      01008187H   LINE      ---      ---       #2530
      01008187H   LINE      ---      ---       #2533
      01008191H   LINE      ---      ---       #2534
      01008191H   LINE      ---      ---       #2535
      01008197H   LINE      ---      ---       #2536
      01008199H   LINE      ---      ---       #2537
      0100819BH   LINE      ---      ---       #2538
      0100819EH   LINE      ---      ---       #2540
      010081A7H   LINE      ---      ---       #2542
      010081ADH   LINE      ---      ---       #2543
      010081ADH   LINE      ---      ---       #2544
      010081BFH   LINE      ---      ---       #2545
      010081D0H   LINE      ---      ---       #2546
      010081E6H   LINE      ---      ---       #2547
      010081E6H   LINE      ---      ---       #2548
      010081F5H   LINE      ---      ---       #2549
      010081FDH   LINE      ---      ---       #2550
      01008215H   LINE      ---      ---       #2555
      01008218H   LINE      ---      ---       #2556
      0100821AH   LINE      ---      ---       #2557
      0100821AH   LINE      ---      ---       #2559
      0100821FH   LINE      ---      ---       #2560
      0200010EH   SYMBOL    XDATA    WORD      j
      ---         BLOCKEND  CODE     ---       LVL=1
      ---         BLOCKEND  CODE     ---       LVL=0

      0100BB5DH   BLOCK     CODE     ---       LVL=0
      0100BB5DH   LINE      ---      ---       #2562
      0100BB5DH   LINE      ---      ---       #2563
      0100BB5DH   LINE      ---      ---       #2564
      0100BB60H   LINE      ---      ---       #2566
      0100BB6AH   LINE      ---      ---       #2568
      0100BB6CH   LINE      ---      ---       #2569
      0100BB6EH   LINE      ---      ---       #2570
      0100BB70H   LINE      ---      ---       #2571
      0100BB72H   LINE      ---      ---       #2573
LX51 LINKER/LOCATER V4.66.1.0                                                         04/04/2019  16:35:10  PAGE 70


      0100BB78H   LINE      ---      ---       #2575
      0100BB7DH   LINE      ---      ---       #2576
      0100BB81H   LINE      ---      ---       #2578
      0100BB85H   LINE      ---      ---       #2579
      0100BB87H   LINE      ---      ---       #2581
      0100BB8CH   LINE      ---      ---       #2584
      0100BB95H   LINE      ---      ---       #2585
      0100BB97H   LINE      ---      ---       #2587
      0100BBABH   LINE      ---      ---       #2588
      0100BBB1H   LINE      ---      ---       #2591
      0100BBB5H   LINE      ---      ---       #2592
      ---         BLOCKEND  ---      ---       LVL=0

      01007601H   BLOCK     CODE     ---       LVL=0
      01007601H   LINE      ---      ---       #2598
      01007601H   LINE      ---      ---       #2599
      01007601H   BLOCK     CODE     NEAR LAB  LVL=1
      01007601H   LINE      ---      ---       #2602
      01007604H   LINE      ---      ---       #2605
      0100761CH   LINE      ---      ---       #2606
      0100761CH   LINE      ---      ---       #2607
      0100761EH   LINE      ---      ---       #2608
      01007628H   LINE      ---      ---       #2609
      0100762AH   LINE      ---      ---       #2611
      0100762AH   LINE      ---      ---       #2612
      0100762CH   LINE      ---      ---       #2613
      0100762CH   LINE      ---      ---       #2615
      01007635H   LINE      ---      ---       #2616
      01007635H   LINE      ---      ---       #2617
      01007637H   LINE      ---      ---       #2618
      0100763AH   LINE      ---      ---       #2619
      0100763CH   LINE      ---      ---       #2621
      0100763CH   LINE      ---      ---       #2622
      0100763EH   LINE      ---      ---       #2623
      0100763EH   LINE      ---      ---       #2625
      0100764FH   LINE      ---      ---       #2626
      0100764FH   LINE      ---      ---       #2627
      01007651H   LINE      ---      ---       #2628
      01007654H   LINE      ---      ---       #2630
      01007656H   LINE      ---      ---       #2632
      01007656H   LINE      ---      ---       #2633
      01007658H   LINE      ---      ---       #2634
      01007658H   LINE      ---      ---       #2637
      01007661H   LINE      ---      ---       #2638
      01007661H   LINE      ---      ---       #2639
      01007663H   LINE      ---      ---       #2640
      0100766AH   LINE      ---      ---       #2641
      0100766CH   LINE      ---      ---       #2643
      0100766CH   LINE      ---      ---       #2644
      0100766EH   LINE      ---      ---       #2645
      0100766EH   LINE      ---      ---       #2649
      0100766EH   LINE      ---      ---       #2650
      01007674H   LINE      ---      ---       #2652
      01007674H   LINE      ---      ---       #2653
      0100767BH   LINE      ---      ---       #2655
      01007681H   LINE      ---      ---       #2656
      01007681H   LINE      ---      ---       #2657
      0100768DH   LINE      ---      ---       #2658
      01007698H   LINE      ---      ---       #2659
      0100769EH   LINE      ---      ---       #2660
      010076A6H   LINE      ---      ---       #2661
      010076A8H   LINE      ---      ---       #2663
      010076A8H   LINE      ---      ---       #2664
      010076B2H   LINE      ---      ---       #2665
      010076BAH   LINE      ---      ---       #2666
LX51 LINKER/LOCATER V4.66.1.0                                                         04/04/2019  16:35:10  PAGE 71


      010076C4H   LINE      ---      ---       #2667
      010076D6H   LINE      ---      ---       #2668
      010076D6H   LINE      ---      ---       #2671
      010076DDH   LINE      ---      ---       #2673
      010076DDH   LINE      ---      ---       #2674
      010076FCH   LINE      ---      ---       #2677
      01007704H   LINE      ---      ---       #2678
      01007706H   LINE      ---      ---       #2680
      01007706H   LINE      ---      ---       #2681
      01007719H   LINE      ---      ---       #2683
      01007723H   LINE      ---      ---       #2684
      01007733H   LINE      ---      ---       #2685
      01007733H   LINE      ---      ---       #2688
      0100773AH   LINE      ---      ---       #2690
      0100773AH   LINE      ---      ---       #2691
      01007755H   LINE      ---      ---       #2694
      01007766H   LINE      ---      ---       #2695
      01007768H   LINE      ---      ---       #2697
      01007768H   LINE      ---      ---       #2698
      01007777H   LINE      ---      ---       #2700
      01007781H   LINE      ---      ---       #2701
      01007791H   LINE      ---      ---       #2702
      01007791H   LINE      ---      ---       #2705
      01007791H   LINE      ---      ---       #2706
      0200010EH   SYMBOL    XDATA    WORD      Disp
      02000110H   SYMBOL    XDATA    WORD      color
      ---         BLOCKEND  CODE     ---       LVL=1
      ---         BLOCKEND  CODE     ---       LVL=0

      01006658H   BLOCK     CODE     ---       LVL=0
      0100665CH   LINE      ---      ---       #2713
      0100665CH   LINE      ---      ---       #2714
      0100665CH   LINE      ---      ---       #2715
      01006663H   LINE      ---      ---       #2716
      0100666DH   LINE      ---      ---       #2717
      01006678H   LINE      ---      ---       #2718
      01006683H   LINE      ---      ---       #2719
      0100668EH   LINE      ---      ---       #2720
      01006699H   LINE      ---      ---       #2721
      010066A4H   LINE      ---      ---       #2722
      010066AFH   LINE      ---      ---       #2723
      ---         BLOCKEND  ---      ---       LVL=0

      0100A55DH   BLOCK     CODE     ---       LVL=0
      0100A55DH   LINE      ---      ---       #2727
      0100A55DH   LINE      ---      ---       #2728
      0100A55DH   LINE      ---      ---       #2729
      0100A563H   LINE      ---      ---       #2730
      0100A567H   LINE      ---      ---       #2731
      0100A56BH   LINE      ---      ---       #2732
      0100A56EH   LINE      ---      ---       #2734
      0100A572H   LINE      ---      ---       #2735
      0100A576H   LINE      ---      ---       #2738
      ---         BLOCKEND  ---      ---       LVL=0

      0100635AH   BLOCK     CODE     ---       LVL=0
      0100635AH   LINE      ---      ---       #2742
      0100635AH   LINE      ---      ---       #2743
      0100635AH   LINE      ---      ---       #2744
      01006364H   LINE      ---      ---       #2745
      0100636FH   LINE      ---      ---       #2746
      0100637AH   LINE      ---      ---       #2747
      01006385H   LINE      ---      ---       #2748
      01006390H   LINE      ---      ---       #2749
      0100639BH   LINE      ---      ---       #2750
LX51 LINKER/LOCATER V4.66.1.0                                                         04/04/2019  16:35:10  PAGE 72


      010063A6H   LINE      ---      ---       #2751
      010063B1H   LINE      ---      ---       #2753
      0100640CH   LINE      ---      ---       #2768
      0100640CH   LINE      ---      ---       #2769
      01006411H   LINE      ---      ---       #2770
      01006414H   LINE      ---      ---       #2771
      01006414H   LINE      ---      ---       #2772
      ---         BLOCKEND  ---      ---       LVL=0

      0100A4E4H   BLOCK     CODE     ---       LVL=0
      0100A4E4H   LINE      ---      ---       #2776
      0100A4E4H   LINE      ---      ---       #2777
      0100A4E4H   LINE      ---      ---       #2778
      0100A4EBH   LINE      ---      ---       #2779
      0100A4EBH   LINE      ---      ---       #2780
      0100A4EDH   LINE      ---      ---       #2781
      0100A4EDH   LINE      ---      ---       #2783
      0100A4F6H   LINE      ---      ---       #2784
      0100A500H   LINE      ---      ---       #2785
      0100A50AH   LINE      ---      ---       #2786
      0100A514H   LINE      ---      ---       #2787
      0100A51EH   LINE      ---      ---       #2788
      0100A526H   LINE      ---      ---       #2790
      0100A529H   LINE      ---      ---       #2791
      0100A529H   LINE      ---      ---       #2792
      0100A52EH   LINE      ---      ---       #2793
      0100A531H   LINE      ---      ---       #2794
      0100A533H   LINE      ---      ---       #2796
      0100A533H   LINE      ---      ---       #2797
      0100A535H   LINE      ---      ---       #2798
      ---         BLOCKEND  ---      ---       LVL=0

      0100B03FH   BLOCK     CODE     ---       LVL=0
      0100B03FH   LINE      ---      ---       #2811
      0100B03FH   LINE      ---      ---       #2812
      0100B03FH   LINE      ---      ---       #2813
      0100B050H   LINE      ---      ---       #2814
      0100B050H   LINE      ---      ---       #2815
      0100B063H   LINE      ---      ---       #2820
      0100B063H   LINE      ---      ---       #2821
      0100B063H   LINE      ---      ---       #2823
      0100B063H   LINE      ---      ---       #2824
      0100B069H   LINE      ---      ---       #2825
      0100B069H   LINE      ---      ---       #2826
      0100B070H   LINE      ---      ---       #2827
      0100B07DH   LINE      ---      ---       #2828
      0100B07DH   LINE      ---      ---       #2829
      0100B083H   LINE      ---      ---       #2830
      0100B085H   LINE      ---      ---       #2832
      0100B085H   LINE      ---      ---       #2833
      0100B08AH   LINE      ---      ---       #2834
      0100B08AH   LINE      ---      ---       #2835
      0100B093H   LINE      ---      ---       #2836
      0100B09AH   LINE      ---      ---       #2837
      0100B0A0H   LINE      ---      ---       #2838
      0100B0A1H   LINE      ---      ---       #2846
      0100B0A1H   LINE      ---      ---       #2847
      0100B0A8H   LINE      ---      ---       #2848
      0100B0A8H   LINE      ---      ---       #2850
      ---         BLOCKEND  ---      ---       LVL=0

      0100BBF2H   BLOCK     CODE     ---       LVL=0
      0100BBF2H   LINE      ---      ---       #2870
      0100BBF2H   LINE      ---      ---       #2871
      0100BBF2H   BLOCK     CODE     NEAR LAB  LVL=1
LX51 LINKER/LOCATER V4.66.1.0                                                         04/04/2019  16:35:10  PAGE 73


      0100BBF2H   LINE      ---      ---       #2878
      0100BC03H   LINE      ---      ---       #2879
      0100BC03H   LINE      ---      ---       #2880
      0100BC06H   LINE      ---      ---       #2881
      0100BC06H   LINE      ---      ---       #2882
      0100BC17H   LINE      ---      ---       #2883
      0100BC17H   LINE      ---      ---       #2884
      0100BC19H   LINE      ---      ---       #2885
      0100BC19H   LINE      ---      ---       #2887
      0100BC27H   LINE      ---      ---       #2888
      0100BC38H   LINE      ---      ---       #2889
      0100BC38H   LINE      ---      ---       #2890
      0100BC3AH   LINE      ---      ---       #2891
      0100BC3AH   LINE      ---      ---       #2892
      0100BC3AH   LINE      ---      ---       #2893
      0100BC3AH   LINE      ---      ---       #2895
      0100BC3AH   LINE      ---      ---       #2896
      0100BC47H   LINE      ---      ---       #2898
      0100BC4EH   LINE      ---      ---       #2900
      0100BC79H   LINE      ---      ---       #2901
      0100BC7FH   LINE      ---      ---       #2902
      0100BC88H   LINE      ---      ---       #2905
      0100BC88H   LINE      ---      ---       #2906
      0100BC8DH   LINE      ---      ---       #2907
      0100BC8FH   LINE      ---      ---       #2908
      0100BC9AH   LINE      ---      ---       #2909
      0100BC9AH   LINE      ---      ---       #2910
      0100BC9EH   LINE      ---      ---       #2911
      0100BC9EH   LINE      ---      ---       #2913
      0100BC9EH   LINE      ---      ---       #2915
      0100BC9EH   LINE      ---      ---       #2917
      0100BCB0H   LINE      ---      ---       #2919
      0100BCB5H   LINE      ---      ---       #2920
      00000002H   SYMBOL    DATA     INT       Vlaue1
      00000006H   SYMBOL    DATA     INT       tmp
      02000021H   SYMBOL    XDATA    INT       Controler_Kp
      02000023H   SYMBOL    XDATA    INT       Controler_Ki
      02000025H   SYMBOL    XDATA    INT       Controler_Kd
      ---         BLOCKEND  CODE     ---       LVL=1
      ---         BLOCKEND  CODE     ---       LVL=0

      0100BCC3H   BLOCK     CODE     ---       LVL=0
      0100BCC3H   LINE      ---      ---       #2925
      0100BCC3H   LINE      ---      ---       #2926
      0100BCC3H   BLOCK     CODE     NEAR LAB  LVL=1
      0100BCC3H   LINE      ---      ---       #2934
      0100BCD4H   LINE      ---      ---       #2935
      0100BCD4H   LINE      ---      ---       #2936
      0100BCD7H   LINE      ---      ---       #2937
      0100BCD7H   LINE      ---      ---       #2938
      0100BCE8H   LINE      ---      ---       #2939
      0100BCE8H   LINE      ---      ---       #2940
      0100BCEAH   LINE      ---      ---       #2941
      0100BCEAH   LINE      ---      ---       #2943
      0100BCF8H   LINE      ---      ---       #2944
      0100BD09H   LINE      ---      ---       #2945
      0100BD09H   LINE      ---      ---       #2946
      0100BD0BH   LINE      ---      ---       #2947
      0100BD0BH   LINE      ---      ---       #2948
      0100BD1CH   LINE      ---      ---       #2949
      0100BD1CH   LINE      ---      ---       #2950
      0100BD23H   LINE      ---      ---       #2951
      0100BD23H   LINE      ---      ---       #2953
      0100BD30H   LINE      ---      ---       #2955
      0100BD37H   LINE      ---      ---       #2957
LX51 LINKER/LOCATER V4.66.1.0                                                         04/04/2019  16:35:10  PAGE 74


      0100BD62H   LINE      ---      ---       #2958
      0100BD68H   LINE      ---      ---       #2959
      0100BD71H   LINE      ---      ---       #2962
      0100BD71H   LINE      ---      ---       #2963
      0100BD76H   LINE      ---      ---       #2964
      0100BD78H   LINE      ---      ---       #2965
      0100BD83H   LINE      ---      ---       #2966
      0100BD83H   LINE      ---      ---       #2967
      0100BD87H   LINE      ---      ---       #2968
      0100BD87H   LINE      ---      ---       #2970
      0100BD87H   LINE      ---      ---       #2972
      0100BD87H   LINE      ---      ---       #2974
      0100BD99H   LINE      ---      ---       #2976
      0100BD9EH   LINE      ---      ---       #2977
      00000002H   SYMBOL    DATA     INT       Vlaue1
      00000006H   SYMBOL    DATA     INT       tmp
      02000027H   SYMBOL    XDATA    INT       Controler_Kp2
      02000029H   SYMBOL    XDATA    INT       Controler_Ki2
      0200002BH   SYMBOL    XDATA    INT       Controler_Kd2
      ---         BLOCKEND  CODE     ---       LVL=1
      ---         BLOCKEND  CODE     ---       LVL=0

      0100BDB2H   BLOCK     CODE     ---       LVL=0
      0100BDB2H   LINE      ---      ---       #2982
      0100BDB2H   LINE      ---      ---       #2983
      0100BDB2H   BLOCK     CODE     NEAR LAB  LVL=1
      0100BDB2H   LINE      ---      ---       #2990
      0100BDC3H   LINE      ---      ---       #2991
      0100BDC3H   LINE      ---      ---       #2992
      0100BDC6H   LINE      ---      ---       #2993
      0100BDC6H   LINE      ---      ---       #2994
      0100BDD7H   LINE      ---      ---       #2995
      0100BDD7H   LINE      ---      ---       #2996
      0100BDD9H   LINE      ---      ---       #2997
      0100BDD9H   LINE      ---      ---       #2999
      0100BDE4H   LINE      ---      ---       #3000
      0100BDF5H   LINE      ---      ---       #3001
      0100BDF5H   LINE      ---      ---       #3002
      0100BDFCH   LINE      ---      ---       #3003
      0100BDFCH   LINE      ---      ---       #3004
      0100BE0DH   LINE      ---      ---       #3005
      0100BE0DH   LINE      ---      ---       #3006
      0100BE14H   LINE      ---      ---       #3007
      0100BE14H   LINE      ---      ---       #3009
      0100BE21H   LINE      ---      ---       #3012
      0100BE2EH   LINE      ---      ---       #3013
      0100BE30H   LINE      ---      ---       #3015
      0100BE4FH   LINE      ---      ---       #3016
      0100BE52H   LINE      ---      ---       #3017
      0100BE5BH   LINE      ---      ---       #3019
      0100BE65H   LINE      ---      ---       #3020
      0100BE65H   LINE      ---      ---       #3021
      0100BE6FH   LINE      ---      ---       #3022
      0100BE71H   LINE      ---      ---       #3023
      0100BE82H   LINE      ---      ---       #3024
      0100BE82H   LINE      ---      ---       #3025
      0100BE89H   LINE      ---      ---       #3026
      0100BE89H   LINE      ---      ---       #3028
      0100BE89H   LINE      ---      ---       #3030
      0100BE89H   LINE      ---      ---       #3032
      0100BE9BH   LINE      ---      ---       #3034
      0100BEA0H   LINE      ---      ---       #3035
      00000002H   SYMBOL    DATA     INT       Vlaue1
      00000006H   SYMBOL    DATA     INT       tmp
      0200002DH   SYMBOL    XDATA    INT       Controler_Kp3
LX51 LINKER/LOCATER V4.66.1.0                                                         04/04/2019  16:35:10  PAGE 75


      0200002FH   SYMBOL    XDATA    INT       Controler_Ki3
      02000031H   SYMBOL    XDATA    INT       Controler_Kd3
      ---         BLOCKEND  CODE     ---       LVL=1
      ---         BLOCKEND  CODE     ---       LVL=0

      01009534H   BLOCK     CODE     ---       LVL=0
      01009534H   LINE      ---      ---       #3041
      01009534H   LINE      ---      ---       #3042
      01009534H   BLOCK     CODE     NEAR LAB  LVL=1
      01009534H   LINE      ---      ---       #3046
      0100953BH   LINE      ---      ---       #3050
      01009541H   LINE      ---      ---       #3051
      01009541H   LINE      ---      ---       #3055
      0100955CH   LINE      ---      ---       #3058
      01009560H   LINE      ---      ---       #3060
      0100956AH   LINE      ---      ---       #3062
      0100956BH   LINE      ---      ---       #3064
      0100956BH   LINE      ---      ---       #3065
      01009571H   LINE      ---      ---       #3066
      01009580H   LINE      ---      ---       #3067
      01009580H   LINE      ---      ---       #3068
      01009587H   LINE      ---      ---       #3069
      01009587H   LINE      ---      ---       #3070
      01009596H   LINE      ---      ---       #3071
      01009596H   LINE      ---      ---       #3073
      010095BCH   LINE      ---      ---       #3074
      010095BCH   LINE      ---      ---       #3075
      010095C1H   LINE      ---      ---       #3076
      010095C1H   LINE      ---      ---       #3077
      010095C1H   LINE      ---      ---       #3078
      010095C3H   LINE      ---      ---       #3080
      010095C3H   LINE      ---      ---       #3081
      010095E1H   LINE      ---      ---       #3082
      010095EBH   LINE      ---      ---       #3083
      010095EBH   LINE      ---      ---       #3084
      010095F4H   LINE      ---      ---       #3085
      010095F6H   LINE      ---      ---       #3086
      01009607H   LINE      ---      ---       #3087
      01009607H   LINE      ---      ---       #3088
      0100960EH   LINE      ---      ---       #3089
      0100960EH   LINE      ---      ---       #3091
      0100960EH   LINE      ---      ---       #3093
      0100960EH   LINE      ---      ---       #3097
      01009617H   LINE      ---      ---       #3098
      01009617H   LINE      ---      ---       #3099
      0100961AH   LINE      ---      ---       #3100
      01009623H   LINE      ---      ---       #3101
      01009623H   LINE      ---      ---       #3102
      0100962CH   LINE      ---      ---       #3103
      0100962EH   LINE      ---      ---       #3105
      0100962EH   LINE      ---      ---       #3106
      0100963EH   LINE      ---      ---       #3107
      0100963EH   LINE      ---      ---       #3108
      0100965AH   LINE      ---      ---       #3109
      0100965AH   LINE      ---      ---       #3111
      01009660H   LINE      ---      ---       #3112
      01009671H   LINE      ---      ---       #3113
      01009671H   LINE      ---      ---       #3114
      01009675H   LINE      ---      ---       #3116
      01009684H   LINE      ---      ---       #3120
      010096D6H   LINE      ---      ---       #3122
      010096E0H   LINE      ---      ---       #3123
      010096E0H   LINE      ---      ---       #3124
      010096E5H   LINE      ---      ---       #3125
      010096E5H   LINE      ---      ---       #3127
LX51 LINKER/LOCATER V4.66.1.0                                                         04/04/2019  16:35:10  PAGE 76


      010096F0H   LINE      ---      ---       #3128
      010096F0H   LINE      ---      ---       #3129
      010096F0H   LINE      ---      ---       #3132
      01009705H   LINE      ---      ---       #3135
      0100970EH   LINE      ---      ---       #3136
      0100970EH   LINE      ---      ---       #3137
      0100970FH   LINE      ---      ---       #3139
      01009711H   LINE      ---      ---       #3141
      01009711H   LINE      ---      ---       #3142
      0100971AH   LINE      ---      ---       #3143
      0100971AH   LINE      ---      ---       #3144
      0100971AH   LINE      ---      ---       #3145
      0100971AH   LINE      ---      ---       #3146
      02000033H   SYMBOL    XDATA    INT       err_sum
      02000035H   SYMBOL    XDATA    INT       RT_Temp_Mem
      02000114H   SYMBOL    XDATA    INT       Calc_int
      02000116H   SYMBOL    XDATA    WORD      Val_Calc
      ---         BLOCKEND  CODE     ---       LVL=1
      ---         BLOCKEND  CODE     ---       LVL=0

      0100BF50H   BLOCK     CODE     ---       LVL=0
      0100BF50H   LINE      ---      ---       #3149
      0100BF50H   LINE      ---      ---       #3150
      0100BF50H   LINE      ---      ---       #3151
      0100BF61H   LINE      ---      ---       #3152
      0100BF61H   LINE      ---      ---       #3153
      0100BF66H   LINE      ---      ---       #3154
      0100BF67H   LINE      ---      ---       #3155
      0100BF73H   LINE      ---      ---       #3156
      0100BF73H   LINE      ---      ---       #3157
      0100BF78H   LINE      ---      ---       #3158
      0100BF79H   LINE      ---      ---       #3159
      0100BF83H   LINE      ---      ---       #3160
      0100BF83H   LINE      ---      ---       #3161
      0100BF89H   LINE      ---      ---       #3162
      0100BF89H   LINE      ---      ---       #3164
      0100BF89H   LINE      ---      ---       #3166
      0100BF89H   LINE      ---      ---       #3167
      ---         BLOCKEND  ---      ---       LVL=0

      01007038H   BLOCK     CODE     ---       LVL=0
      01007038H   LINE      ---      ---       #3169
      01007038H   LINE      ---      ---       #3170
      01007038H   BLOCK     CODE     NEAR LAB  LVL=1
      01007038H   LINE      ---      ---       #3178
      0100703EH   LINE      ---      ---       #3179
      01007044H   LINE      ---      ---       #3180
      01007044H   LINE      ---      ---       #3181
      01007046H   LINE      ---      ---       #3184
      01007056H   LINE      ---      ---       #3185
      0100705DH   LINE      ---      ---       #3186
      0100705DH   LINE      ---      ---       #3187
      01007063H   LINE      ---      ---       #3188
      01007069H   LINE      ---      ---       #3189
      01007069H   LINE      ---      ---       #3190
      0100706CH   LINE      ---      ---       #3191
      01007071H   LINE      ---      ---       #3192
      01007071H   LINE      ---      ---       #3193
      01007073H   LINE      ---      ---       #3195
      01007073H   LINE      ---      ---       #3196
      01007078H   LINE      ---      ---       #3197
      0100707DH   LINE      ---      ---       #3198
      0100707DH   LINE      ---      ---       #3199
      01007084H   LINE      ---      ---       #3200
      01007084H   LINE      ---      ---       #3203
LX51 LINKER/LOCATER V4.66.1.0                                                         04/04/2019  16:35:10  PAGE 77


      01007091H   LINE      ---      ---       #3204
      01007091H   LINE      ---      ---       #3205
      01007093H   LINE      ---      ---       #3206
      01007095H   LINE      ---      ---       #3208
      01007095H   LINE      ---      ---       #3209
      01007097H   LINE      ---      ---       #3210
      01007097H   LINE      ---      ---       #3213
      010070A6H   LINE      ---      ---       #3214
      010070A6H   LINE      ---      ---       #3215
      010070A8H   LINE      ---      ---       #3216
      010070AAH   LINE      ---      ---       #3217
      010070ACH   LINE      ---      ---       #3219
      010070ACH   LINE      ---      ---       #3220
      010070AFH   LINE      ---      ---       #3221
      010070AFH   LINE      ---      ---       #3222
      010070B1H   LINE      ---      ---       #3223
      010070B3H   LINE      ---      ---       #3224
      010070B3H   LINE      ---      ---       #3225
      010070B3H   LINE      ---      ---       #3226
      010070B5H   LINE      ---      ---       #3228
      010070B5H   LINE      ---      ---       #3229
      010070BBH   LINE      ---      ---       #3230
      010070BEH   LINE      ---      ---       #3231
      010070BEH   LINE      ---      ---       #3232
      010070C4H   LINE      ---      ---       #3233
      010070C4H   LINE      ---      ---       #3234
      010070CDH   LINE      ---      ---       #3235
      010070CDH   LINE      ---      ---       #3236
      010070D5H   LINE      ---      ---       #3237
      010070D5H   LINE      ---      ---       #3238
      010070DAH   LINE      ---      ---       #3239
      010070DCH   LINE      ---      ---       #3241
      010070DCH   LINE      ---      ---       #3242
      010070E2H   LINE      ---      ---       #3243
      010070E2H   LINE      ---      ---       #3244
      010070E7H   LINE      ---      ---       #3245
      010070EBH   LINE      ---      ---       #3246
      010070EBH   LINE      ---      ---       #3247
      010070EBH   LINE      ---      ---       #3248
      010070EBH   LINE      ---      ---       #3251
      010070F8H   LINE      ---      ---       #3252
      010070F8H   LINE      ---      ---       #3253
      010070FAH   LINE      ---      ---       #3254
      010070FCH   LINE      ---      ---       #3255
      010070FDH   LINE      ---      ---       #3257
      010070FDH   LINE      ---      ---       #3258
      01007100H   LINE      ---      ---       #3259
      01007100H   LINE      ---      ---       #3260
      01007102H   LINE      ---      ---       #3261
      01007104H   LINE      ---      ---       #3262
      01007104H   LINE      ---      ---       #3263
      01007104H   LINE      ---      ---       #3264
      01007106H   LINE      ---      ---       #3266
      01007106H   LINE      ---      ---       #3267
      0100710CH   LINE      ---      ---       #3268
      0100710FH   LINE      ---      ---       #3269
      0100710FH   LINE      ---      ---       #3270
      01007115H   LINE      ---      ---       #3271
      01007115H   LINE      ---      ---       #3272
      0100711EH   LINE      ---      ---       #3273
      0100711EH   LINE      ---      ---       #3274
      01007126H   LINE      ---      ---       #3275
      01007126H   LINE      ---      ---       #3276
      0100712BH   LINE      ---      ---       #3277
      0100712DH   LINE      ---      ---       #3279
LX51 LINKER/LOCATER V4.66.1.0                                                         04/04/2019  16:35:10  PAGE 78


      0100712DH   LINE      ---      ---       #3280
      01007133H   LINE      ---      ---       #3281
      01007133H   LINE      ---      ---       #3282
      01007138H   LINE      ---      ---       #3283
      0100713CH   LINE      ---      ---       #3284
      0100713CH   LINE      ---      ---       #3285
      0100713CH   LINE      ---      ---       #3286
      0100713CH   LINE      ---      ---       #3287
      02000037H   SYMBOL    XDATA    BYTE      Micro_Temp_CLK
      02000038H   SYMBOL    XDATA    BYTE      Check_WireInTimes
      02000039H   SYMBOL    XDATA    BYTE      Check_WireOutTimes
      0200003AH   SYMBOL    XDATA    BYTE      WireIn_FB_Count
      0200003BH   SYMBOL    XDATA    BYTE      WireOut_FB_Count
      0200003CH   SYMBOL    XDATA    BYTE      NoHpCheck_Times
      ---         BLOCKEND  CODE     ---       LVL=1
      ---         BLOCKEND  CODE     ---       LVL=0

      ---         MODULE    ---      ---       SOUND_TYPE
      0100BF8AH   PUBLIC    CODE     ---       Sound_Type_Drive
      0100B699H   PUBLIC    CODE     ---       Sound_Alarm_Pause_Disable
      0100B6EDH   PUBLIC    CODE     ---       Sound_Alarm_Pause_Enable
      0100A1EBH   PUBLIC    CODE     ---       Sound_Short
      000000C0H.3 SFRSYM    DATA     BIT       P43
      0200034FH   SYMBOL    XDATA    BYTE      Sound_En_Cnt
      02000350H   SYMBOL    XDATA    WORD      SoundPauseCnt

      0100A1EBH   BLOCK     CODE     ---       LVL=0
      0100A1EBH   LINE      ---      ---       #10
      0100A1EBH   LINE      ---      ---       #11
      0100A1EBH   LINE      ---      ---       #12
      0100A1F1H   LINE      ---      ---       #13
      0100A1F1H   LINE      ---      ---       #15
      0100A1F1H   LINE      ---      ---       #17
      0100A1F1H   LINE      ---      ---       #18
      0100A1F7H   LINE      ---      ---       #19
      0100A1F7H   LINE      ---      ---       #20
      ---         BLOCKEND  ---      ---       LVL=0

      0100B6EDH   BLOCK     CODE     ---       LVL=0
      0100B6EDH   LINE      ---      ---       #22
      0100B6EDH   LINE      ---      ---       #23
      0100B6EDH   LINE      ---      ---       #24
      0100B6F7H   LINE      ---      ---       #25
      ---         BLOCKEND  ---      ---       LVL=0

      0100B699H   BLOCK     CODE     ---       LVL=0
      0100B699H   LINE      ---      ---       #27
      0100B699H   LINE      ---      ---       #28
      0100B699H   LINE      ---      ---       #29
      0100B6A0H   LINE      ---      ---       #30
      ---         BLOCKEND  ---      ---       LVL=0

      0100BF8AH   BLOCK     CODE     ---       LVL=0
      0100BF8AH   LINE      ---      ---       #32
      0100BF8AH   LINE      ---      ---       #33
      0100BF8AH   LINE      ---      ---       #34
      0100BF90H   LINE      ---      ---       #35
      0100BF90H   LINE      ---      ---       #36
      0100BF9AH   LINE      ---      ---       #37
      0100BF9AH   LINE      ---      ---       #38
      0100BF9CH   LINE      ---      ---       #39
      0100BFA0H   LINE      ---      ---       #40
      0100BFA1H   LINE      ---      ---       #42
      0100BFA1H   LINE      ---      ---       #43
      0100BFABH   LINE      ---      ---       #44
LX51 LINKER/LOCATER V4.66.1.0                                                         04/04/2019  16:35:10  PAGE 79


      0100BFADH   LINE      ---      ---       #45
      0100BFADH   LINE      ---      ---       #46
      0100BFAEH   LINE      ---      ---       #48
      0100BFAEH   LINE      ---      ---       #49
      0100BFB4H   LINE      ---      ---       #50
      0100BFB4H   LINE      ---      ---       #51
      0100BFB6H   LINE      ---      ---       #52
      0100BFB8H   LINE      ---      ---       #53
      0100BFB9H   LINE      ---      ---       #55
      0100BFB9H   LINE      ---      ---       #56
      0100BFBBH   LINE      ---      ---       #57
      0100BFBBH   LINE      ---      ---       #58
      0100BFBBH   LINE      ---      ---       #59
      ---         BLOCKEND  ---      ---       LVL=0

      ---         MODULE    ---      ---       MAIN
      010080D2H   PUBLIC    CODE     ---       main
      000000C1H   SFRSYM    DATA     BYTE      WDT_CONTR

      010080D2H   BLOCK     CODE     ---       LVL=0
      010080D2H   LINE      ---      ---       #6
      010080D2H   LINE      ---      ---       #7
      010080D2H   LINE      ---      ---       #8
      010080D5H   LINE      ---      ---       #9
      010080D7H   LINE      ---      ---       #10
      010080DAH   LINE      ---      ---       #11
      010080E2H   LINE      ---      ---       #13
      010080E2H   LINE      ---      ---       #14
      010080E2H   LINE      ---      ---       #15
      010080E5H   LINE      ---      ---       #16
      010080E8H   LINE      ---      ---       #17
      010080EBH   LINE      ---      ---       #18
      010080EEH   LINE      ---      ---       #19
      010080F0H   LINE      ---      ---       #20
      010080F2H   LINE      ---      ---       #21
      010080F5H   LINE      ---      ---       #22
      010080F8H   LINE      ---      ---       #23
      010080FBH   LINE      ---      ---       #24
      010080FEH   LINE      ---      ---       #25
      01008101H   LINE      ---      ---       #26
      01008104H   LINE      ---      ---       #27
      01008107H   LINE      ---      ---       #28
      0100810AH   LINE      ---      ---       #29
      0100810DH   LINE      ---      ---       #30
      01008110H   LINE      ---      ---       #31
      01008113H   LINE      ---      ---       #32
      01008116H   LINE      ---      ---       #33
      01008119H   LINE      ---      ---       #34
      0100811CH   LINE      ---      ---       #35
      0100811FH   LINE      ---      ---       #36
      01008122H   LINE      ---      ---       #37
      01008125H   LINE      ---      ---       #38
      01008128H   LINE      ---      ---       #39
      0100812BH   LINE      ---      ---       #40
      ---         BLOCKEND  ---      ---       LVL=0

      ---         MODULE    ---      ---       STCROMCRC16

      ---         MODULE    ---      ---       LCD
      02000358H   PUBLIC    XDATA    BYTE      Back_Color
      0100491FH   PUBLIC    CODE     ---       asc2_2412
      0100432FH   PUBLIC    CODE     ---       asc2_1608
      0100374FH   PUBLIC    CODE     ---       NUM38X64
      0100358DH   PUBLIC    CODE     ---       FNT10X24
      0100350FH   PUBLIC    CODE     ---       RH14X24
LX51 LINKER/LOCATER V4.66.1.0                                                         04/04/2019  16:35:10  PAGE 80


      010034BDH   PUBLIC    CODE     ---       JQK41X16
      01003469H   PUBLIC    CODE     ---       RTD28X24
      0100341EH   PUBLIC    CODE     ---       CQK25X24
      010033B2H   PUBLIC    CODE     ---       HEAT36X32
      0100329AH   PUBLIC    CODE     ---       VHB8056X40
      01003086H   PUBLIC    CODE     ---       DHM14X16
      01002E46H   PUBLIC    CODE     ---       ICO48X48
      01002D1AH   PUBLIC    CODE     ---       gImage_LAN_SEL_FR
      01002C06H   PUBLIC    CODE     ---       gImage_LAN_SEL_ES
      01002AAAH   PUBLIC    CODE     ---       gImage_LAN_SEL_PT
      010029B4H   PUBLIC    CODE     ---       gImage_LAN_SEL_EN
      0100284CH   PUBLIC    CODE     ---       ICO24X24
      01002144H   PUBLIC    CODE     ---       ICO40X40
      01001CE4H   PUBLIC    CODE     ---       ICO32X40
      01001B7CH   PUBLIC    CODE     ---       Num8X24
      01001A8CH   PUBLIC    CODE     ---       Num8X16
      010019C4H   PUBLIC    CODE     ---       NUM10X16
      01001672H   PUBLIC    CODE     ---       NUM17X40
      01000E3EH   PUBLIC    CODE     ---       NUM30X56
      010009CAH   PUBLIC    CODE     ---       gImage_FANEM
      0100099AH   PUBLIC    CODE     ---       gImage_LOGO5
      01000961H   PUBLIC    CODE     ---       gImage_LOGO4
      010008FBH   PUBLIC    CODE     ---       gImage_LOGO3
      0100088FH   PUBLIC    CODE     ---       gImage_LOGO2
      0100082FH   PUBLIC    CODE     ---       gImage_LOGO1
      010005DFH   PUBLIC    CODE     ---       Shangbiao8
      01000305H   PUBLIC    CODE     ---       PIC_WuChuang
      0100003FH   PUBLIC    CODE     ---       PIC_YouChuang
      0100678BH   PUBLIC    CODE     ---       LCD_Show_Verion
      01007455H   PUBLIC    CODE     ---       DrawWorkWindows
      0100A581H   PUBLIC    CODE     ---       Refresh_Work_Mode
      02000194H   PUBLIC    XDATA    BYTE      ?_Draw_Circle?BYTE
      01008C50H   PUBLIC    CODE     ---       _Draw_Circle
      02000146H   PUBLIC    XDATA    BYTE      ?_LCD_ShowxNum?BYTE
      01008B56H   PUBLIC    CODE     ---       _LCD_ShowxNum
      02000195H   PUBLIC    XDATA    BYTE      ?_LCD_ShowString?BYTE
      010066DBH   PUBLIC    CODE     ---       _LCD_ShowString
      020001AAH   PUBLIC    XDATA    BYTE      ?_LCD_ShowChar?BYTE
      0100BEF3H   PUBLIC    CODE     ---       _LCD_ShowChar
      020001B2H   PUBLIC    XDATA    BYTE      ?_DISP_FNT12X24?BYTE
      0100C0ADH   PUBLIC    CODE     ---       _DISP_FNT12X24
      020001B2H   PUBLIC    XDATA    BYTE      ?_DISP_FNT8X16?BYTE
      0100BFBCH   PUBLIC    CODE     ---       _DISP_FNT8X16
      0100A619H   PUBLIC    CODE     ---       _DISP_VHB80_PIC
      0100A5BDH   PUBLIC    CODE     ---       _Disp_WuChuang
      0100A5A5H   PUBLIC    CODE     ---       _Disp_YouChuang
      0100A604H   PUBLIC    CODE     ---       _DISP_VHB80_56X40
      02000194H   PUBLIC    XDATA    BYTE      ?_DISP_DHM?BYTE
      0100A7A2H   PUBLIC    CODE     ---       _DISP_DHM
      02000194H   PUBLIC    XDATA    BYTE      ?_DISP_ICO_52X64?BYTE
      0100A1CAH   PUBLIC    CODE     ---       _DISP_ICO_52X64
      02000194H   PUBLIC    XDATA    BYTE      ?_DISP_ICO_40X40?BYTE
      0100A7C6H   PUBLIC    CODE     ---       _DISP_ICO_40X40
      02000194H   PUBLIC    XDATA    BYTE      ?_DISP_ICO_32X40?BYTE
      01008772H   PUBLIC    CODE     ---       _DISP_ICO_32X40
      02000195H   PUBLIC    XDATA    BYTE      ?_DISP_TIME_10X16?BYTE
      01009C05H   PUBLIC    CODE     ---       _DISP_TIME_10X16
      02000194H   PUBLIC    XDATA    BYTE      ?_DISP_RH14X24?BYTE
      0100A781H   PUBLIC    CODE     ---       _DISP_RH14X24
      02000110H   PUBLIC    XDATA    BYTE      ?_DISP_FNT10X24?BYTE
      0100822DH   PUBLIC    CODE     ---       _DISP_FNT10X24
      0200019AH   PUBLIC    XDATA    BYTE      ?_DISP_RH_17X40?BYTE
      01008309H   PUBLIC    CODE     ---       _DISP_RH_17X40
      0100A5F2H   PUBLIC    CODE     ---       _DISP_HEAT_36X24
      0100A5E0H   PUBLIC    CODE     ---       _DISP_JQK41X16
LX51 LINKER/LOCATER V4.66.1.0                                                         04/04/2019  16:35:10  PAGE 81


      0100A6A7H   PUBLIC    CODE     ---       _DISP_RTD28X24
      0100A68FH   PUBLIC    CODE     ---       _DISP_CQK25X24
      02000111H   PUBLIC    XDATA    BYTE      ?_DISP_TEMP_38X64?BYTE
      0100A70AH   PUBLIC    CODE     ---       _DISP_TEMP_38X64
      0200019AH   PUBLIC    XDATA    BYTE      ?_DISP_TEMP_30X56?BYTE
      01008537H   PUBLIC    CODE     ---       _DISP_TEMP_30X56
      0200019AH   PUBLIC    XDATA    BYTE      ?_Draw_Rectangle_Real?BYTE
      010073BDH   PUBLIC    CODE     ---       _Draw_Rectangle_Real
      02000194H   PUBLIC    XDATA    BYTE      ?_Draw_Rectangle?BYTE
      01006C04H   PUBLIC    CODE     ---       _Draw_Rectangle
      020001C2H   PUBLIC    XDATA    BYTE      ?_LCD_CrtlWrite_Area?BYTE
      01006D1BH   PUBLIC    CODE     ---       _LCD_CrtlWrite_Area
      01006D83H   PUBLIC    CODE     ---       LCD_Initial
      01006E86H   PUBLIC    CODE     ---       _LCD_CtrlWrite_Color
      01006E99H   PUBLIC    CODE     ---       _LCD_CtrlWrite_ILI9328
      00000080H   SFRSYM    DATA     BYTE      P0
      00000090H.4 SFRSYM    DATA     BIT       P14
      00000090H.5 SFRSYM    DATA     BIT       P15
      00000090H.6 SFRSYM    DATA     BIT       P16
      000000C0H   SFRSYM    DATA     BIT       P40
      000000C0H.6 SFRSYM    DATA     BIT       P46
      0100569FH   SYMBOL    CODE     ---       Table_Color
      0100000EH   SYMBOL    CODE     ---       _SdCmd
      01006D52H   SYMBOL    CODE     ---       _SdData
      01008253H   SYMBOL    CODE     ---       _DISP_MONO_GRAP
      01006E5EH   SYMBOL    CODE     ---       _LCD_DrawPoint
      0100C293H   SYMBOL    CODE     ---       _LCD_Pow

      0100000EH   BLOCK     CODE     ---       LVL=0
      0100000EH   LINE      ---      ---       #32
      0100000EH   LINE      ---      ---       #33
      0100000EH   LINE      ---      ---       #34
      01000010H   LINE      ---      ---       #35
      00000007H   SYMBOL    DATA     BYTE      data8
      ---         BLOCKEND  ---      ---       LVL=0

      01006D52H   BLOCK     CODE     ---       LVL=0
      01006D7FH   LINE      ---      ---       #43
      01006D7FH   LINE      ---      ---       #44
      01006D7FH   LINE      ---      ---       #45
      01006D81H   LINE      ---      ---       #46
      00000007H   SYMBOL    DATA     BYTE      data8
      ---         BLOCKEND  ---      ---       LVL=0

      01006E99H   BLOCK     CODE     ---       LVL=0
      01006E99H   LINE      ---      ---       #53
      01006E9FH   LINE      ---      ---       #54
      01006E9FH   LINE      ---      ---       #55
      01006EA1H   LINE      ---      ---       #56
      01006EA3H   LINE      ---      ---       #57
      01006EA6H   LINE      ---      ---       #58
      01006EA8H   LINE      ---      ---       #59
      01006EAAH   LINE      ---      ---       #60
      01006EAFH   LINE      ---      ---       #61
      01006EB1H   LINE      ---      ---       #62
      01006EB3H   LINE      ---      ---       #63
      01006EB5H   LINE      ---      ---       #64
      01006EB7H   LINE      ---      ---       #65
      00000004H   SYMBOL    DATA     WORD      i
      ---         BLOCKEND  ---      ---       LVL=0

      01006E86H   BLOCK     CODE     ---       LVL=0
      01006E86H   LINE      ---      ---       #67
      01006E86H   LINE      ---      ---       #68
      01006E86H   LINE      ---      ---       #69
LX51 LINKER/LOCATER V4.66.1.0                                                         04/04/2019  16:35:10  PAGE 82


      00000007H   SYMBOL    DATA     BYTE      color
      ---         BLOCKEND  ---      ---       LVL=0

      01006D83H   BLOCK     CODE     ---       LVL=0
      01006D83H   LINE      ---      ---       #72
      01006D83H   LINE      ---      ---       #73
      01006D83H   LINE      ---      ---       #75
      01006D85H   LINE      ---      ---       #76
      01006D8BH   LINE      ---      ---       #77
      01006D8DH   LINE      ---      ---       #78
      01006D93H   LINE      ---      ---       #80
      01006D98H   LINE      ---      ---       #81
      01006D9EH   LINE      ---      ---       #82
      01006DA7H   LINE      ---      ---       #84
      01006DACH   LINE      ---      ---       #85
      01006DAFH   LINE      ---      ---       #86
      01006DB4H   LINE      ---      ---       #88
      01006DB9H   LINE      ---      ---       #89
      01006DBDH   LINE      ---      ---       #91
      01006DC0H   LINE      ---      ---       #92
      01006DC4H   LINE      ---      ---       #95
      01006DC9H   LINE      ---      ---       #96
      01006DCDH   LINE      ---      ---       #98
      01006DD2H   LINE      ---      ---       #99
      01006DD6H   LINE      ---      ---       #101
      01006DDBH   LINE      ---      ---       #102
      01006DDFH   LINE      ---      ---       #104
      01006DE4H   LINE      ---      ---       #105
      01006DE8H   LINE      ---      ---       #107
      01006DEDH   LINE      ---      ---       #108
      01006DF1H   LINE      ---      ---       #110
      01006DF6H   LINE      ---      ---       #111
      01006DFAH   LINE      ---      ---       #113
      01006DFFH   LINE      ---      ---       #114
      01006E03H   LINE      ---      ---       #116
      01006E08H   LINE      ---      ---       #117
      01006E0CH   LINE      ---      ---       #118
      01006E10H   LINE      ---      ---       #120
      01006E15H   LINE      ---      ---       #121
      01006E19H   LINE      ---      ---       #123
      01006E1DH   LINE      ---      ---       #136
      01006E1FH   LINE      ---      ---       #140
      01006E23H   LINE      ---      ---       #153
      01006E25H   LINE      ---      ---       #156
      01006E2EH   LINE      ---      ---       #157
      01006E33H   LINE      ---      ---       #159
      01006E38H   LINE      ---      ---       #161
      01006E3DH   LINE      ---      ---       #162
      01006E40H   LINE      ---      ---       #164
      01006E42H   LINE      ---      ---       #165
      01006E46H   LINE      ---      ---       #167
      01006E4BH   LINE      ---      ---       #168
      01006E4DH   LINE      ---      ---       #170
      01006E50H   LINE      ---      ---       #171
      01006E54H   LINE      ---      ---       #173
      01006E59H   LINE      ---      ---       #174
      ---         BLOCKEND  ---      ---       LVL=0

      01006D1BH   BLOCK     CODE     ---       LVL=0
      01006D1BH   LINE      ---      ---       #177
      01006D1EH   LINE      ---      ---       #178
      01006D1EH   LINE      ---      ---       #179
      01006D23H   LINE      ---      ---       #180
      01006D27H   LINE      ---      ---       #181
      01006D2CH   LINE      ---      ---       #182
LX51 LINKER/LOCATER V4.66.1.0                                                         04/04/2019  16:35:10  PAGE 83


      01006D2FH   LINE      ---      ---       #184
      01006D34H   LINE      ---      ---       #185
      01006D38H   LINE      ---      ---       #186
      01006D3DH   LINE      ---      ---       #187
      01006D42H   LINE      ---      ---       #189
      00000004H   SYMBOL    DATA     BYTE      SX
      00000005H   SYMBOL    DATA     BYTE      EX
      00000002H   SYMBOL    DATA     WORD      SY
      020001C6H   SYMBOL    XDATA    WORD      EY
      ---         BLOCKEND  ---      ---       LVL=0

      01006BFBH   BLOCK     CODE     ---       LVL=0
      01006C04H   LINE      ---      ---       #194
      01006C14H   LINE      ---      ---       #195
      02000194H   SYMBOL    XDATA    BYTE      Start_X
      02000195H   SYMBOL    XDATA    WORD      Start_Y
      00000001H   SYMBOL    DATA     BYTE      End_X
      02000198H   SYMBOL    XDATA    WORD      End_Y
      0200019AH   SYMBOL    XDATA    BYTE      color
      0200019BH   SYMBOL    XDATA    BYTE      LineW
      01006C14H   BLOCK     CODE     NEAR LAB  LVL=1
      01006C14H   LINE      ---      ---       #197
      01006C22H   LINE      ---      ---       #198
      01006C3DH   LINE      ---      ---       #200
      01006C4FH   LINE      ---      ---       #201
      01006C5BH   LINE      ---      ---       #202
      01006C5BH   LINE      ---      ---       #203
      01006C65H   LINE      ---      ---       #204
      01006C65H   LINE      ---      ---       #205
      01006C6BH   LINE      ---      ---       #207
      01006C72H   LINE      ---      ---       #208
      01006C9CH   LINE      ---      ---       #210
      01006C9CH   LINE      ---      ---       #211
      01006CA6H   LINE      ---      ---       #212
      01006CA6H   LINE      ---      ---       #213
      01006CACH   LINE      ---      ---       #215
      01006CB3H   LINE      ---      ---       #216
      01006CD1H   LINE      ---      ---       #218
      01006CD1H   LINE      ---      ---       #219
      01006CDBH   LINE      ---      ---       #220
      01006CDBH   LINE      ---      ---       #221
      01006CE1H   LINE      ---      ---       #223
      01006CE8H   LINE      ---      ---       #224
      01006D03H   LINE      ---      ---       #226
      01006D03H   LINE      ---      ---       #227
      01006D0DH   LINE      ---      ---       #228
      01006D0DH   LINE      ---      ---       #229
      01006D13H   LINE      ---      ---       #231
      01006D1AH   LINE      ---      ---       #232
      0200019CH   SYMBOL    XDATA    WORD      i
      00000002H   SYMBOL    DATA     WORD      j
      0200019EH   SYMBOL    XDATA    WORD      w
      020001A0H   SYMBOL    XDATA    WORD      h
      ---         BLOCKEND  CODE     ---       LVL=1
      ---         BLOCKEND  CODE     ---       LVL=0

      010073B4H   BLOCK     CODE     ---       LVL=0
      010073BDH   LINE      ---      ---       #235
      010073C8H   LINE      ---      ---       #236
      00000002H   SYMBOL    DATA     BYTE      Start_X
      0200019BH   SYMBOL    XDATA    WORD      Start_Y
      00000003H   SYMBOL    DATA     BYTE      End_X
      0200019EH   SYMBOL    XDATA    WORD      End_Y
      020001A0H   SYMBOL    XDATA    BYTE      color
      010073C8H   BLOCK     CODE     NEAR LAB  LVL=1
LX51 LINKER/LOCATER V4.66.1.0                                                         04/04/2019  16:35:10  PAGE 84


      010073C8H   LINE      ---      ---       #238
      010073D8H   LINE      ---      ---       #239
      010073F0H   LINE      ---      ---       #240
      01007411H   LINE      ---      ---       #241
      0100742DH   LINE      ---      ---       #242
      0100742DH   LINE      ---      ---       #243
      0100743DH   LINE      ---      ---       #244
      0100743DH   LINE      ---      ---       #245
      01007445H   LINE      ---      ---       #246
      0100744CH   LINE      ---      ---       #247
      01007454H   LINE      ---      ---       #248
      00000002H   SYMBOL    DATA     WORD      i
      020001A1H   SYMBOL    XDATA    WORD      j
      020001A3H   SYMBOL    XDATA    WORD      w
      020001A5H   SYMBOL    XDATA    WORD      h
      ---         BLOCKEND  CODE     ---       LVL=1
      ---         BLOCKEND  CODE     ---       LVL=0

      01008253H   BLOCK     CODE     ---       LVL=0
      01008253H   LINE      ---      ---       #258
      0100825EH   LINE      ---      ---       #259
      00000006H   SYMBOL    DATA     BYTE      X1
      020001A0H   SYMBOL    XDATA    WORD      Y1
      020001A2H   SYMBOL    XDATA    BYTE      H
      020001A3H   SYMBOL    XDATA    BYTE      W
      020001A4H   SYMBOL    XDATA    ---       gp
      020001A7H   SYMBOL    XDATA    BYTE      color
      0100825EH   BLOCK     CODE     NEAR LAB  LVL=1
      0100825EH   LINE      ---      ---       #261
      01008280H   LINE      ---      ---       #262
      010082AAH   LINE      ---      ---       #263
      010082AAH   LINE      ---      ---       #264
      010082B1H   LINE      ---      ---       #265
      010082B1H   LINE      ---      ---       #266
      010082D8H   LINE      ---      ---       #267
      010082D8H   LINE      ---      ---       #268
      010082DBH   LINE      ---      ---       #269
      010082DDH   LINE      ---      ---       #271
      010082DDH   LINE      ---      ---       #272
      010082E5H   LINE      ---      ---       #273
      010082E5H   LINE      ---      ---       #274
      010082FAH   LINE      ---      ---       #275
      01008302H   LINE      ---      ---       #276
      020001A8H   SYMBOL    XDATA    WORD      w
      020001AAH   SYMBOL    XDATA    WORD      j
      ---         BLOCKEND  CODE     ---       LVL=1
      ---         BLOCKEND  CODE     ---       LVL=0

      01008531H   BLOCK     CODE     ---       LVL=0
      01008537H   LINE      ---      ---       #279
      0100853FH   LINE      ---      ---       #280
      0100853FH   LINE      ---      ---       #281
      0200019AH   SYMBOL    XDATA    BYTE      X
      0200019BH   SYMBOL    XDATA    WORD      Y
      00000003H   SYMBOL    DATA     BYTE      NUM
      0200019EH   SYMBOL    XDATA    BYTE      color
      ---         BLOCKEND  ---      ---       LVL=0

      0100A6FEH   BLOCK     CODE     ---       LVL=0
      0100A70AH   LINE      ---      ---       #284
      0100A711H   LINE      ---      ---       #285
      0100A711H   LINE      ---      ---       #286
      02000111H   SYMBOL    XDATA    BYTE      X
      02000112H   SYMBOL    XDATA    WORD      Y
      00000003H   SYMBOL    DATA     BYTE      NUM
LX51 LINKER/LOCATER V4.66.1.0                                                         04/04/2019  16:35:10  PAGE 85


      02000115H   SYMBOL    XDATA    BYTE      color
      ---         BLOCKEND  ---      ---       LVL=0

      0100A689H   BLOCK     CODE     ---       LVL=0
      0100A68FH   LINE      ---      ---       #289
      00000007H   SYMBOL    DATA     BYTE      X
      00000004H   SYMBOL    DATA     WORD      Y
      00000006H   SYMBOL    DATA     BYTE      color
      ---         BLOCKEND  ---      ---       LVL=0

      0100A6A1H   BLOCK     CODE     ---       LVL=0
      0100A6A7H   LINE      ---      ---       #294
      00000007H   SYMBOL    DATA     BYTE      X
      00000004H   SYMBOL    DATA     WORD      Y
      00000006H   SYMBOL    DATA     BYTE      color
      ---         BLOCKEND  ---      ---       LVL=0

      0100A5E0H   BLOCK     CODE     ---       LVL=0
      0100A5E0H   LINE      ---      ---       #299
      00000007H   SYMBOL    DATA     BYTE      X
      00000004H   SYMBOL    DATA     WORD      Y
      00000006H   SYMBOL    DATA     BYTE      color
      ---         BLOCKEND  ---      ---       LVL=0

      0100A5F2H   BLOCK     CODE     ---       LVL=0
      0100A5F2H   LINE      ---      ---       #306
      00000007H   SYMBOL    DATA     BYTE      X
      00000004H   SYMBOL    DATA     WORD      Y
      00000006H   SYMBOL    DATA     BYTE      color
      ---         BLOCKEND  ---      ---       LVL=0

      01008303H   BLOCK     CODE     ---       LVL=0
      01008309H   LINE      ---      ---       #311
      01008311H   LINE      ---      ---       #312
      01008311H   LINE      ---      ---       #313
      0200019AH   SYMBOL    XDATA    BYTE      X
      0200019BH   SYMBOL    XDATA    WORD      Y
      00000003H   SYMBOL    DATA     BYTE      NUM
      0200019EH   SYMBOL    XDATA    BYTE      color
      ---         BLOCKEND  ---      ---       LVL=0

      0100822DH   BLOCK     CODE     ---       LVL=0
      0100822DH   LINE      ---      ---       #316
      01008235H   LINE      ---      ---       #317
      01008235H   LINE      ---      ---       #318
      02000110H   SYMBOL    XDATA    BYTE      X
      02000111H   SYMBOL    XDATA    WORD      Y
      00000003H   SYMBOL    DATA     BYTE      NUM
      02000114H   SYMBOL    XDATA    BYTE      color
      ---         BLOCKEND  ---      ---       LVL=0

      0100A781H   BLOCK     CODE     ---       LVL=0
      0100A781H   LINE      ---      ---       #321
      0100A788H   LINE      ---      ---       #322
      0100A788H   LINE      ---      ---       #323
      02000194H   SYMBOL    XDATA    BYTE      X
      02000195H   SYMBOL    XDATA    WORD      Y
      00000003H   SYMBOL    DATA     BYTE      NUM
      02000198H   SYMBOL    XDATA    BYTE      color
      ---         BLOCKEND  ---      ---       LVL=0

      01009C01H   BLOCK     CODE     ---       LVL=0
      01009C05H   LINE      ---      ---       #326
      01009C0DH   LINE      ---      ---       #327
      01009C0DH   LINE      ---      ---       #328
LX51 LINKER/LOCATER V4.66.1.0                                                         04/04/2019  16:35:10  PAGE 86


      02000195H   SYMBOL    XDATA    BYTE      X
      02000196H   SYMBOL    XDATA    WORD      Y
      00000003H   SYMBOL    DATA     BYTE      NUM
      02000199H   SYMBOL    XDATA    BYTE      color
      ---         BLOCKEND  ---      ---       LVL=0

      0100875AH   BLOCK     CODE     ---       LVL=0
      01008772H   LINE      ---      ---       #330
      0100877AH   LINE      ---      ---       #331
      0100877AH   LINE      ---      ---       #332
      02000194H   SYMBOL    XDATA    BYTE      X
      02000195H   SYMBOL    XDATA    WORD      Y
      00000003H   SYMBOL    DATA     BYTE      NUM
      02000198H   SYMBOL    XDATA    BYTE      color
      ---         BLOCKEND  ---      ---       LVL=0

      0100A7BFH   BLOCK     CODE     ---       LVL=0
      0100A7C6H   LINE      ---      ---       #335
      0100A7CDH   LINE      ---      ---       #336
      0100A7CDH   LINE      ---      ---       #337
      02000194H   SYMBOL    XDATA    BYTE      X
      02000195H   SYMBOL    XDATA    WORD      Y
      00000003H   SYMBOL    DATA     BYTE      NUM
      02000198H   SYMBOL    XDATA    BYTE      color
      ---         BLOCKEND  ---      ---       LVL=0

      0100A1CAH   BLOCK     CODE     ---       LVL=0
      0100A1CAH   LINE      ---      ---       #342
      0100A1D1H   LINE      ---      ---       #343
      0100A1D1H   LINE      ---      ---       #344
      02000194H   SYMBOL    XDATA    BYTE      X
      02000195H   SYMBOL    XDATA    WORD      Y
      00000003H   SYMBOL    DATA     BYTE      NUM
      02000198H   SYMBOL    XDATA    BYTE      color
      ---         BLOCKEND  ---      ---       LVL=0

      0100A79EH   BLOCK     CODE     ---       LVL=0
      0100A7A2H   LINE      ---      ---       #348
      0100A7A9H   LINE      ---      ---       #349
      0100A7A9H   LINE      ---      ---       #350
      02000194H   SYMBOL    XDATA    BYTE      X
      02000195H   SYMBOL    XDATA    WORD      Y
      00000003H   SYMBOL    DATA     BYTE      NUM
      02000198H   SYMBOL    XDATA    BYTE      color
      ---         BLOCKEND  ---      ---       LVL=0

      0100A604H   BLOCK     CODE     ---       LVL=0
      0100A604H   LINE      ---      ---       #353
      00000007H   SYMBOL    DATA     BYTE      X
      00000004H   SYMBOL    DATA     WORD      Y
      00000006H   SYMBOL    DATA     BYTE      color
      ---         BLOCKEND  ---      ---       LVL=0

      0100A5A5H   BLOCK     CODE     ---       LVL=0
      0100A5A5H   LINE      ---      ---       #359
      00000007H   SYMBOL    DATA     BYTE      X
      00000004H   SYMBOL    DATA     WORD      Y
      00000006H   SYMBOL    DATA     BYTE      color
      ---         BLOCKEND  ---      ---       LVL=0

      0100A5B7H   BLOCK     CODE     ---       LVL=0
      0100A5BDH   LINE      ---      ---       #364
      00000007H   SYMBOL    DATA     BYTE      X
      00000004H   SYMBOL    DATA     WORD      Y
      00000006H   SYMBOL    DATA     BYTE      color
LX51 LINKER/LOCATER V4.66.1.0                                                         04/04/2019  16:35:10  PAGE 87


      ---         BLOCKEND  ---      ---       LVL=0

      0100A616H   BLOCK     CODE     ---       LVL=0
      0100A619H   LINE      ---      ---       #369
      0100A61FH   LINE      ---      ---       #370
      0100A61FH   LINE      ---      ---       #371
      0100A627H   LINE      ---      ---       #372
      0100A634H   LINE      ---      ---       #373
      0100A63BH   LINE      ---      ---       #374
      0100A648H   LINE      ---      ---       #376
      0100A64FH   LINE      ---      ---       #377
      0100A671H   LINE      ---      ---       #380
      02000111H   SYMBOL    XDATA    BYTE      color
      ---         BLOCKEND  ---      ---       LVL=0

      01006E5EH   BLOCK     CODE     ---       LVL=0
      01006E63H   LINE      ---      ---       #387
      01006E6BH   LINE      ---      ---       #388
      01006E6BH   LINE      ---      ---       #389
      01006E70H   LINE      ---      ---       #390
      01006E72H   LINE      ---      ---       #392
      01006E74H   LINE      ---      ---       #394
      01006E79H   LINE      ---      ---       #395
      01006E7CH   LINE      ---      ---       #397
      01006E7EH   LINE      ---      ---       #399
      01006E83H   LINE      ---      ---       #400
      020001C2H   SYMBOL    XDATA    WORD      x
      00000004H   SYMBOL    DATA     WORD      y
      00000003H   SYMBOL    DATA     BYTE      color
      ---         BLOCKEND  ---      ---       LVL=0

      0100BFBCH   BLOCK     CODE     ---       LVL=0
      0100BFBCH   LINE      ---      ---       #410
      0100BFC3H   LINE      ---      ---       #411
      020001B2H   SYMBOL    XDATA    WORD      X
      020001B4H   SYMBOL    XDATA    WORD      Y
      00000003H   SYMBOL    DATA     BYTE      NUM
      020001B7H   SYMBOL    XDATA    BYTE      mode
      020001B8H   SYMBOL    XDATA    BYTE      color
      0100BFC3H   BLOCK     CODE     NEAR LAB  LVL=1
      0100BFC3H   LINE      ---      ---       #414
      0100BFC9H   LINE      ---      ---       #416
      0100BFCCH   LINE      ---      ---       #419
      0100BFEBH   LINE      ---      ---       #421
      0100BFEFH   LINE      ---      ---       #422
      0100BFF2H   LINE      ---      ---       #423
      0100BFF2H   LINE      ---      ---       #424
      0100BFFFH   LINE      ---      ---       #425
      0100BFFFH   LINE      ---      ---       #426
      0100C019H   LINE      ---      ---       #427
      0100C019H   LINE      ---      ---       #428
      0100C01FH   LINE      ---      ---       #429
      0100C01FH   LINE      ---      ---       #430
      0100C020H   LINE      ---      ---       #431
      0100C022H   LINE      ---      ---       #433
      0100C022H   LINE      ---      ---       #434
      0100C028H   LINE      ---      ---       #435
      0100C028H   LINE      ---      ---       #436
      0100C02AH   LINE      ---      ---       #438
      0100C02AH   LINE      ---      ---       #439
      0100C030H   LINE      ---      ---       #440
      0100C030H   LINE      ---      ---       #441
      0100C038H   LINE      ---      ---       #442
      0100C038H   LINE      ---      ---       #443
      0100C038H   LINE      ---      ---       #444
LX51 LINKER/LOCATER V4.66.1.0                                                         04/04/2019  16:35:10  PAGE 88


      0100C03DH   LINE      ---      ---       #447
      0100C049H   LINE      ---      ---       #448
      0100C049H   LINE      ---      ---       #449
      0100C063H   LINE      ---      ---       #450
      0100C063H   LINE      ---      ---       #451
      0100C069H   LINE      ---      ---       #452
      0100C069H   LINE      ---      ---       #453
      0100C06AH   LINE      ---      ---       #454
      0100C06CH   LINE      ---      ---       #456
      0100C06CH   LINE      ---      ---       #457
      0100C072H   LINE      ---      ---       #458
      0100C072H   LINE      ---      ---       #459
      0100C074H   LINE      ---      ---       #461
      0100C074H   LINE      ---      ---       #462
      0100C07AH   LINE      ---      ---       #463
      0100C07AH   LINE      ---      ---       #464
      0100C082H   LINE      ---      ---       #465
      0100C082H   LINE      ---      ---       #466
      0100C082H   LINE      ---      ---       #467
      0100C087H   LINE      ---      ---       #469
      0100C08DH   LINE      ---      ---       #470
      0100C0A4H   LINE      ---      ---       #472
      020001B9H   SYMBOL    XDATA    WORD      w
      020001BBH   SYMBOL    XDATA    WORD      j
      020001BDH   SYMBOL    XDATA    WORD      F_x
      020001BFH   SYMBOL    XDATA    WORD      F_y
      00000001H   SYMBOL    DATA     BYTE      num
      ---         BLOCKEND  CODE     ---       LVL=1
      ---         BLOCKEND  CODE     ---       LVL=0

      0100C0ADH   BLOCK     CODE     ---       LVL=0
      0100C0ADH   LINE      ---      ---       #481
      0100C0B3H   LINE      ---      ---       #482
      020001B2H   SYMBOL    XDATA    WORD      X
      020001B4H   SYMBOL    XDATA    WORD      Y
      00000003H   SYMBOL    DATA     BYTE      NUM
      020001B7H   SYMBOL    XDATA    BYTE      mode
      020001B8H   SYMBOL    XDATA    BYTE      color
      0100C0B3H   BLOCK     CODE     NEAR LAB  LVL=1
      0100C0B3H   LINE      ---      ---       #485
      0100C0B8H   LINE      ---      ---       #487
      0100C0BAH   LINE      ---      ---       #490
      0100C0D7H   LINE      ---      ---       #492
      0100C0DEH   LINE      ---      ---       #493
      0100C0E0H   LINE      ---      ---       #494
      0100C0E0H   LINE      ---      ---       #495
      0100C0E2H   LINE      ---      ---       #496
      0100C0E2H   LINE      ---      ---       #497
      0100C113H   LINE      ---      ---       #498
      0100C113H   LINE      ---      ---       #499
      0100C119H   LINE      ---      ---       #500
      0100C119H   LINE      ---      ---       #501
      0100C11AH   LINE      ---      ---       #502
      0100C11CH   LINE      ---      ---       #504
      0100C11CH   LINE      ---      ---       #505
      0100C130H   LINE      ---      ---       #506
      0100C130H   LINE      ---      ---       #507
      0100C132H   LINE      ---      ---       #509
      0100C132H   LINE      ---      ---       #510
      0100C138H   LINE      ---      ---       #511
      0100C138H   LINE      ---      ---       #512
      0100C140H   LINE      ---      ---       #513
      0100C140H   LINE      ---      ---       #514
      0100C140H   LINE      ---      ---       #515
      0100C149H   LINE      ---      ---       #518
LX51 LINKER/LOCATER V4.66.1.0                                                         04/04/2019  16:35:10  PAGE 89


      0100C14BH   LINE      ---      ---       #519
      0100C14BH   LINE      ---      ---       #520
      0100C16DH   LINE      ---      ---       #521
      0100C16DH   LINE      ---      ---       #522
      0100C173H   LINE      ---      ---       #523
      0100C173H   LINE      ---      ---       #524
      0100C174H   LINE      ---      ---       #525
      0100C176H   LINE      ---      ---       #527
      0100C176H   LINE      ---      ---       #528
      0100C17CH   LINE      ---      ---       #529
      0100C17CH   LINE      ---      ---       #530
      0100C17EH   LINE      ---      ---       #532
      0100C17EH   LINE      ---      ---       #533
      0100C184H   LINE      ---      ---       #534
      0100C184H   LINE      ---      ---       #535
      0100C18CH   LINE      ---      ---       #536
      0100C18CH   LINE      ---      ---       #537
      0100C18CH   LINE      ---      ---       #538
      0100C195H   LINE      ---      ---       #540
      0100C197H   LINE      ---      ---       #541
      0100C197H   LINE      ---      ---       #542
      0100C1B9H   LINE      ---      ---       #543
      0100C1B9H   LINE      ---      ---       #544
      0100C1BFH   LINE      ---      ---       #545
      0100C1BFH   LINE      ---      ---       #546
      0100C1C0H   LINE      ---      ---       #547
      0100C1C2H   LINE      ---      ---       #549
      0100C1C2H   LINE      ---      ---       #550
      0100C1C8H   LINE      ---      ---       #551
      0100C1C8H   LINE      ---      ---       #552
      0100C1CAH   LINE      ---      ---       #554
      0100C1CAH   LINE      ---      ---       #555
      0100C1D0H   LINE      ---      ---       #556
      0100C1D0H   LINE      ---      ---       #557
      0100C1D8H   LINE      ---      ---       #558
      0100C1D8H   LINE      ---      ---       #559
      0100C1D8H   LINE      ---      ---       #560
      0100C1E1H   LINE      ---      ---       #562
      0100C1E7H   LINE      ---      ---       #563
      0100C1FDH   LINE      ---      ---       #565
      020001B9H   SYMBOL    XDATA    WORD      w
      020001BBH   SYMBOL    XDATA    WORD      j
      020001BDH   SYMBOL    XDATA    WORD      F_x
      020001BFH   SYMBOL    XDATA    WORD      F_y
      020001C1H   SYMBOL    XDATA    BYTE      num
      ---         BLOCKEND  CODE     ---       LVL=1
      ---         BLOCKEND  CODE     ---       LVL=0

      0100BEF3H   BLOCK     CODE     ---       LVL=0
      0100BEF3H   LINE      ---      ---       #573
      0100BF01H   LINE      ---      ---       #574
      0100BF01H   LINE      ---      ---       #577
      0100BF04H   LINE      ---      ---       #578
      0100BF04H   LINE      ---      ---       #579
      0100BF0DH   LINE      ---      ---       #580
      0100BF0DH   LINE      ---      ---       #581
      0100BF14H   LINE      ---      ---       #582
      0100BF14H   LINE      ---      ---       #583
      0100BF1EH   LINE      ---      ---       #584
      0100BF1EH   LINE      ---      ---       #586
      0100BF1EH   LINE      ---      ---       #588
      0100BF1EH   LINE      ---      ---       #589
      020001AAH   SYMBOL    XDATA    WORD      x
      020001ACH   SYMBOL    XDATA    WORD      y
      020001AEH   SYMBOL    XDATA    BYTE      size
LX51 LINKER/LOCATER V4.66.1.0                                                         04/04/2019  16:35:10  PAGE 90


      020001AFH   SYMBOL    XDATA    BYTE      num
      020001B0H   SYMBOL    XDATA    BYTE      mode
      020001B1H   SYMBOL    XDATA    BYTE      color
      ---         BLOCKEND  ---      ---       LVL=0

      010066D1H   BLOCK     CODE     ---       LVL=0
      010066DBH   LINE      ---      ---       #599
      010066E3H   LINE      ---      ---       #600
      02000195H   SYMBOL    XDATA    WORD      x
      00000004H   SYMBOL    DATA     WORD      y
      00000002H   SYMBOL    DATA     WORD      height_x
      0200019BH   SYMBOL    XDATA    WORD      width_y
      0200019DH   SYMBOL    XDATA    ---       p
      020001A0H   SYMBOL    XDATA    BYTE      mode
      020001A1H   SYMBOL    XDATA    BYTE      color
      010066E3H   BLOCK     CODE     NEAR LAB  LVL=1
      010066E3H   LINE      ---      ---       #607
      010066E8H   LINE      ---      ---       #609
      010066EEH   LINE      ---      ---       #610
      010066FDH   LINE      ---      ---       #611
      0100670CH   LINE      ---      ---       #616
      01006711H   LINE      ---      ---       #618
      01006719H   LINE      ---      ---       #619
      01006728H   LINE      ---      ---       #620
      01006728H   LINE      ---      ---       #621
      01006746H   LINE      ---      ---       #623
      01006775H   LINE      ---      ---       #625
      0100677EH   LINE      ---      ---       #626
      01006788H   LINE      ---      ---       #627
      0100678AH   LINE      ---      ---       #646
      020001A2H   SYMBOL    XDATA    BYTE      size
      020001A3H   SYMBOL    XDATA    BYTE      y0
      020001A4H   SYMBOL    XDATA    WORD      Y1
      020001A6H   SYMBOL    XDATA    WORD      X1
      020001A8H   SYMBOL    XDATA    WORD      WIDTH_Y
      ---         BLOCKEND  CODE     ---       LVL=1
      ---         BLOCKEND  CODE     ---       LVL=0

      0100C293H   BLOCK     CODE     ---       LVL=0
      0100C293H   LINE      ---      ---       #650
      0100C29BH   LINE      ---      ---       #651
      02000155H   SYMBOL    XDATA    BYTE      m
      02000156H   SYMBOL    XDATA    BYTE      n
      0100C29BH   BLOCK     CODE     NEAR LAB  LVL=1
      0100C29BH   LINE      ---      ---       #652
      0100C2A3H   LINE      ---      ---       #653
      0100C2B0H   LINE      ---      ---       #654
      0100C2B0H   LINE      ---      ---       #655
      0100C2C3H   LINE      ---      ---       #656
      0100C2C5H   LINE      ---      ---       #657
      02000157H   SYMBOL    XDATA    DWORD     result
      ---         BLOCKEND  CODE     ---       LVL=1
      ---         BLOCKEND  CODE     ---       LVL=0

      01008B50H   BLOCK     CODE     ---       LVL=0
      01008B56H   LINE      ---      ---       #671
      01008B64H   LINE      ---      ---       #672
      02000146H   SYMBOL    XDATA    WORD      x
      02000148H   SYMBOL    XDATA    WORD      y
      0200014AH   SYMBOL    XDATA    BYTE      size
      0200014BH   SYMBOL    XDATA    BYTE      len
      0200014CH   SYMBOL    XDATA    DWORD     num
      02000150H   SYMBOL    XDATA    BYTE      mode
      02000151H   SYMBOL    XDATA    BYTE      color
      01008B64H   BLOCK     CODE     NEAR LAB  LVL=1
LX51 LINKER/LOCATER V4.66.1.0                                                         04/04/2019  16:35:10  PAGE 91


      01008B64H   LINE      ---      ---       #674
      01008B69H   LINE      ---      ---       #675
      01008B79H   LINE      ---      ---       #676
      01008B79H   LINE      ---      ---       #677
      01008B9AH   LINE      ---      ---       #678
      01008BA9H   LINE      ---      ---       #679
      01008BA9H   LINE      ---      ---       #680
      01008BADH   LINE      ---      ---       #681
      01008BADH   LINE      ---      ---       #682
      01008BB8H   LINE      ---      ---       #683
      01008BB8H   LINE      ---      ---       #684
      01008BC9H   LINE      ---      ---       #685
      01008BCBH   LINE      ---      ---       #687
      01008BCBH   LINE      ---      ---       #688
      01008BD6H   LINE      ---      ---       #689
      01008BD6H   LINE      ---      ---       #690
      01008BD8H   LINE      ---      ---       #691
      01008BD8H   LINE      ---      ---       #693
      01008BD8H   LINE      ---      ---       #694
      01008BDEH   LINE      ---      ---       #695
      01008BDEH   LINE      ---      ---       #696
      01008BDEH   LINE      ---      ---       #697
      01008C04H   LINE      ---      ---       #698
      01008C0CH   LINE      ---      ---       #699
      02000152H   SYMBOL    XDATA    BYTE      t
      02000153H   SYMBOL    XDATA    BYTE      temp
      02000154H   SYMBOL    XDATA    BYTE      enshow
      ---         BLOCKEND  CODE     ---       LVL=1
      ---         BLOCKEND  CODE     ---       LVL=0

      01008C48H   BLOCK     CODE     ---       LVL=0
      01008C50H   LINE      ---      ---       #704
      01008C56H   LINE      ---      ---       #705
      02000194H   SYMBOL    XDATA    WORD      x0
      02000196H   SYMBOL    XDATA    WORD      y0
      00000003H   SYMBOL    DATA     BYTE      r
      02000199H   SYMBOL    XDATA    BYTE      color
      01008C56H   BLOCK     CODE     NEAR LAB  LVL=1
      01008C56H   LINE      ---      ---       #709
      01008C61H   LINE      ---      ---       #710
      01008C75H   LINE      ---      ---       #711
      01008C81H   LINE      ---      ---       #712
      01008C81H   LINE      ---      ---       #713
      01008CEAH   LINE      ---      ---       #721
      01008CF0H   LINE      ---      ---       #723
      01008CF9H   LINE      ---      ---       #724
      01008CF9H   LINE      ---      ---       #725
      01008D0FH   LINE      ---      ---       #726
      01008D11H   LINE      ---      ---       #728
      01008D11H   LINE      ---      ---       #729
      01008D37H   LINE      ---      ---       #730
      01008D41H   LINE      ---      ---       #731
      01008D41H   LINE      ---      ---       #732
      01008D43H   LINE      ---      ---       #733
      0200019AH   SYMBOL    XDATA    WORD      a
      0200019CH   SYMBOL    XDATA    WORD      b
      0200019EH   SYMBOL    XDATA    WORD      di
      ---         BLOCKEND  CODE     ---       LVL=1
      ---         BLOCKEND  CODE     ---       LVL=0

      0100A581H   BLOCK     CODE     ---       LVL=0
      0100A581H   LINE      ---      ---       #735
      0100A581H   LINE      ---      ---       #736
      0100A581H   LINE      ---      ---       #737
      0100A584H   LINE      ---      ---       #738
LX51 LINKER/LOCATER V4.66.1.0                                                         04/04/2019  16:35:10  PAGE 92


      0100A58AH   LINE      ---      ---       #739
      0100A58AH   LINE      ---      ---       #740
      0100A593H   LINE      ---      ---       #741
      0100A59AH   LINE      ---      ---       #742
      0100A59AH   LINE      ---      ---       #743
      0100A5A4H   LINE      ---      ---       #744
      0100A5A4H   LINE      ---      ---       #745
      0100A5A4H   LINE      ---      ---       #747
      0100A5A4H   LINE      ---      ---       #748
      ---         BLOCKEND  ---      ---       LVL=0

      01007455H   BLOCK     CODE     ---       LVL=0
      01007455H   LINE      ---      ---       #755
      01007455H   LINE      ---      ---       #756
      01007455H   LINE      ---      ---       #757
      01007457H   LINE      ---      ---       #759
      0100745DH   LINE      ---      ---       #761
      01007461H   LINE      ---      ---       #762
      0100746CH   LINE      ---      ---       #765
      0100746FH   LINE      ---      ---       #766
      01007472H   LINE      ---      ---       #767
      01007481H   LINE      ---      ---       #768
      01007487H   LINE      ---      ---       #769
      01007492H   LINE      ---      ---       #771
      01007499H   LINE      ---      ---       #773
      0100749FH   LINE      ---      ---       #776
      010074ACH   LINE      ---      ---       #777
      010074B2H   LINE      ---      ---       #778
      010074B2H   LINE      ---      ---       #779
      010074C3H   LINE      ---      ---       #781
      010074C5H   LINE      ---      ---       #782
      010074CCH   LINE      ---      ---       #783
      010074CCH   LINE      ---      ---       #784
      010074D9H   LINE      ---      ---       #786
      010074DBH   LINE      ---      ---       #787
      010074E2H   LINE      ---      ---       #788
      010074E2H   LINE      ---      ---       #789
      010074EFH   LINE      ---      ---       #791
      010074F1H   LINE      ---      ---       #792
      010074F8H   LINE      ---      ---       #793
      010074F8H   LINE      ---      ---       #794
      0100750AH   LINE      ---      ---       #796
      0100750AH   LINE      ---      ---       #798
      0100750AH   LINE      ---      ---       #800
      0100750AH   LINE      ---      ---       #802
      01007517H   LINE      ---      ---       #803
      01007521H   LINE      ---      ---       #804
      0100752BH   LINE      ---      ---       #807
      01007561H   LINE      ---      ---       #813
      0100756FH   LINE      ---      ---       #814
      0100757CH   LINE      ---      ---       #816
      ---         BLOCKEND  ---      ---       LVL=0

      0100678BH   BLOCK     CODE     ---       LVL=0
      0100678BH   LINE      ---      ---       #829
      0100678BH   LINE      ---      ---       #830
      0100678BH   LINE      ---      ---       #831
      ---         BLOCKEND  ---      ---       LVL=0

      ---         MODULE    ---      ---       W25X
      01007F94H   PUBLIC    CODE     ---       _SPI_Erase_Sector
      0100C2DFH   PUBLIC    CODE     ---       SPI_Get_Byte
      01007F21H   PUBLIC    CODE     ---       _SPI_Send_Byte
      0100C2D5H   PUBLIC    CODE     ---       SPI_init
      02000115H   PUBLIC    XDATA    BYTE      ?_SPI_Write_nBytes?BYTE
LX51 LINKER/LOCATER V4.66.1.0                                                         04/04/2019  16:35:10  PAGE 93


      01007EDAH   PUBLIC    CODE     ---       _SPI_Write_nBytes
      02000117H   PUBLIC    XDATA    BYTE      ?_SPI_Read_nBytes?BYTE
      01007F3FH   PUBLIC    CODE     ---       _SPI_Read_nBytes
      0100C2CBH   PUBLIC    CODE     ---       SPI_Write_Disable
      01007FBDH   PUBLIC    CODE     ---       SPI_Write_Enable
      00000090H.7 SFRSYM    DATA     BIT       P17
      000000C0H.1 SFRSYM    DATA     BIT       P41
      000000C0H.2 SFRSYM    DATA     BIT       P42
      000000C0H.4 SFRSYM    DATA     BIT       P44
      000000C0H.5 SFRSYM    DATA     BIT       P45

      01007FBDH   BLOCK     CODE     ---       LVL=0
      01007FBDH   LINE      ---      ---       #41
      01007FBDH   LINE      ---      ---       #42
      01007FBFH   LINE      ---      ---       #43
      01007FC3H   LINE      ---      ---       #44
      01007FC5H   LINE      ---      ---       #45
      ---         BLOCKEND  ---      ---       LVL=0

      0100C2CBH   BLOCK     CODE     ---       LVL=0
      0100C2CBH   LINE      ---      ---       #46
      0100C2CBH   LINE      ---      ---       #47
      0100C2CBH   LINE      ---      ---       #48
      0100C2CDH   LINE      ---      ---       #49
      0100C2D2H   LINE      ---      ---       #50
      0100C2D4H   LINE      ---      ---       #51
      ---         BLOCKEND  ---      ---       LVL=0

      01007F3FH   BLOCK     CODE     ---       LVL=0
      01007F3FH   LINE      ---      ---       #57
      01007F45H   LINE      ---      ---       #58
      02000117H   SYMBOL    XDATA    DWORD     Dst_Addr
      0200011BH   SYMBOL    XDATA    BYTE      nBytes_128
      0200011CH   SYMBOL    XDATA    ---       Read_Adr
      01007F45H   BLOCK     CODE     NEAR LAB  LVL=1
      01007F45H   LINE      ---      ---       #59
      01007F4AH   LINE      ---      ---       #60
      01007F4CH   LINE      ---      ---       #61
      01007F4EH   LINE      ---      ---       #62
      01007F52H   LINE      ---      ---       #63
      01007F57H   LINE      ---      ---       #64
      01007F5EH   LINE      ---      ---       #65
      01007F64H   LINE      ---      ---       #67
      01007F71H   LINE      ---      ---       #68
      01007F71H   LINE      ---      ---       #69
      01007F87H   LINE      ---      ---       #70
      01007F8FH   LINE      ---      ---       #72
      01007F91H   LINE      ---      ---       #73
      01007F93H   LINE      ---      ---       #74
      0200011FH   SYMBOL    XDATA    BYTE      i
      ---         BLOCKEND  CODE     ---       LVL=1
      ---         BLOCKEND  CODE     ---       LVL=0

      01007EDAH   BLOCK     CODE     ---       LVL=0
      01007EDAH   LINE      ---      ---       #80
      02000115H   SYMBOL    XDATA    DWORD     Dst_Addr
      02000119H   SYMBOL    XDATA    BYTE      nBytes_128
      0200011AH   SYMBOL    XDATA    ---       Data_Adr
      01007EDDH   BLOCK     CODE     NEAR LAB  LVL=1
      01007EDFH   LINE      ---      ---       #86
      01007EE3H   LINE      ---      ---       #87
      01007EE8H   LINE      ---      ---       #88
      01007EEFH   LINE      ---      ---       #89
      01007EF8H   LINE      ---      ---       #90
      01007F02H   LINE      ---      ---       #91
LX51 LINKER/LOCATER V4.66.1.0                                                         04/04/2019  16:35:10  PAGE 94


      01007F02H   LINE      ---      ---       #93
      01007F0AH   LINE      ---      ---       #94
      01007F0CH   LINE      ---      ---       #95
      01007F14H   LINE      ---      ---       #96
      01007F16H   LINE      ---      ---       #97
      0200011DH   SYMBOL    XDATA    BYTE      i
      0200011EH   SYMBOL    XDATA    BYTE      byte
      ---         BLOCKEND  CODE     ---       LVL=1
      ---         BLOCKEND  CODE     ---       LVL=0

      0100C2D5H   BLOCK     CODE     ---       LVL=0
      0100C2D5H   LINE      ---      ---       #100
      0100C2D5H   LINE      ---      ---       #101
      0100C2D5H   LINE      ---      ---       #102
      0100C2D7H   LINE      ---      ---       #103
      0100C2D9H   LINE      ---      ---       #104
      0100C2DDH   LINE      ---      ---       #105
      ---         BLOCKEND  ---      ---       LVL=0

      01007F17H   BLOCK     CODE     ---       LVL=0
      01007F21H   LINE      ---      ---       #109
      01007F21H   LINE      ---      ---       #110
      00000007H   SYMBOL    DATA     BYTE      out
      01007F21H   BLOCK     CODE     NEAR LAB  LVL=1
      01007F21H   LINE      ---      ---       #111
      01007F23H   LINE      ---      ---       #112
      01007F23H   LINE      ---      ---       #113
      01007F23H   LINE      ---      ---       #114
      01007F23H   LINE      ---      ---       #115
      01007F27H   LINE      ---      ---       #116
      01007F27H   LINE      ---      ---       #117
      01007F29H   LINE      ---      ---       #118
      01007F2BH   LINE      ---      ---       #120
      01007F2BH   LINE      ---      ---       #121
      01007F2DH   LINE      ---      ---       #122
      01007F2DH   LINE      ---      ---       #125
      01007F2FH   LINE      ---      ---       #126
      01007F33H   LINE      ---      ---       #127
      01007F37H   LINE      ---      ---       #128
      01007F39H   LINE      ---      ---       #129
      01007F3EH   LINE      ---      ---       #130
      00000006H   SYMBOL    DATA     BYTE      i
      00000007H   SYMBOL    DATA     BYTE      OUT
      ---         BLOCKEND  CODE     ---       LVL=1
      ---         BLOCKEND  CODE     ---       LVL=0

      0100C2DFH   BLOCK     CODE     ---       LVL=0
      0100C2DFH   LINE      ---      ---       #133
      0100C2DFH   LINE      ---      ---       #134
      0100C2DFH   BLOCK     CODE     NEAR LAB  LVL=1
      0100C2DFH   LINE      ---      ---       #135
      0100C2E2H   LINE      ---      ---       #137
      0100C2E2H   LINE      ---      ---       #138
      0100C2E2H   LINE      ---      ---       #139
      0100C2E6H   LINE      ---      ---       #140
      0100C2EAH   LINE      ---      ---       #141
      0100C2ECH   LINE      ---      ---       #142
      0100C2EDH   LINE      ---      ---       #143
      0100C2F0H   LINE      ---      ---       #144
      0100C2F0H   LINE      ---      ---       #145
      0100C2F3H   LINE      ---      ---       #146
      0100C2F3H   LINE      ---      ---       #148
      0100C2F4H   LINE      ---      ---       #149
      0100C2F5H   LINE      ---      ---       #150
      0100C2F6H   LINE      ---      ---       #151
LX51 LINKER/LOCATER V4.66.1.0                                                         04/04/2019  16:35:10  PAGE 95


      0100C2F7H   LINE      ---      ---       #152
      0100C2F9H   LINE      ---      ---       #153
      0100C2FEH   LINE      ---      ---       #154
      0100C301H   LINE      ---      ---       #155
      00000007H   SYMBOL    DATA     BYTE      i
      00000006H   SYMBOL    DATA     BYTE      in
      00000020H.5 SYMBOL    BIT      BIT       temp
      ---         BLOCKEND  CODE     ---       LVL=1
      ---         BLOCKEND  CODE     ---       LVL=0

      01007F94H   BLOCK     CODE     ---       LVL=0
      01007F94H   LINE      ---      ---       #158
      01007F99H   LINE      ---      ---       #163
      01007F9DH   LINE      ---      ---       #164
      01007FA2H   LINE      ---      ---       #165
      01007FA9H   LINE      ---      ---       #166
      01007FB1H   LINE      ---      ---       #167
      01007FB3H   LINE      ---      ---       #168
      02000114H   SYMBOL    XDATA    DWORD     Dst_Addr
      ---         BLOCKEND  ---      ---       LVL=0

      ---         MODULE    ---      ---       SHT21
      0100ABB3H   PUBLIC    CODE     ---       SHT21_ReadData
      01006F59H   PUBLIC    CODE     ---       SHT21_WriteRH
      01006F4BH   PUBLIC    CODE     ---       SHT21_WriteTemp
      00000092H   SFRSYM    DATA     BYTE      P1M0
      00000091H   SFRSYM    DATA     BYTE      P1M1
      00000090H.1 SFRSYM    DATA     BIT       P11
      00000090H.2 SFRSYM    DATA     BIT       P12
      01006F3BH   SYMBOL    CODE     ---       SHT21_Start
      01006F24H   SYMBOL    CODE     ---       SHT21_Stop
      0100C302H   SYMBOL    CODE     ---       _SHT2x_CheckCrc
      01006B65H   SYMBOL    CODE     ---       _SHT21_Write8Bit
      01006B03H   SYMBOL    CODE     ---       _SHT21_Read8Bit

      01006F3BH   BLOCK     CODE     ---       LVL=0
      01006F3BH   LINE      ---      ---       #43
      01006F3BH   LINE      ---      ---       #44
      01006F3BH   LINE      ---      ---       #45
      01006F41H   LINE      ---      ---       #46
      01006F43H   LINE      ---      ---       #47
      01006F45H   LINE      ---      ---       #48
      01006F47H   LINE      ---      ---       #49
      01006F49H   LINE      ---      ---       #50
      ---         BLOCKEND  ---      ---       LVL=0

      01006F24H   BLOCK     CODE     ---       LVL=0
      01006F24H   LINE      ---      ---       #54
      01006F24H   LINE      ---      ---       #55
      01006F24H   LINE      ---      ---       #56
      01006F26H   LINE      ---      ---       #57
      01006F28H   LINE      ---      ---       #58
      01006F2AH   LINE      ---      ---       #60
      01006F2CH   LINE      ---      ---       #61
      ---         BLOCKEND  ---      ---       LVL=0

      01006B65H   BLOCK     CODE     ---       LVL=0
      01006B65H   LINE      ---      ---       #67
      01006B6AH   LINE      ---      ---       #68
      02000115H   SYMBOL    XDATA    BYTE      i_input
      01006B6AH   BLOCK     CODE     NEAR LAB  LVL=1
      01006B6AH   LINE      ---      ---       #71
      01006B7DH   LINE      ---      ---       #72
      01006B7DH   LINE      ---      ---       #73
      01006B7FH   LINE      ---      ---       #74
LX51 LINKER/LOCATER V4.66.1.0                                                         04/04/2019  16:35:10  PAGE 96


      01006B88H   LINE      ---      ---       #75
      01006B88H   LINE      ---      ---       #76
      01006B8AH   LINE      ---      ---       #77
      01006B8CH   LINE      ---      ---       #79
      01006B8CH   LINE      ---      ---       #80
      01006B8EH   LINE      ---      ---       #81
      01006B8EH   LINE      ---      ---       #83
      01006B90H   LINE      ---      ---       #86
      01006B9DH   LINE      ---      ---       #87
      01006B9FH   LINE      ---      ---       #88
      01006BA1H   LINE      ---      ---       #89
      01006BA3H   LINE      ---      ---       #91
      01006BA5H   LINE      ---      ---       #94
      01006BACH   LINE      ---      ---       #95
      01006BAFH   LINE      ---      ---       #96
      01006BAFH   LINE      ---      ---       #97
      01006BC4H   LINE      ---      ---       #98
      01006BC4H   LINE      ---      ---       #99
      01006BC6H   LINE      ---      ---       #100
      01006BC8H   LINE      ---      ---       #101
      02000116H   SYMBOL    XDATA    WORD      i
      ---         BLOCKEND  CODE     ---       LVL=1
      ---         BLOCKEND  CODE     ---       LVL=0

      01006B03H   BLOCK     CODE     ---       LVL=0
      01006B03H   LINE      ---      ---       #104
      01006B08H   LINE      ---      ---       #105
      0200011EH   SYMBOL    XDATA    BYTE      ask
      01006B08H   BLOCK     CODE     NEAR LAB  LVL=1
      01006B08H   LINE      ---      ---       #106
      01006B0DH   LINE      ---      ---       #108
      01006B0FH   LINE      ---      ---       #110
      01006B1EH   LINE      ---      ---       #111
      01006B1EH   LINE      ---      ---       #112
      01006B20H   LINE      ---      ---       #114
      01006B23H   LINE      ---      ---       #115
      01006B23H   LINE      ---      ---       #116
      01006B31H   LINE      ---      ---       #117
      01006B31H   LINE      ---      ---       #118
      01006B33H   LINE      ---      ---       #119
      01006B35H   LINE      ---      ---       #120
      01006B3EH   LINE      ---      ---       #121
      01006B44H   LINE      ---      ---       #122
      01006B44H   LINE      ---      ---       #123
      01006B46H   LINE      ---      ---       #124
      01006B48H   LINE      ---      ---       #126
      01006B48H   LINE      ---      ---       #127
      01006B4AH   LINE      ---      ---       #128
      01006B4AH   LINE      ---      ---       #129
      01006B4CH   LINE      ---      ---       #132
      01006B4EH   LINE      ---      ---       #133
      01006B50H   LINE      ---      ---       #134
      01006B52H   LINE      ---      ---       #135
      01006B54H   LINE      ---      ---       #136
      01006B56H   LINE      ---      ---       #137
      01006B5BH   LINE      ---      ---       #138
      0200011FH   SYMBOL    XDATA    BYTE      mask
      02000120H   SYMBOL    XDATA    BYTE      rxByte
      ---         BLOCKEND  CODE     ---       LVL=1
      ---         BLOCKEND  CODE     ---       LVL=0

      01006F4BH   BLOCK     CODE     ---       LVL=0
      01006F4BH   LINE      ---      ---       #143
      01006F4BH   LINE      ---      ---       #144
      01006F4BH   BLOCK     CODE     NEAR LAB  LVL=1
LX51 LINKER/LOCATER V4.66.1.0                                                         04/04/2019  16:35:10  PAGE 97


      01006F4BH   LINE      ---      ---       #146
      01006F4DH   LINE      ---      ---       #147
      01006F51H   LINE      ---      ---       #148
      01006F58H   LINE      ---      ---       #153
      01006F58H   LINE      ---      ---       #154
      00000007H   SYMBOL    DATA     BYTE      Read_SHT21_Err
      ---         BLOCKEND  CODE     ---       LVL=1
      ---         BLOCKEND  CODE     ---       LVL=0

      01006F59H   BLOCK     CODE     ---       LVL=0
      01006F59H   LINE      ---      ---       #156
      01006F59H   LINE      ---      ---       #157
      01006F59H   BLOCK     CODE     NEAR LAB  LVL=1
      01006F59H   LINE      ---      ---       #159
      01006F5BH   LINE      ---      ---       #160
      01006F5FH   LINE      ---      ---       #161
      01006F66H   LINE      ---      ---       #167
      01006F66H   LINE      ---      ---       #168
      00000007H   SYMBOL    DATA     BYTE      Read_SHT21_Err
      ---         BLOCKEND  CODE     ---       LVL=1
      ---         BLOCKEND  CODE     ---       LVL=0

      0100ABB3H   BLOCK     CODE     ---       LVL=0
      0100ABB3H   LINE      ---      ---       #203
      0100ABB3H   LINE      ---      ---       #204
      0100ABB3H   BLOCK     CODE     NEAR LAB  LVL=1
      0100ABB3H   LINE      ---      ---       #211
      0100ABBDH   LINE      ---      ---       #213
      0100ABC7H   LINE      ---      ---       #215
      0100ABD1H   LINE      ---      ---       #217
      0100ABD4H   LINE      ---      ---       #219
      0100ABDCH   LINE      ---      ---       #220
      0100ABE4H   LINE      ---      ---       #221
      0100ABF7H   LINE      ---      ---       #222
      0100ABFBH   LINE      ---      ---       #223
      0100ABFBH   LINE      ---      ---       #224
      0100ABFDH   LINE      ---      ---       #225
      0100ABFDH   LINE      ---      ---       #227
      0100AC08H   LINE      ---      ---       #228
      0100AC1FH   LINE      ---      ---       #231
      0100AC1FH   LINE      ---      ---       #235
      0100AC1FH   LINE      ---      ---       #238
      0100AC30H   LINE      ---      ---       #239
      0100AC30H   LINE      ---      ---       #240
      0100AC35H   LINE      ---      ---       #241
      0100AC35H   LINE      ---      ---       #243
      0100AC3CH   LINE      ---      ---       #244
      0100AC3CH   LINE      ---      ---       #245
      0100AC4EH   LINE      ---      ---       #248
      0100AC50H   LINE      ---      ---       #250
      0100AC50H   LINE      ---      ---       #252
      0100AC50H   LINE      ---      ---       #253
      02000115H   SYMBOL    XDATA    BYTE      TempH
      02000116H   SYMBOL    XDATA    BYTE      TempL
      02000117H   SYMBOL    XDATA    DWORD     TempLong
      0200011BH   SYMBOL    XDATA    BYTE      checksum
      0200011CH   SYMBOL    XDATA    ---       Cdata
      00000007H   SYMBOL    DATA     BYTE      CRC8_error
      ---         BLOCKEND  CODE     ---       LVL=1
      ---         BLOCKEND  CODE     ---       LVL=0

      0100C302H   BLOCK     CODE     ---       LVL=0
      0100C302H   LINE      ---      ---       #262
      0200011EH   SYMBOL    XDATA    ---       Cdata
      02000121H   SYMBOL    XDATA    BYTE      nbrOfBytes
LX51 LINKER/LOCATER V4.66.1.0                                                         04/04/2019  16:35:10  PAGE 98


      02000122H   SYMBOL    XDATA    BYTE      checksum
      0100C302H   BLOCK     CODE     NEAR LAB  LVL=1
      0100C305H   LINE      ---      ---       #269
      0100C310H   LINE      ---      ---       #270
      0100C310H   LINE      ---      ---       #271
      0100C318H   LINE      ---      ---       #272
      0100C31AH   LINE      ---      ---       #273
      0100C31AH   LINE      ---      ---       #276
      0100C31EH   LINE      ---      ---       #277
      0100C31EH   LINE      ---      ---       #278
      0100C323H   LINE      ---      ---       #279
      0100C325H   LINE      ---      ---       #281
      0100C325H   LINE      ---      ---       #282
      0100C329H   LINE      ---      ---       #283
      0100C329H   LINE      ---      ---       #284
      0100C32BH   LINE      ---      ---       #285
      0100C32EH   LINE      ---      ---       #286
      0100C337H   LINE      ---      ---       #287
      0100C337H   LINE      ---      ---       #288
      0100C339H   LINE      ---      ---       #289
      0100C339H   LINE      ---      ---       #291
      0100C339H   LINE      ---      ---       #292
      0100C339H   LINE      ---      ---       #293
      0100C339H   LINE      ---      ---       #294
      00000007H   SYMBOL    DATA     BYTE      crc
      00000006H   SYMBOL    DATA     BYTE      byteCtr
      00000005H   SYMBOL    DATA     BYTE      bit8
      ---         BLOCKEND  CODE     ---       LVL=1
      ---         BLOCKEND  CODE     ---       LVL=0

      ---         MODULE    ---      ---       RX8010
      01009FEBH   PUBLIC    CODE     ---       _RX8010_GetTime
      01009D55H   PUBLIC    CODE     ---       _RX8010_SetTime
      01009DF1H   PUBLIC    CODE     ---       RX8010_Initialize
      01009F1AH   PUBLIC    CODE     ---       _readEEone
      000000C1H   SFRSYM    DATA     BYTE      WDT_CONTR
      000000A8H.7 SFRSYM    DATA     BIT       EA
      000000A0H.5 SFRSYM    DATA     BIT       P25
      000000A0H.6 SFRSYM    DATA     BIT       P26
      00000096H   SFRSYM    DATA     BYTE      P2M0
      00000095H   SFRSYM    DATA     BYTE      P2M1
      01009FA0H   SYMBOL    CODE     ---       IC_start
      01006F73H   SYMBOL    CODE     ---       IC_stop
      01009EBAH   SYMBOL    CODE     ---       _IC_WriteByte
      0100C3B6H   SYMBOL    CODE     ---       IC_ReadByte
      01009DB2H   SYMBOL    CODE     ---       _writeEEone

      01009FA0H   BLOCK     CODE     ---       LVL=0
      01009FA0H   LINE      ---      ---       #33
      01009FA0H   LINE      ---      ---       #34
      01009FA0H   LINE      ---      ---       #35
      01009FA6H   LINE      ---      ---       #36
      01009FA8H   LINE      ---      ---       #37
      01009FAAH   LINE      ---      ---       #38
      01009FACH   LINE      ---      ---       #39
      01009FAFH   LINE      ---      ---       #40
      01009FB1H   LINE      ---      ---       #41
      01009FB4H   LINE      ---      ---       #42
      01009FB6H   LINE      ---      ---       #43
      ---         BLOCKEND  ---      ---       LVL=0

      01006F73H   BLOCK     CODE     ---       LVL=0
      01006F73H   LINE      ---      ---       #49
      01006F73H   LINE      ---      ---       #50
      01006F73H   LINE      ---      ---       #51
LX51 LINKER/LOCATER V4.66.1.0                                                         04/04/2019  16:35:10  PAGE 99


      01006F75H   LINE      ---      ---       #52
      01006F78H   LINE      ---      ---       #53
      01006F7AH   LINE      ---      ---       #54
      01006F7CH   LINE      ---      ---       #55
      01006F7EH   LINE      ---      ---       #56
      01006F80H   LINE      ---      ---       #57
      01006F82H   LINE      ---      ---       #58
      ---         BLOCKEND  ---      ---       LVL=0

      01009EBAH   BLOCK     CODE     ---       LVL=0
      01009EBAH   LINE      ---      ---       #67
      01009EBFH   LINE      ---      ---       #68
      020001A5H   SYMBOL    XDATA    BYTE      wdata
      01009EBFH   BLOCK     CODE     NEAR LAB  LVL=1
      01009EBFH   LINE      ---      ---       #70
      01009EC1H   LINE      ---      ---       #71
      01009EC4H   LINE      ---      ---       #72
      01009EC4H   LINE      ---      ---       #73
      01009EC6H   LINE      ---      ---       #74
      01009EC9H   LINE      ---      ---       #75
      01009ED0H   LINE      ---      ---       #76
      01009ED0H   LINE      ---      ---       #77
      01009ED2H   LINE      ---      ---       #78
      01009ED4H   LINE      ---      ---       #80
      01009ED4H   LINE      ---      ---       #81
      01009ED6H   LINE      ---      ---       #82
      01009ED6H   LINE      ---      ---       #83
      01009ED9H   LINE      ---      ---       #84
      01009EDBH   LINE      ---      ---       #85
      01009EDDH   LINE      ---      ---       #86
      01009EE8H   LINE      ---      ---       #88
      01009EEAH   LINE      ---      ---       #89
      01009EECH   LINE      ---      ---       #90
      01009EF2H   LINE      ---      ---       #91
      01009EF4H   LINE      ---      ---       #92
      01009EF6H   LINE      ---      ---       #93
      01009EFBH   LINE      ---      ---       #94
      01009EFEH   LINE      ---      ---       #95
      01009EFEH   LINE      ---      ---       #96
      01009F0EH   LINE      ---      ---       #97
      01009F0EH   LINE      ---      ---       #98
      01009F10H   LINE      ---      ---       #99
      01009F12H   LINE      ---      ---       #100
      020001A6H   SYMBOL    XDATA    BYTE      i
      ---         BLOCKEND  CODE     ---       LVL=1
      ---         BLOCKEND  CODE     ---       LVL=0

      0100C3B6H   BLOCK     CODE     ---       LVL=0
      0100C3B6H   LINE      ---      ---       #107
      0100C3B6H   LINE      ---      ---       #108
      0100C3B6H   BLOCK     CODE     NEAR LAB  LVL=1
      0100C3B6H   LINE      ---      ---       #110
      0100C3BBH   LINE      ---      ---       #111
      0100C3BDH   LINE      ---      ---       #112
      0100C3C0H   LINE      ---      ---       #113
      0100C3C2H   LINE      ---      ---       #114
      0100C3C8H   LINE      ---      ---       #115
      0100C3CCH   LINE      ---      ---       #116
      0100C3CCH   LINE      ---      ---       #117
      0100C3CEH   LINE      ---      ---       #118
      0100C3D1H   LINE      ---      ---       #119
      0100C3D9H   LINE      ---      ---       #120
      0100C3DFH   LINE      ---      ---       #122
      0100C3E1H   LINE      ---      ---       #123
      0100C3E4H   LINE      ---      ---       #124
LX51 LINKER/LOCATER V4.66.1.0                                                         04/04/2019  16:35:10  PAGE 100


      0100C3E6H   LINE      ---      ---       #125
      0100C3E9H   LINE      ---      ---       #126
      0100C3F1H   LINE      ---      ---       #127
      0100C3F4H   LINE      ---      ---       #128
      0100C3F6H   LINE      ---      ---       #129
      0100C3F9H   LINE      ---      ---       #130
      0100C3FBH   LINE      ---      ---       #131
      0100C400H   LINE      ---      ---       #132
      020001A5H   SYMBOL    XDATA    BYTE      i
      020001A6H   SYMBOL    XDATA    BYTE      IC_data
      ---         BLOCKEND  CODE     ---       LVL=1
      ---         BLOCKEND  CODE     ---       LVL=0

      01009F1AH   BLOCK     CODE     ---       LVL=0
      01009F1AH   LINE      ---      ---       #139
      0200019FH   SYMBOL    XDATA    BYTE      addr
      020001A0H   SYMBOL    XDATA    BYTE      num
      020001A1H   SYMBOL    XDATA    ---       Data
      01009F1DH   BLOCK     CODE     NEAR LAB  LVL=1
      01009F21H   LINE      ---      ---       #144
      01009F21H   LINE      ---      ---       #145
      01009F23H   LINE      ---      ---       #146
      01009F23H   LINE      ---      ---       #147
      01009F2DH   LINE      ---      ---       #148
      01009F2DH   LINE      ---      ---       #149
      01009F2FH   LINE      ---      ---       #150
      01009F2FH   LINE      ---      ---       #151
      01009F31H   LINE      ---      ---       #152
      01009F38H   LINE      ---      ---       #153
      01009F38H   LINE      ---      ---       #154
      01009F3EH   LINE      ---      ---       #155
      01009F3EH   LINE      ---      ---       #156
      01009F51H   LINE      ---      ---       #157
      01009F51H   LINE      ---      ---       #158
      01009F65H   LINE      ---      ---       #160
      01009F67H   LINE      ---      ---       #161
      01009F69H   LINE      ---      ---       #162
      01009F71H   LINE      ---      ---       #163
      01009F89H   LINE      ---      ---       #165
      01009F8BH   LINE      ---      ---       #166
      01009F8DH   LINE      ---      ---       #167
      01009F8FH   LINE      ---      ---       #168
      01009F92H   LINE      ---      ---       #169
      01009F94H   LINE      ---      ---       #170
      020001A4H   SYMBOL    XDATA    BYTE      i
      ---         BLOCKEND  CODE     ---       LVL=1
      ---         BLOCKEND  CODE     ---       LVL=0

      01009DB2H   BLOCK     CODE     ---       LVL=0
      01009DB2H   LINE      ---      ---       #179
      02000118H   SYMBOL    XDATA    BYTE      addr
      02000119H   SYMBOL    XDATA    BYTE      num
      0200011AH   SYMBOL    XDATA    ---       Data
      01009DB5H   BLOCK     CODE     NEAR LAB  LVL=1
      01009DB9H   LINE      ---      ---       #185
      01009DB9H   LINE      ---      ---       #187
      01009DBCH   LINE      ---      ---       #188
      01009DBCH   LINE      ---      ---       #189
      01009DC6H   LINE      ---      ---       #190
      01009DC6H   LINE      ---      ---       #192
      01009DC9H   LINE      ---      ---       #193
      01009DC9H   LINE      ---      ---       #194
      01009DD3H   LINE      ---      ---       #195
      01009DD3H   LINE      ---      ---       #196
      01009DDCH   LINE      ---      ---       #197
LX51 LINKER/LOCATER V4.66.1.0                                                         04/04/2019  16:35:10  PAGE 101


      01009DDCH   LINE      ---      ---       #199
      01009DDFH   LINE      ---      ---       #200
      01009DDFH   LINE      ---      ---       #201
      01009DE7H   LINE      ---      ---       #202
      01009DEAH   LINE      ---      ---       #203
      01009DECH   LINE      ---      ---       #204
      01009DEEH   LINE      ---      ---       #205
      01009DF0H   LINE      ---      ---       #208
      0200011DH   SYMBOL    XDATA    BYTE      i
      ---         BLOCKEND  CODE     ---       LVL=1
      ---         BLOCKEND  CODE     ---       LVL=0

      01009DF1H   BLOCK     CODE     ---       LVL=0
      01009DF1H   LINE      ---      ---       #212
      01009DF1H   LINE      ---      ---       #213
      01009DF1H   BLOCK     CODE     NEAR LAB  LVL=1
      01009DF1H   LINE      ---      ---       #218
      01009DF3H   LINE      ---      ---       #219
      01009DF8H   LINE      ---      ---       #221
      01009DFCH   LINE      ---      ---       #222
      01009E00H   LINE      ---      ---       #223
      01009E00H   LINE      ---      ---       #224
      01009E0BH   LINE      ---      ---       #225
      01009E0BH   LINE      ---      ---       #226
      01009E10H   LINE      ---      ---       #227
      01009E12H   LINE      ---      ---       #228
      01009E12H   LINE      ---      ---       #229
      01009E19H   LINE      ---      ---       #230
      01009E1CH   LINE      ---      ---       #231
      01009E22H   LINE      ---      ---       #232
      01009E2BH   LINE      ---      ---       #234
      01009E31H   LINE      ---      ---       #235
      01009E31H   LINE      ---      ---       #236
      01009E38H   LINE      ---      ---       #237
      01009E38H   LINE      ---      ---       #238
      01009E3EH   LINE      ---      ---       #239
      01009E4CH   LINE      ---      ---       #242
      01009E50H   LINE      ---      ---       #243
      01009E59H   LINE      ---      ---       #245
      01009E5FH   LINE      ---      ---       #246
      01009E62H   LINE      ---      ---       #247
      01009E6EH   LINE      ---      ---       #251
      01009E70H   LINE      ---      ---       #252
      01009E72H   LINE      ---      ---       #253
      01009E76H   LINE      ---      ---       #254
      01009E7AH   LINE      ---      ---       #255
      01009E7CH   LINE      ---      ---       #256
      01009E88H   LINE      ---      ---       #260
      01009EA1H   LINE      ---      ---       #270
      01009EA1H   LINE      ---      ---       #271
      01009EA1H   LINE      ---      ---       #272
      01009EA3H   LINE      ---      ---       #273
      01009EA8H   LINE      ---      ---       #274
      0200010FH   SYMBOL    XDATA    ---       Rdata
      02000116H   SYMBOL    XDATA    BYTE      i
      02000117H   SYMBOL    XDATA    BYTE      Init_State
      ---         BLOCKEND  CODE     ---       LVL=1
      ---         BLOCKEND  CODE     ---       LVL=0

      01009D55H   BLOCK     CODE     ---       LVL=0
      01009D55H   LINE      ---      ---       #278
      0200010EH   SYMBOL    XDATA    ---       p
      01009D55H   BLOCK     CODE     NEAR LAB  LVL=1
      01009D5EH   LINE      ---      ---       #285
      01009D67H   LINE      ---      ---       #289
LX51 LINKER/LOCATER V4.66.1.0                                                         04/04/2019  16:35:10  PAGE 102


      01009D71H   LINE      ---      ---       #290
      01009D77H   LINE      ---      ---       #291
      01009D81H   LINE      ---      ---       #299
      01009D8BH   LINE      ---      ---       #300
      01009D95H   LINE      ---      ---       #301
      01009D9FH   LINE      ---      ---       #302
      01009DABH   LINE      ---      ---       #304
      02000111H   SYMBOL    XDATA    ---       Rdata
      ---         BLOCKEND  CODE     ---       LVL=1
      ---         BLOCKEND  CODE     ---       LVL=0

      01009FEBH   BLOCK     CODE     ---       LVL=0
      01009FEBH   LINE      ---      ---       #310
      01009FF1H   LINE      ---      ---       #311
      02000195H   SYMBOL    XDATA    ---       p
      01009FF1H   BLOCK     CODE     NEAR LAB  LVL=1
      01009FF1H   LINE      ---      ---       #314
      01009FFDH   LINE      ---      ---       #315
      0100A00CH   LINE      ---      ---       #319
      0100A01EH   LINE      ---      ---       #320
      0100A028H   LINE      ---      ---       #321
      0100A032H   LINE      ---      ---       #341
      0100A03CH   LINE      ---      ---       #342
      0100A046H   LINE      ---      ---       #343
      02000198H   SYMBOL    XDATA    ---       Rdata
      ---         BLOCKEND  CODE     ---       LVL=1
      ---         BLOCKEND  CODE     ---       LVL=0

      ---         MODULE    ---      ---       DS18B20
      02000357H   PUBLIC    XDATA    BYTE      Read_18B20_Value2
      02000356H   PUBLIC    XDATA    BYTE      Read_18B20_Value
      0200011EH   PUBLIC    XDATA    BYTE      ?_DS18B20_CheckCrc?BYTE
      0100C347H   PUBLIC    CODE     ---       _DS18B20_CheckCrc
      01006AD5H   PUBLIC    CODE     ---       _DS18B20_WriteByte
      01006A64H   PUBLIC    CODE     ---       DS18B20_ReadByte
      00000090H   SFRSYM    DATA     BIT       P10
      000000B0H.7 SFRSYM    DATA     BIT       P37

      01006A64H   BLOCK     CODE     ---       LVL=0
      01006A64H   LINE      ---      ---       #15
      01006A64H   LINE      ---      ---       #16
      01006A64H   BLOCK     CODE     NEAR LAB  LVL=1
      01006A64H   LINE      ---      ---       #20
      01006A69H   LINE      ---      ---       #21
      01006A6BH   LINE      ---      ---       #23
      01006A6FH   LINE      ---      ---       #24
      01006A6FH   LINE      ---      ---       #25
      01006A76H   LINE      ---      ---       #26
      01006A7BH   LINE      ---      ---       #27
      01006A7DH   LINE      ---      ---       #28
      01006A7FH   LINE      ---      ---       #29
      01006A83H   LINE      ---      ---       #33
      01006A87H   LINE      ---      ---       #34
      01006A8BH   LINE      ---      ---       #35
      01006A8EH   LINE      ---      ---       #36
      01006A8EH   LINE      ---      ---       #37
      01006A95H   LINE      ---      ---       #38
      01006A95H   LINE      ---      ---       #39
      01006A98H   LINE      ---      ---       #40
      01006A98H   LINE      ---      ---       #41
      01006A9FH   LINE      ---      ---       #42
      01006A9FH   LINE      ---      ---       #43
      01006AA5H   LINE      ---      ---       #44
      01006AACH   LINE      ---      ---       #46
      0200011EH   SYMBOL    XDATA    BYTE      i
LX51 LINKER/LOCATER V4.66.1.0                                                         04/04/2019  16:35:10  PAGE 103


      00000020H.6 SYMBOL    BIT      BIT       Wei
      00000020H.7 SYMBOL    BIT      BIT       Wei2
      ---         BLOCKEND  CODE     ---       LVL=1
      ---         BLOCKEND  CODE     ---       LVL=0

      01006AB5H   BLOCK     CODE     ---       LVL=0
      01006AD5H   LINE      ---      ---       #48
      01006ADAH   LINE      ---      ---       #49
      0200011EH   SYMBOL    XDATA    BYTE      dat
      01006ADAH   BLOCK     CODE     NEAR LAB  LVL=1
      01006ADAH   LINE      ---      ---       #52
      01006ADDH   LINE      ---      ---       #53
      01006ADDH   LINE      ---      ---       #54
      01006ADFH   LINE      ---      ---       #55
      01006AE1H   LINE      ---      ---       #56
      01006AE3H   LINE      ---      ---       #57
      01006AEAH   LINE      ---      ---       #58
      01006AEAH   LINE      ---      ---       #59
      01006AECH   LINE      ---      ---       #60
      01006AEEH   LINE      ---      ---       #61
      01006AF0H   LINE      ---      ---       #63
      01006AF0H   LINE      ---      ---       #64
      01006AF2H   LINE      ---      ---       #65
      01006AF4H   LINE      ---      ---       #66
      01006AF4H   LINE      ---      ---       #67
      01006AF8H   LINE      ---      ---       #71
      01006B02H   LINE      ---      ---       #74
      0200011FH   SYMBOL    XDATA    BYTE      i
      ---         BLOCKEND  CODE     ---       LVL=1
      ---         BLOCKEND  CODE     ---       LVL=0

      0100C347H   BLOCK     CODE     ---       LVL=0
      0100C347H   LINE      ---      ---       #76
      0200011EH   SYMBOL    XDATA    ---       Cdata
      02000121H   SYMBOL    XDATA    BYTE      nbrOfBytes
      02000122H   SYMBOL    XDATA    BYTE      checksum
      0100C347H   BLOCK     CODE     NEAR LAB  LVL=1
      0100C34DH   LINE      ---      ---       #82
      0100C34FH   LINE      ---      ---       #85
      0100C35AH   LINE      ---      ---       #86
      0100C35AH   LINE      ---      ---       #87
      0100C371H   LINE      ---      ---       #88
      0100C374H   LINE      ---      ---       #89
      0100C376H   LINE      ---      ---       #90
      0100C376H   LINE      ---      ---       #91
      0100C382H   LINE      ---      ---       #92
      0100C382H   LINE      ---      ---       #93
      0100C386H   LINE      ---      ---       #94
      0100C38AH   LINE      ---      ---       #95
      0100C38DH   LINE      ---      ---       #96
      0100C38FH   LINE      ---      ---       #98
      0100C38FH   LINE      ---      ---       #99
      0100C396H   LINE      ---      ---       #100
      0100C396H   LINE      ---      ---       #101
      0100C39DH   LINE      ---      ---       #102
      0100C3A2H   LINE      ---      ---       #104
      0100C3A5H   LINE      ---      ---       #105
      0100C3B3H   LINE      ---      ---       #106
      0100C3B3H   LINE      ---      ---       #107
      0100C3B5H   LINE      ---      ---       #108
      0100C3B5H   LINE      ---      ---       #110
      0100C3B5H   LINE      ---      ---       #111
      0100C3B5H   LINE      ---      ---       #112
      0100C3B5H   LINE      ---      ---       #113
      02000123H   SYMBOL    XDATA    BYTE      crc
LX51 LINKER/LOCATER V4.66.1.0                                                         04/04/2019  16:35:10  PAGE 104


      00000005H   SYMBOL    DATA     BYTE      byteCtr
      00000007H   SYMBOL    DATA     BYTE      bit8
      02000124H   SYMBOL    XDATA    BYTE      crc_1byte
      ---         BLOCKEND  CODE     ---       LVL=1
      ---         BLOCKEND  CODE     ---       LVL=0

      ---         MODULE    ---      ---       KEY_DATAS
      02000329H   PUBLIC    XDATA    BYTE      Key_State_Present
      02000322H   PUBLIC    XDATA    ---       Key_Mute
      02000314H   PUBLIC    XDATA    ---       Key_Mute_Element
      02000313H   PUBLIC    XDATA    BYTE      Key_Mute_Tik
      0200030CH   PUBLIC    XDATA    ---       Key_OK
      020002FEH   PUBLIC    XDATA    ---       Key_OK_Element
      020002FDH   PUBLIC    XDATA    BYTE      Key_OK_Tik
      020002F6H   PUBLIC    XDATA    ---       Key_Down
      020002E8H   PUBLIC    XDATA    ---       Key_Down_Element
      020002E7H   PUBLIC    XDATA    BYTE      Key_Down_Tik
      020002E0H   PUBLIC    XDATA    ---       Key_UP
      020002D2H   PUBLIC    XDATA    ---       Key_UP_Element
      020002D1H   PUBLIC    XDATA    BYTE      Key_UP_Tik
      01008081H   PUBLIC    CODE     ---       Key_Mute_TikFunc
      01008074H   PUBLIC    CODE     ---       Key_OK_TikFunc
      01008067H   PUBLIC    CODE     ---       Key_Down_TikFunc
      0100805AH   PUBLIC    CODE     ---       Key_UP_TikFunc
      0100C401H   SYMBOL    CODE     ---       KeyUpPressShortAction
      0100C408H   SYMBOL    CODE     ---       KeyUpPressLongFirstAction
      0100C40FH   SYMBOL    CODE     ---       KeyUpPressLongRepeatAction
      0100C416H   SYMBOL    CODE     ---       KeyDownPressShortAction
      0100C41DH   SYMBOL    CODE     ---       KeyDownPressLongFirstAction
      0100C424H   SYMBOL    CODE     ---       KeyDownPressLongRepeatAction
      0100C42BH   SYMBOL    CODE     ---       KeyOKPressShortAction
      0100C432H   SYMBOL    CODE     ---       KeyOKPressLongFirstAction
      0100C439H   SYMBOL    CODE     ---       KeyOKPressLongRepeatAction
      0100B6CFH   SYMBOL    CODE     ---       KeyMutePressShortAction
      0100C440H   SYMBOL    CODE     ---       KeyMutePressLongFirstAction
      0100C447H   SYMBOL    CODE     ---       KeyMutePressLongRepeatAction

      0100805AH   BLOCK     CODE     ---       LVL=0
      0100805AH   LINE      ---      ---       #34
      0100805AH   LINE      ---      ---       #35
      0100805AH   LINE      ---      ---       #36
      01008063H   LINE      ---      ---       #37
      01008063H   LINE      ---      ---       #38
      01008066H   LINE      ---      ---       #39
      01008066H   LINE      ---      ---       #40
      ---         BLOCKEND  ---      ---       LVL=0

      0100C401H   BLOCK     CODE     ---       LVL=0
      0100C401H   LINE      ---      ---       #42
      0100C401H   LINE      ---      ---       #43
      0100C401H   LINE      ---      ---       #44
      0100C407H   LINE      ---      ---       #45
      ---         BLOCKEND  ---      ---       LVL=0

      0100C408H   BLOCK     CODE     ---       LVL=0
      0100C408H   LINE      ---      ---       #47
      0100C408H   LINE      ---      ---       #48
      0100C408H   LINE      ---      ---       #49
      0100C40EH   LINE      ---      ---       #50
      ---         BLOCKEND  ---      ---       LVL=0

      0100C40FH   BLOCK     CODE     ---       LVL=0
      0100C40FH   LINE      ---      ---       #52
      0100C40FH   LINE      ---      ---       #53
      0100C40FH   LINE      ---      ---       #54
LX51 LINKER/LOCATER V4.66.1.0                                                         04/04/2019  16:35:10  PAGE 105


      0100C415H   LINE      ---      ---       #55
      ---         BLOCKEND  ---      ---       LVL=0

      01008067H   BLOCK     CODE     ---       LVL=0
      01008067H   LINE      ---      ---       #85
      01008067H   LINE      ---      ---       #86
      01008067H   LINE      ---      ---       #87
      01008070H   LINE      ---      ---       #88
      01008070H   LINE      ---      ---       #89
      01008073H   LINE      ---      ---       #90
      01008073H   LINE      ---      ---       #91
      ---         BLOCKEND  ---      ---       LVL=0

      0100C416H   BLOCK     CODE     ---       LVL=0
      0100C416H   LINE      ---      ---       #94
      0100C416H   LINE      ---      ---       #95
      0100C416H   LINE      ---      ---       #96
      0100C41CH   LINE      ---      ---       #97
      ---         BLOCKEND  ---      ---       LVL=0

      0100C41DH   BLOCK     CODE     ---       LVL=0
      0100C41DH   LINE      ---      ---       #99
      0100C41DH   LINE      ---      ---       #100
      0100C41DH   LINE      ---      ---       #101
      0100C423H   LINE      ---      ---       #102
      ---         BLOCKEND  ---      ---       LVL=0

      0100C424H   BLOCK     CODE     ---       LVL=0
      0100C424H   LINE      ---      ---       #104
      0100C424H   LINE      ---      ---       #105
      0100C424H   LINE      ---      ---       #106
      0100C42AH   LINE      ---      ---       #107
      ---         BLOCKEND  ---      ---       LVL=0

      01008074H   BLOCK     CODE     ---       LVL=0
      01008074H   LINE      ---      ---       #137
      01008074H   LINE      ---      ---       #138
      01008074H   LINE      ---      ---       #139
      0100807DH   LINE      ---      ---       #140
      0100807DH   LINE      ---      ---       #141
      01008080H   LINE      ---      ---       #142
      01008080H   LINE      ---      ---       #143
      ---         BLOCKEND  ---      ---       LVL=0

      0100C42BH   BLOCK     CODE     ---       LVL=0
      0100C42BH   LINE      ---      ---       #146
      0100C42BH   LINE      ---      ---       #147
      0100C42BH   LINE      ---      ---       #148
      0100C431H   LINE      ---      ---       #149
      ---         BLOCKEND  ---      ---       LVL=0

      0100C432H   BLOCK     CODE     ---       LVL=0
      0100C432H   LINE      ---      ---       #151
      0100C432H   LINE      ---      ---       #152
      0100C432H   LINE      ---      ---       #153
      0100C438H   LINE      ---      ---       #154
      ---         BLOCKEND  ---      ---       LVL=0

      0100C439H   BLOCK     CODE     ---       LVL=0
      0100C439H   LINE      ---      ---       #156
      0100C439H   LINE      ---      ---       #157
      0100C439H   LINE      ---      ---       #158
      0100C43FH   LINE      ---      ---       #159
      ---         BLOCKEND  ---      ---       LVL=0

LX51 LINKER/LOCATER V4.66.1.0                                                         04/04/2019  16:35:10  PAGE 106


      01008081H   BLOCK     CODE     ---       LVL=0
      01008081H   LINE      ---      ---       #190
      01008081H   LINE      ---      ---       #191
      01008081H   LINE      ---      ---       #192
      0100808AH   LINE      ---      ---       #193
      0100808AH   LINE      ---      ---       #194
      0100808DH   LINE      ---      ---       #195
      0100808DH   LINE      ---      ---       #196
      ---         BLOCKEND  ---      ---       LVL=0

      0100B6CFH   BLOCK     CODE     ---       LVL=0
      0100B6CFH   LINE      ---      ---       #199
      0100B6CFH   LINE      ---      ---       #200
      0100B6CFH   LINE      ---      ---       #201
      0100B6D5H   LINE      ---      ---       #203
      0100B6DBH   LINE      ---      ---       #204
      0100B6DBH   LINE      ---      ---       #205
      0100B6E1H   LINE      ---      ---       #206
      0100B6E1H   LINE      ---      ---       #207
      0100B6E3H   LINE      ---      ---       #208
      0100B6E5H   LINE      ---      ---       #209
      0100B6E5H   LINE      ---      ---       #211
      0100B6E5H   LINE      ---      ---       #212
      0100B6EAH   LINE      ---      ---       #213
      0100B6ECH   LINE      ---      ---       #214
      0100B6ECH   LINE      ---      ---       #215
      0100B6ECH   LINE      ---      ---       #216
      ---         BLOCKEND  ---      ---       LVL=0

      0100C440H   BLOCK     CODE     ---       LVL=0
      0100C440H   LINE      ---      ---       #218
      0100C440H   LINE      ---      ---       #219
      0100C440H   LINE      ---      ---       #220
      0100C446H   LINE      ---      ---       #221
      ---         BLOCKEND  ---      ---       LVL=0

      0100C447H   BLOCK     CODE     ---       LVL=0
      0100C447H   LINE      ---      ---       #223
      0100C447H   LINE      ---      ---       #224
      0100C447H   LINE      ---      ---       #225
      0100C44DH   LINE      ---      ---       #226
      ---         BLOCKEND  ---      ---       LVL=0

      ---         MODULE    ---      ---       KEY_MULTIFUN
      02000359H   PUBLIC    XDATA    BYTE      step_step_times
      0200010EH   PUBLIC    XDATA    BYTE      ?Key_Multifun?BYTE
      010078A7H   PUBLIC    CODE     ---       Key_Multifun

      010078A1H   BLOCK     CODE     ---       LVL=0
      010078A7H   LINE      ---      ---       #6
      010078A7H   LINE      ---      ---       #7
      010078A7H   LINE      ---      ---       #8
      010078B9H   LINE      ---      ---       #9
      010078B9H   LINE      ---      ---       #11
      010078B9H   LINE      ---      ---       #12
      010078C5H   LINE      ---      ---       #13
      010078C5H   LINE      ---      ---       #14
      010078C9H   LINE      ---      ---       #15
      010078C9H   LINE      ---      ---       #16
      010078CBH   LINE      ---      ---       #18
      010078CBH   LINE      ---      ---       #19
      010078D5H   LINE      ---      ---       #21
      010078D5H   LINE      ---      ---       #22
      010078D5H   LINE      ---      ---       #23
      010078D5H   LINE      ---      ---       #24
LX51 LINKER/LOCATER V4.66.1.0                                                         04/04/2019  16:35:10  PAGE 107


      010078DEH   LINE      ---      ---       #25
      010078DEH   LINE      ---      ---       #26
      010078E8H   LINE      ---      ---       #28
      010078EBH   LINE      ---      ---       #29
      010078EDH   LINE      ---      ---       #30
      010078F6H   LINE      ---      ---       #31
      010078F6H   LINE      ---      ---       #32
      0100790FH   LINE      ---      ---       #33
      0100790FH   LINE      ---      ---       #34
      01007917H   LINE      ---      ---       #36
      0100791AH   LINE      ---      ---       #37
      0100791CH   LINE      ---      ---       #39
      0100791CH   LINE      ---      ---       #40
      01007920H   LINE      ---      ---       #41
      01007920H   LINE      ---      ---       #42
      01007922H   LINE      ---      ---       #44
      01007922H   LINE      ---      ---       #45
      01007926H   LINE      ---      ---       #46
      01007926H   LINE      ---      ---       #47
      01007928H   LINE      ---      ---       #48
      01007928H   LINE      ---      ---       #49
      01007931H   LINE      ---      ---       #50
      01007931H   LINE      ---      ---       #51
      0100793BH   LINE      ---      ---       #53
      0100793FH   LINE      ---      ---       #54
      01007940H   LINE      ---      ---       #55
      01007947H   LINE      ---      ---       #56
      01007947H   LINE      ---      ---       #57
      01007961H   LINE      ---      ---       #61
      01007961H   LINE      ---      ---       #63
      0100796EH   LINE      ---      ---       #64
      01007972H   LINE      ---      ---       #67
      0100797BH   LINE      ---      ---       #68
      0100797BH   LINE      ---      ---       #69
      0100797BH   LINE      ---      ---       #72
      0100797BH   LINE      ---      ---       #73
      01007982H   LINE      ---      ---       #74
      01007982H   LINE      ---      ---       #75
      01007982H   LINE      ---      ---       #76
      01007982H   LINE      ---      ---       #77
      01007982H   LINE      ---      ---       #78
      01007982H   LINE      ---      ---       #79
      0200010EH   SYMBOL    XDATA    ---       Element
      0200011CH   SYMBOL    XDATA    ---       Variate
      ---         BLOCKEND  ---      ---       LVL=0

      ---         MODULE    ---      ---       GUI
      02000336H   PUBLIC    XDATA    BYTE      Display_Temp_Kind
      010072C1H   PUBLIC    CODE     ---       HmiScreenSaverModeFunc
      01008047H   PUBLIC    CODE     ---       HmiScreenSaverMode_Tik_Cnt
      0100A3EEH   PUBLIC    CODE     ---       HmiSetInExpFunc
      010098ADH   PUBLIC    CODE     ---       HmiSetTimeFunc
      0100A1F8H   PUBLIC    CODE     ---       HmiSetTempChamberFunc
      010085B4H   PUBLIC    CODE     ---       HmiSetTempPatientFunc
      0100A060H   PUBLIC    CODE     ---       HmiRunningFunc
      0100980DH   PUBLIC    CODE     ---       HmiNon_InvasiveSelFunc
      0100809BH   PUBLIC    CODE     ---       HmiNon_InvasiveSel_Tik_Cnt
      01008806H   PUBLIC    CODE     ---       HmiFactoryDefaultFunc
      010080A8H   PUBLIC    CODE     ---       HmiFactoryDefault_Tik_Cnt
      01007CBFH   PUBLIC    CODE     ---       HmiPostFunc
      0100808EH   PUBLIC    CODE     ---       HmiPostFunc_Tik_Cnt
      010079CDH   PUBLIC    CODE     ---       HmiServiceModeFunc
      01006419H   PUBLIC    CODE     ---       _HmiEnterToWorkStateFunc
      01009AC8H   PUBLIC    CODE     ---       _DisPlayTime
      000000C1H   SFRSYM    DATA     BYTE      WDT_CONTR
LX51 LINKER/LOCATER V4.66.1.0                                                         04/04/2019  16:35:10  PAGE 108


      000000A0H.1 SFRSYM    DATA     BIT       P21
      000000A0H.2 SFRSYM    DATA     BIT       P22
      000000A0H.3 SFRSYM    DATA     BIT       P23
      000000C0H   SFRSYM    DATA     BIT       P40
      02000337H   SYMBOL    XDATA    BYTE      Tik_POST_Tick_100mS
      02000338H   SYMBOL    XDATA    BYTE      Tik_HmiFac_Tick_100mS_10S
      02000339H   SYMBOL    XDATA    BYTE      OK_not_Pressed_flag
      0200033AH   SYMBOL    XDATA    BYTE      HmiFac_Mode_Changed
      0200033BH   SYMBOL    XDATA    BYTE      Tik_HmiNon_InvasiveSel_Tick_100mS
      0200033CH   SYMBOL    XDATA    WORD      Tik_ScreenSaver_Tick_100mS
      0200033EH   SYMBOL    XDATA    WORD      Remeber_Temp_Value
      01008565H   SYMBOL    CODE     ---       _Display_SET_Temp
      0100C44EH   SYMBOL    CODE     ---       EnterSetTime
      0100C4C9H   SYMBOL    CODE     ---       EnterSetInExp
      0100C45AH   SYMBOL    CODE     ---       Date_Is_Correct
      0100A352H   SYMBOL    CODE     ---       _Display_In_Exp_Ratio
      010061CBH   SYMBOL    CODE     ---       _?ix1000
      010061DDH   SYMBOL    CODE     ---       _?ix1001
      010061EEH   SYMBOL    CODE     ---       _?ix1002
      010061F5H   SYMBOL    CODE     ---       _?ix1003
      010061FBH   SYMBOL    CODE     ---       _?ix1004
      0100620AH   SYMBOL    CODE     ---       _?ix1005
      02000340H   SYMBOL    XDATA    BYTE      Tik_HmiFac_Tick_100mS_OK_flash
      01006219H   SYMBOL    CODE     ---       _?ix1006
      01006230H   SYMBOL    CODE     ---       _?ix1007
      01006247H   SYMBOL    CODE     ---       _?ix1008
      01006259H   SYMBOL    CODE     ---       _?ix1009
      01006268H   SYMBOL    CODE     ---       _?ix1010
      02000341H   SYMBOL    XDATA    BYTE      SetTimeKind
      02000342H   SYMBOL    XDATA    ---       TempTime
      02000349H   SYMBOL    XDATA    BYTE      In_Exp_Ratio_temp

      0100A352H   BLOCK     CODE     ---       LVL=0
      0100A352H   LINE      ---      ---       #26
      0100A357H   LINE      ---      ---       #27
      0100A357H   LINE      ---      ---       #28
      0100A35AH   LINE      ---      ---       #29
      0100A35AH   LINE      ---      ---       #30
      0100A369H   LINE      ---      ---       #32
      0100A36FH   LINE      ---      ---       #33
      0100A373H   LINE      ---      ---       #34
      0100A377H   LINE      ---      ---       #35
      0100A384H   LINE      ---      ---       #36
      0100A384H   LINE      ---      ---       #37
      0100A387H   LINE      ---      ---       #38
      0100A389H   LINE      ---      ---       #39
      0100A38BH   LINE      ---      ---       #41
      0100A38BH   LINE      ---      ---       #42
      0100A38EH   LINE      ---      ---       #43
      0100A393H   LINE      ---      ---       #44
      0100A393H   LINE      ---      ---       #45
      0100A398H   LINE      ---      ---       #46
      0100A3A4H   LINE      ---      ---       #47
      0100A3A6H   LINE      ---      ---       #49
      0100A3A6H   LINE      ---      ---       #50
      02000194H   SYMBOL    XDATA    BYTE      Dis
      00000005H   SYMBOL    DATA     BYTE      Dp_en
      ---         BLOCKEND  ---      ---       LVL=0

      01009AC8H   BLOCK     CODE     ---       LVL=0
      01009AC8H   LINE      ---      ---       #56
      01009ACCH   LINE      ---      ---       #57
      0200010EH   SYMBOL    XDATA    ---       TempTime
      02000111H   SYMBOL    XDATA    BYTE      TimeKind
      01009ACCH   BLOCK     CODE     NEAR LAB  LVL=1
LX51 LINKER/LOCATER V4.66.1.0                                                         04/04/2019  16:35:10  PAGE 109


      01009ACCH   LINE      ---      ---       #62
      01009AD2H   LINE      ---      ---       #63
      01009AD7H   LINE      ---      ---       #64
      01009AD7H   LINE      ---      ---       #65
      01009AE6H   LINE      ---      ---       #66
      01009B00H   LINE      ---      ---       #69
      01009B02H   LINE      ---      ---       #70
      01009B0AH   LINE      ---      ---       #71
      01009B0AH   LINE      ---      ---       #72
      01009B2DH   LINE      ---      ---       #76
      01009B2FH   LINE      ---      ---       #77
      01009B37H   LINE      ---      ---       #78
      01009B37H   LINE      ---      ---       #79
      01009B52H   LINE      ---      ---       #81
      01009B54H   LINE      ---      ---       #82
      01009B5CH   LINE      ---      ---       #83
      01009B5CH   LINE      ---      ---       #84
      01009B7FH   LINE      ---      ---       #88
      01009B81H   LINE      ---      ---       #89
      01009B89H   LINE      ---      ---       #90
      01009B89H   LINE      ---      ---       #91
      01009BACH   LINE      ---      ---       #95
      01009BAEH   LINE      ---      ---       #96
      01009BB6H   LINE      ---      ---       #97
      01009BB6H   LINE      ---      ---       #98
      01009BD6H   LINE      ---      ---       #102
      01009BD6H   LINE      ---      ---       #104
      01009BD6H   LINE      ---      ---       #106
      01009BD6H   LINE      ---      ---       #107
      02000112H   SYMBOL    XDATA    BYTE      i
      02000113H   SYMBOL    XDATA    BYTE      color
      ---         BLOCKEND  CODE     ---       LVL=1
      ---         BLOCKEND  CODE     ---       LVL=0

      01008565H   BLOCK     CODE     ---       LVL=0
      01008565H   LINE      ---      ---       #110
      01008567H   LINE      ---      ---       #111
      01008567H   LINE      ---      ---       #112
      0100856AH   LINE      ---      ---       #114
      01008589H   LINE      ---      ---       #117
      02000194H   SYMBOL    XDATA    WORD      Temp
      ---         BLOCKEND  ---      ---       LVL=0

      01006415H   BLOCK     CODE     ---       LVL=0
      01006419H   LINE      ---      ---       #122
      01006419H   LINE      ---      ---       #123
      01006419H   LINE      ---      ---       #124
      0100643CH   LINE      ---      ---       #125
      0100643CH   LINE      ---      ---       #126
      0100643CH   LINE      ---      ---       #127
      0100643CH   LINE      ---      ---       #128
      0100643CH   LINE      ---      ---       #129
      0100643CH   LINE      ---      ---       #130
      0100643CH   LINE      ---      ---       #132
      0100643EH   LINE      ---      ---       #133
      0100643EH   LINE      ---      ---       #134
      0100643EH   LINE      ---      ---       #135
      0100643EH   LINE      ---      ---       #136
      01006443H   LINE      ---      ---       #137
      01006445H   LINE      ---      ---       #138
      01006447H   LINE      ---      ---       #139
      01006450H   LINE      ---      ---       #140
      01006450H   LINE      ---      ---       #141
      01006450H   LINE      ---      ---       #142
      01006450H   LINE      ---      ---       #143
LX51 LINKER/LOCATER V4.66.1.0                                                         04/04/2019  16:35:10  PAGE 110


      01006450H   LINE      ---      ---       #144
      01006455H   LINE      ---      ---       #145
      01006457H   LINE      ---      ---       #148
      01006457H   LINE      ---      ---       #149
      01006459H   LINE      ---      ---       #151
      0100645EH   LINE      ---      ---       #152
      01006463H   LINE      ---      ---       #154
      01006465H   LINE      ---      ---       #155
      0100647AH   LINE      ---      ---       #156
      0100647FH   LINE      ---      ---       #159
      00000007H   SYMBOL    DATA     BYTE      State
      0100647FH   BLOCK     CODE     NEAR LAB  LVL=1
      0100647FH   LINE      ---      ---       #160
      0100648EH   LINE      ---      ---       #161
      010064A1H   LINE      ---      ---       #162
      010064B4H   LINE      ---      ---       #163
      010064C7H   LINE      ---      ---       #164
      010064D5H   LINE      ---      ---       #165
      010064E3H   LINE      ---      ---       #167
      01006531H   LINE      ---      ---       #176
      01006533H   LINE      ---      ---       #177
      01006548H   LINE      ---      ---       #180
      01006563H   LINE      ---      ---       #184
      01006579H   LINE      ---      ---       #185
      02000146H   SYMBOL    XDATA    ---       str_previousSetting
      02000158H   SYMBOL    XDATA    ---       str_defaultSetting
      02000169H   SYMBOL    XDATA    ---       str_select
      02000170H   SYMBOL    XDATA    ---       str_enter
      02000176H   SYMBOL    XDATA    ---       str_Patient39C
      02000185H   SYMBOL    XDATA    ---       str_chamber36C
      01006588H   LINE      ---      ---       #189
      010065A5H   LINE      ---      ---       #192
      010065A5H   LINE      ---      ---       #193
      010065A5H   LINE      ---      ---       #194
      010065A5H   LINE      ---      ---       #196
      010065A5H   LINE      ---      ---       #197
      010065A5H   LINE      ---      ---       #198
      010065AEH   LINE      ---      ---       #202
      010065B3H   LINE      ---      ---       #203
      010065BEH   LINE      ---      ---       #206
      010065C0H   LINE      ---      ---       #207
      010065C1H   LINE      ---      ---       #208
      010065C1H   LINE      ---      ---       #210
      010065C1H   LINE      ---      ---       #211
      010065C1H   LINE      ---      ---       #213
      010065C3H   LINE      ---      ---       #214
      010065C6H   LINE      ---      ---       #215
      010065CBH   LINE      ---      ---       #216
      010065D0H   LINE      ---      ---       #217
      010065D2H   LINE      ---      ---       #218
      010065D9H   LINE      ---      ---       #219
      010065DAH   LINE      ---      ---       #220
      010065DAH   LINE      ---      ---       #222
      010065DAH   LINE      ---      ---       #223
      010065DAH   LINE      ---      ---       #224
      010065DDH   LINE      ---      ---       #225
      010065DDH   LINE      ---      ---       #226
      010065DDH   LINE      ---      ---       #228
      010065DFH   LINE      ---      ---       #229
      010065DFH   LINE      ---      ---       #231
      010065DFH   LINE      ---      ---       #232
      010065DFH   LINE      ---      ---       #233
      010065E5H   LINE      ---      ---       #234
      010065EAH   LINE      ---      ---       #235
      010065F0H   LINE      ---      ---       #236
LX51 LINKER/LOCATER V4.66.1.0                                                         04/04/2019  16:35:10  PAGE 111


      010065F0H   LINE      ---      ---       #237
      010065F0H   LINE      ---      ---       #239
      010065F0H   LINE      ---      ---       #240
      010065F0H   LINE      ---      ---       #241
      010065F3H   LINE      ---      ---       #242
      010065F3H   LINE      ---      ---       #243
      010065F3H   LINE      ---      ---       #245
      010065F3H   LINE      ---      ---       #246
      010065F3H   LINE      ---      ---       #248
      010065F6H   LINE      ---      ---       #249
      010065F6H   LINE      ---      ---       #250
      010065F6H   LINE      ---      ---       #251
      010065F6H   LINE      ---      ---       #252
      010065F6H   LINE      ---      ---       #253
      010065F6H   LINE      ---      ---       #254
      010065F6H   LINE      CODE     ---       #254
      ---         BLOCKEND  CODE     ---       LVL=0

      010079CDH   BLOCK     CODE     ---       LVL=0
      010079CDH   LINE      ---      ---       #257
      010079CDH   LINE      ---      ---       #258
      010079CDH   BLOCK     CODE     NEAR LAB  LVL=1
      010079CDH   LINE      ---      ---       #261
      010079D3H   LINE      ---      ---       #262
      010079D3H   LINE      ---      ---       #263
      010079D5H   LINE      ---      ---       #264
      010079E8H   LINE      ---      ---       #265
      010079EDH   LINE      ---      ---       #266
      01007A0AH   LINE      ---      ---       #268
      01007A0CH   LINE      ---      ---       #269
      01007A0EH   LINE      ---      ---       #270
      01007A16H   LINE      ---      ---       #271
      01007A16H   LINE      ---      ---       #272
      01007A20H   LINE      ---      ---       #273
      01007A20H   LINE      ---      ---       #274
      01007A26H   LINE      ---      ---       #275
      01007A37H   LINE      ---      ---       #276
      01007A3DH   LINE      ---      ---       #277
      01007A51H   LINE      ---      ---       #279
      01007A51H   LINE      ---      ---       #280
      01007A53H   LINE      ---      ---       #281
      01007A5BH   LINE      ---      ---       #282
      01007A5BH   LINE      ---      ---       #283
      01007A65H   LINE      ---      ---       #284
      01007A65H   LINE      ---      ---       #285
      01007A6BH   LINE      ---      ---       #286
      01007A78H   LINE      ---      ---       #287
      01007A7EH   LINE      ---      ---       #288
      01007A92H   LINE      ---      ---       #290
      01007A92H   LINE      ---      ---       #291
      01007A94H   LINE      ---      ---       #292
      01007A9CH   LINE      ---      ---       #293
      01007A9CH   LINE      ---      ---       #294
      01007AA6H   LINE      ---      ---       #295
      01007AA6H   LINE      ---      ---       #296
      01007AACH   LINE      ---      ---       #297
      01007AB9H   LINE      ---      ---       #298
      01007ABFH   LINE      ---      ---       #299
      01007ADBH   LINE      ---      ---       #301
      01007ADBH   LINE      ---      ---       #302
      01007ADDH   LINE      ---      ---       #303
      01007AE5H   LINE      ---      ---       #304
      01007AE5H   LINE      ---      ---       #305
      01007AECH   LINE      ---      ---       #306
      01007AECH   LINE      ---      ---       #308
LX51 LINKER/LOCATER V4.66.1.0                                                         04/04/2019  16:35:10  PAGE 112


      01007AF2H   LINE      ---      ---       #309
      01007AF7H   LINE      ---      ---       #311
      01007B12H   LINE      ---      ---       #315
      01007B18H   LINE      ---      ---       #316
      01007B1BH   LINE      ---      ---       #317
      01007B22H   LINE      ---      ---       #318
      01007B2EH   LINE      ---      ---       #328
      01007B2EH   LINE      ---      ---       #329
      01007B3AH   LINE      ---      ---       #330
      01007B3CH   LINE      ---      ---       #332
      01007B3CH   LINE      ---      ---       #333
      01007B48H   LINE      ---      ---       #334
      01007B48H   LINE      ---      ---       #335
      01007B48H   LINE      ---      ---       #336
      01007B4BH   LINE      ---      ---       #337
      01007B4DH   LINE      ---      ---       #338
      01007B4DH   LINE      ---      ---       #340
      01007B50H   LINE      ---      ---       #341
      01007B50H   LINE      ---      ---       #342
      01007B52H   LINE      ---      ---       #343
      01007B5CH   LINE      ---      ---       #344
      01007B5CH   LINE      ---      ---       #345
      01007B62H   LINE      ---      ---       #346
      01007B62H   LINE      ---      ---       #348
      01007B79H   LINE      ---      ---       #349
      01007B7BH   LINE      ---      ---       #350
      01007B85H   LINE      ---      ---       #351
      01007B85H   LINE      ---      ---       #352
      01007B8BH   LINE      ---      ---       #354
      01007B8DH   LINE      ---      ---       #355
      01007B90H   LINE      ---      ---       #356
      01007B97H   LINE      ---      ---       #357
      01007BA9H   LINE      ---      ---       #359
      01007BB6H   LINE      ---      ---       #360
      01007BC4H   LINE      ---      ---       #361
      01007BCAH   LINE      ---      ---       #362
      01007BD7H   LINE      ---      ---       #363
      01007BF6H   LINE      ---      ---       #366
      01007C04H   LINE      ---      ---       #367
      01007C0FH   LINE      ---      ---       #368
      01007C1DH   LINE      ---      ---       #369
      01007C1FH   LINE      ---      ---       #370
      01007C21H   LINE      ---      ---       #372
      01007C21H   LINE      ---      ---       #374
      01007C21H   LINE      ---      ---       #375
      01007C21H   LINE      ---      ---       #376
      01007C29H   LINE      ---      ---       #377
      01007C29H   LINE      ---      ---       #378
      01007C2CH   LINE      ---      ---       #380
      01007C2FH   LINE      ---      ---       #381
      01007C2FH   LINE      ---      ---       #382
      01007C3DH   LINE      ---      ---       #383
      01007C3DH   LINE      ---      ---       #384
      01007C43H   LINE      ---      ---       #385
      01007C45H   LINE      ---      ---       #387
      01007C45H   LINE      ---      ---       #388
      01007C4AH   LINE      ---      ---       #389
      01007C4AH   LINE      ---      ---       #390
      01007C58H   LINE      ---      ---       #391
      01007C58H   LINE      ---      ---       #392
      01007C61H   LINE      ---      ---       #393
      01007C6AH   LINE      ---      ---       #394
      01007C6CH   LINE      ---      ---       #396
      01007C6CH   LINE      ---      ---       #397
      01007C6DH   LINE      ---      ---       #398
LX51 LINKER/LOCATER V4.66.1.0                                                         04/04/2019  16:35:10  PAGE 113


      01007C6DH   LINE      ---      ---       #399
      01007C6DH   LINE      ---      ---       #400
      01007C6FH   LINE      ---      ---       #402
      01007C6FH   LINE      ---      ---       #403
      01007C74H   LINE      ---      ---       #404
      01007C7AH   LINE      ---      ---       #405
      01007C80H   LINE      ---      ---       #406
      01007C80H   LINE      ---      ---       #408
      01007C86H   LINE      ---      ---       #409
      01007C86H   LINE      ---      ---       #410
      01007C8CH   LINE      ---      ---       #411
      01007C91H   LINE      ---      ---       #412
      01007C95H   LINE      ---      ---       #413
      01007C95H   LINE      ---      ---       #414
      01007C95H   LINE      ---      ---       #416
      01007C95H   LINE      ---      ---       #418
      01007C95H   LINE      ---      ---       #419
      01007C9AH   LINE      ---      ---       #420
      0200032AH   SYMBOL    XDATA    BYTE      ServiceMode_Step
      ---         BLOCKEND  CODE     ---       LVL=1
      ---         BLOCKEND  CODE     ---       LVL=0

      0100808EH   BLOCK     CODE     ---       LVL=0
      0100808EH   LINE      ---      ---       #423
      0100808EH   LINE      ---      ---       #424
      0100808EH   LINE      ---      ---       #425
      01008097H   LINE      ---      ---       #426
      01008097H   LINE      ---      ---       #427
      0100809AH   LINE      ---      ---       #428
      0100809AH   LINE      ---      ---       #429
      ---         BLOCKEND  ---      ---       LVL=0

      01007CBFH   BLOCK     CODE     ---       LVL=0
      01007CBFH   LINE      ---      ---       #431
      01007CBFH   LINE      ---      ---       #432
      01007CBFH   BLOCK     CODE     NEAR LAB  LVL=1
      01007CBFH   LINE      ---      ---       #437
      01007CC7H   LINE      ---      ---       #438
      01007CC7H   LINE      ---      ---       #440
      01007CCFH   LINE      ---      ---       #441
      01007CD3H   LINE      ---      ---       #442
      01007CD3H   LINE      ---      ---       #443
      01007CD9H   LINE      ---      ---       #444
      01007CDBH   LINE      ---      ---       #445
      01007CE2H   LINE      ---      ---       #446
      01007D0DH   LINE      ---      ---       #449
      01007D10H   LINE      ---      ---       #450
      01007D12H   LINE      ---      ---       #451
      01007D13H   LINE      ---      ---       #452
      01007D1EH   LINE      ---      ---       #453
      01007D1EH   LINE      ---      ---       #454
      01007D20H   LINE      ---      ---       #455
      01007D2CH   LINE      ---      ---       #458
      01007D3DH   LINE      ---      ---       #459
      01007D3FH   LINE      ---      ---       #460
      01007D46H   LINE      ---      ---       #461
      01007D46H   LINE      ---      ---       #467
      01007D4EH   LINE      ---      ---       #468
      01007D4EH   LINE      ---      ---       #470
      01007D59H   LINE      ---      ---       #471
      01007D59H   LINE      ---      ---       #472
      01007D5FH   LINE      ---      ---       #473
      01007D5FH   LINE      ---      ---       #474
      01007D60H   LINE      ---      ---       #475
      01007D65H   LINE      ---      ---       #476
LX51 LINKER/LOCATER V4.66.1.0                                                         04/04/2019  16:35:10  PAGE 114


      01007D65H   LINE      ---      ---       #478
      01007D71H   LINE      ---      ---       #480
      01007D71H   LINE      ---      ---       #481
      01007D71H   LINE      ---      ---       #482
      01007D73H   LINE      ---      ---       #484
      01007D73H   LINE      ---      ---       #485
      01007D79H   LINE      ---      ---       #486
      01007D7FH   LINE      ---      ---       #487
      01007D7FH   LINE      ---      ---       #488
      01007D7FH   LINE      ---      ---       #489
      01007D87H   LINE      ---      ---       #490
      01007D87H   LINE      ---      ---       #492
      01007D93H   LINE      ---      ---       #501
      01007D93H   LINE      ---      ---       #502
      01007D99H   LINE      ---      ---       #503
      01007D9AH   LINE      ---      ---       #505
      01007D9AH   LINE      ---      ---       #506
      01007DA0H   LINE      ---      ---       #507
      01007DA6H   LINE      ---      ---       #508
      01007DA6H   LINE      ---      ---       #509
      01007DA6H   LINE      ---      ---       #510
      01007DA6H   LINE      ---      ---       #511
      01007DA8H   LINE      ---      ---       #512
      01007DB0H   LINE      ---      ---       #513
      01007DB0H   LINE      ---      ---       #515
      01007DB5H   LINE      ---      ---       #516
      01007DBBH   LINE      ---      ---       #517
      01007DBCH   LINE      ---      ---       #518
      01007DC0H   LINE      ---      ---       #519
      01007DC0H   LINE      ---      ---       #522
      01007DCBH   LINE      ---      ---       #523
      01007DCBH   LINE      ---      ---       #524
      01007DD7H   LINE      ---      ---       #525
      01007DD7H   LINE      ---      ---       #526
      01007DDAH   LINE      ---      ---       #527
      01007DDFH   LINE      ---      ---       #528
      01007DE0H   LINE      ---      ---       #535
      01007DE8H   LINE      ---      ---       #536
      01007DE8H   LINE      ---      ---       #539
      01007DF1H   LINE      ---      ---       #540
      01007DF1H   LINE      ---      ---       #541
      01007DFDH   LINE      ---      ---       #542
      01007DFDH   LINE      ---      ---       #543
      01007E00H   LINE      ---      ---       #544
      01007E2BH   LINE      ---      ---       #547
      01007E2BH   LINE      ---      ---       #549
      01007E2BH   LINE      ---      ---       #550
      01007E2EH   LINE      ---      ---       #551
      01007E2EH   LINE      ---      ---       #552
      01007E2EH   LINE      ---      ---       #553
      01007E2FH   LINE      ---      ---       #554
      01007E36H   LINE      ---      ---       #555
      01007E36H   LINE      ---      ---       #557
      01007E3CH   LINE      ---      ---       #558
      01007E40H   LINE      ---      ---       #559
      01007E40H   LINE      ---      ---       #560
      01007E47H   LINE      ---      ---       #561
      01007E47H   LINE      ---      ---       #562
      01007E49H   LINE      ---      ---       #563
      01007E49H   LINE      ---      ---       #565
      01007E49H   LINE      ---      ---       #567
      01007E49H   LINE      ---      ---       #568
      0200032BH   SYMBOL    XDATA    BYTE      Post_Step
      0200010EH   SYMBOL    XDATA    BYTE      i
      ---         BLOCKEND  CODE     ---       LVL=1
LX51 LINKER/LOCATER V4.66.1.0                                                         04/04/2019  16:35:10  PAGE 115


      ---         BLOCKEND  CODE     ---       LVL=0

      010080A8H   BLOCK     CODE     ---       LVL=0
      010080A8H   LINE      ---      ---       #573
      010080A8H   LINE      ---      ---       #574
      010080A8H   LINE      ---      ---       #575
      010080B1H   LINE      ---      ---       #576
      010080B1H   LINE      ---      ---       #577
      010080B4H   LINE      ---      ---       #578
      010080B4H   LINE      ---      ---       #579
      010080BDH   LINE      ---      ---       #580
      010080BDH   LINE      ---      ---       #581
      010080C0H   LINE      ---      ---       #582
      010080C0H   LINE      ---      ---       #583
      ---         BLOCKEND  ---      ---       LVL=0

      01008806H   BLOCK     CODE     ---       LVL=0
      01008806H   LINE      ---      ---       #585
      01008806H   LINE      ---      ---       #586
      01008806H   BLOCK     CODE     NEAR LAB  LVL=1
      01008806H   LINE      ---      ---       #592
      0100880FH   LINE      ---      ---       #593
      0100880FH   LINE      ---      ---       #594
      01008813H   LINE      ---      ---       #595
      01008813H   LINE      ---      ---       #597
      01008819H   LINE      ---      ---       #598
      01008819H   LINE      ---      ---       #599
      01008822H   LINE      ---      ---       #600
      01008822H   LINE      ---      ---       #602
      01008822H   LINE      ---      ---       #603
      01008827H   LINE      ---      ---       #604
      01008827H   LINE      ---      ---       #606
      01008827H   LINE      ---      ---       #607
      0100882BH   LINE      ---      ---       #608
      0100882BH   LINE      ---      ---       #609
      0100882EH   LINE      ---      ---       #610
      0100883DH   LINE      ---      ---       #611
      01008840H   LINE      ---      ---       #612
      01008842H   LINE      ---      ---       #613
      0100884BH   LINE      ---      ---       #614
      0100884BH   LINE      ---      ---       #615
      0100884DH   LINE      ---      ---       #616
      01008850H   LINE      ---      ---       #617
      0100885FH   LINE      ---      ---       #618
      01008862H   LINE      ---      ---       #619
      01008865H   LINE      ---      ---       #620
      01008865H   LINE      ---      ---       #622
      01008865H   LINE      ---      ---       #624
      01008865H   LINE      ---      ---       #625
      01008865H   LINE      ---      ---       #628
      0100886EH   LINE      ---      ---       #631
      0100886EH   LINE      ---      ---       #632
      01008874H   LINE      ---      ---       #633
      01008874H   LINE      ---      ---       #634
      01008879H   LINE      ---      ---       #635
      01008879H   LINE      ---      ---       #636
      01008879H   LINE      ---      ---       #637
      0100887BH   LINE      ---      ---       #638
      01008884H   LINE      ---      ---       #640
      01008884H   LINE      ---      ---       #641
      0100888CH   LINE      ---      ---       #642
      0100888CH   LINE      ---      ---       #643
      01008891H   LINE      ---      ---       #644
      01008896H   LINE      ---      ---       #645
      01008896H   LINE      ---      ---       #646
LX51 LINKER/LOCATER V4.66.1.0                                                         04/04/2019  16:35:10  PAGE 116


      01008898H   LINE      ---      ---       #647
      010088A1H   LINE      ---      ---       #649
      010088A1H   LINE      ---      ---       #650
      010088A4H   LINE      ---      ---       #651
      010088A9H   LINE      ---      ---       #652
      010088ABH   LINE      ---      ---       #653
      010088B5H   LINE      ---      ---       #654
      010088B5H   LINE      ---      ---       #655
      010088B7H   LINE      ---      ---       #656
      010088B7H   LINE      ---      ---       #657
      010088B9H   LINE      ---      ---       #659
      010088B9H   LINE      ---      ---       #660
      010088BCH   LINE      ---      ---       #661
      010088C0H   LINE      ---      ---       #662
      010088C0H   LINE      ---      ---       #663
      010088C0H   LINE      ---      ---       #665
      010088C0H   LINE      ---      ---       #667
      010088C0H   LINE      ---      ---       #669
      010088C8H   LINE      ---      ---       #670
      010088C8H   LINE      ---      ---       #671
      010088CAH   LINE      ---      ---       #673
      010088CEH   LINE      ---      ---       #676
      010088D4H   LINE      ---      ---       #677
      010088D4H   LINE      ---      ---       #678
      010088D8H   LINE      ---      ---       #681
      010088DBH   LINE      ---      ---       #682
      010088DBH   LINE      ---      ---       #683
      010088DDH   LINE      ---      ---       #685
      010088DDH   LINE      ---      ---       #686
      010088E3H   LINE      ---      ---       #689
      010088FFH   LINE      ---      ---       #691
      010088FFH   LINE      ---      ---       #693
      01008907H   LINE      ---      ---       #694
      01008907H   LINE      ---      ---       #695
      0100891BH   LINE      ---      ---       #698
      0100895FH   LINE      ---      ---       #704
      0100896DH   LINE      ---      ---       #705
      0200010EH   SYMBOL    XDATA    WORD      Pre_Disp_Deg_10
      02000110H   SYMBOL    XDATA    WORD      Pre_Disp_Deg_1
      02000112H   SYMBOL    XDATA    WORD      Pre_Disp_Deg_CQK_10
      02000114H   SYMBOL    XDATA    WORD      Pre_Disp_Deg_CQK_1
      0100896DH   BLOCK     CODE     NEAR LAB  LVL=2
      0100896DH   LINE      ---      ---       #706
      01008972H   LINE      ---      ---       #707
      01008972H   LINE      ---      ---       #708
      01008972H   LINE      ---      ---       #709
      02000116H   SYMBOL    XDATA    ---       str_modeNoinvasive
      02000116H   SYMBOL    XDATA    ---       str_modeInvasive
      01008974H   LINE      ---      ---       #711
      01008974H   LINE      CODE     ---       #711
      01008974H   BLOCK     CODE     NEAR LAB  LVL=2
      01008974H   LINE      ---      ---       #712
      0100897FH   LINE      ---      ---       #713
      01008990H   LINE      ---      ---       #715
      02000116H   SYMBOL    XDATA    ---       str_modeInvasive
      01008990H   LINE      ---      ---       #717
      010089A3H   LINE      ---      ---       #718
      010089B0H   LINE      ---      ---       #719
      010089B0H   LINE      ---      ---       #720
      010089C4H   LINE      ---      ---       #722
      010089C6H   LINE      ---      ---       #724
      010089C6H   LINE      ---      ---       #725
      010089DAH   LINE      ---      ---       #726
      010089EFH   LINE      ---      ---       #728
      010089EFH   LINE      ---      ---       #730
LX51 LINKER/LOCATER V4.66.1.0                                                         04/04/2019  16:35:10  PAGE 117


      01008A03H   LINE      ---      ---       #731
      01008A10H   LINE      ---      ---       #732
      01008A10H   LINE      ---      ---       #733
      01008A27H   LINE      ---      ---       #735
      01008A29H   LINE      ---      ---       #737
      01008A29H   LINE      ---      ---       #738
      01008A3DH   LINE      ---      ---       #739
      01008A56H   LINE      ---      ---       #741
      01008A56H   LINE      ---      ---       #743
      01008A60H   LINE      ---      ---       #744
      01008A60H   LINE      ---      ---       #745
      01008A66H   LINE      ---      ---       #746
      01008A68H   LINE      ---      ---       #748
      01008A68H   LINE      ---      ---       #749
      01008A79H   LINE      ---      ---       #750
      01008A97H   LINE      ---      ---       #751
      01008A97H   LINE      ---      ---       #752
      01008A99H   LINE      ---      ---       #754
      01008A99H   LINE      CODE     ---       #754
      01008A99H   BLOCK     CODE     NEAR LAB  LVL=2
      01008A99H   LINE      ---      ---       #755
      01008AA8H   LINE      ---      ---       #756
      01008AB7H   LINE      ---      ---       #757
      01008AC6H   LINE      ---      ---       #760
      01008AD5H   LINE      ---      ---       #763
      01008B09H   LINE      ---      ---       #768
      01008B2BH   LINE      ---      ---       #773
      01008B48H   LINE      ---      ---       #777
      02000116H   SYMBOL    XDATA    ---       str_invasive
      02000128H   SYMBOL    XDATA    ---       str_patient39C
      02000137H   SYMBOL    XDATA    ---       str_chamber36C
      01008B48H   LINE      ---      ---       #778
      01008B4AH   LINE      ---      ---       #779
      01008B4AH   LINE      ---      ---       #780
      01008B4FH   LINE      ---      ---       #781
      01008B4FH   LINE      CODE     ---       #781
      ---         BLOCKEND  CODE     ---       LVL=1
      ---         BLOCKEND  CODE     ---       LVL=0

      0100809BH   BLOCK     CODE     ---       LVL=0
      0100809BH   LINE      ---      ---       #785
      0100809BH   LINE      ---      ---       #786
      0100809BH   LINE      ---      ---       #787
      010080A4H   LINE      ---      ---       #788
      010080A4H   LINE      ---      ---       #789
      010080A7H   LINE      ---      ---       #790
      010080A7H   LINE      ---      ---       #791
      ---         BLOCKEND  ---      ---       LVL=0

      0100980DH   BLOCK     CODE     ---       LVL=0
      0100980DH   LINE      ---      ---       #793
      0100980DH   LINE      ---      ---       #794
      0100980DH   LINE      ---      ---       #795
      01009810H   LINE      ---      ---       #796
      01009810H   LINE      ---      ---       #797
      01009819H   LINE      ---      ---       #799
      01009819H   LINE      ---      ---       #801
      0100981FH   LINE      ---      ---       #802
      0100981FH   LINE      ---      ---       #803
      01009821H   LINE      ---      ---       #804
      01009823H   LINE      ---      ---       #806
      01009823H   LINE      ---      ---       #807
      01009828H   LINE      ---      ---       #808
      01009828H   LINE      ---      ---       #810
      01009831H   LINE      ---      ---       #811
LX51 LINKER/LOCATER V4.66.1.0                                                         04/04/2019  16:35:10  PAGE 118


      01009831H   LINE      ---      ---       #812
      0100983DH   LINE      ---      ---       #814
      0100983FH   LINE      ---      ---       #815
      0100983FH   LINE      ---      ---       #816
      01009846H   LINE      ---      ---       #818
      01009846H   LINE      ---      ---       #820
      01009848H   LINE      ---      ---       #821
      0100985BH   LINE      ---      ---       #825
      0100985BH   LINE      ---      ---       #826
      0100985DH   LINE      ---      ---       #827
      0100985FH   LINE      ---      ---       #828
      01009863H   LINE      ---      ---       #829
      01009863H   LINE      ---      ---       #831
      01009863H   LINE      ---      ---       #833
      01009863H   LINE      ---      ---       #834
      01009863H   LINE      ---      ---       #835
      0100986AH   LINE      ---      ---       #839
      0100986FH   LINE      ---      ---       #840
      ---         BLOCKEND  ---      ---       LVL=0

      0100A060H   BLOCK     CODE     ---       LVL=0
      0100A060H   LINE      ---      ---       #846
      0100A060H   LINE      ---      ---       #847
      0100A060H   BLOCK     CODE     NEAR LAB  LVL=1
      0100A060H   LINE      ---      ---       #849
      0100A06AH   LINE      ---      ---       #851
      0100A06AH   LINE      ---      ---       #852
      0100A06FH   LINE      ---      ---       #853
      0100A075H   LINE      ---      ---       #854
      0100A075H   LINE      ---      ---       #855
      0100A077H   LINE      ---      ---       #856
      0100A081H   LINE      ---      ---       #858
      0100A083H   LINE      ---      ---       #860
      0100A083H   LINE      ---      ---       #861
      0100A088H   LINE      ---      ---       #862
      0100A091H   LINE      ---      ---       #864
      0100A091H   LINE      ---      ---       #865
      0100A096H   LINE      ---      ---       #866
      0100A098H   LINE      ---      ---       #867
      0100A0A2H   LINE      ---      ---       #868
      0100A0A2H   LINE      ---      ---       #869
      0100A0A4H   LINE      ---      ---       #870
      0100A0A6H   LINE      ---      ---       #871
      0100A0ABH   LINE      ---      ---       #872
      0100A0B5H   LINE      ---      ---       #873
      0100A0BFH   LINE      ---      ---       #874
      0100A0C9H   LINE      ---      ---       #876
      0100A0CEH   LINE      ---      ---       #877
      0100A0D2H   LINE      ---      ---       #879
      0100A0D9H   LINE      ---      ---       #880
      0100A0D9H   LINE      ---      ---       #881
      0100A0DBH   LINE      ---      ---       #882
      0100A0E0H   LINE      ---      ---       #883
      0100A0E3H   LINE      ---      ---       #884
      0100A0E5H   LINE      ---      ---       #886
      0100A0E5H   LINE      ---      ---       #887
      0100A0EBH   LINE      ---      ---       #888
      0100A0EDH   LINE      ---      ---       #889
      0100A0F2H   LINE      ---      ---       #890
      0100A0F2H   LINE      ---      ---       #891
      0100A0FCH   LINE      ---      ---       #892
      0100A106H   LINE      ---      ---       #893
      0100A110H   LINE      ---      ---       #894
      0100A11DH   LINE      ---      ---       #897
      0100A11FH   LINE      ---      ---       #898
LX51 LINKER/LOCATER V4.66.1.0                                                         04/04/2019  16:35:10  PAGE 119


      0100A121H   LINE      ---      ---       #899
      0100A129H   LINE      ---      ---       #900
      0100A129H   LINE      ---      ---       #901
      0100A130H   LINE      ---      ---       #903
      0100A130H   LINE      ---      ---       #904
      0100A133H   LINE      ---      ---       #906
      0100A136H   LINE      ---      ---       #907
      0100A138H   LINE      ---      ---       #909
      0100A138H   LINE      ---      ---       #910
      0100A13BH   LINE      ---      ---       #911
      0100A13FH   LINE      ---      ---       #912
      0100A145H   LINE      ---      ---       #913
      0100A145H   LINE      ---      ---       #914
      0100A147H   LINE      ---      ---       #915
      0100A14EH   LINE      ---      ---       #916
      0100A14EH   LINE      ---      ---       #917
      0100A152H   LINE      ---      ---       #919
      0100A152H   LINE      ---      ---       #920
      0100A158H   LINE      ---      ---       #921
      0100A15CH   LINE      ---      ---       #923
      0100A15CH   LINE      ---      ---       #924
      0100A15EH   LINE      ---      ---       #925
      0100A165H   LINE      ---      ---       #926
      0100A165H   LINE      ---      ---       #927
      0100A175H   LINE      ---      ---       #928
      0100A178H   LINE      ---      ---       #929
      0100A178H   LINE      ---      ---       #931
      0100A178H   LINE      ---      ---       #933
      0100A178H   LINE      ---      ---       #936
      0100A17EH   LINE      ---      ---       #937
      0100A17EH   LINE      ---      ---       #938
      0100A183H   LINE      ---      ---       #939
      0100A183H   LINE      ---      ---       #940
      0100A18CH   LINE      ---      ---       #941
      0100A18CH   LINE      ---      ---       #942
      0100A18FH   LINE      ---      ---       #943
      0100A191H   LINE      ---      ---       #945
      0100A191H   LINE      ---      ---       #946
      0100A198H   LINE      ---      ---       #947
      0100A198H   LINE      ---      ---       #948
      0100A19BH   LINE      ---      ---       #949
      0100A1A0H   LINE      ---      ---       #950
      0100A1A9H   LINE      ---      ---       #952
      0100A1A9H   LINE      ---      ---       #953
      0100A1A9H   LINE      ---      ---       #954
      0100A1AEH   LINE      ---      ---       #955
      0200032CH   SYMBOL    XDATA    BYTE      Display_Return_Cnt
      ---         BLOCKEND  CODE     ---       LVL=1
      ---         BLOCKEND  CODE     ---       LVL=0

      010085B4H   BLOCK     CODE     ---       LVL=0
      010085B4H   LINE      ---      ---       #959
      010085B4H   LINE      ---      ---       #960
      010085B4H   BLOCK     CODE     NEAR LAB  LVL=1
      010085B4H   LINE      ---      ---       #963
      010085BCH   LINE      ---      ---       #965
      010085BCH   LINE      ---      ---       #966
      010085BEH   LINE      ---      ---       #967
      010085BEH   LINE      ---      ---       #968
      010085C1H   LINE      ---      ---       #969
      010085C7H   LINE      ---      ---       #970
      010085C7H   LINE      ---      ---       #971
      010085CCH   LINE      ---      ---       #972
      010085CEH   LINE      ---      ---       #973
      010085D5H   LINE      ---      ---       #974
LX51 LINKER/LOCATER V4.66.1.0                                                         04/04/2019  16:35:10  PAGE 120


      010085D5H   LINE      ---      ---       #975
      010085DAH   LINE      ---      ---       #976
      010085DAH   LINE      ---      ---       #978
      010085DAH   LINE      ---      ---       #980
      010085DAH   LINE      ---      ---       #983
      010085E9H   LINE      ---      ---       #986
      010085E9H   LINE      ---      ---       #987
      010085EFH   LINE      ---      ---       #988
      010085EFH   LINE      ---      ---       #989
      010085FAH   LINE      ---      ---       #990
      010085FAH   LINE      ---      ---       #991
      010085FAH   LINE      ---      ---       #992
      010085FAH   LINE      ---      ---       #993
      010085FCH   LINE      ---      ---       #995
      010085FCH   LINE      ---      ---       #996
      01008607H   LINE      ---      ---       #997
      01008607H   LINE      ---      ---       #998
      0100860AH   LINE      ---      ---       #999
      0100860AH   LINE      ---      ---       #1000
      0100860AH   LINE      ---      ---       #1001
      0100860AH   LINE      ---      ---       #1002
      0100860CH   LINE      ---      ---       #1003
      0100861BH   LINE      ---      ---       #1006
      0100861BH   LINE      ---      ---       #1007
      01008621H   LINE      ---      ---       #1008
      01008621H   LINE      ---      ---       #1009
      01008625H   LINE      ---      ---       #1010
      01008625H   LINE      ---      ---       #1011
      01008625H   LINE      ---      ---       #1012
      01008625H   LINE      ---      ---       #1013
      01008627H   LINE      ---      ---       #1015
      01008627H   LINE      ---      ---       #1016
      01008632H   LINE      ---      ---       #1017
      01008632H   LINE      ---      ---       #1018
      0100863AH   LINE      ---      ---       #1019
      0100863AH   LINE      ---      ---       #1020
      0100863AH   LINE      ---      ---       #1021
      0100863FH   LINE      ---      ---       #1022
      01008641H   LINE      ---      ---       #1023
      01008648H   LINE      ---      ---       #1024
      01008648H   LINE      ---      ---       #1025
      0100864EH   LINE      ---      ---       #1026
      01008652H   LINE      ---      ---       #1027
      01008657H   LINE      ---      ---       #1028
      0100865BH   LINE      ---      ---       #1029
      01008660H   LINE      ---      ---       #1030
      01008662H   LINE      ---      ---       #1031
      01008669H   LINE      ---      ---       #1032
      01008669H   LINE      ---      ---       #1033
      0100867AH   LINE      ---      ---       #1035
      0100867AH   LINE      ---      ---       #1036
      0100867EH   LINE      ---      ---       #1037
      01008686H   LINE      ---      ---       #1039
      01008686H   LINE      ---      ---       #1040
      01008691H   LINE      ---      ---       #1041
      0100869EH   LINE      ---      ---       #1043
      010086ACH   LINE      ---      ---       #1044
      010086ACH   LINE      ---      ---       #1045
      010086B1H   LINE      ---      ---       #1046
      010086B3H   LINE      ---      ---       #1048
      010086B3H   LINE      ---      ---       #1049
      010086B8H   LINE      ---      ---       #1050
      010086B8H   LINE      ---      ---       #1051
      010086C5H   LINE      ---      ---       #1052
      010086D0H   LINE      ---      ---       #1053
LX51 LINKER/LOCATER V4.66.1.0                                                         04/04/2019  16:35:10  PAGE 121


      010086D2H   LINE      ---      ---       #1055
      010086D2H   LINE      ---      ---       #1056
      010086DDH   LINE      ---      ---       #1057
      010086EAH   LINE      ---      ---       #1059
      010086F3H   LINE      ---      ---       #1060
      010086F3H   LINE      ---      ---       #1061
      01008707H   LINE      ---      ---       #1062
      01008709H   LINE      ---      ---       #1064
      01008709H   LINE      ---      ---       #1065
      0100870FH   LINE      ---      ---       #1066
      0100870FH   LINE      ---      ---       #1067
      0100871CH   LINE      ---      ---       #1068
      01008724H   LINE      ---      ---       #1069
      01008724H   LINE      ---      ---       #1070
      01008724H   LINE      ---      ---       #1072
      01008727H   LINE      ---      ---       #1073
      0100872DH   LINE      ---      ---       #1076
      01008731H   LINE      ---      ---       #1077
      01008731H   LINE      ---      ---       #1079
      01008731H   LINE      ---      ---       #1081
      01008731H   LINE      ---      ---       #1085
      01008737H   LINE      ---      ---       #1086
      01008737H   LINE      ---      ---       #1087
      0100873CH   LINE      ---      ---       #1088
      0100873CH   LINE      ---      ---       #1089
      01008745H   LINE      ---      ---       #1090
      01008745H   LINE      ---      ---       #1091
      01008748H   LINE      ---      ---       #1092
      0100874AH   LINE      ---      ---       #1094
      0100874AH   LINE      ---      ---       #1095
      01008750H   LINE      ---      ---       #1098
      01008754H   LINE      ---      ---       #1099
      01008754H   LINE      ---      ---       #1100
      01008759H   LINE      ---      ---       #1101
      0200032DH   SYMBOL    XDATA    BYTE      Set_Temp_Cnt
      0200032EH   SYMBOL    XDATA    BYTE      Display_Return_Cnt
      ---         BLOCKEND  CODE     ---       LVL=1
      ---         BLOCKEND  CODE     ---       LVL=0

      0100A1F8H   BLOCK     CODE     ---       LVL=0
      0100A1F8H   LINE      ---      ---       #1104
      0100A1F8H   LINE      ---      ---       #1105
      0100A1F8H   BLOCK     CODE     NEAR LAB  LVL=1
      0100A1F8H   LINE      ---      ---       #1108
      0100A1FFH   LINE      ---      ---       #1110
      0100A1FFH   LINE      ---      ---       #1111
      0100A201H   LINE      ---      ---       #1112
      0100A201H   LINE      ---      ---       #1113
      0100A204H   LINE      ---      ---       #1114
      0100A20AH   LINE      ---      ---       #1115
      0100A20AH   LINE      ---      ---       #1116
      0100A20FH   LINE      ---      ---       #1117
      0100A211H   LINE      ---      ---       #1118
      0100A218H   LINE      ---      ---       #1119
      0100A218H   LINE      ---      ---       #1120
      0100A21DH   LINE      ---      ---       #1121
      0100A21DH   LINE      ---      ---       #1123
      0100A21DH   LINE      ---      ---       #1125
      0100A21DH   LINE      ---      ---       #1128
      0100A22CH   LINE      ---      ---       #1131
      0100A22CH   LINE      ---      ---       #1132
      0100A233H   LINE      ---      ---       #1133
      0100A233H   LINE      ---      ---       #1134
      0100A23FH   LINE      ---      ---       #1135
      0100A23FH   LINE      ---      ---       #1136
LX51 LINKER/LOCATER V4.66.1.0                                                         04/04/2019  16:35:10  PAGE 122


      0100A23FH   LINE      ---      ---       #1137
      0100A23FH   LINE      ---      ---       #1138
      0100A241H   LINE      ---      ---       #1139
      0100A245H   LINE      ---      ---       #1140
      0100A245H   LINE      ---      ---       #1141
      0100A261H   LINE      ---      ---       #1142
      0100A261H   LINE      ---      ---       #1143
      0100A266H   LINE      ---      ---       #1144
      0100A266H   LINE      ---      ---       #1145
      0100A266H   LINE      ---      ---       #1147
      0100A266H   LINE      ---      ---       #1149
      0100A266H   LINE      ---      ---       #1150
      0100A266H   LINE      ---      ---       #1151
      0100A268H   LINE      ---      ---       #1152
      0100A276H   LINE      ---      ---       #1155
      0100A276H   LINE      ---      ---       #1156
      0100A27DH   LINE      ---      ---       #1157
      0100A27DH   LINE      ---      ---       #1158
      0100A282H   LINE      ---      ---       #1159
      0100A282H   LINE      ---      ---       #1160
      0100A282H   LINE      ---      ---       #1161
      0100A282H   LINE      ---      ---       #1162
      0100A284H   LINE      ---      ---       #1163
      0100A288H   LINE      ---      ---       #1164
      0100A288H   LINE      ---      ---       #1165
      0100A2A2H   LINE      ---      ---       #1166
      0100A2A2H   LINE      ---      ---       #1167
      0100A2ADH   LINE      ---      ---       #1168
      0100A2ADH   LINE      ---      ---       #1169
      0100A2ADH   LINE      ---      ---       #1171
      0100A2ADH   LINE      ---      ---       #1173
      0100A2ADH   LINE      ---      ---       #1174
      0100A2B2H   LINE      ---      ---       #1175
      0100A2B4H   LINE      ---      ---       #1176
      0100A2B8H   LINE      ---      ---       #1177
      0100A2B8H   LINE      ---      ---       #1178
      0100A2C6H   LINE      ---      ---       #1180
      0100A2C6H   LINE      ---      ---       #1181
      0100A2C9H   LINE      ---      ---       #1182
      0100A2D3H   LINE      ---      ---       #1184
      0100A2D3H   LINE      ---      ---       #1185
      0100A2E0H   LINE      ---      ---       #1186
      0100A2E7H   LINE      ---      ---       #1187
      0100A2E9H   LINE      ---      ---       #1189
      0100A2E9H   LINE      ---      ---       #1190
      0100A2F6H   LINE      ---      ---       #1191
      0100A2FDH   LINE      ---      ---       #1192
      0100A2FDH   LINE      ---      ---       #1194
      0100A300H   LINE      ---      ---       #1197
      0100A305H   LINE      ---      ---       #1198
      0100A305H   LINE      ---      ---       #1199
      0100A305H   LINE      ---      ---       #1201
      0100A305H   LINE      ---      ---       #1203
      0100A305H   LINE      ---      ---       #1205
      0100A308H   LINE      ---      ---       #1208
      0100A30EH   LINE      ---      ---       #1209
      0100A30EH   LINE      ---      ---       #1210
      0100A313H   LINE      ---      ---       #1211
      0100A313H   LINE      ---      ---       #1212
      0100A31CH   LINE      ---      ---       #1213
      0100A31CH   LINE      ---      ---       #1214
      0100A31FH   LINE      ---      ---       #1215
      0100A321H   LINE      ---      ---       #1217
      0100A321H   LINE      ---      ---       #1218
      0100A324H   LINE      ---      ---       #1221
LX51 LINKER/LOCATER V4.66.1.0                                                         04/04/2019  16:35:10  PAGE 123


      0100A329H   LINE      ---      ---       #1222
      0100A329H   LINE      ---      ---       #1223
      0100A32EH   LINE      ---      ---       #1224
      0200032FH   SYMBOL    XDATA    BYTE      Set_Temp_Cnt
      02000330H   SYMBOL    XDATA    BYTE      Display_Return_Cnt
      ---         BLOCKEND  CODE     ---       LVL=1
      ---         BLOCKEND  CODE     ---       LVL=0

      0100C44EH   BLOCK     CODE     ---       LVL=0
      0100C44EH   LINE      ---      ---       #1230
      0100C44EH   LINE      ---      ---       #1231
      0100C44EH   LINE      ---      ---       #1232
      0100C454H   LINE      ---      ---       #1233
      ---         BLOCKEND  ---      ---       LVL=0

      0100C45AH   BLOCK     CODE     ---       LVL=0
      0100C45AH   LINE      ---      ---       #1237
      0100C45AH   LINE      ---      ---       #1238
      0100C45AH   BLOCK     CODE     NEAR LAB  LVL=1
      0100C45AH   LINE      ---      ---       #1242
      0100C45CH   LINE      ---      ---       #1243
      0100C474H   LINE      ---      ---       #1245
      0100C479H   LINE      ---      ---       #1246
      0100C479H   LINE      ---      ---       #1247
      0100C47BH   LINE      ---      ---       #1248
      0100C47BH   LINE      ---      ---       #1249
      0100C492H   LINE      ---      ---       #1250
      0100C492H   LINE      ---      ---       #1251
      0100C49BH   LINE      ---      ---       #1252
      0100C49BH   LINE      ---      ---       #1253
      0100C49EH   LINE      ---      ---       #1254
      0100C49EH   LINE      ---      ---       #1255
      0100C49EH   LINE      ---      ---       #1256
      0100C4A1H   LINE      ---      ---       #1257
      0100C4A1H   LINE      ---      ---       #1258
      0100C4A8H   LINE      ---      ---       #1259
      0100C4A8H   LINE      ---      ---       #1260
      0100C4B1H   LINE      ---      ---       #1261
      0100C4B1H   LINE      ---      ---       #1262
      0100C4B4H   LINE      ---      ---       #1263
      0100C4B4H   LINE      ---      ---       #1264
      0100C4B4H   LINE      ---      ---       #1265
      0100C4B5H   LINE      ---      ---       #1266
      0100C4B5H   LINE      ---      ---       #1267
      0100C4BCH   LINE      ---      ---       #1268
      0100C4BCH   LINE      ---      ---       #1269
      0100C4C5H   LINE      ---      ---       #1270
      0100C4C5H   LINE      ---      ---       #1271
      0100C4C8H   LINE      ---      ---       #1272
      0100C4C8H   LINE      ---      ---       #1273
      0100C4C8H   LINE      ---      ---       #1274
      0100C4C8H   LINE      ---      ---       #1275
      00000006H   SYMBOL    DATA     WORD      temp1
      00000020H.5 SYMBOL    BIT      BIT       Temp_Bit1
      ---         BLOCKEND  CODE     ---       LVL=1
      ---         BLOCKEND  CODE     ---       LVL=0

      010098ADH   BLOCK     CODE     ---       LVL=0
      010098ADH   LINE      ---      ---       #1278
      010098ADH   LINE      ---      ---       #1279
      010098ADH   BLOCK     CODE     NEAR LAB  LVL=1
      010098ADH   LINE      ---      ---       #1285
      010098B5H   LINE      ---      ---       #1287
      010098B5H   LINE      ---      ---       #1288
      010098B7H   LINE      ---      ---       #1289
LX51 LINKER/LOCATER V4.66.1.0                                                         04/04/2019  16:35:10  PAGE 124


      010098B7H   LINE      ---      ---       #1291
      010098BFH   LINE      ---      ---       #1292
      010098BFH   LINE      ---      ---       #1293
      010098C5H   LINE      ---      ---       #1295
      010098C8H   LINE      ---      ---       #1297
      010098E2H   LINE      ---      ---       #1304
      010098EDH   LINE      ---      ---       #1305
      010098EDH   LINE      ---      ---       #1306
      010098EFH   LINE      ---      ---       #1307
      010098EFH   LINE      ---      ---       #1308
      010098EFH   LINE      ---      ---       #1309
      010098F1H   LINE      ---      ---       #1310
      01009901H   LINE      ---      ---       #1313
      01009901H   LINE      ---      ---       #1314
      01009907H   LINE      ---      ---       #1316
      01009907H   LINE      ---      ---       #1317
      0100990EH   LINE      ---      ---       #1319
      0100990EH   LINE      ---      ---       #1320
      01009910H   LINE      ---      ---       #1321
      01009910H   LINE      ---      ---       #1322
      0100991BH   LINE      ---      ---       #1323
      0100991BH   LINE      ---      ---       #1324
      0100991EH   LINE      ---      ---       #1325
      0100991EH   LINE      ---      ---       #1326
      0100991EH   LINE      ---      ---       #1328
      01009925H   LINE      ---      ---       #1329
      01009925H   LINE      ---      ---       #1330
      0100992CH   LINE      ---      ---       #1332
      0100992CH   LINE      ---      ---       #1333
      0100992EH   LINE      ---      ---       #1334
      0100992EH   LINE      ---      ---       #1335
      01009937H   LINE      ---      ---       #1336
      01009937H   LINE      ---      ---       #1337
      0100993AH   LINE      ---      ---       #1338
      0100993AH   LINE      ---      ---       #1339
      0100993AH   LINE      ---      ---       #1340
      01009945H   LINE      ---      ---       #1341
      01009945H   LINE      ---      ---       #1342
      0100994CH   LINE      ---      ---       #1344
      0100994CH   LINE      ---      ---       #1345
      0100994EH   LINE      ---      ---       #1346
      0100994EH   LINE      ---      ---       #1347
      01009957H   LINE      ---      ---       #1348
      01009957H   LINE      ---      ---       #1349
      0100995AH   LINE      ---      ---       #1350
      0100995AH   LINE      ---      ---       #1351
      0100995AH   LINE      ---      ---       #1352
      01009960H   LINE      ---      ---       #1353
      01009960H   LINE      ---      ---       #1354
      01009960H   LINE      ---      ---       #1355
      01009967H   LINE      ---      ---       #1357
      01009967H   LINE      ---      ---       #1358
      01009969H   LINE      ---      ---       #1359
      01009969H   LINE      ---      ---       #1360
      01009974H   LINE      ---      ---       #1361
      01009974H   LINE      ---      ---       #1362
      01009977H   LINE      ---      ---       #1363
      01009977H   LINE      ---      ---       #1364
      01009977H   LINE      ---      ---       #1365
      01009981H   LINE      ---      ---       #1366
      01009981H   LINE      ---      ---       #1367
      01009987H   LINE      ---      ---       #1368
      01009990H   LINE      ---      ---       #1369
      01009990H   LINE      ---      ---       #1370
      01009996H   LINE      ---      ---       #1371
LX51 LINKER/LOCATER V4.66.1.0                                                         04/04/2019  16:35:10  PAGE 125


      01009996H   LINE      ---      ---       #1372
      010099A1H   LINE      ---      ---       #1373
      010099A1H   LINE      ---      ---       #1374
      010099A1H   LINE      ---      ---       #1375
      010099A1H   LINE      ---      ---       #1376
      010099AAH   LINE      ---      ---       #1377
      010099AAH   LINE      ---      ---       #1378
      010099B1H   LINE      ---      ---       #1380
      010099B1H   LINE      ---      ---       #1381
      010099B3H   LINE      ---      ---       #1382
      010099B3H   LINE      ---      ---       #1383
      010099BEH   LINE      ---      ---       #1384
      010099BEH   LINE      ---      ---       #1385
      010099C1H   LINE      ---      ---       #1386
      010099C1H   LINE      ---      ---       #1387
      010099C3H   LINE      ---      ---       #1389
      010099C3H   LINE      ---      ---       #1391
      010099C3H   LINE      ---      ---       #1392
      010099C3H   LINE      ---      ---       #1393
      010099D4H   LINE      ---      ---       #1396
      010099D4H   LINE      ---      ---       #1397
      010099E2H   LINE      ---      ---       #1399
      010099E2H   LINE      ---      ---       #1400
      010099E6H   LINE      ---      ---       #1402
      010099E6H   LINE      ---      ---       #1403
      010099EAH   LINE      ---      ---       #1404
      010099EAH   LINE      ---      ---       #1405
      010099EAH   LINE      ---      ---       #1406
      010099F9H   LINE      ---      ---       #1407
      010099F9H   LINE      ---      ---       #1408
      010099FDH   LINE      ---      ---       #1410
      010099FDH   LINE      ---      ---       #1411
      01009A01H   LINE      ---      ---       #1412
      01009A01H   LINE      ---      ---       #1413
      01009A04H   LINE      ---      ---       #1414
      01009A16H   LINE      ---      ---       #1415
      01009A16H   LINE      ---      ---       #1416
      01009A1AH   LINE      ---      ---       #1418
      01009A1AH   LINE      ---      ---       #1419
      01009A1AH   LINE      ---      ---       #1420
      01009A1AH   LINE      ---      ---       #1421
      01009A2DH   LINE      ---      ---       #1422
      01009A2DH   LINE      ---      ---       #1423
      01009A2DH   LINE      ---      ---       #1424
      01009A30H   LINE      ---      ---       #1425
      01009A39H   LINE      ---      ---       #1426
      01009A39H   LINE      ---      ---       #1427
      01009A3AH   LINE      ---      ---       #1428
      01009A3AH   LINE      ---      ---       #1429
      01009A3AH   LINE      ---      ---       #1430
      01009A49H   LINE      ---      ---       #1431
      01009A49H   LINE      ---      ---       #1432
      01009A4DH   LINE      ---      ---       #1434
      01009A4DH   LINE      ---      ---       #1435
      01009A4EH   LINE      ---      ---       #1436
      01009A4EH   LINE      ---      ---       #1437
      01009A5FH   LINE      ---      ---       #1438
      01009A5FH   LINE      ---      ---       #1439
      01009A63H   LINE      ---      ---       #1441
      01009A63H   LINE      ---      ---       #1442
      01009A67H   LINE      ---      ---       #1443
      01009A67H   LINE      ---      ---       #1444
      01009A69H   LINE      ---      ---       #1446
      01009A69H   LINE      ---      ---       #1448
      01009A69H   LINE      ---      ---       #1449
LX51 LINKER/LOCATER V4.66.1.0                                                         04/04/2019  16:35:10  PAGE 126


      01009A69H   LINE      ---      ---       #1450
      01009A70H   LINE      ---      ---       #1451
      01009A70H   LINE      ---      ---       #1452
      01009A73H   LINE      ---      ---       #1453
      01009A77H   LINE      ---      ---       #1454
      01009A7CH   LINE      ---      ---       #1455
      01009A7EH   LINE      ---      ---       #1456
      01009A7EH   LINE      ---      ---       #1458
      01009A7EH   LINE      ---      ---       #1460
      01009A7EH   LINE      ---      ---       #1463
      01009A85H   LINE      ---      ---       #1464
      01009A85H   LINE      ---      ---       #1465
      01009A8AH   LINE      ---      ---       #1466
      01009A8CH   LINE      ---      ---       #1467
      01009A90H   LINE      ---      ---       #1468
      01009A90H   LINE      ---      ---       #1469
      01009A93H   LINE      ---      ---       #1470
      01009A93H   LINE      ---      ---       #1472
      01009A93H   LINE      ---      ---       #1474
      01009A93H   LINE      ---      ---       #1477
      01009A99H   LINE      ---      ---       #1478
      01009A99H   LINE      ---      ---       #1479
      01009AA2H   LINE      ---      ---       #1480
      01009AA2H   LINE      ---      ---       #1483
      01009AA8H   LINE      ---      ---       #1484
      01009AA8H   LINE      ---      ---       #1485
      01009AADH   LINE      ---      ---       #1486
      01009AADH   LINE      ---      ---       #1487
      01009AB6H   LINE      ---      ---       #1488
      01009AB6H   LINE      ---      ---       #1489
      01009AB9H   LINE      ---      ---       #1490
      01009ABBH   LINE      ---      ---       #1492
      01009ABBH   LINE      ---      ---       #1493
      01009AC0H   LINE      ---      ---       #1494
      01009AC2H   LINE      ---      ---       #1497
      01009AC2H   LINE      ---      ---       #1500
      01009AC7H   LINE      ---      ---       #1501
      02000331H   SYMBOL    XDATA    BYTE      Display_Return_Cnt
      02000332H   SYMBOL    XDATA    BYTE      Set_Time_Cnt
      ---         BLOCKEND  CODE     ---       LVL=1
      ---         BLOCKEND  CODE     ---       LVL=0

      0100C4C9H   BLOCK     CODE     ---       LVL=0
      0100C4C9H   LINE      ---      ---       #1506
      0100C4C9H   LINE      ---      ---       #1507
      0100C4C9H   LINE      ---      ---       #1508
      0100C4D2H   LINE      ---      ---       #1509
      ---         BLOCKEND  ---      ---       LVL=0

      0100A3EEH   BLOCK     CODE     ---       LVL=0
      0100A3EEH   LINE      ---      ---       #1512
      0100A3EEH   LINE      ---      ---       #1513
      0100A3EEH   BLOCK     CODE     NEAR LAB  LVL=1
      0100A3EEH   LINE      ---      ---       #1517
      0100A3F5H   LINE      ---      ---       #1519
      0100A3F5H   LINE      ---      ---       #1520
      0100A3F7H   LINE      ---      ---       #1521
      0100A3F7H   LINE      ---      ---       #1522
      0100A3FAH   LINE      ---      ---       #1523
      0100A400H   LINE      ---      ---       #1524
      0100A400H   LINE      ---      ---       #1525
      0100A40FH   LINE      ---      ---       #1526
      0100A411H   LINE      ---      ---       #1527
      0100A418H   LINE      ---      ---       #1528
      0100A418H   LINE      ---      ---       #1529
LX51 LINKER/LOCATER V4.66.1.0                                                         04/04/2019  16:35:10  PAGE 127


      0100A42AH   LINE      ---      ---       #1530
      0100A42AH   LINE      ---      ---       #1532
      0100A42AH   LINE      ---      ---       #1534
      0100A42AH   LINE      ---      ---       #1537
      0100A431H   LINE      ---      ---       #1538
      0100A431H   LINE      ---      ---       #1539
      0100A437H   LINE      ---      ---       #1541
      0100A43EH   LINE      ---      ---       #1542
      0100A440H   LINE      ---      ---       #1543
      0100A447H   LINE      ---      ---       #1544
      0100A447H   LINE      ---      ---       #1545
      0100A450H   LINE      ---      ---       #1546
      0100A450H   LINE      ---      ---       #1547
      0100A453H   LINE      ---      ---       #1548
      0100A453H   LINE      ---      ---       #1549
      0100A455H   LINE      ---      ---       #1550
      0100A457H   LINE      ---      ---       #1551
      0100A45EH   LINE      ---      ---       #1552
      0100A45EH   LINE      ---      ---       #1553
      0100A467H   LINE      ---      ---       #1554
      0100A467H   LINE      ---      ---       #1555
      0100A46AH   LINE      ---      ---       #1556
      0100A46AH   LINE      ---      ---       #1557
      0100A46EH   LINE      ---      ---       #1558
      0100A470H   LINE      ---      ---       #1559
      0100A477H   LINE      ---      ---       #1560
      0100A477H   LINE      ---      ---       #1561
      0100A479H   LINE      ---      ---       #1562
      0100A482H   LINE      ---      ---       #1563
      0100A485H   LINE      ---      ---       #1564
      0100A489H   LINE      ---      ---       #1565
      0100A491H   LINE      ---      ---       #1566
      0100A494H   LINE      ---      ---       #1567
      0100A494H   LINE      ---      ---       #1569
      0100A494H   LINE      ---      ---       #1571
      0100A494H   LINE      ---      ---       #1575
      0100A49AH   LINE      ---      ---       #1576
      0100A49AH   LINE      ---      ---       #1577
      0100A49FH   LINE      ---      ---       #1578
      0100A49FH   LINE      ---      ---       #1579
      0100A4A8H   LINE      ---      ---       #1580
      0100A4A8H   LINE      ---      ---       #1581
      0100A4ABH   LINE      ---      ---       #1582
      0100A4ADH   LINE      ---      ---       #1584
      0100A4ADH   LINE      ---      ---       #1585
      0100A4B2H   LINE      ---      ---       #1586
      0100A4B5H   LINE      ---      ---       #1587
      0100A4BEH   LINE      ---      ---       #1588
      0100A4BEH   LINE      ---      ---       #1590
      0100A4C3H   LINE      ---      ---       #1591
      02000333H   SYMBOL    XDATA    BYTE      Display_Return_Cnt
      02000334H   SYMBOL    XDATA    BYTE      Set_InExp_Cnt
      ---         BLOCKEND  CODE     ---       LVL=1
      ---         BLOCKEND  CODE     ---       LVL=0

      01008047H   BLOCK     CODE     ---       LVL=0
      01008047H   LINE      ---      ---       #1596
      01008047H   LINE      ---      ---       #1597
      01008047H   LINE      ---      ---       #1598
      01008056H   LINE      ---      ---       #1599
      01008056H   LINE      ---      ---       #1600
      01008059H   LINE      ---      ---       #1601
      01008059H   LINE      ---      ---       #1602
      ---         BLOCKEND  ---      ---       LVL=0

LX51 LINKER/LOCATER V4.66.1.0                                                         04/04/2019  16:35:10  PAGE 128


      010072C1H   BLOCK     CODE     ---       LVL=0
      010072C1H   LINE      ---      ---       #1604
      010072C1H   LINE      ---      ---       #1605
      010072C1H   BLOCK     CODE     NEAR LAB  LVL=1
      010072C1H   LINE      ---      ---       #1606
      010072C4H   LINE      ---      ---       #1607
      010072C6H   LINE      ---      ---       #1611
      010072CEH   LINE      ---      ---       #1613
      010072CEH   LINE      ---      ---       #1614
      010072D3H   LINE      ---      ---       #1616
      010072D3H   LINE      ---      ---       #1617
      010072D9H   LINE      ---      ---       #1618
      010072D9H   LINE      ---      ---       #1619
      010072D9H   LINE      ---      ---       #1621
      010072DEH   LINE      ---      ---       #1622
      010072DEH   LINE      ---      ---       #1623
      010072EDH   LINE      ---      ---       #1624
      010072EDH   LINE      ---      ---       #1625
      010072F3H   LINE      ---      ---       #1626
      010072F5H   LINE      ---      ---       #1627
      01007303H   LINE      ---      ---       #1628
      01007309H   LINE      ---      ---       #1629
      01007309H   LINE      ---      ---       #1630
      01007309H   LINE      ---      ---       #1632
      01007309H   LINE      ---      ---       #1634
      01007309H   LINE      ---      ---       #1636
      0100731EH   LINE      ---      ---       #1641
      0100731EH   LINE      ---      ---       #1642
      01007323H   LINE      ---      ---       #1643
      01007329H   LINE      ---      ---       #1644
      0100732DH   LINE      ---      ---       #1646
      01007334H   LINE      ---      ---       #1647
      01007334H   LINE      ---      ---       #1648
      01007337H   LINE      ---      ---       #1649
      0100733BH   LINE      ---      ---       #1650
      0100733EH   LINE      ---      ---       #1651
      0100733EH   LINE      ---      ---       #1652
      0100733EH   LINE      ---      ---       #1654
      01007344H   LINE      ---      ---       #1655
      01007344H   LINE      ---      ---       #1657
      0100734AH   LINE      ---      ---       #1658
      01007351H   LINE      ---      ---       #1660
      01007351H   LINE      ---      ---       #1661
      0100735CH   LINE      ---      ---       #1662
      01007368H   LINE      ---      ---       #1663
      01007379H   LINE      ---      ---       #1665
      01007379H   LINE      ---      ---       #1666
      0100737BH   LINE      ---      ---       #1668
      0100737BH   LINE      ---      ---       #1669
      01007384H   LINE      ---      ---       #1670
      0100738DH   LINE      ---      ---       #1671
      010073A0H   LINE      ---      ---       #1673
      010073B1H   LINE      ---      ---       #1674
      010073B1H   LINE      ---      ---       #1675
      010073B3H   LINE      ---      ---       #1676
      010073B3H   LINE      ---      ---       #1677
      0200010EH   SYMBOL    XDATA    WORD      i
      02000110H   SYMBOL    XDATA    BYTE      DispEnable
      02000335H   SYMBOL    XDATA    BYTE      ReCnt
      ---         BLOCKEND  CODE     ---       LVL=1
      ---         BLOCKEND  CODE     ---       LVL=0

      ---         MODULE    ---      ---       UART_FUN
      0200024DH   PUBLIC    XDATA    BYTE      eusartRxCount
      0100C4F4H   PUBLIC    CODE     ---       EUSART_Receive_ISR
LX51 LINKER/LOCATER V4.66.1.0                                                         04/04/2019  16:35:10  PAGE 129


      0100B7DDH   PUBLIC    CODE     ---       EUSART_Transmit_ISR
      0100AF16H   PUBLIC    CODE     ---       _EUSART_Write_Str
      0100AF2FH   PUBLIC    CODE     ---       _EUSART_Write
      0100AF3FH   PUBLIC    CODE     ---       EUSART_Read
      0100C4D7H   PUBLIC    CODE     ---       EUSART_Initialize
      00000089H   SFRSYM    DATA     BYTE      TMOD
      0000008DH   SFRSYM    DATA     BYTE      TH1
      00000098H.1 SFRSYM    DATA     BIT       TI
      00000088H.6 SFRSYM    DATA     BIT       TR1
      000000E0H   SFRSYM    DATA     BYTE      ACC
      00000087H   SFRSYM    DATA     BYTE      PCON
      00000099H   SFRSYM    DATA     BYTE      SBUF
      000000A8H   SFRSYM    DATA     BYTE      IE
      00000098H   SFRSYM    DATA     BYTE      SCON
      0200024EH   SYMBOL    XDATA    BYTE      eusartRxHead
      0200024FH   SYMBOL    XDATA    BYTE      eusartRxTail
      02000250H   SYMBOL    XDATA    ---       eusartRxBuffer
      020002D0H   SYMBOL    XDATA    BYTE      Send_uart_busy
      0100AF35H   SYMBOL    CODE     ---       _send_char_com

      0100C4D7H   BLOCK     CODE     ---       LVL=0
      0100C4D7H   LINE      ---      ---       #42
      0100C4D7H   LINE      ---      ---       #43
      0100C4D7H   LINE      ---      ---       #45
      0100C4DAH   LINE      ---      ---       #46
      0100C4DDH   LINE      ---      ---       #47
      0100C4E0H   LINE      ---      ---       #48
      0100C4E3H   LINE      ---      ---       #49
      0100C4E6H   LINE      ---      ---       #50
      0100C4E8H   LINE      ---      ---       #52
      0100C4EDH   LINE      ---      ---       #53
      0100C4EFH   LINE      ---      ---       #54
      0100C4F3H   LINE      ---      ---       #55
      ---         BLOCKEND  ---      ---       LVL=0

      0100AF3FH   BLOCK     CODE     ---       LVL=0
      0100AF3FH   LINE      ---      ---       #58
      0100AF3FH   LINE      ---      ---       #59
      0100AF3FH   BLOCK     CODE     NEAR LAB  LVL=1
      0100AF3FH   LINE      ---      ---       #60
      0100AF3FH   LINE      ---      ---       #61
      0100AF45H   LINE      ---      ---       #62
      0100AF4BH   LINE      ---      ---       #63
      0100AF51H   LINE      ---      ---       #64
      0100AF51H   LINE      ---      ---       #65
      0100AF56H   LINE      ---      ---       #66
      0100AF56H   LINE      ---      ---       #67
      0100AF5CH   LINE      ---      ---       #68
      0100AF5CH   LINE      ---      ---       #69
      00000007H   SYMBOL    DATA     BYTE      readValue
      ---         BLOCKEND  CODE     ---       LVL=1
      ---         BLOCKEND  CODE     ---       LVL=0

      0100AF35H   BLOCK     CODE     ---       LVL=0
      0100AF35H   LINE      ---      ---       #72
      0100AF35H   LINE      ---      ---       #73
      0100AF35H   LINE      ---      ---       #74
      0100AF36H   LINE      ---      ---       #75
      0100AF38H   LINE      ---      ---       #76
      0100AF3EH   LINE      ---      ---       #77
      00000007H   SYMBOL    DATA     BYTE      Send_ch
      ---         BLOCKEND  ---      ---       LVL=0

      0100AF2FH   BLOCK     CODE     ---       LVL=0
      0100AF2FH   LINE      ---      ---       #80
LX51 LINKER/LOCATER V4.66.1.0                                                         04/04/2019  16:35:10  PAGE 130


      0100AF2FH   LINE      ---      ---       #81
      0100AF2FH   LINE      ---      ---       #82
      00000007H   SYMBOL    DATA     BYTE      txData
      ---         BLOCKEND  ---      ---       LVL=0

      0100AF16H   BLOCK     CODE     ---       LVL=0
      0100AF16H   LINE      ---      ---       #87
      0100AF1CH   LINE      ---      ---       #88
      02000112H   SYMBOL    XDATA    ---       stra
      00000005H   SYMBOL    DATA     BYTE      cnt
      0100AF1CH   BLOCK     CODE     NEAR LAB  LVL=1
      0100AF1CH   LINE      ---      ---       #90
      0100AF23H   LINE      ---      ---       #91
      0100AF23H   LINE      ---      ---       #92
      0100AF2BH   LINE      ---      ---       #93
      0100AF2EH   LINE      ---      ---       #94
      00000006H   SYMBOL    DATA     BYTE      i
      ---         BLOCKEND  CODE     ---       LVL=1
      ---         BLOCKEND  CODE     ---       LVL=0

      0100B7DDH   BLOCK     CODE     ---       LVL=0
      0100B7DDH   LINE      ---      ---       #96
      0100B7DDH   LINE      ---      ---       #97
      0100B7DDH   LINE      ---      ---       #98
      0100B7DFH   LINE      ---      ---       #99
      0100B7E4H   LINE      ---      ---       #100
      ---         BLOCKEND  ---      ---       LVL=0

      0100C4F4H   BLOCK     CODE     ---       LVL=0
      0100C4F4H   LINE      ---      ---       #103
      0100C4F4H   LINE      ---      ---       #104
      0100C4F4H   LINE      ---      ---       #105
      0100C4FAH   LINE      ---      ---       #106
      0100C502H   LINE      ---      ---       #108
      0100C508H   LINE      ---      ---       #109
      0100C508H   LINE      ---      ---       #110
      0100C50DH   LINE      ---      ---       #111
      0100C50DH   LINE      ---      ---       #112
      0100C513H   LINE      ---      ---       #113
      ---         BLOCKEND  ---      ---       LVL=0

      ---         MODULE    ---      ---       ?C_STARTUP
      01000000H   PUBLIC    CODE     ---       ?C_STARTUP

      ---         MODULE    ---      ---       ?C?COPY
      01005785H   PUBLIC    CODE     ---       ?C?COPY

      ---         MODULE    ---      ---       ?C?CLDPTR
      010057ABH   PUBLIC    CODE     ---       ?C?CLDPTR

      ---         MODULE    ---      ---       ?C?CLDOPTR
      010057C4H   PUBLIC    CODE     ---       ?C?CLDOPTR

      ---         MODULE    ---      ---       ?C?CSTPTR
      010057F1H   PUBLIC    CODE     ---       ?C?CSTPTR

      ---         MODULE    ---      ---       ?C?CSTOPTR
      01005803H   PUBLIC    CODE     ---       ?C?CSTOPTR

      ---         MODULE    ---      ---       ?C?IMUL
      01005825H   PUBLIC    CODE     ---       ?C?IMUL

      ---         MODULE    ---      ---       ?C?UIDIV
      01005837H   PUBLIC    CODE     ---       ?C?UIDIV

LX51 LINKER/LOCATER V4.66.1.0                                                         04/04/2019  16:35:10  PAGE 131


      ---         MODULE    ---      ---       ?C?SIDIV
      0100588CH   PUBLIC    CODE     ---       ?C?SIDIV

      ---         MODULE    ---      ---       ?C?IILDX
      010058C2H   PUBLIC    CODE     ---       ?C?IILDX

      ---         MODULE    ---      ---       ?C?LADD
      010058D8H   PUBLIC    CODE     ---       ?C?LADD

      ---         MODULE    ---      ---       ?C?LSUB
      010058E5H   PUBLIC    CODE     ---       ?C?LSUB

      ---         MODULE    ---      ---       ?C?LMUL
      010058F3H   PUBLIC    CODE     ---       ?C?LMUL

      ---         MODULE    ---      ---       ?C?ULDIV
      0100597EH   PUBLIC    CODE     ---       ?C?ULDIV

      ---         MODULE    ---      ---       ?C?SLDIV
      01006303H   PUBLIC    CODE     ---       ?C?SLDIV

      ---         MODULE    ---      ---       ?C?LAND
      01005A10H   PUBLIC    CODE     ---       ?C?LAND

      ---         MODULE    ---      ---       ?C?LOR
      01005A1DH   PUBLIC    CODE     ---       ?C?LOR

      ---         MODULE    ---      ---       ?C?LNOT
      01005A2AH   PUBLIC    CODE     ---       ?C?LNOT

      ---         MODULE    ---      ---       ?C?SLCMP
      01005A37H   PUBLIC    CODE     ---       ?C?SLCMP

      ---         MODULE    ---      ---       ?C?ULCMP
      01005A4DH   PUBLIC    CODE     ---       ?C?ULCMP

      ---         MODULE    ---      ---       ?C?ULSHR
      01005A5EH   PUBLIC    CODE     ---       ?C?ULSHR

      ---         MODULE    ---      ---       ?C?LSHL
      01005A71H   PUBLIC    CODE     ---       ?C?LSHL

      ---         MODULE    ---      ---       ?C?LLDXDATA
      01005A84H   PUBLIC    CODE     ---       ?C?LLDXDATA

      ---         MODULE    ---      ---       ?C?LLDXDATA0
      01005A90H   PUBLIC    CODE     ---       ?C?LLDXDATA0

      ---         MODULE    ---      ---       ?C?LSTXDATA
      01005A9CH   PUBLIC    CODE     ---       ?C?LSTXDATA

      ---         MODULE    ---      ---       ?C?LSTKXDATA
      01005AA8H   PUBLIC    CODE     ---       ?C?LSTKXDATA

      ---         MODULE    ---      ---       ?C?OFFXADD
      01005AD9H   PUBLIC    CODE     ---       ?C?OFFXADD

      ---         MODULE    ---      ---       ?C?PLDXDATA
      01005AE5H   PUBLIC    CODE     ---       ?C?PLDXDATA

      ---         MODULE    ---      ---       ?C?PSTXDATA
      01005AEEH   PUBLIC    CODE     ---       ?C?PSTXDATA

      ---         MODULE    ---      ---       ?C?PLDPTR
      01005AF7H   PUBLIC    CODE     ---       ?C?PLDPTR
LX51 LINKER/LOCATER V4.66.1.0                                                         04/04/2019  16:35:10  PAGE 132



      ---         MODULE    ---      ---       ?C?PLDOPTR
      01005B17H   PUBLIC    CODE     ---       ?C?PLDOPTR

      ---         MODULE    ---      ---       ?C?CCASE
      01005B47H   PUBLIC    CODE     ---       ?C?CCASE

      ---         MODULE    ---      ---       ?C?ICALL
      01005B6DH   PUBLIC    CODE     ---       ?C?ICALL
      01005B71H   PUBLIC    CODE     ---       ?C?ICALL2

      ---         MODULE    ---      ---       ABS
      01000016H   PUBLIC    CODE     ---       _ABS

      ---         MODULE    ---      ---       ?C?STRCPY
      01005C3FH   PUBLIC    CODE     ---       ?C?STRCPY

      ---         MODULE    ---      ---       ?C_INIT
      010062BEH   PUBLIC    CODE     ---       ?C_START

      ---         MODULE    ---      ---       ?C?PLDIDATA
      01005C5CH   PUBLIC    CODE     ---       ?C?PLDIDATA

      ---         MODULE    ---      ---       ?C?PLDPDATA
      01005C65H   PUBLIC    CODE     ---       ?C?PLDPDATA

      ---         MODULE    ---      ---       ?C?PLDCODE
      01005C6EH   PUBLIC    CODE     ---       ?C?PLDCODE

Program Size: data=26.0 xdata=858 const=0 code=51153
LX51 RUN COMPLETE.  0 WARNING(S),  0 ERROR(S)
