LX51 LINKER/LOCATER V4.66.93.0                                                          04/19/2019  09:16:48  PAGE 1


LX51 LINKER/LOCATER V4.66.93.0, INVOKED BY:
D:\KEIL_V5\C51\BIN\LX51.EXE ..\OBJ\stc_eeprom.obj, ..\OBJ\delay.obj, ..\OBJ\Main_Tik_Tok.obj, ..\OBJ\WS_Task_Manage.obj,
>>  ..\OBJ\Main_Tik_Function.obj, ..\OBJ\Sub_Tik_Function.obj, ..\OBJ\Normal_Task.obj, ..\OBJ\ActivityFunctions.obj, ..\
>> OBJ\Sound_Type.obj, ..\OBJ\main.obj, ..\OBJ\StcRomCrc16.obj, ..\OBJ\lcd.obj, ..\OBJ\w25x.obj, ..\OBJ\sht21.obj, ..\OB
>> J\RX8010.obj, ..\OBJ\ds18b20.obj, ..\OBJ\key_datas.obj, ..\OBJ\Key_Multifun.obj, ..\OBJ\GUI.obj, ..\OBJ\uart_fun.obj 
>> TO ..\OBJ\VHB15A PRINT (.\VHB15A.map) CLASSES (XDATA (X:0X0-X:0X3FF), HDATA (X:0X0-X:0X3FF), CODE (C:0X0-C:0XEFFF), C
>> ONST (C:0X0-C:0XEFFF), ECODE (C:0X0-C:0XEFFF), HCONST (C:0X0-C:0XEFFF))


CPU MODE:     8051 MODE
MEMORY MODEL: LARGE


INPUT MODULES INCLUDED:
  ..\OBJ\stc_eeprom.obj (STC_EEPROM)
         COMMENT TYPE 0: C51 V9.59.0.0
  ..\OBJ\delay.obj (DELAY)
         COMMENT TYPE 0: C51 V9.59.0.0
  ..\OBJ\Main_Tik_Tok.obj (MAIN_TIK_TOK)
         COMMENT TYPE 0: C51 V9.59.0.0
  ..\OBJ\WS_Task_Manage.obj (WS_TASK_MANAGE)
         COMMENT TYPE 0: C51 V9.59.0.0
  ..\OBJ\Main_Tik_Function.obj (MAIN_TIK_FUNCTION)
         COMMENT TYPE 0: C51 V9.59.0.0
  ..\OBJ\Sub_Tik_Function.obj (SUB_TIK_FUNCTION)
         COMMENT TYPE 0: C51 V9.59.0.0
  ..\OBJ\Normal_Task.obj (NORMAL_TASK)
         COMMENT TYPE 0: C51 V9.59.0.0
  ..\OBJ\ActivityFunctions.obj (ACTIVITYFUNCTIONS)
         COMMENT TYPE 0: C51 V9.59.0.0
  ..\OBJ\Sound_Type.obj (SOUND_TYPE)
         COMMENT TYPE 0: C51 V9.59.0.0
  ..\OBJ\main.obj (MAIN)
         COMMENT TYPE 0: C51 V9.59.0.0
  ..\OBJ\StcRomCrc16.obj (STCROMCRC16)
         COMMENT TYPE 0: C51 V9.59.0.0
  ..\OBJ\lcd.obj (LCD)
         COMMENT TYPE 0: C51 V9.59.0.0
  ..\OBJ\w25x.obj (W25X)
         COMMENT TYPE 0: C51 V9.59.0.0
  ..\OBJ\sht21.obj (SHT21)
         COMMENT TYPE 0: C51 V9.59.0.0
  ..\OBJ\RX8010.obj (RX8010)
         COMMENT TYPE 0: C51 V9.59.0.0
  ..\OBJ\ds18b20.obj (DS18B20)
         COMMENT TYPE 0: C51 V9.59.0.0
  ..\OBJ\key_datas.obj (KEY_DATAS)
         COMMENT TYPE 0: C51 V9.59.0.0
  ..\OBJ\Key_Multifun.obj (KEY_MULTIFUN)
         COMMENT TYPE 0: C51 V9.59.0.0
  ..\OBJ\GUI.obj (GUI)
         COMMENT TYPE 0: C51 V9.59.0.0
  ..\OBJ\uart_fun.obj (UART_FUN)
         COMMENT TYPE 0: C51 V9.59.0.0
  D:\KEIL_V5\C51\LIB\C51L.LIB (?C_STARTUP)
         COMMENT TYPE 1: A51 / ASM51 Assembler
  D:\KEIL_V5\C51\LIB\C51L.LIB (?C?COPY)
         COMMENT TYPE 1: A51 / ASM51 Assembler
  D:\KEIL_V5\C51\LIB\C51L.LIB (?C?CLDPTR)
         COMMENT TYPE 1: A51 / ASM51 Assembler
  D:\KEIL_V5\C51\LIB\C51L.LIB (?C?CLDOPTR)
         COMMENT TYPE 1: A51 / ASM51 Assembler
  D:\KEIL_V5\C51\LIB\C51L.LIB (?C?CSTPTR)
         COMMENT TYPE 1: A51 / ASM51 Assembler
  D:\KEIL_V5\C51\LIB\C51L.LIB (?C?CSTOPTR)
         COMMENT TYPE 1: A51 / ASM51 Assembler
LX51 LINKER/LOCATER V4.66.93.0                                                        04/19/2019  09:16:48  PAGE 2


  D:\KEIL_V5\C51\LIB\C51L.LIB (?C?IMUL)
         COMMENT TYPE 1: A51 / ASM51 Assembler
  D:\KEIL_V5\C51\LIB\C51L.LIB (?C?UIDIV)
         COMMENT TYPE 1: A51 / ASM51 Assembler
  D:\KEIL_V5\C51\LIB\C51L.LIB (?C?SIDIV)
         COMMENT TYPE 1: A51 / ASM51 Assembler
  D:\KEIL_V5\C51\LIB\C51L.LIB (?C?IILDX)
         COMMENT TYPE 1: A51 / ASM51 Assembler
  D:\KEIL_V5\C51\LIB\C51L.LIB (?C?LADD)
         COMMENT TYPE 1: A51 / ASM51 Assembler
  D:\KEIL_V5\C51\LIB\C51L.LIB (?C?LSUB)
         COMMENT TYPE 1: A51 / ASM51 Assembler
  D:\KEIL_V5\C51\LIB\C51L.LIB (?C?LMUL)
         COMMENT TYPE 1: A51 / ASM51 Assembler
  D:\KEIL_V5\C51\LIB\C51L.LIB (?C?ULDIV)
         COMMENT TYPE 1: A51 / ASM51 Assembler
  D:\KEIL_V5\C51\LIB\C51L.LIB (?C?SLDIV)
         COMMENT TYPE 1: A51 / ASM51 Assembler
  D:\KEIL_V5\C51\LIB\C51L.LIB (?C?LAND)
         COMMENT TYPE 1: A51 / ASM51 Assembler
  D:\KEIL_V5\C51\LIB\C51L.LIB (?C?LOR)
         COMMENT TYPE 1: A51 / ASM51 Assembler
  D:\KEIL_V5\C51\LIB\C51L.LIB (?C?LNOT)
         COMMENT TYPE 1: A51 / ASM51 Assembler
  D:\KEIL_V5\C51\LIB\C51L.LIB (?C?SLCMP)
         COMMENT TYPE 1: A51 / ASM51 Assembler
  D:\KEIL_V5\C51\LIB\C51L.LIB (?C?ULCMP)
         COMMENT TYPE 1: A51 / ASM51 Assembler
  D:\KEIL_V5\C51\LIB\C51L.LIB (?C?ULSHR)
         COMMENT TYPE 1: A51 / ASM51 Assembler
  D:\KEIL_V5\C51\LIB\C51L.LIB (?C?LSHL)
         COMMENT TYPE 1: A51 / ASM51 Assembler
  D:\KEIL_V5\C51\LIB\C51L.LIB (?C?LLDXDATA)
         COMMENT TYPE 1: A51 / ASM51 Assembler
  D:\KEIL_V5\C51\LIB\C51L.LIB (?C?LLDXDATA0)
         COMMENT TYPE 1: A51 / ASM51 Assembler
  D:\KEIL_V5\C51\LIB\C51L.LIB (?C?LSTXDATA)
         COMMENT TYPE 1: A51 / ASM51 Assembler
  D:\KEIL_V5\C51\LIB\C51L.LIB (?C?LSTKXDATA)
         COMMENT TYPE 1: A51 / ASM51 Assembler
  D:\KEIL_V5\C51\LIB\C51L.LIB (?C?OFFXADD)
         COMMENT TYPE 1: A51 / ASM51 Assembler
  D:\KEIL_V5\C51\LIB\C51L.LIB (?C?PLDXDATA)
         COMMENT TYPE 1: A51 / ASM51 Assembler
  D:\KEIL_V5\C51\LIB\C51L.LIB (?C?PSTXDATA)
         COMMENT TYPE 1: A51 / ASM51 Assembler
  D:\KEIL_V5\C51\LIB\C51L.LIB (?C?PLDPTR)
         COMMENT TYPE 1: A51 / ASM51 Assembler
  D:\KEIL_V5\C51\LIB\C51L.LIB (?C?PLDOPTR)
         COMMENT TYPE 1: A51 / ASM51 Assembler
  D:\KEIL_V5\C51\LIB\C51L.LIB (?C?CCASE)
         COMMENT TYPE 1: A51 / ASM51 Assembler
  D:\KEIL_V5\C51\LIB\C51L.LIB (?C?ICALL)
         COMMENT TYPE 1: A51 / ASM51 Assembler
  D:\KEIL_V5\C51\LIB\C51L.LIB (ABS)
         COMMENT TYPE 1: A51 / ASM51 Assembler
  D:\KEIL_V5\C51\LIB\C51L.LIB (?C?STRCPY)
         COMMENT TYPE 1: A51 / ASM51 Assembler
  D:\KEIL_V5\C51\LIB\C51L.LIB (?C_INIT)
         COMMENT TYPE 1: A51 / ASM51 Assembler
  D:\KEIL_V5\C51\LIB\C51L.LIB (?C?PLDIDATA)
         COMMENT TYPE 1: A51 / ASM51 Assembler
  D:\KEIL_V5\C51\LIB\C51L.LIB (?C?PLDPDATA)
         COMMENT TYPE 1: A51 / ASM51 Assembler
  D:\KEIL_V5\C51\LIB\C51L.LIB (?C?PLDCODE)
LX51 LINKER/LOCATER V4.66.93.0                                                        04/19/2019  09:16:48  PAGE 3


         COMMENT TYPE 1: A51 / ASM51 Assembler


ACTIVE MEMORY CLASSES OF MODULE:  ..\OBJ\VHB15A (STC_EEPROM)

BASE        START       END         USED      MEMORY CLASS
==========================================================
X:000000H   X:000000H   X:0003FFH   000362H   XDATA
X:000000H   X:000000H   X:0003FFH             HDATA
C:000000H   C:000000H   C:00EFFFH   007166H   CODE
C:000000H   C:000000H   C:00EFFFH   005922H   CONST
C:000000H   C:000000H   C:00EFFFH             ECODE
I:800000H   C:000000H   C:00EFFFH             HCONST
I:000020H.0 I:000020H.0 I:00002FH.7 000000H.1 BIT
I:000000H   I:000000H   I:0000FFH   000001H   IDATA
I:000000H   I:000000H   I:00007FH   000018H   DATA


MEMORY MAP OF MODULE:  ..\OBJ\VHB15A (STC_EEPROM)


START     STOP      LENGTH    ALIGN  RELOC    MEMORY CLASS   SEGMENT NAME
=========================================================================

* * * * * * * * * * *   D A T A   M E M O R Y   * * * * * * * * * * * * *
000000H   000007H   000008H   ---    AT..     DATA           "REG BANK 0"
000008H   00000FH   000008H   ---    AT..     DATA           "REG BANK 1"
000010H   000017H   000008H   ---    AT..     DATA           "REG BANK 2"
000018H.0 00001FH.7 000008H.0 ---    ---      **GAP**
000020H.0 000020H.0 000000H.1 BIT    UNIT     BIT            _BIT_GROUP_
000020H.1 000020H   000000H.7 ---    ---      **GAP**
000021H   000021H   000001H   BYTE   UNIT     IDATA          ?STACK

* * * * * * * * * * *   C O D E   M E M O R Y   * * * * * * * * * * * * *
000000H   000002H   000003H   ---    OFFS..   CODE           ?CO??C_STARTUP?0
000003H   00000AH   000008H   BYTE   UNIT     CODE           ?L?COM0076
00000BH   00000DH   000003H   BYTE   OFFS..   CODE           ?ACTIVITYFUNCTIONS?0000B
00000EH   000012H   000005H   BYTE   UNIT     CODE           ?PR?_SDCMD?LCD
000013H   000015H   000003H   BYTE   OFFS..   CODE           ?ACTIVITYFUNCTIONS?00013
000016H   000021H   00000CH   BYTE   UNIT     CODE           ?PR?_ABS?ABS
000022H   000022H   000001H   ---    ---      **GAP**
000023H   000025H   000003H   BYTE   OFFS..   CODE           ?ACTIVITYFUNCTIONS?00023
000026H   0005EAH   0005C5H   BYTE   UNIT     CODE           ?C?LIB_CODE
0005EBH   00095FH   000375H   BYTE   UNIT     CODE           ?C_INITSEG
000960H   0009EBH   00008CH   BYTE   UNIT     CODE           ?C_C51STARTUP
0009ECH   000A2FH   000044H   BYTE   UNIT     CODE           ?C?LDIV
000A30H   0060BEH   00568FH   BYTE   UNIT     CONST          ?CO?LCD
0060BFH   006351H   000293H   BYTE   UNIT     CONST          ?CO?GUI
006352H   006367H   000016H   BYTE   UNIT     CODE           ?PR?_STC_IAP_BYTE_READ?STC_EEPROM
006368H   006422H   0000BBH   BYTE   UNIT     CODE           ?PR?MEM_FLASH_RECALL?ACTIVITYFUNCTIONS
006423H   0065F8H   0001D6H   BYTE   UNIT     CODE           ?PR?_HMIENTERTOWORKSTATEFUNC?GUI
0065F9H   006624H   00002CH   BYTE   UNIT     CODE           ?L?COM0005
006625H   006630H   00000CH   BYTE   UNIT     CODE           ?L?COM0036
006631H   0067A8H   000178H   BYTE   UNIT     CODE           ?PR?DRAWWORKWINDOWS?LCD
0067A9H   0067DCH   000034H   BYTE   UNIT     CODE           ?L?COM0010
0067DDH   0067F3H   000017H   BYTE   UNIT     CODE           ?L?COM0027
0067F4H   006803H   000010H   BYTE   UNIT     CODE           ?PR?_STC_IAP_BYTE_PROGRAM?STC_EEPROM
006804H   00680FH   00000CH   BYTE   UNIT     CODE           ?PR?IAP_DISABLE?STC_EEPROM
006810H   00681CH   00000DH   BYTE   UNIT     CODE           ?PR?_STC_IAP_SECTOR_ERASE?STC_EEPROM
00681DH   006823H   000007H   BYTE   UNIT     CODE           ?L?COM01A9
006824H   006834H   000011H   BYTE   UNIT     CODE           ?L?COM00CB
006835H   00689DH   000069H   BYTE   UNIT     CODE           ?PR?SETTING_WRITE_TO_FLASH?ACTIVITYFUNCTIONS
00689EH   006900H   000063H   BYTE   UNIT     CODE           ?PR?HMINON_INVASIVESELFUNC?GUI
006901H   006A22H   000122H   BYTE   UNIT     CODE           ?PR?_DRAW_RECTANGLE?LCD
006A23H   006A4BH   000029H   BYTE   UNIT     CODE           ?PR?_LCD_CRTLWRITE_AREA?LCD
LX51 LINKER/LOCATER V4.66.93.0                                                        04/19/2019  09:16:48  PAGE 4


006A4CH   006A56H   00000BH   BYTE   UNIT     CODE           ?L?COM019B
006A57H   006A87H   000031H   BYTE   UNIT     CODE           ?PR?_SDDATA?LCD
006A88H   006B69H   0000E2H   BYTE   UNIT     CODE           ?PR?LCD_INITIAL?LCD
006B6AH   006BF6H   00008DH   BYTE   UNIT     CODE           ?PR?_DRAW_RECTANGLE_REAL?LCD
006BF7H   006F1FH   000329H   BYTE   UNIT     CODE           ?PR?HMIFACTORYDEFAULTFUNC?GUI
006F20H   006F4FH   000030H   BYTE   UNIT     CODE           ?L?COM0032
006F50H   006F83H   000034H   BYTE   UNIT     CODE           ?PR?_LCD_DRAWPOINT?LCD
006F84H   006F96H   000013H   BYTE   UNIT     CODE           ?PR?_LCD_CTRLWRITE_COLOR?LCD
006F97H   006FAFH   000019H   BYTE   UNIT     CODE           ?PR?_LCD_CTRLWRITE_ILI9328?LCD
006FB0H   006FB4H   000005H   BYTE   UNIT     CODE           ?L?COM0136
006FB5H   006FBCH   000008H   BYTE   UNIT     CODE           ?L?COM013B
006FBDH   006FC8H   00000CH   BYTE   UNIT     CODE           ?L?COM0094
006FC9H   006FD3H   00000BH   BYTE   UNIT     CODE           ?L?COM00DB
006FD4H   006FDFH   00000CH   BYTE   UNIT     CODE           ?L?COM0102
006FE0H   006FE7H   000008H   BYTE   UNIT     CODE           ?L?COM012B
006FE8H   006FEEH   000007H   BYTE   UNIT     CODE           ?L?COM0187
006FEFH   006FF6H   000008H   BYTE   UNIT     CODE           ?L?COM00F8
006FF7H   006FFEH   000008H   BYTE   UNIT     CODE           ?L?COM01D9
006FFFH   007020H   000022H   BYTE   UNIT     CODE           ?PR?_DELAY_US?DELAY
007021H   00726BH   00024BH   BYTE   UNIT     CODE           ?PR?GETTEMP_HPCHAMBERFUNC?ACTIVITYFUNCTIONS
00726CH   0072D4H   000069H   BYTE   UNIT     CODE           ?PR?DS18B20_READBYTE?DS18B20
0072D5H   0072DCH   000008H   BYTE   UNIT     CODE           ?L?COM00BC
0072DDH   007316H   00003AH   BYTE   UNIT     CODE           ?PR?_DS18B20_WRITEBYTE?DS18B20
007317H   007371H   00005BH   BYTE   UNIT     CODE           ?PR?_SHT21_READ8BIT?SHT21
007372H   0073EDH   00007CH   BYTE   UNIT     CODE           ?PR?_SHT21_WRITE8BIT?SHT21
0073EEH   0073F6H   000009H   BYTE   UNIT     CODE           ?PR?SCL_OUTPUT_LOW?SHT21
0073F7H   0073FDH   000007H   BYTE   UNIT     CODE           ?PR?SCL_INPUT_HIGH?SHT21
0073FEH   007404H   000007H   BYTE   UNIT     CODE           ?PR?SDA_INPUT_HIGH?SHT21
007405H   00740DH   000009H   BYTE   UNIT     CODE           ?L?COM0119
00740EH   007417H   00000AH   BYTE   UNIT     CODE           ?L?COM0077
007418H   007423H   00000CH   BYTE   UNIT     CODE           ?PR?SHT21_START?SHT21
007424H   00745BH   000038H   BYTE   UNIT     CODE           ?PR?SHT21_WRITETEMP?SHT21
00745CH   007493H   000038H   BYTE   UNIT     CODE           ?PR?SHT21_WRITERH?SHT21
007494H   00749AH   000007H   BYTE   UNIT     CODE           ?L?COM0125
00749BH   0074A8H   00000EH   BYTE   UNIT     CODE           ?PR?SHT21_STOP?SHT21
0074A9H   0074B1H   000009H   BYTE   UNIT     CODE           ?PR?SDA_OUTPUT_LOW?SHT21
0074B2H   0074C5H   000014H   BYTE   UNIT     CODE           ?L?COM0014
0074C6H   007667H   0001A2H   BYTE   UNIT     CODE           ?PR?MANAGETASK?NORMAL_TASK
007668H   007673H   00000CH   BYTE   UNIT     CODE           ?PR?_WS_SETTASKIFG?WS_TASK_MANAGE
007674H   007689H   000016H   BYTE   UNIT     CODE           ?L?COM0068
00768AH   007699H   000010H   BYTE   UNIT     CODE           ?PR?IC_STOP?RX8010
00769AH   0076E3H   00004AH   BYTE   UNIT     CODE           ?PR?_WRITEEEONE?RX8010
0076E4H   007741H   00005EH   BYTE   UNIT     CODE           ?PR?_IC_WRITEBYTE?RX8010
007742H   007749H   000008H   BYTE   UNIT     CODE           ?L?COM00C9
00774AH   007782H   000039H   BYTE   UNIT     CODE           ?PR?IC_READBYTE?RX8010
007783H   007789H   000007H   BYTE   UNIT     CODE           ?PR?SDA_DIR_OUTPUT?RX8010
00778AH   007793H   00000AH   BYTE   UNIT     CODE           ?L?COM0130
007794H   0077A5H   000012H   BYTE   UNIT     CODE           ?PR?IC_START?RX8010
0077A6H   0077B9H   000014H   BYTE   UNIT     CODE           ?L?COM0106
0077BAH   0077C0H   000007H   BYTE   UNIT     CODE           ?L?COM01DB
0077C1H   0077C7H   000007H   BYTE   UNIT     CODE           ?L?COM01DC
0077C8H   0077CEH   000007H   BYTE   UNIT     CODE           ?L?COM01F9
0077CFH   0077D6H   000008H   BYTE   UNIT     CODE           ?L?COM01B2
0077D7H   0077DDH   000007H   BYTE   UNIT     CODE           ?PR?SDA_DIR_INPUT?RX8010
0077DEH   0077E4H   000007H   BYTE   UNIT     CODE           ?L?COM016C
0077E5H   0077ECH   000008H   BYTE   UNIT     CODE           ?L?COM0155
0077EDH   0077F6H   00000AH   BYTE   UNIT     CODE           ?L?COM01C1
0077F7H   007822H   00002CH   BYTE   UNIT     CODE           ?PR?_DELAY_MS?DELAY
007823H   007838H   000016H   BYTE   UNIT     CODE           ?PR?MAIN_TIK_TOK_INITIAL_FUN?MAIN_TIK_TOK
007839H   0078A1H   000069H   BYTE   UNIT     CODE           ?PR?MAIN?MAIN
0078A2H   00798BH   0000EAH   BYTE   UNIT     CODE           ?PR?INIT_PORT?ACTIVITYFUNCTIONS
00798CH   007998H   00000DH   BYTE   UNIT     CODE           ?L?COM0104
007999H   0079C0H   000028H   BYTE   UNIT     CODE           ?PR?_DISP_FNT10X24?LCD
0079C1H   007A77H   0000B7H   BYTE   UNIT     CODE           ?PR?_DISP_MONO_GRAP?LCD
007A78H   007A97H   000020H   BYTE   UNIT     CODE           ?L?COM001C
LX51 LINKER/LOCATER V4.66.93.0                                                        04/19/2019  09:16:48  PAGE 5


007A98H   007D8DH   0002F6H   BYTE   UNIT     CODE           ?PR?HMISERVICEMODEFUNC?GUI
007D8EH   007DA8H   00001BH   BYTE   UNIT     CODE           ?L?COM0017
007DA9H   007F42H   00019AH   BYTE   UNIT     CODE           ?PR?HMIPOSTFUNC?GUI
007F43H   007F4AH   000008H   BYTE   UNIT     CODE           ?L?COM00C2
007F4BH   007F58H   00000EH   BYTE   UNIT     CODE           ?L?COM005E
007F59H   007FA1H   000049H   BYTE   UNIT     CODE           ?PR?LCD_SHOW_VERION?LCD
007FA2H   007FADH   00000CH   BYTE   UNIT     CODE           ?L?COM00D2
007FAEH   007FE3H   000036H   BYTE   UNIT     CODE           ?PR?_DISP_ICO_32X40?LCD
007FE4H   0080A5H   0000C2H   BYTE   UNIT     CODE           ?PR?_LCD_SHOWSTRING?LCD
0080A6H   0080AEH   000009H   BYTE   UNIT     CODE           ?L?COM01A6
0080AFH   0080B7H   000009H   BYTE   UNIT     CODE           ?L?COM00BA
0080B8H   008694H   0005DDH   BYTE   UNIT     CODE           ?PR?HEATERPLATEWIRECONTROLFUNC?ACTIVITYFUNCTIONS
008695H   0086AFH   00001BH   BYTE   UNIT     CODE           ?L?COM0001
0086B0H   0086C1H   000012H   BYTE   UNIT     CODE           ?L?COM002A
0086C2H   0086CDH   00000CH   BYTE   UNIT     CODE           ?L?COM0074
0086CEH   0086DAH   00000DH   BYTE   UNIT     CODE           ?L?COM00A8
0086DBH   0086FDH   000023H   BYTE   UNIT     CODE           ?L?COM0052
0086FEH   008704H   000007H   BYTE   UNIT     CODE           ?L?COM009E
008705H   00870CH   000008H   BYTE   UNIT     CODE           ?L?COM00D5
00870DH   008713H   000007H   BYTE   UNIT     CODE           ?L?COM0170
008714H   00871BH   000008H   BYTE   UNIT     CODE           ?L?COM00F2
00871CH   008726H   00000BH   BYTE   UNIT     CODE           ?L?COM0108
008727H   008733H   00000DH   BYTE   UNIT     CODE           ?L?COM011A
008734H   00873AH   000007H   BYTE   UNIT     CODE           ?L?COM0143
00873BH   008741H   000007H   BYTE   UNIT     CODE           ?L?COM014D
008742H   00874FH   00000EH   BYTE   UNIT     CODE           ?L?COM0063
008750H   00875FH   000010H   BYTE   UNIT     CODE           ?L?COM0058
008760H   008766H   000007H   BYTE   UNIT     CODE           ?L?COM0144
008767H   00876DH   000007H   BYTE   UNIT     CODE           ?L?COM01A4
00876EH   008775H   000008H   BYTE   UNIT     CODE           ?L?COM015E
008776H   00877DH   000008H   BYTE   UNIT     CODE           ?L?COM018D
00877EH   008785H   000008H   BYTE   UNIT     CODE           ?L?COM019C
008786H   00878DH   000008H   BYTE   UNIT     CODE           ?L?COM01CB
00878EH   008795H   000008H   BYTE   UNIT     CODE           ?L?COM01F7
008796H   00879DH   000008H   BYTE   UNIT     CODE           ?L?COM01F8
00879EH   0087A6H   000009H   BYTE   UNIT     CODE           ?L?COM011F
0087A7H   0087B0H   00000AH   BYTE   UNIT     CODE           ?L?COM00ED
0087B1H   0087BBH   00000BH   BYTE   UNIT     CODE           ?L?COM0133
0087BCH   0087C8H   00000DH   BYTE   UNIT     CODE           ?L?COM0171
0087C9H   0087D9H   000011H   BYTE   UNIT     CODE           ?L?COM0142
0087DAH   0087E0H   000007H   BYTE   UNIT     CODE           ?L?COM01AE
0087E1H   0087E7H   000007H   BYTE   UNIT     CODE           ?L?COM01B9
0087E8H   0087EFH   000008H   BYTE   UNIT     CODE           ?L?COM00CC
0087F0H   0087F7H   000008H   BYTE   UNIT     CODE           ?L?COM0128
0087F8H   00881FH   000028H   BYTE   UNIT     CODE           ?PR?TIMER_T0_INT_MAIN?MAIN_TIK_TOK
008820H   008824H   000005H   BYTE   UNIT     CODE           ?PR?MAIN_TIK_FUNCTIONS?MAIN_TIK_FUNCTION
008825H   008929H   000105H   BYTE   UNIT     CODE           ?PR?HEATERPLATEWIREDRIVEFBTASK?ACTIVITYFUNCTIONS
00892AH   00893EH   000015H   BYTE   UNIT     CODE           ?PR?SUB_TIK_FUNCTIONS?SUB_TIK_FUNCTION
00893FH   008951H   000013H   BYTE   UNIT     CODE           ?PR?HMISCREENSAVERMODE_TIK_CNT?GUI
008952H   00897EH   00002DH   BYTE   UNIT     CODE           ?PR?SOUND_TYPE_DRIVE?SOUND_TYPE
00897FH   008985H   000007H   BYTE   UNIT     CODE           ?L?COM01DF
008986H   008A1CH   000097H   BYTE   UNIT     CODE           ?PR?_DRAW_CIRCLE?LCD
008A1DH   008A43H   000027H   BYTE   UNIT     CODE           ?L?COM004D
008A44H   008A50H   00000DH   BYTE   UNIT     CODE           ?L?COM00D0
008A51H   008A5DH   00000DH   BYTE   UNIT     CODE           ?L?COM010C
008A5EH   008A8BH   00002EH   BYTE   UNIT     CODE           ?L?COM004B
008A8CH   008A9CH   000011H   BYTE   UNIT     CODE           ?L?COM013A
008A9DH   008AC8H   00002CH   BYTE   UNIT     CODE           ?L?COM0039
008AC9H   008BA0H   0000D8H   BYTE   UNIT     CODE           ?PR?_LCD_SHOWXNUM?LCD
008BA1H   008BC7H   000027H   BYTE   UNIT     CODE           ?PR?_DISP_RH_17X40?LCD
008BC8H   008D97H   0001D0H   BYTE   UNIT     CODE           ?PR?SERVICEMODE_TEMPHUMIDY_DISP?ACTIVITYFUNCTIONS
008D98H   008DC3H   00002CH   BYTE   UNIT     CODE           ?L?COM0009
008DC4H   008DD4H   000011H   BYTE   UNIT     CODE           ?L?COM0023
008DD5H   008DFBH   000027H   BYTE   UNIT     CODE           ?PR?_DISP_TEMP_30X56?LCD
008DFCH   008E11H   000016H   BYTE   UNIT     CODE           ?L?COM0055
LX51 LINKER/LOCATER V4.66.93.0                                                        04/19/2019  09:16:48  PAGE 6


008E12H   008F14H   000103H   BYTE   UNIT     CODE           ?PR?HMISCREENSAVERMODEFUNC?GUI
008F15H   008F52H   00003EH   BYTE   UNIT     CODE           ?PR?_DISP_TEMP_38X64?LCD
008F53H   008F5AH   000008H   BYTE   UNIT     CODE           ?L?COM00F7
008F5BH   008F65H   00000BH   BYTE   UNIT     CODE           ?L?COM0138
008F66H   008F6EH   000009H   BYTE   UNIT     CODE           ?L?COM0176
008F6FH   008F76H   000008H   BYTE   UNIT     CODE           ?L?COM01A2
008F77H   008F80H   00000AH   BYTE   UNIT     CODE           ?L?COM014C
008F81H   008F8BH   00000BH   BYTE   UNIT     CODE           ?L?COM00B1
008F8CH   008F9EH   000013H   BYTE   UNIT     CODE           ?L?COM00EF
008F9FH   008FB8H   00001AH   BYTE   UNIT     CODE           ?L?COM002E
008FB9H   008FD4H   00001CH   BYTE   UNIT     CODE           ?L?COM0046
008FD5H   008FDEH   00000AH   BYTE   UNIT     CODE           ?L?COM01B7
008FDFH   008FE9H   00000BH   BYTE   UNIT     CODE           ?L?COM0199
008FEAH   008FEFH   000006H   BYTE   UNIT     CODE           ?L?COM01FC
008FF0H   009003H   000014H   BYTE   UNIT     CODE           ?PR?_WS_DELTASKIFG?WS_TASK_MANAGE
009004H   00902AH   000027H   BYTE   UNIT     CODE           ?PR?_WS_TASKJUDGE?WS_TASK_MANAGE
00902BH   0090B9H   00008FH   BYTE   UNIT     CODE           ?PR?KEYSCANTASK?NORMAL_TASK
0090BAH   00919BH   0000E2H   BYTE   UNIT     CODE           ?PR?KEY_MULTIFUN?KEY_MULTIFUN
00919CH   0091A5H   00000AH   BYTE   UNIT     CODE           ?L?COM0083
0091A6H   0091B0H   00000BH   BYTE   UNIT     CODE           ?L?COM00BD
0091B1H   0091BAH   00000AH   BYTE   UNIT     CODE           ?L?COM0110
0091BBH   0091C5H   00000BH   BYTE   UNIT     CODE           ?L?COM00F1
0091C6H   0091D3H   00000EH   BYTE   UNIT     CODE           ?L?COM00D6
0091D4H   0091D9H   000006H   BYTE   UNIT     CODE           ?L?COM0060
0091DAH   0091E9H   000010H   BYTE   UNIT     CODE           ?PR?HMIRUNNINGTASK?NORMAL_TASK
0091EAH   0091F9H   000010H   BYTE   UNIT     CODE           ?PR?HMISETTEMPPATIENTTASK?NORMAL_TASK
0091FAH   009209H   000010H   BYTE   UNIT     CODE           ?PR?HMISETTEMPCHAMBERTASK?NORMAL_TASK
00920AH   009219H   000010H   BYTE   UNIT     CODE           ?PR?HMISETINEXPTASK?NORMAL_TASK
00921AH   009228H   00000FH   BYTE   UNIT     CODE           ?PR?HMISETTIMETASK?NORMAL_TASK
009229H   009419H   0001F1H   BYTE   UNIT     CODE           ?PR?HMISETTIMEFUNC?GUI
00941AH   009523H   00010AH   BYTE   UNIT     CODE           ?PR?_DISPLAYTIME?GUI
009524H   00952FH   00000CH   BYTE   UNIT     CODE           ?L?COM0064
009530H   009538H   000009H   BYTE   UNIT     CODE           ?L?COM009C
009539H   00954FH   000017H   BYTE   UNIT     CODE           ?L?COM0043
009550H   00957EH   00002FH   BYTE   UNIT     CODE           ?PR?_DISP_TIME_10X16?LCD
00957FH   0095B6H   000038H   BYTE   UNIT     CODE           ?PR?REFRESHRTCTIMEFUNC?ACTIVITYFUNCTIONS
0095B7H   0095BFH   000009H   BYTE   UNIT     CODE           ?L?COM00AE
0095C0H   00966BH   0000ACH   BYTE   UNIT     CODE           ?PR?_REFRESHRUNTIMEFUNC?ACTIVITYFUNCTIONS
00966CH   009679H   00000EH   BYTE   UNIT     CODE           ?L?COM0092
00967AH   009680H   000007H   BYTE   UNIT     CODE           ?L?COM0124
009681H   00968BH   00000BH   BYTE   UNIT     CODE           ?L?COM00A3
00968CH   009696H   00000BH   BYTE   UNIT     CODE           ?L?COM00A4
009697H   00969DH   000007H   BYTE   UNIT     CODE           ?L?COM01C2
00969EH   0096AAH   00000DH   BYTE   UNIT     CODE           ?L?COM0134
0096ABH   009716H   00006CH   BYTE   UNIT     CODE           ?PR?_RX8010_GETTIME?RX8010
009717H   00971CH   000006H   BYTE   UNIT     CODE           ?L?COM01A5
00971DH   009728H   00000CH   BYTE   UNIT     CODE           ?L?COM0180
009729H   009738H   000010H   BYTE   UNIT     CODE           ?PR?GETTEMPHUMIDITY_PATIENTTASK?NORMAL_TASK
009739H   009748H   000010H   BYTE   UNIT     CODE           ?PR?LOWPOWERMODETASK?NORMAL_TASK
009749H   009758H   000010H   BYTE   UNIT     CODE           ?PR?HEATERWIREMODEDETTASK?NORMAL_TASK
009759H   009768H   000010H   BYTE   UNIT     CODE           ?PR?ALARMERRORTASK?NORMAL_TASK
009769H   009778H   000010H   BYTE   UNIT     CODE           ?PR?LOWTEMPDET1STASK?NORMAL_TASK
009779H   009788H   000010H   BYTE   UNIT     CODE           ?PR?SAVEDATETOFLASHTASK?NORMAL_TASK
009789H   009798H   000010H   BYTE   UNIT     CODE           ?PR?UARTRECTASK?NORMAL_TASK
009799H   0097AAH   000012H   BYTE   UNIT     CODE           ?PR?REFRESHTEMPHUMIDYTASK?NORMAL_TASK
0097ABH   0097BBH   000011H   BYTE   UNIT     CODE           ?PR?REFRESHRUNTIMETASK?NORMAL_TASK
0097BCH   0097D8H   00001DH   BYTE   UNIT     CODE           ?PR?REFRESHRTCTIMETASK?NORMAL_TASK
0097D9H   0097DFH   000007H   BYTE   UNIT     CODE           ?L?COM0147
0097E0H   0097EAH   00000BH   BYTE   UNIT     CODE           ?L?COM0196
0097EBH   0097F1H   000007H   BYTE   UNIT     CODE           ?L?COM0123
0097F2H   009801H   000010H   BYTE   UNIT     CODE           ?PR?HMISERVICEMODETASK?NORMAL_TASK
009802H   009812H   000011H   BYTE   UNIT     CODE           ?PR?HMIPOSTTASK?NORMAL_TASK
009813H   009823H   000011H   BYTE   UNIT     CODE           ?PR?HMIFACTORYDEFAULTSELTASK?NORMAL_TASK
009824H   009834H   000011H   BYTE   UNIT     CODE           ?PR?HMINON_INVASIVESELTASK?NORMAL_TASK
009835H   009845H   000011H   BYTE   UNIT     CODE           ?PR?HMISCREENSAVERMODETASK?NORMAL_TASK
LX51 LINKER/LOCATER V4.66.93.0                                                        04/19/2019  09:16:48  PAGE 7


009846H   009856H   000011H   BYTE   UNIT     CODE           ?PR?GETTEMP_HPCHAMBERTASK?NORMAL_TASK
009857H   009867H   000011H   BYTE   UNIT     CODE           ?PR?HEATERWIRECONTROLTASK?NORMAL_TASK
009868H   00987CH   000015H   BYTE   UNIT     CODE           ?PR?_CLEAR_BIT?ACTIVITYFUNCTIONS
00987DH   009E1DH   0005A1H   BYTE   UNIT     CODE           ?PR?ALARMERRORFUNC?ACTIVITYFUNCTIONS
009E1EH   009E2BH   00000EH   BYTE   UNIT     CODE           ?L?COM0080
009E2CH   009E35H   00000AH   BYTE   UNIT     CODE           ?L?COM00A0
009E36H   009E42H   00000DH   BYTE   UNIT     CODE           ?L?COM006B
009E43H   009E51H   00000FH   BYTE   UNIT     CODE           ?PR?_BIT_IS_ONE?ACTIVITYFUNCTIONS
009E52H   009EB7H   000066H   BYTE   UNIT     CODE           ?PR?_DISP_VHB80_PIC?LCD
009EB8H   009ECDH   000016H   BYTE   UNIT     CODE           ?PR?_DISP_JQK41X16?LCD
009ECEH   009ED4H   000007H   BYTE   UNIT     CODE           ?L?COM0163
009ED5H   009EE4H   000010H   BYTE   UNIT     CODE           ?L?COM0097
009EE5H   009EF8H   000014H   BYTE   UNIT     CODE           ?PR?_SET_BIT?ACTIVITYFUNCTIONS
009EF9H   009F00H   000008H   BYTE   UNIT     CODE           ?L?COM00F4
009F01H   009F0EH   00000EH   BYTE   UNIT     CODE           ?L?COM00E7
009F0FH   009F15H   000007H   BYTE   UNIT     CODE           ?L?COM01BC
009F16H   009F1CH   000007H   BYTE   UNIT     CODE           ?L?COM01BE
009F1DH   009F24H   000008H   BYTE   UNIT     CODE           ?L?COM018E
009F25H   009F2CH   000008H   BYTE   UNIT     CODE           ?L?COM01E5
009F2DH   009F37H   00000BH   BYTE   UNIT     CODE           ?L?COM0145
009F38H   009FA2H   00006BH   BYTE   UNIT     CODE           ?PR?LOWPOWERMODEFUNC?ACTIVITYFUNCTIONS
009FA3H   009FAAH   000008H   BYTE   UNIT     CODE           ?L?COM018C
009FABH   009FB1H   000007H   BYTE   UNIT     CODE           ?L?COM01BF
009FB2H   009FB9H   000008H   BYTE   UNIT     CODE           ?L?COM018F
009FBAH   009FC1H   000008H   BYTE   UNIT     CODE           ?L?COM01C8
009FC2H   009FC9H   000008H   BYTE   UNIT     CODE           ?L?COM01F1
009FCAH   009FD1H   000008H   BYTE   UNIT     CODE           ?L?COM01F2
009FD2H   009FD9H   000008H   BYTE   UNIT     CODE           ?L?COM01F3
009FDAH   009FE1H   000008H   BYTE   UNIT     CODE           ?L?COM01F5
009FE2H   009FEBH   00000AH   BYTE   UNIT     CODE           ?L?COM011C
009FECH   009FF2H   000007H   BYTE   UNIT     CODE           ?L?COM01D7
009FF3H   00A013H   000021H   BYTE   UNIT     CODE           ?PR?INTERRUPT_EXT1?ACTIVITYFUNCTIONS
00A014H   00A02EH   00001BH   BYTE   UNIT     CODE           ?PR?INTERRUPT_TIME0?ACTIVITYFUNCTIONS
00A02FH   00A054H   000026H   BYTE   UNIT     CODE           ?PR?INTERRUPT_SERIAL?ACTIVITYFUNCTIONS
00A055H   00A077H   000023H   BYTE   UNIT     CODE           ?PR?EUSART_RECEIVE_ISR?UART_FUN
00A078H   00A07FH   000008H   BYTE   UNIT     CODE           ?PR?EUSART_TRANSMIT_ISR?UART_FUN
00A080H   00A08AH   00000BH   BYTE   UNIT     CODE           ?L?COM0195
00A08BH   00A0ACH   000022H   BYTE   UNIT     CODE           ?PR?EUSART_READ?UART_FUN
00A0ADH   00A1A0H   0000F4H   BYTE   UNIT     CODE           ?PR?UART_RECDATA_FUNC?ACTIVITYFUNCTIONS
00A1A1H   00A1ACH   00000CH   BYTE   UNIT     CODE           ?L?COM0107
00A1ADH   00A1E8H   00003CH   BYTE   UNIT     CODE           ?PR?_SPI_READ_NBYTES?W25X
00A1E9H   00A206H   00001EH   BYTE   UNIT     CODE           ?PR?_SPI_SEND_BYTE?W25X
00A207H   00A221H   00001BH   BYTE   UNIT     CODE           ?PR?_SPI_ERASE_SECTOR?W25X
00A222H   00A251H   000030H   BYTE   UNIT     CODE           ?PR?_SPI_WRITE_NBYTES?W25X
00A252H   00A3ABH   00015AH   BYTE   UNIT     CODE           ?PR?SAVEDATETOFLASHFUNC?ACTIVITYFUNCTIONS
00A3ACH   00A3CAH   00001FH   BYTE   UNIT     CODE           ?L?COM0048
00A3CBH   00A730H   000366H   BYTE   UNIT     CODE           ?PR?GETTEMPHUMIDITY_PATIENTFUNC?ACTIVITYFUNCTIONS
00A731H   00A73CH   00000CH   BYTE   UNIT     CODE           ?L?COM0079
00A73DH   00A74CH   000010H   BYTE   UNIT     CODE           ?L?COM00CE
00A74DH   00A757H   00000BH   BYTE   UNIT     CODE           ?L?COM0126
00A758H   00A774H   00001DH   BYTE   UNIT     CODE           ?L?COM007D
00A775H   00A79DH   000029H   BYTE   UNIT     CODE           ?L?COM0054
00A79EH   00A7AAH   00000DH   BYTE   UNIT     CODE           ?L?COM0120
00A7ABH   00A7B3H   000009H   BYTE   UNIT     CODE           ?PR?SPI_WRITE_ENABLE?W25X
00A7B4H   00A7BDH   00000AH   BYTE   UNIT     CODE           ?L?COM0198
00A7BEH   00A7C9H   00000CH   BYTE   UNIT     CODE           ?L?COM0129
00A7CAH   00A7D7H   00000EH   BYTE   UNIT     CODE           ?L?COM00C3
00A7D8H   00A7E5H   00000EH   BYTE   UNIT     CODE           ?L?COM00FB
00A7E6H   00A7ECH   000007H   BYTE   UNIT     CODE           ?L?COM01FB
00A7EDH   00A7F4H   000008H   BYTE   UNIT     CODE           ?L?COM018A
00A7F5H   00A801H   00000DH   BYTE   UNIT     CODE           ?PR?UART_RECBUF_CLEAR_FUN?ACTIVITYFUNCTIONS
00A802H   00A84EH   00004DH   BYTE   UNIT     CODE           ?PR?HEATERWIREMODEDETFUNC?ACTIVITYFUNCTIONS
00A84FH   00AA3CH   0001EEH   BYTE   UNIT     CODE           ?PR?_REFRESHTEMPHUMIDYFUNC?ACTIVITYFUNCTIONS
00AA3DH   00AA49H   00000DH   BYTE   UNIT     CODE           ?L?COM008C
00AA4AH   00ABD8H   00018FH   BYTE   UNIT     CODE           ?PR?HMISETTEMPPATIENTFUNC?GUI
LX51 LINKER/LOCATER V4.66.93.0                                                        04/19/2019  09:16:48  PAGE 8


00ABD9H   00ABE6H   00000EH   BYTE   UNIT     CODE           ?L?COM00E5
00ABE7H   00ABF5H   00000FH   BYTE   UNIT     CODE           ?L?COM0090
00ABF6H   00AD28H   000133H   BYTE   UNIT     CODE           ?PR?HMISETTEMPCHAMBERFUNC?GUI
00AD29H   00AD33H   00000BH   BYTE   UNIT     CODE           ?L?COM00C0
00AD34H   00AD62H   00002FH   BYTE   UNIT     CODE           ?PR?_DISPLAY_SET_TEMP?GUI
00AD63H   00AD69H   000007H   BYTE   UNIT     CODE           ?L?COM01C3
00AD6AH   00AD71H   000008H   BYTE   UNIT     CODE           ?L?COM0191
00AD72H   00AD7AH   000009H   BYTE   UNIT     CODE           ?L?COM0148
00AD7BH   00AD86H   00000CH   BYTE   UNIT     CODE           ?L?COM00A5
00AD87H   00AED8H   000152H   BYTE   UNIT     CODE           ?PR?HMIRUNNINGFUNC?GUI
00AED9H   00AEE5H   00000DH   BYTE   UNIT     CODE           ?PR?SOUND_SHORT?SOUND_TYPE
00AEE6H   00AEF4H   00000FH   BYTE   UNIT     CODE           ?L?COM00FE
00AEF5H   00AF1AH   000026H   BYTE   UNIT     CODE           ?PR?_DISP_ICO_52X64?LCD
00AF1BH   00AF22H   000008H   BYTE   UNIT     CODE           ?L?COM01D5
00AF23H   00AF29H   000007H   BYTE   UNIT     CODE           ?L?COM01D8
00AF2AH   00AF33H   00000AH   BYTE   UNIT     CODE           ?L?COM012D
00AF34H   00AF43H   000010H   BYTE   UNIT     CODE           ?L?COM00B3
00AF44H   00AF57H   000014H   BYTE   UNIT     CODE           ?L?COM00C5
00AF58H   00AF5EH   000007H   BYTE   UNIT     CODE           ?L?COM017C
00AF5FH   00AF66H   000008H   BYTE   UNIT     CODE           ?L?COM0149
00AF67H   00AF6EH   000008H   BYTE   UNIT     CODE           ?L?COM017B
00AF6FH   00AF76H   000008H   BYTE   UNIT     CODE           ?L?COM017D
00AF77H   00AF7EH   000008H   BYTE   UNIT     CODE           ?L?COM017E
00AF7FH   00AF86H   000008H   BYTE   UNIT     CODE           ?L?COM01C7
00AF87H   00AF8EH   000008H   BYTE   UNIT     CODE           ?L?COM01D6
00AF8FH   00AF97H   000009H   BYTE   UNIT     CODE           ?L?COM015C
00AF98H   00AFA6H   00000FH   BYTE   UNIT     CODE           ?L?COM0157
00AFA7H   00AFB6H   000010H   BYTE   UNIT     CODE           ?L?COM010A
00AFB7H   00AFBDH   000007H   BYTE   UNIT     CODE           ?L?COM0164
00AFBEH   00AFC4H   000007H   BYTE   UNIT     CODE           ?L?COM01A7
00AFC5H   00AFCCH   000008H   BYTE   UNIT     CODE           ?L?COM01F4
00AFCDH   00AFD4H   000008H   BYTE   UNIT     CODE           ?L?COM01F6
00AFD5H   00AFDEH   00000AH   BYTE   UNIT     CODE           ?L?COM00D8
00AFDFH   00AFEBH   00000DH   BYTE   UNIT     CODE           ?L?COM0165
00AFECH   00B045H   00005AH   BYTE   UNIT     CODE           ?PR?STORE_DATA?ACTIVITYFUNCTIONS
00B046H   00B050H   00000BH   BYTE   UNIT     CODE           ?L?COM0140
00B051H   00B14EH   0000FEH   BYTE   UNIT     CODE           ?PR?GET_RUNCOUNT?ACTIVITYFUNCTIONS
00B14FH   00B155H   000007H   BYTE   UNIT     CODE           ?L?COM01B1
00B156H   00B214H   0000BFH   BYTE   UNIT     CODE           ?PR?RX8010_INITIALIZE?RX8010
00B215H   00B21EH   00000AH   BYTE   UNIT     CODE           ?L?COM00B5
00B21FH   00B226H   000008H   BYTE   UNIT     CODE           ?L?COM0117
00B227H   00B233H   00000DH   BYTE   UNIT     CODE           ?L?COM016F
00B234H   00B253H   000020H   BYTE   UNIT     CODE           ?L?COM0070
00B254H   00B398H   000145H   BYTE   UNIT     CODE           ?PR?_DISP_FNT12X24?LCD
00B399H   00B3A0H   000008H   BYTE   UNIT     CODE           ?L?COM0118
00B3A1H   00B465H   0000C5H   BYTE   UNIT     CODE           ?PR?_DISP_FNT8X16?LCD
00B466H   00B46DH   000008H   BYTE   UNIT     CODE           ?L?COM0183
00B46EH   00B475H   000008H   BYTE   UNIT     CODE           ?L?COM0184
00B476H   00B47DH   000008H   BYTE   UNIT     CODE           ?L?COM0185
00B47EH   00B48BH   00000EH   BYTE   UNIT     CODE           ?L?COM00F6
00B48CH   00B49EH   000013H   BYTE   UNIT     CODE           ?L?COM0100
00B49FH   00B4A6H   000008H   BYTE   UNIT     CODE           ?L?COM0182
00B4A7H   00B4B5H   00000FH   BYTE   UNIT     CODE           ?L?COM0152
00B4B6H   00B4C7H   000012H   BYTE   UNIT     CODE           ?L?COM0132
00B4C8H   00B4F2H   00002BH   BYTE   UNIT     CODE           ?PR?_LCD_SHOWCHAR?LCD
00B4F3H   00B4FAH   000008H   BYTE   UNIT     CODE           ?L?COM01E2
00B4FBH   00B50DH   000013H   BYTE   UNIT     CODE           ?L?COM008E
00B50EH   00B521H   000014H   BYTE   UNIT     CODE           ?L?COM0114
00B522H   00B5FFH   0000DEH   BYTE   UNIT     CODE           ?PR?HEATPLATE_CONTROLER_CALC?ACTIVITYFUNCTIONS
00B600H   00B60AH   00000BH   BYTE   UNIT     CODE           ?L?COM00A7
00B60BH   00B6F4H   0000EAH   BYTE   UNIT     CODE           ?PR?HEATPLATETEMP_AIM_CONTROLER_CALC?ACTIVITYFUNCTIONS
00B6F5H   00B6FCH   000008H   BYTE   UNIT     CODE           ?L?COM01EA
00B6FDH   00B709H   00000DH   BYTE   UNIT     CODE           ?L?COM0111
00B70AH   00B7D1H   0000C8H   BYTE   UNIT     CODE           ?PR?CONTROLER_CALC?ACTIVITYFUNCTIONS
00B7D2H   00B7D9H   000008H   BYTE   UNIT     CODE           ?L?COM018B
LX51 LINKER/LOCATER V4.66.93.0                                                        04/19/2019  09:16:48  PAGE 9


00B7DAH   00B7E2H   000009H   BYTE   UNIT     CODE           ?L?COM015A
00B7E3H   00B7EAH   000008H   BYTE   UNIT     CODE           ?L?COM01E3
00B7EBH   00B7F2H   000008H   BYTE   UNIT     CODE           ?L?COM01E4
00B7F3H   00B7FDH   00000BH   BYTE   UNIT     CODE           ?PR?ERR_BASE_HEATERWIRE_DISP_ENABLE?ACTIVITYFUNCTIONS
00B7FEH   00BAD5H   0002D8H   BYTE   UNIT     CODE           ?PR?LOWTEMPDET1SFUNC?ACTIVITYFUNCTIONS
00BAD6H   00BADCH   000007H   BYTE   UNIT     CODE           ?L?COM01BB
00BADDH   00BAE4H   000008H   BYTE   UNIT     CODE           ?L?COM01C9
00BAE5H   00BAECH   000008H   BYTE   UNIT     CODE           ?L?COM01EF
00BAEDH   00BAF4H   000008H   BYTE   UNIT     CODE           ?L?COM01F0
00BAF5H   00BB02H   00000EH   BYTE   UNIT     CODE           ?L?COM008A
00BB03H   00BB1AH   000018H   BYTE   UNIT     CODE           ?L?COM006D
00BB1BH   00BB28H   00000EH   BYTE   UNIT     CODE           ?L?COM013E
00BB29H   00BB30H   000008H   BYTE   UNIT     CODE           ?L?COM0189
00BB31H   00BD1DH   0001EDH   BYTE   UNIT     CODE           ?PR?PATIENTTEMP_NONEHEATWIRE_ADJ?ACTIVITYFUNCTIONS
00BD1EH   00BD26H   000009H   BYTE   UNIT     CODE           ?L?COM01B8
00BD27H   00BD39H   000013H   BYTE   UNIT     CODE           ?L?COM00E9
00BD3AH   00BD42H   000009H   BYTE   UNIT     CODE           ?L?COM0158
00BD43H   00BD52H   000010H   BYTE   UNIT     CODE           ?L?COM00DE
00BD53H   00BD5AH   000008H   BYTE   UNIT     CODE           ?L?COM01CF
00BD5BH   00BD62H   000008H   BYTE   UNIT     CODE           ?L?COM01E8
00BD63H   00BD6AH   000008H   BYTE   UNIT     CODE           ?L?COM01E9
00BD6BH   00BD79H   00000FH   BYTE   UNIT     CODE           ?L?COM0153
00BD7AH   00BD8EH   000015H   BYTE   UNIT     CODE           ?L?COM00EB
00BD8FH   00BDF2H   000064H   BYTE   UNIT     CODE           ?PR?MAIN_INIT?ACTIVITYFUNCTIONS
00BDF3H   00BE0EH   00001CH   BYTE   UNIT     CODE           ?PR?WRITE_DEFAULT_SETTING_TO_FLASH?ACTIVITYFUNCTIONS
00BE0FH   00BE16H   000008H   BYTE   UNIT     CODE           ?L?COM0173
00BE17H   00BE6CH   000056H   BYTE   UNIT     CODE           ?PR?LOAD_SETTINGS_BEFORE_CHOICE?ACTIVITYFUNCTIONS
00BE6DH   00BE79H   00000DH   BYTE   UNIT     CODE           ?L?COM0166
00BE7AH   00BE80H   000007H   BYTE   UNIT     CODE           ?L?COM016A
00BE81H   00BE87H   000007H   BYTE   UNIT     CODE           ?L?COM016B
00BE88H   00BEC1H   00003AH   BYTE   UNIT     CODE           ?PR?WIREINOUT_STATE_CONFIRM?ACTIVITYFUNCTIONS
00BEC2H   00BECCH   00000BH   BYTE   UNIT     CODE           ?PR?SOUND_ALARM_PAUSE_ENABLE?SOUND_TYPE
00BECDH   00BEEAH   00001EH   BYTE   UNIT     CODE           ?PR?KEYMUTEPRESSSHORTACTION?KEY_DATAS
00BEEBH   00BEF2H   000008H   BYTE   UNIT     CODE           ?PR?SOUND_ALARM_PAUSE_DISABLE?SOUND_TYPE
00BEF3H   00BF0DH   00001BH   BYTE   UNIT     CODE           ?PR?_DISP_CQK25X24?LCD
00BF0EH   00BF17H   00000AH   BYTE   UNIT     CODE           ?L?COM009F
00BF18H   00BF24H   00000DH   BYTE   UNIT     CODE           ?PR?_DISP_YOUCHUANG?LCD
00BF25H   00BF37H   000013H   BYTE   UNIT     CODE           ?PR?_DISP_WUCHUANG?LCD
00BF38H   00BF42H   00000BH   BYTE   UNIT     CODE           ?L?COM019A
00BF43H   00BF66H   000024H   BYTE   UNIT     CODE           ?PR?REFRESH_WORK_MODE?LCD
00BF67H   00BF93H   00002DH   BYTE   UNIT     CODE           ?L?COM0040
00BF94H   00BFA8H   000015H   BYTE   UNIT     CODE           ?PR?_DISP_HEAT_36X24?LCD
00BFA9H   00BFBDH   000015H   BYTE   UNIT     CODE           ?PR?_DISP_VHB80_56X40?LCD
00BFBEH   00BFD8H   00001BH   BYTE   UNIT     CODE           ?PR?_DISP_RTD28X24?LCD
00BFD9H   00BFF7H   00001FH   BYTE   UNIT     CODE           ?PR?_DISP_RH14X24?LCD
00BFF8H   00C01DH   000026H   BYTE   UNIT     CODE           ?PR?_DISP_ICO_40X40?LCD
00C01EH   00C02BH   00000EH   BYTE   UNIT     CODE           ?L?COM015B
00C02CH   00C04EH   000023H   BYTE   UNIT     CODE           ?PR?_DISP_DHM?LCD
00C04FH   00C086H   000038H   BYTE   UNIT     CODE           ?PR?_LCD_POW?LCD
00C087H   00C090H   00000AH   BYTE   UNIT     CODE           ?PR?SPI_WRITE_DISABLE?W25X
00C091H   00C09AH   00000AH   BYTE   UNIT     CODE           ?PR?SPI_INIT?W25X
00C09BH   00C0C3H   000029H   BYTE   UNIT     CODE           ?PR?SPI_GET_BYTE?W25X
00C0C4H   00C1A8H   0000E5H   BYTE   UNIT     CODE           ?PR?SHT21_READDATA?SHT21
00C1A9H   00C1B4H   00000CH   BYTE   UNIT     CODE           ?L?COM010E
00C1B5H   00C1C1H   00000DH   BYTE   UNIT     CODE           ?L?COM0168
00C1C2H   00C240H   00007FH   BYTE   UNIT     CODE           ?PR?_SHT2X_CHECKCRC?SHT21
00C241H   00C24BH   00000BH   BYTE   UNIT     CODE           ?L?COM00E3
00C24CH   00C264H   000019H   BYTE   UNIT     CODE           ?PR?_EUSART_WRITE_STR?UART_FUN
00C265H   00C26AH   000006H   BYTE   UNIT     CODE           ?PR?_EUSART_WRITE?UART_FUN
00C26BH   00C274H   00000AH   BYTE   UNIT     CODE           ?PR?_SEND_CHAR_COM?UART_FUN
00C275H   00C2F7H   000083H   BYTE   UNIT     CODE           ?PR?_DS18B20_CHECKCRC?DS18B20
00C2F8H   00C2FEH   000007H   BYTE   UNIT     CODE           ?PR?SCL_DIR_OUTPUT?RX8010
00C2FFH   00C38FH   000091H   BYTE   UNIT     CODE           ?PR?_READEEONE?RX8010
00C390H   00C398H   000009H   BYTE   UNIT     CODE           ?L?COM01B3
00C399H   00C3A2H   00000AH   BYTE   UNIT     CODE           ?L?COM0197
LX51 LINKER/LOCATER V4.66.93.0                                                        04/19/2019  09:16:48  PAGE 10


00C3A3H   00C404H   000062H   BYTE   UNIT     CODE           ?PR?_RX8010_SETTIME?RX8010
00C405H   00C410H   00000CH   BYTE   UNIT     CODE           ?L?COM0181
00C411H   00C41AH   00000AH   BYTE   UNIT     CODE           ?L?COM01A0
00C41BH   00C427H   00000DH   BYTE   UNIT     CODE           ?PR?KEY_UP_TIKFUNC?KEY_DATAS
00C428H   00C42EH   000007H   BYTE   UNIT     CODE           ?PR?KEYUPPRESSSHORTACTION?KEY_DATAS
00C42FH   00C435H   000007H   BYTE   UNIT     CODE           ?PR?KEYUPPRESSLONGFIRSTACTION?KEY_DATAS
00C436H   00C43CH   000007H   BYTE   UNIT     CODE           ?PR?KEYUPPRESSLONGREPEATACTION?KEY_DATAS
00C43DH   00C449H   00000DH   BYTE   UNIT     CODE           ?PR?KEY_DOWN_TIKFUNC?KEY_DATAS
00C44AH   00C450H   000007H   BYTE   UNIT     CODE           ?PR?KEYDOWNPRESSSHORTACTION?KEY_DATAS
00C451H   00C457H   000007H   BYTE   UNIT     CODE           ?PR?KEYDOWNPRESSLONGFIRSTACTION?KEY_DATAS
00C458H   00C45EH   000007H   BYTE   UNIT     CODE           ?PR?KEYDOWNPRESSLONGREPEATACTION?KEY_DATAS
00C45FH   00C46BH   00000DH   BYTE   UNIT     CODE           ?PR?KEY_OK_TIKFUNC?KEY_DATAS
00C46CH   00C472H   000007H   BYTE   UNIT     CODE           ?PR?KEYOKPRESSSHORTACTION?KEY_DATAS
00C473H   00C479H   000007H   BYTE   UNIT     CODE           ?PR?KEYOKPRESSLONGFIRSTACTION?KEY_DATAS
00C47AH   00C480H   000007H   BYTE   UNIT     CODE           ?PR?KEYOKPRESSLONGREPEATACTION?KEY_DATAS
00C481H   00C48DH   00000DH   BYTE   UNIT     CODE           ?PR?KEY_MUTE_TIKFUNC?KEY_DATAS
00C48EH   00C494H   000007H   BYTE   UNIT     CODE           ?PR?KEYMUTEPRESSLONGFIRSTACTION?KEY_DATAS
00C495H   00C49BH   000007H   BYTE   UNIT     CODE           ?PR?KEYMUTEPRESSLONGREPEATACTION?KEY_DATAS
00C49CH   00C51CH   000081H   BYTE   UNIT     CODE           ?PR?_DISPLAY_IN_EXP_RATIO?GUI
00C51DH   00C5EDH   0000D1H   BYTE   UNIT     CODE           ?PR?HMISETINEXPFUNC?GUI
00C5EEH   00C5F5H   000008H   BYTE   UNIT     CODE           ?L?COM01D2
00C5F6H   00C5FCH   000007H   BYTE   UNIT     CODE           ?L?COM01AB
00C5FDH   00C605H   000009H   BYTE   UNIT     CODE           ?L?COM0122
00C606H   00C60DH   000008H   BYTE   UNIT     CODE           ?L?COM01D4
00C60EH   00C61AH   00000DH   BYTE   UNIT     CODE           ?PR?ENTERSETINEXP?GUI
00C61BH   00C627H   00000DH   BYTE   UNIT     CODE           ?PR?HMIPOSTFUNC_TIK_CNT?GUI
00C628H   00C640H   000019H   BYTE   UNIT     CODE           ?PR?HMIFACTORYDEFAULT_TIK_CNT?GUI
00C641H   00C64DH   00000DH   BYTE   UNIT     CODE           ?PR?HMINON_INVASIVESEL_TIK_CNT?GUI
00C64EH   00C659H   00000CH   BYTE   UNIT     CODE           ?PR?ENTERSETTIME?GUI
00C65AH   00C6E4H   00008BH   BYTE   UNIT     CODE           ?PR?DATE_IS_CORRECT?GUI
00C6E5H   00C701H   00001DH   BYTE   UNIT     CODE           ?PR?EUSART_INITIALIZE?UART_FUN
00C702H   00C74EH   00004DH   BYTE   UNIT     CODE           ?L?COM0020
00C74FH   00C767H   000019H   BYTE   UNIT     CODE           ?L?COM0085
00C768H   00C787H   000020H   BYTE   UNIT     CODE           ?L?COM0088
00C788H   00C7A1H   00001AH   BYTE   UNIT     CODE           ?L?COM009A
00C7A2H   00C7B2H   000011H   BYTE   UNIT     CODE           ?L?COM00A1
00C7B3H   00C7C9H   000017H   BYTE   UNIT     CODE           ?L?COM00AA
00C7CAH   00C7E0H   000017H   BYTE   UNIT     CODE           ?L?COM00AC
00C7E1H   00C7F4H   000014H   BYTE   UNIT     CODE           ?L?COM00B0
00C7F5H   00C816H   000022H   BYTE   UNIT     CODE           ?L?COM00B9
00C817H   00C82EH   000018H   BYTE   UNIT     CODE           ?L?COM00D9
00C82FH   00C83EH   000010H   BYTE   UNIT     CODE           ?L?COM00DC
00C83FH   00C84FH   000011H   BYTE   UNIT     CODE           ?L?COM00FC
00C850H   00C864H   000015H   BYTE   UNIT     CODE           ?L?COM0113
00C865H   00C877H   000013H   BYTE   UNIT     CODE           ?L?COM011E
00C878H   00C888H   000011H   BYTE   UNIT     CODE           ?L?COM013D
00C889H   00C88FH   000007H   BYTE   UNIT     CODE           ?L?COM014A
00C890H   00C898H   000009H   BYTE   UNIT     CODE           ?L?COM014B
00C899H   00C8A0H   000008H   BYTE   UNIT     CODE           ?L?COM014F
00C8A1H   00C8AFH   00000FH   BYTE   UNIT     CODE           ?L?COM0151
00C8B0H   00C8BEH   00000FH   BYTE   UNIT     CODE           ?L?COM0154
00C8BFH   00C8CBH   00000DH   BYTE   UNIT     CODE           ?L?COM0159
00C8CCH   00C8D4H   000009H   BYTE   UNIT     CODE           ?L?COM015D
00C8D5H   00C8E2H   00000EH   BYTE   UNIT     CODE           ?L?COM015F
00C8E3H   00C8F0H   00000EH   BYTE   UNIT     CODE           ?L?COM0160
00C8F1H   00C8FEH   00000EH   BYTE   UNIT     CODE           ?L?COM0161
00C8FFH   00C90CH   00000EH   BYTE   UNIT     CODE           ?L?COM0162
00C90DH   00C918H   00000CH   BYTE   UNIT     CODE           ?L?COM0167
00C919H   00C924H   00000CH   BYTE   UNIT     CODE           ?L?COM0169
00C925H   00C931H   00000DH   BYTE   UNIT     CODE           ?L?COM016D
00C932H   00C93EH   00000DH   BYTE   UNIT     CODE           ?L?COM016E
00C93FH   00C947H   000009H   BYTE   UNIT     CODE           ?L?COM0174
00C948H   00C94FH   000008H   BYTE   UNIT     CODE           ?L?COM0178
00C950H   00C95BH   00000CH   BYTE   UNIT     CODE           ?L?COM0179
00C95CH   00C963H   000008H   BYTE   UNIT     CODE           ?L?COM017A
LX51 LINKER/LOCATER V4.66.93.0                                                        04/19/2019  09:16:48  PAGE 11


00C964H   00C96FH   00000CH   BYTE   UNIT     CODE           ?L?COM017F
00C970H   00C97BH   00000CH   BYTE   UNIT     CODE           ?L?COM0186
00C97CH   00C987H   00000CH   BYTE   UNIT     CODE           ?L?COM0188
00C988H   00C991H   00000AH   BYTE   UNIT     CODE           ?L?COM0194
00C992H   00C99CH   00000BH   BYTE   UNIT     CODE           ?L?COM019E
00C99DH   00C9A3H   000007H   BYTE   UNIT     CODE           ?L?COM019F
00C9A4H   00C9ADH   00000AH   BYTE   UNIT     CODE           ?L?COM01A3
00C9AEH   00C9B4H   000007H   BYTE   UNIT     CODE           ?L?COM01A8
00C9B5H   00C9BDH   000009H   BYTE   UNIT     CODE           ?L?COM01AA
00C9BEH   00C9C6H   000009H   BYTE   UNIT     CODE           ?L?COM01AC
00C9C7H   00C9CFH   000009H   BYTE   UNIT     CODE           ?L?COM01AD
00C9D0H   00C9D8H   000009H   BYTE   UNIT     CODE           ?L?COM01B0
00C9D9H   00C9E2H   00000AH   BYTE   UNIT     CODE           ?L?COM01B4
00C9E3H   00C9ECH   00000AH   BYTE   UNIT     CODE           ?L?COM01BA
00C9EDH   00C9F6H   00000AH   BYTE   UNIT     CODE           ?L?COM01C0
00C9F7H   00CA00H   00000AH   BYTE   UNIT     CODE           ?L?COM01C4
00CA01H   00CA0AH   00000AH   BYTE   UNIT     CODE           ?L?COM01C5
00CA0BH   00CA12H   000008H   BYTE   UNIT     CODE           ?L?COM01C6
00CA13H   00CA1AH   000008H   BYTE   UNIT     CODE           ?L?COM01CC
00CA1BH   00CA22H   000008H   BYTE   UNIT     CODE           ?L?COM01CD
00CA23H   00CA29H   000007H   BYTE   UNIT     CODE           ?L?COM01CE
00CA2AH   00CA31H   000008H   BYTE   UNIT     CODE           ?L?COM01D1
00CA32H   00CA38H   000007H   BYTE   UNIT     CODE           ?L?COM01DA
00CA39H   00CA40H   000008H   BYTE   UNIT     CODE           ?L?COM01DD
00CA41H   00CA48H   000008H   BYTE   UNIT     CODE           ?L?COM01E0
00CA49H   00CA50H   000008H   BYTE   UNIT     CODE           ?L?COM01E1
00CA51H   00CA58H   000008H   BYTE   UNIT     CODE           ?L?COM01E6
00CA59H   00CA60H   000008H   BYTE   UNIT     CODE           ?L?COM01E7
00CA61H   00CA68H   000008H   BYTE   UNIT     CODE           ?L?COM01EB
00CA69H   00CA70H   000008H   BYTE   UNIT     CODE           ?L?COM01EC
00CA71H   00CA78H   000008H   BYTE   UNIT     CODE           ?L?COM01ED
00CA79H   00CA80H   000008H   BYTE   UNIT     CODE           ?L?COM01EE
00CA81H   00CA88H   000008H   BYTE   UNIT     CODE           ?L?COM01FA

* * * * * * * * * * *  X D A T A   M E M O R Y  * * * * * * * * * * * * *
000000H   00010EH   00010FH   BYTE   UNIT     XDATA          ?XD?ACTIVITYFUNCTIONS
00010FH   0001C9H   0000BBH   BYTE   UNIT     XDATA          _XDATA_GROUP_
0001CAH   00024EH   000085H   BYTE   UNIT     XDATA          ?XD?WS_TASK_MANAGE
00024FH   0002D2H   000084H   BYTE   UNIT     XDATA          ?XD?UART_FUN
0002D3H   00032EH   00005CH   BYTE   UNIT     XDATA          ?XD?NORMAL_TASK
00032FH   00034FH   000021H   BYTE   UNIT     XDATA          ?XD?GUI
000350H   000354H   000005H   BYTE   UNIT     XDATA          ?XD?KEY_DATAS
000355H   000358H   000004H   BYTE   UNIT     XDATA          ?XD?STC_EEPROM
000359H   00035BH   000003H   BYTE   UNIT     XDATA          ?XD?SOUND_TYPE
00035CH   00035DH   000002H   BYTE   UNIT     XDATA          ?XD?MAIN_TIK_TOK
00035EH   00035FH   000002H   BYTE   UNIT     XDATA          ?XD?DS18B20
000360H   000360H   000001H   BYTE   UNIT     XDATA          ?XD?LCD
000361H   000361H   000001H   BYTE   UNIT     XDATA          ?XD?KEY_MULTIFUN



OVERLAY MAP OF MODULE:   ..\OBJ\VHB15A (STC_EEPROM)


FUNCTION/MODULE                                BIT_GROUP   XDATA_GROUP
--> CALLED FUNCTION/MODULE                    START  STOP  START  STOP
======================================================================
INTERRUPT_EXT1/ACTIVITYFUNCTIONS              ----- -----  ----- -----

*** NEW ROOT ********************************

INTERRUPT_TIME0/ACTIVITYFUNCTIONS             ----- -----  ----- -----
  +--> TIMER_T0_INT_MAIN/MAIN_TIK_TOK

TIMER_T0_INT_MAIN/MAIN_TIK_TOK                ----- -----  ----- -----
LX51 LINKER/LOCATER V4.66.93.0                                                        04/19/2019  09:16:48  PAGE 12


  +--> MAIN_TIK_FUNCTIONS/MAIN_TIK_FUNCTION
  +--> SOUND_TYPE_DRIVE/SOUND_TYPE
  +--> SUB_TIK_FUNCTIONS/SUB_TIK_FUNCTION

MAIN_TIK_FUNCTIONS/MAIN_TIK_FUNCTION          ----- -----  ----- -----
  +--> _WS_SETTASKIFG/WS_TASK_MANAGE
  +--> HEATERPLATEWIREDRIVEFBTASK/ACTIVITYFUNCTIONS

_WS_SETTASKIFG/WS_TASK_MANAGE                 ----- -----  ----- -----

HEATERPLATEWIREDRIVEFBTASK/ACTIVITYFUNCT+     ----- -----  ----- -----
... IONS

SOUND_TYPE_DRIVE/SOUND_TYPE                   ----- -----  ----- -----

SUB_TIK_FUNCTIONS/SUB_TIK_FUNCTION            ----- -----  ----- -----
  +--> KEY_UP_TIKFUNC/KEY_DATAS
  +--> KEY_DOWN_TIKFUNC/KEY_DATAS
  +--> KEY_OK_TIKFUNC/KEY_DATAS
  +--> KEY_MUTE_TIKFUNC/KEY_DATAS
  +--> HMIPOSTFUNC_TIK_CNT/GUI
  +--> HMIFACTORYDEFAULT_TIK_CNT/GUI
  +--> HMINON_INVASIVESEL_TIK_CNT/GUI
  +--> HMISCREENSAVERMODE_TIK_CNT/GUI

KEY_UP_TIKFUNC/KEY_DATAS                      ----- -----  ----- -----

KEY_DOWN_TIKFUNC/KEY_DATAS                    ----- -----  ----- -----

KEY_OK_TIKFUNC/KEY_DATAS                      ----- -----  ----- -----

KEY_MUTE_TIKFUNC/KEY_DATAS                    ----- -----  ----- -----

HMIPOSTFUNC_TIK_CNT/GUI                       ----- -----  ----- -----

HMIFACTORYDEFAULT_TIK_CNT/GUI                 ----- -----  ----- -----

HMINON_INVASIVESEL_TIK_CNT/GUI                ----- -----  ----- -----

HMISCREENSAVERMODE_TIK_CNT/GUI                ----- -----  ----- -----

*** NEW ROOT ********************************

INTERRUPT_SERIAL/ACTIVITYFUNCTIONS            ----- -----  ----- -----
  +--> EUSART_RECEIVE_ISR/UART_FUN
  +--> EUSART_TRANSMIT_ISR/UART_FUN

EUSART_RECEIVE_ISR/UART_FUN                   ----- -----  ----- -----

EUSART_TRANSMIT_ISR/UART_FUN                  ----- -----  ----- -----

*** NEW ROOT ********************************

?C_C51STARTUP                                 ----- -----  ----- -----
  +--> MAIN/MAIN
  +--> ?C_INITSEG

MAIN/MAIN                                     ----- -----  010FH 010FH
  +--> MAIN_TIK_TOK_INITIAL_FUN/MAIN_TIK_TOK
  +--> INIT_PORT/ACTIVITYFUNCTIONS
  +--> MAIN_INIT/ACTIVITYFUNCTIONS
  +--> _HMIENTERTOWORKSTATEFUNC/GUI
  +--> MANAGETASK/NORMAL_TASK
  +--> KEYSCANTASK/NORMAL_TASK
  +--> HMISERVICEMODETASK/NORMAL_TASK
LX51 LINKER/LOCATER V4.66.93.0                                                        04/19/2019  09:16:48  PAGE 13


  +--> HMIPOSTTASK/NORMAL_TASK
  +--> HMIFACTORYDEFAULTSELTASK/NORMAL_TASK
  +--> HMINON_INVASIVESELTASK/NORMAL_TASK
  +--> HMIRUNNINGTASK/NORMAL_TASK
  +--> HMISETTEMPPATIENTTASK/NORMAL_TASK
  +--> HMISETTEMPCHAMBERTASK/NORMAL_TASK
  +--> HMISETINEXPTASK/NORMAL_TASK
  +--> HMISETTIMETASK/NORMAL_TASK
  +--> HMISCREENSAVERMODETASK/NORMAL_TASK
  +--> GETTEMP_HPCHAMBERTASK/NORMAL_TASK
  +--> GETTEMPHUMIDITY_PATIENTTASK/NORMAL_TASK
  +--> REFRESHTEMPHUMIDYTASK/NORMAL_TASK
  +--> REFRESHRTCTIMETASK/NORMAL_TASK
  +--> REFRESHRUNTIMETASK/NORMAL_TASK
  +--> HEATERWIRECONTROLTASK/NORMAL_TASK
  +--> LOWPOWERMODETASK/NORMAL_TASK
  +--> HEATERWIREMODEDETTASK/NORMAL_TASK
  +--> ALARMERRORTASK/NORMAL_TASK
  +--> LOWTEMPDET1STASK/NORMAL_TASK
  +--> SAVEDATETOFLASHTASK/NORMAL_TASK
  +--> UARTRECTASK/NORMAL_TASK

MAIN_TIK_TOK_INITIAL_FUN/MAIN_TIK_TOK         ----- -----  ----- -----

INIT_PORT/ACTIVITYFUNCTIONS                   ----- -----  0110H 0111H
  +--> EUSART_INITIALIZE/UART_FUN
  +--> SPI_INIT/W25X
  +--> LCD_INITIAL/LCD
  +--> _DRAW_RECTANGLE_REAL/LCD
  +--> _DISP_FNT10X24/LCD
  +--> LCD_SHOW_VERION/LCD

EUSART_INITIALIZE/UART_FUN                    ----- -----  ----- -----

SPI_INIT/W25X                                 ----- -----  ----- -----
  +--> SPI_WRITE_DISABLE/W25X

SPI_WRITE_DISABLE/W25X                        ----- -----  ----- -----
  +--> _SPI_SEND_BYTE/W25X

_SPI_SEND_BYTE/W25X                           ----- -----  ----- -----

LCD_INITIAL/LCD                               ----- -----  ----- -----
  +--> _DELAY_MS/DELAY
  +--> _SDCMD/LCD
  +--> _SDDATA/LCD

_DELAY_MS/DELAY                               ----- -----  ----- -----

_SDCMD/LCD                                    ----- -----  ----- -----

_SDDATA/LCD                                   ----- -----  ----- -----

_DRAW_RECTANGLE_REAL/LCD                      ----- -----  019CH 01A8H
  +--> _LCD_CRTLWRITE_AREA/LCD
  +--> _LCD_CTRLWRITE_COLOR/LCD

_LCD_CRTLWRITE_AREA/LCD                       ----- -----  01C4H 01C9H
  +--> _SDCMD/LCD
  +--> _SDDATA/LCD

_LCD_CTRLWRITE_COLOR/LCD                      ----- -----  ----- -----
  +--> _LCD_CTRLWRITE_ILI9328/LCD

_LCD_CTRLWRITE_ILI9328/LCD                    ----- -----  ----- -----
LX51 LINKER/LOCATER V4.66.93.0                                                        04/19/2019  09:16:48  PAGE 14



_DISP_FNT10X24/LCD                            ----- -----  0112H 0116H
  +--> _DISP_MONO_GRAP/LCD

_DISP_MONO_GRAP/LCD                           ----- -----  01A1H 01ADH
  +--> _LCD_CRTLWRITE_AREA/LCD
  +--> _LCD_CTRLWRITE_COLOR/LCD

LCD_SHOW_VERION/LCD                           ----- -----  ----- -----
  +--> _LCD_SHOWSTRING/LCD

_LCD_SHOWSTRING/LCD                           ----- -----  0197H 01ABH
  +--> _LCD_SHOWCHAR/LCD

_LCD_SHOWCHAR/LCD                             ----- -----  01ACH 01B3H
  +--> _DISP_FNT8X16/LCD
  +--> _DISP_FNT12X24/LCD

_DISP_FNT8X16/LCD                             ----- -----  01B4H 01C2H
  +--> _LCD_CRTLWRITE_AREA/LCD
  +--> _LCD_DRAWPOINT/LCD
  +--> _LCD_CTRLWRITE_COLOR/LCD

_LCD_DRAWPOINT/LCD                            ----- -----  01C4H 01C5H
  +--> _SDCMD/LCD
  +--> _SDDATA/LCD
  +--> _LCD_CTRLWRITE_COLOR/LCD

_DISP_FNT12X24/LCD                            ----- -----  01B4H 01C3H
  +--> _LCD_CRTLWRITE_AREA/LCD
  +--> _LCD_DRAWPOINT/LCD
  +--> _LCD_CTRLWRITE_COLOR/LCD

MAIN_INIT/ACTIVITYFUNCTIONS                   ----- -----  ----- -----
  +--> GET_RUNCOUNT/ACTIVITYFUNCTIONS

GET_RUNCOUNT/ACTIVITYFUNCTIONS                ----- -----  0110H 0118H
  +--> _SPI_READ_NBYTES/W25X
  +--> _DELAY_US/DELAY

_SPI_READ_NBYTES/W25X                         ----- -----  0119H 0121H
  +--> _SPI_SEND_BYTE/W25X
  +--> SPI_GET_BYTE/W25X

SPI_GET_BYTE/W25X                             ----- -----  ----- -----

_DELAY_US/DELAY                               ----- -----  ----- -----

_HMIENTERTOWORKSTATEFUNC/GUI                  ----- -----  0148H 0195H
  +--> _DRAW_RECTANGLE_REAL/LCD
  +--> MEM_FLASH_RECALL/ACTIVITYFUNCTIONS
  +--> _DRAW_RECTANGLE/LCD
  +--> _LCD_SHOWSTRING/LCD
  +--> _DRAW_CIRCLE/LCD
  +--> _DISP_ICO_40X40/LCD
  +--> _DISP_WUCHUANG/LCD
  +--> _DISP_YOUCHUANG/LCD
  +--> DRAWWORKWINDOWS/LCD
  +--> _REFRESHRUNTIMEFUNC/ACTIVITYFUNCTIONS
  +--> _REFRESHTEMPHUMIDYFUNC/ACTIVITYFUNCTIONS
  +--> _DISP_ICO_32X40/LCD
  +--> _DISPLAY_SET_TEMP/GUI
  +--> ENTERSETTIME/GUI
  +--> ENTERSETINEXP/GUI

LX51 LINKER/LOCATER V4.66.93.0                                                        04/19/2019  09:16:48  PAGE 15


MEM_FLASH_RECALL/ACTIVITYFUNCTIONS            ----- -----  ----- -----
  +--> _STC_IAP_BYTE_READ/STC_EEPROM
  +--> WRITE_DEFAULT_SETTING_TO_FLASH/ACTIVITYFUNCTIONS

_STC_IAP_BYTE_READ/STC_EEPROM                 ----- -----  ----- -----
  +--> IAP_DISABLE/STC_EEPROM

IAP_DISABLE/STC_EEPROM                        ----- -----  ----- -----

WRITE_DEFAULT_SETTING_TO_FLASH/ACTIVITYF+     ----- -----  ----- -----
... UNCTIONS
  +--> SETTING_WRITE_TO_FLASH/ACTIVITYFUNCTIONS

SETTING_WRITE_TO_FLASH/ACTIVITYFUNCTIONS      ----- -----  ----- -----
  +--> _STC_IAP_SECTOR_ERASE/STC_EEPROM
  +--> _STC_IAP_BYTE_PROGRAM/STC_EEPROM

_STC_IAP_SECTOR_ERASE/STC_EEPROM              ----- -----  ----- -----
  +--> IAP_DISABLE/STC_EEPROM

_STC_IAP_BYTE_PROGRAM/STC_EEPROM              ----- -----  ----- -----
  +--> IAP_DISABLE/STC_EEPROM

_DRAW_RECTANGLE/LCD                           ----- -----  0196H 01A3H
  +--> _LCD_CRTLWRITE_AREA/LCD
  +--> _LCD_CTRLWRITE_COLOR/LCD

_DRAW_CIRCLE/LCD                              ----- -----  0196H 019FH
  +--> _LCD_DRAWPOINT/LCD

_DISP_ICO_40X40/LCD                           ----- -----  0196H 019AH
  +--> _DISP_MONO_GRAP/LCD

_DISP_WUCHUANG/LCD                            ----- -----  ----- -----
  +--> _DISP_MONO_GRAP/LCD

_DISP_YOUCHUANG/LCD                           ----- -----  ----- -----
  +--> _DISP_MONO_GRAP/LCD

DRAWWORKWINDOWS/LCD                           ----- -----  ----- -----
  +--> _DRAW_RECTANGLE_REAL/LCD
  +--> _DISP_WUCHUANG/LCD
  +--> _DISP_YOUCHUANG/LCD
  +--> _DRAW_RECTANGLE/LCD
  +--> REFRESH_WORK_MODE/LCD
  +--> _DISP_ICO_52X64/LCD
  +--> _DISP_ICO_40X40/LCD
  +--> _DISP_ICO_32X40/LCD
  +--> _DISP_RH14X24/LCD
  +--> _DISP_DHM/LCD
  +--> _DISP_TIME_10X16/LCD

REFRESH_WORK_MODE/LCD                         ----- -----  ----- -----
  +--> _DISP_WUCHUANG/LCD
  +--> _DISP_YOUCHUANG/LCD

_DISP_ICO_52X64/LCD                           ----- -----  0196H 019AH
  +--> _DISP_MONO_GRAP/LCD

_DISP_ICO_32X40/LCD                           ----- -----  0196H 019AH
  +--> _DISP_MONO_GRAP/LCD

_DISP_RH14X24/LCD                             ----- -----  0196H 019AH
  +--> _DISP_MONO_GRAP/LCD

LX51 LINKER/LOCATER V4.66.93.0                                                        04/19/2019  09:16:48  PAGE 16


_DISP_DHM/LCD                                 ----- -----  0196H 019AH
  +--> _DISP_MONO_GRAP/LCD

_DISP_TIME_10X16/LCD                          ----- -----  0197H 019BH
  +--> _DISP_MONO_GRAP/LCD

_REFRESHRUNTIMEFUNC/ACTIVITYFUNCTIONS         ----- -----  0196H 0196H
  +--> _RX8010_GETTIME/RX8010
  +--> _DISP_TIME_10X16/LCD

_RX8010_GETTIME/RX8010                        ----- -----  0197H 01A0H
  +--> _READEEONE/RX8010

_READEEONE/RX8010                             ----- -----  01A1H 01A7H
  +--> IC_START/RX8010
  +--> _IC_WRITEBYTE/RX8010
  +--> IC_STOP/RX8010
  +--> IC_READBYTE/RX8010
  +--> SDA_DIR_OUTPUT/RX8010
  +--> _DELAY_US/DELAY

IC_START/RX8010                               ----- -----  ----- -----
  +--> SCL_DIR_OUTPUT/RX8010
  +--> SDA_DIR_OUTPUT/RX8010
  +--> _DELAY_US/DELAY

SCL_DIR_OUTPUT/RX8010                         ----- -----  ----- -----

SDA_DIR_OUTPUT/RX8010                         ----- -----  ----- -----

_IC_WRITEBYTE/RX8010                          ----- -----  01A8H 01AAH
  +--> SDA_DIR_OUTPUT/RX8010
  +--> _DELAY_US/DELAY
  +--> SDA_DIR_INPUT/RX8010

SDA_DIR_INPUT/RX8010                          ----- -----  ----- -----

IC_STOP/RX8010                                ----- -----  ----- -----
  +--> SDA_DIR_OUTPUT/RX8010
  +--> _DELAY_US/DELAY

IC_READBYTE/RX8010                            ----- -----  01A8H 01A9H
  +--> SDA_DIR_OUTPUT/RX8010
  +--> SDA_DIR_INPUT/RX8010
  +--> _DELAY_US/DELAY

_REFRESHTEMPHUMIDYFUNC/ACTIVITYFUNCTIONS      ----- -----  0196H 019BH
  +--> _BIT_IS_ONE/ACTIVITYFUNCTIONS
  +--> _DRAW_RECTANGLE_REAL/LCD
  +--> _DISP_TEMP_30X56/LCD
  +--> _DISP_RH_17X40/LCD

_BIT_IS_ONE/ACTIVITYFUNCTIONS                 ----- -----  ----- -----

_DISP_TEMP_30X56/LCD                          ----- -----  019CH 01A0H
  +--> _DISP_MONO_GRAP/LCD

_DISP_RH_17X40/LCD                            ----- -----  019CH 01A0H
  +--> _DISP_MONO_GRAP/LCD

_DISPLAY_SET_TEMP/GUI                         ----- -----  0196H 0197H
  +--> _DISP_TEMP_30X56/LCD
  +--> _DRAW_RECTANGLE_REAL/LCD

ENTERSETTIME/GUI                              ----- -----  ----- -----
LX51 LINKER/LOCATER V4.66.93.0                                                        04/19/2019  09:16:48  PAGE 17


  +--> _RX8010_GETTIME/RX8010

ENTERSETINEXP/GUI                             ----- -----  ----- -----
  +--> _DISPLAY_IN_EXP_RATIO/GUI

_DISPLAY_IN_EXP_RATIO/GUI                     ----- -----  0196H 0196H
  +--> _LCD_SHOWSTRING/LCD

MANAGETASK/NORMAL_TASK                        ----- -----  ----- -----
  +--> _WS_TASKJUDGE/WS_TASK_MANAGE
  +--> _WS_DELTASKIFG/WS_TASK_MANAGE
  +--> _WS_SETTASKIFG/WS_TASK_MANAGE

_WS_TASKJUDGE/WS_TASK_MANAGE                  ----- -----  0110H 0110H

_WS_DELTASKIFG/WS_TASK_MANAGE                 ----- -----  ----- -----

KEYSCANTASK/NORMAL_TASK                       20H.0 20H.0  ----- -----
  +--> _WS_TASKJUDGE/WS_TASK_MANAGE
  +--> _WS_DELTASKIFG/WS_TASK_MANAGE
  +--> KEY_MULTIFUN/KEY_MULTIFUN

KEY_MULTIFUN/KEY_MULTIFUN                     ----- -----  0110H 0120H

HMISERVICEMODETASK/NORMAL_TASK                ----- -----  ----- -----
  +--> _WS_TASKJUDGE/WS_TASK_MANAGE
  +--> _WS_DELTASKIFG/WS_TASK_MANAGE
  +--> HMISERVICEMODEFUNC/GUI

HMISERVICEMODEFUNC/GUI                        ----- -----  0110H 0110H
  +--> _DRAW_RECTANGLE_REAL/LCD
  +--> _LCD_SHOWSTRING/LCD
  +--> _SPI_ERASE_SECTOR/W25X
  +--> _DELAY_MS/DELAY
  +--> _SPI_WRITE_NBYTES/W25X
  +--> _SPI_READ_NBYTES/W25X
  +--> LCD_SHOW_VERION/LCD
  +--> _DISP_ICO_52X64/LCD
  +--> _DISP_ICO_32X40/LCD
  +--> _DISP_ICO_40X40/LCD
  +--> _DISP_RH14X24/LCD
  +--> _DISP_HEAT_36X24/LCD
  +--> SERVICEMODE_TEMPHUMIDY_DISP/ACTIVITYFUNCTIONS
  +--> _HMIENTERTOWORKSTATEFUNC/GUI

_SPI_ERASE_SECTOR/W25X                        ----- -----  0118H 011BH
  +--> SPI_WRITE_ENABLE/W25X
  +--> _SPI_SEND_BYTE/W25X

SPI_WRITE_ENABLE/W25X                         ----- -----  ----- -----
  +--> _SPI_SEND_BYTE/W25X

_SPI_WRITE_NBYTES/W25X                        ----- -----  0119H 0122H
  +--> SPI_WRITE_ENABLE/W25X
  +--> _SPI_SEND_BYTE/W25X

_DISP_HEAT_36X24/LCD                          ----- -----  ----- -----
  +--> _DISP_MONO_GRAP/LCD

SERVICEMODE_TEMPHUMIDY_DISP/ACTIVITYFUNC+     ----- -----  0111H 0114H
... TIONS
  +--> _DISP_TEMP_30X56/LCD
  +--> _DRAW_RECTANGLE_REAL/LCD
  +--> _DISP_RH_17X40/LCD

LX51 LINKER/LOCATER V4.66.93.0                                                        04/19/2019  09:16:48  PAGE 18


HMIPOSTTASK/NORMAL_TASK                       ----- -----  ----- -----
  +--> _WS_TASKJUDGE/WS_TASK_MANAGE
  +--> _WS_DELTASKIFG/WS_TASK_MANAGE
  +--> HMIPOSTFUNC/GUI

HMIPOSTFUNC/GUI                               ----- -----  0110H 0110H
  +--> RX8010_INITIALIZE/RX8010
  +--> _DRAW_RECTANGLE_REAL/LCD
  +--> _LCD_SHOWSTRING/LCD
  +--> _SPI_READ_NBYTES/W25X
  +--> _SPI_ERASE_SECTOR/W25X
  +--> _SPI_WRITE_NBYTES/W25X
  +--> _DELAY_MS/DELAY
  +--> _HMIENTERTOWORKSTATEFUNC/GUI

RX8010_INITIALIZE/RX8010                      ----- -----  0111H 0119H
  +--> _READEEONE/RX8010
  +--> _DELAY_MS/DELAY
  +--> _BIT_IS_ONE/ACTIVITYFUNCTIONS
  +--> _WRITEEEONE/RX8010

_WRITEEEONE/RX8010                            ----- -----  011AH 011FH
  +--> IC_START/RX8010
  +--> _IC_WRITEBYTE/RX8010
  +--> IC_STOP/RX8010
  +--> _DELAY_US/DELAY

HMIFACTORYDEFAULTSELTASK/NORMAL_TASK          ----- -----  ----- -----
  +--> _WS_TASKJUDGE/WS_TASK_MANAGE
  +--> _WS_DELTASKIFG/WS_TASK_MANAGE
  +--> HMIFACTORYDEFAULTFUNC/GUI

HMIFACTORYDEFAULTFUNC/GUI                     ----- -----  0110H 0147H
  +--> _DISP_ICO_40X40/LCD
  +--> SOUND_SHORT/SOUND_TYPE
  +--> LOAD_SETTINGS_BEFORE_CHOICE/ACTIVITYFUNCTIONS
  +--> _HMIENTERTOWORKSTATEFUNC/GUI
  +--> _DRAW_RECTANGLE/LCD
  +--> _DRAW_RECTANGLE_REAL/LCD
  +--> _LCD_SHOWSTRING/LCD
  +--> _LCD_SHOWXNUM/LCD
  +--> _DRAW_CIRCLE/LCD

SOUND_SHORT/SOUND_TYPE                        ----- -----  ----- -----

LOAD_SETTINGS_BEFORE_CHOICE/ACTIVITYFUNC+     ----- -----  ----- -----
... TIONS
  +--> WRITE_DEFAULT_SETTING_TO_FLASH/ACTIVITYFUNCTIONS

_LCD_SHOWXNUM/LCD                             ----- -----  0148H 0156H
  +--> _LCD_POW/LCD
  +--> _LCD_SHOWCHAR/LCD

_LCD_POW/LCD                                  ----- -----  0157H 015CH

HMINON_INVASIVESELTASK/NORMAL_TASK            ----- -----  ----- -----
  +--> _WS_TASKJUDGE/WS_TASK_MANAGE
  +--> _WS_DELTASKIFG/WS_TASK_MANAGE
  +--> HMINON_INVASIVESELFUNC/GUI

HMINON_INVASIVESELFUNC/GUI                    ----- -----  ----- -----
  +--> _DRAW_RECTANGLE/LCD
  +--> _HMIENTERTOWORKSTATEFUNC/GUI
  +--> SETTING_WRITE_TO_FLASH/ACTIVITYFUNCTIONS

LX51 LINKER/LOCATER V4.66.93.0                                                        04/19/2019  09:16:48  PAGE 19


HMIRUNNINGTASK/NORMAL_TASK                    ----- -----  ----- -----
  +--> _WS_TASKJUDGE/WS_TASK_MANAGE
  +--> _WS_DELTASKIFG/WS_TASK_MANAGE
  +--> HMIRUNNINGFUNC/GUI

HMIRUNNINGFUNC/GUI                            ----- -----  ----- -----
  +--> _DISP_ICO_52X64/LCD
  +--> _DISPLAY_IN_EXP_RATIO/GUI
  +--> _REFRESHTEMPHUMIDYFUNC/ACTIVITYFUNCTIONS
  +--> SOUND_SHORT/SOUND_TYPE
  +--> SETTING_WRITE_TO_FLASH/ACTIVITYFUNCTIONS
  +--> REFRESH_WORK_MODE/LCD
  +--> _HMIENTERTOWORKSTATEFUNC/GUI
  +--> _DRAW_RECTANGLE_REAL/LCD
  +--> WIREINOUT_STATE_CONFIRM/ACTIVITYFUNCTIONS

WIREINOUT_STATE_CONFIRM/ACTIVITYFUNCTION+     ----- -----  ----- -----
... S

HMISETTEMPPATIENTTASK/NORMAL_TASK             ----- -----  ----- -----
  +--> _WS_TASKJUDGE/WS_TASK_MANAGE
  +--> _WS_DELTASKIFG/WS_TASK_MANAGE
  +--> HMISETTEMPPATIENTFUNC/GUI

HMISETTEMPPATIENTFUNC/GUI                     ----- -----  ----- -----
  +--> _DISP_ICO_32X40/LCD
  +--> _DISPLAY_SET_TEMP/GUI
  +--> _HMIENTERTOWORKSTATEFUNC/GUI
  +--> _REFRESHTEMPHUMIDYFUNC/ACTIVITYFUNCTIONS
  +--> SOUND_SHORT/SOUND_TYPE
  +--> SETTING_WRITE_TO_FLASH/ACTIVITYFUNCTIONS

HMISETTEMPCHAMBERTASK/NORMAL_TASK             ----- -----  ----- -----
  +--> _WS_TASKJUDGE/WS_TASK_MANAGE
  +--> _WS_DELTASKIFG/WS_TASK_MANAGE
  +--> HMISETTEMPCHAMBERFUNC/GUI

HMISETTEMPCHAMBERFUNC/GUI                     ----- -----  ----- -----
  +--> _DISP_ICO_32X40/LCD
  +--> _DISPLAY_SET_TEMP/GUI
  +--> SOUND_SHORT/SOUND_TYPE
  +--> _REFRESHTEMPHUMIDYFUNC/ACTIVITYFUNCTIONS
  +--> SETTING_WRITE_TO_FLASH/ACTIVITYFUNCTIONS

HMISETINEXPTASK/NORMAL_TASK                   ----- -----  ----- -----
  +--> _WS_TASKJUDGE/WS_TASK_MANAGE
  +--> _WS_DELTASKIFG/WS_TASK_MANAGE
  +--> HMISETINEXPFUNC/GUI

HMISETINEXPFUNC/GUI                           ----- -----  ----- -----
  +--> _LCD_SHOWSTRING/LCD
  +--> _HMIENTERTOWORKSTATEFUNC/GUI
  +--> _DISPLAY_IN_EXP_RATIO/GUI
  +--> SOUND_SHORT/SOUND_TYPE
  +--> SETTING_WRITE_TO_FLASH/ACTIVITYFUNCTIONS

HMISETTIMETASK/NORMAL_TASK                    ----- -----  ----- -----
  +--> _WS_TASKJUDGE/WS_TASK_MANAGE
  +--> _WS_DELTASKIFG/WS_TASK_MANAGE
  +--> HMISETTIMEFUNC/GUI

HMISETTIMEFUNC/GUI                            ----- -----  ----- -----
  +--> _DISPLAYTIME/GUI
  +--> DATE_IS_CORRECT/GUI
  +--> SOUND_SHORT/SOUND_TYPE
LX51 LINKER/LOCATER V4.66.93.0                                                        04/19/2019  09:16:48  PAGE 20


  +--> _RX8010_SETTIME/RX8010

_DISPLAYTIME/GUI                              ----- -----  0110H 0115H
  +--> _DISP_TIME_10X16/LCD

DATE_IS_CORRECT/GUI                           ----- -----  0110H 0110H

_RX8010_SETTIME/RX8010                        ----- -----  0110H 0119H
  +--> _WRITEEEONE/RX8010

HMISCREENSAVERMODETASK/NORMAL_TASK            ----- -----  ----- -----
  +--> _WS_TASKJUDGE/WS_TASK_MANAGE
  +--> _WS_DELTASKIFG/WS_TASK_MANAGE
  +--> HMISCREENSAVERMODEFUNC/GUI

HMISCREENSAVERMODEFUNC/GUI                    ----- -----  0110H 0112H
  +--> _DRAW_RECTANGLE_REAL/LCD
  +--> _HMIENTERTOWORKSTATEFUNC/GUI
  +--> ERR_BASE_HEATERWIRE_DISP_ENABLE/ACTIVITYFUNCTIONS
  +--> _DISP_TEMP_38X64/LCD
  +--> _DISP_ICO_32X40/LCD

ERR_BASE_HEATERWIRE_DISP_ENABLE/ACTIVITY+     ----- -----  ----- -----
... FUNCTIONS

_DISP_TEMP_38X64/LCD                          ----- -----  0113H 0117H
  +--> _DISP_MONO_GRAP/LCD

GETTEMP_HPCHAMBERTASK/NORMAL_TASK             ----- -----  ----- -----
  +--> _WS_TASKJUDGE/WS_TASK_MANAGE
  +--> _WS_DELTASKIFG/WS_TASK_MANAGE
  +--> GETTEMP_HPCHAMBERFUNC/ACTIVITYFUNCTIONS

GETTEMP_HPCHAMBERFUNC/ACTIVITYFUNCTIONS       ----- -----  0110H 0120H
  +--> _DELAY_US/DELAY
  +--> _DS18B20_WRITEBYTE/DS18B20
  +--> DS18B20_READBYTE/DS18B20
  +--> _DS18B20_CHECKCRC/DS18B20

_DS18B20_WRITEBYTE/DS18B20                    ----- -----  0121H 0122H
  +--> _DELAY_US/DELAY

DS18B20_READBYTE/DS18B20                      ----- -----  0121H 0123H
  +--> _DELAY_US/DELAY

_DS18B20_CHECKCRC/DS18B20                     ----- -----  0121H 0128H

GETTEMPHUMIDITY_PATIENTTASK/NORMAL_TASK       ----- -----  ----- -----
  +--> _WS_TASKJUDGE/WS_TASK_MANAGE
  +--> _WS_DELTASKIFG/WS_TASK_MANAGE
  +--> GETTEMPHUMIDITY_PATIENTFUNC/ACTIVITYFUNCTIONS

GETTEMPHUMIDITY_PATIENTFUNC/ACTIVITYFUNC+     ----- -----  0110H 0117H
... TIONS
  +--> SHT21_WRITETEMP/SHT21
  +--> SHT21_READDATA/SHT21
  +--> SHT21_WRITERH/SHT21

SHT21_WRITETEMP/SHT21                         ----- -----  0118H 0118H
  +--> SHT21_START/SHT21
  +--> _SHT21_WRITE8BIT/SHT21
  +--> SCL_INPUT_HIGH/SHT21

SHT21_START/SHT21                             ----- -----  ----- -----
  +--> SCL_INPUT_HIGH/SHT21
LX51 LINKER/LOCATER V4.66.93.0                                                        04/19/2019  09:16:48  PAGE 21


  +--> SDA_INPUT_HIGH/SHT21
  +--> _DELAY_US/DELAY
  +--> SDA_OUTPUT_LOW/SHT21
  +--> SCL_OUTPUT_LOW/SHT21

SCL_INPUT_HIGH/SHT21                          ----- -----  ----- -----

SDA_INPUT_HIGH/SHT21                          ----- -----  ----- -----

SDA_OUTPUT_LOW/SHT21                          ----- -----  ----- -----

SCL_OUTPUT_LOW/SHT21                          ----- -----  ----- -----

_SHT21_WRITE8BIT/SHT21                        ----- -----  0119H 011CH
  +--> SCL_OUTPUT_LOW/SHT21
  +--> SDA_INPUT_HIGH/SHT21
  +--> SDA_OUTPUT_LOW/SHT21
  +--> _DELAY_US/DELAY
  +--> SCL_INPUT_HIGH/SHT21

SHT21_READDATA/SHT21                          ----- -----  0118H 0123H
  +--> _SHT21_READ8BIT/SHT21
  +--> SHT21_STOP/SHT21
  +--> _SHT2X_CHECKCRC/SHT21

_SHT21_READ8BIT/SHT21                         ----- -----  0124H 0126H
  +--> SDA_INPUT_HIGH/SHT21
  +--> SCL_INPUT_HIGH/SHT21
  +--> _DELAY_US/DELAY
  +--> SCL_OUTPUT_LOW/SHT21
  +--> SDA_OUTPUT_LOW/SHT21

SHT21_STOP/SHT21                              ----- -----  ----- -----
  +--> SCL_OUTPUT_LOW/SHT21
  +--> SDA_OUTPUT_LOW/SHT21
  +--> SCL_INPUT_HIGH/SHT21
  +--> _DELAY_US/DELAY
  +--> SDA_INPUT_HIGH/SHT21

_SHT2X_CHECKCRC/SHT21                         ----- -----  0124H 012CH

SHT21_WRITERH/SHT21                           ----- -----  0118H 0118H
  +--> SHT21_START/SHT21
  +--> _SHT21_WRITE8BIT/SHT21
  +--> SCL_INPUT_HIGH/SHT21

REFRESHTEMPHUMIDYTASK/NORMAL_TASK             ----- -----  ----- -----
  +--> _WS_TASKJUDGE/WS_TASK_MANAGE
  +--> _WS_DELTASKIFG/WS_TASK_MANAGE
  +--> _REFRESHTEMPHUMIDYFUNC/ACTIVITYFUNCTIONS

REFRESHRTCTIMETASK/NORMAL_TASK                ----- -----  ----- -----
  +--> _WS_TASKJUDGE/WS_TASK_MANAGE
  +--> _WS_DELTASKIFG/WS_TASK_MANAGE
  +--> REFRESHRTCTIMEFUNC/ACTIVITYFUNCTIONS

REFRESHRTCTIMEFUNC/ACTIVITYFUNCTIONS          ----- -----  ----- -----
  +--> _RX8010_GETTIME/RX8010
  +--> _DISPLAYTIME/GUI

REFRESHRUNTIMETASK/NORMAL_TASK                ----- -----  ----- -----
  +--> _WS_TASKJUDGE/WS_TASK_MANAGE
  +--> _WS_DELTASKIFG/WS_TASK_MANAGE
  +--> _REFRESHRUNTIMEFUNC/ACTIVITYFUNCTIONS

LX51 LINKER/LOCATER V4.66.93.0                                                        04/19/2019  09:16:48  PAGE 22


HEATERWIRECONTROLTASK/NORMAL_TASK             ----- -----  ----- -----
  +--> _WS_TASKJUDGE/WS_TASK_MANAGE
  +--> _WS_DELTASKIFG/WS_TASK_MANAGE
  +--> HEATERPLATEWIRECONTROLFUNC/ACTIVITYFUNCTIONS

HEATERPLATEWIRECONTROLFUNC/ACTIVITYFUNCT+     ----- -----  0110H 0115H
... IONS
  +--> _LCD_SHOWXNUM/LCD
  +--> _ABS/ABS
  +--> CONTROLER_CALC/ACTIVITYFUNCTIONS
  +--> HEATPLATETEMP_AIM_CONTROLER_CALC/ACTIVITYFUNCTIONS
  +--> HEATPLATE_CONTROLER_CALC/ACTIVITYFUNCTIONS
  +--> PATIENTTEMP_NONEHEATWIRE_ADJ/ACTIVITYFUNCTIONS

_ABS/ABS                                      ----- -----  ----- -----

CONTROLER_CALC/ACTIVITYFUNCTIONS              ----- -----  ----- -----

HEATPLATETEMP_AIM_CONTROLER_CALC/ACTIVIT+     ----- -----  ----- -----
... YFUNCTIONS

HEATPLATE_CONTROLER_CALC/ACTIVITYFUNCTIO+     ----- -----  ----- -----
... NS

PATIENTTEMP_NONEHEATWIRE_ADJ/ACTIVITYFUN+     ----- -----  0116H 0119H
... CTIONS
  +--> HEATPLATE_CONTROLER_CALC/ACTIVITYFUNCTIONS
  +--> _LCD_SHOWXNUM/LCD
  +--> _ABS/ABS

LOWPOWERMODETASK/NORMAL_TASK                  ----- -----  ----- -----
  +--> _WS_TASKJUDGE/WS_TASK_MANAGE
  +--> _WS_DELTASKIFG/WS_TASK_MANAGE
  +--> LOWPOWERMODEFUNC/ACTIVITYFUNCTIONS

LOWPOWERMODEFUNC/ACTIVITYFUNCTIONS            ----- -----  ----- -----
  +--> _BIT_IS_ONE/ACTIVITYFUNCTIONS

HEATERWIREMODEDETTASK/NORMAL_TASK             ----- -----  ----- -----
  +--> _WS_TASKJUDGE/WS_TASK_MANAGE
  +--> _WS_DELTASKIFG/WS_TASK_MANAGE
  +--> HEATERWIREMODEDETFUNC/ACTIVITYFUNCTIONS

HEATERWIREMODEDETFUNC/ACTIVITYFUNCTIONS       ----- -----  ----- -----

ALARMERRORTASK/NORMAL_TASK                    ----- -----  ----- -----
  +--> _WS_TASKJUDGE/WS_TASK_MANAGE
  +--> _WS_DELTASKIFG/WS_TASK_MANAGE
  +--> ALARMERRORFUNC/ACTIVITYFUNCTIONS

ALARMERRORFUNC/ACTIVITYFUNCTIONS              ----- -----  0110H 0112H
  +--> _SET_BIT/ACTIVITYFUNCTIONS
  +--> _CLEAR_BIT/ACTIVITYFUNCTIONS
  +--> _BIT_IS_ONE/ACTIVITYFUNCTIONS
  +--> _DRAW_RECTANGLE_REAL/LCD
  +--> SOUND_ALARM_PAUSE_DISABLE/SOUND_TYPE
  +--> _DISP_VHB80_PIC/LCD
  +--> _DISP_CQK25X24/LCD
  +--> _DISP_RTD28X24/LCD
  +--> _DISP_HEAT_36X24/LCD

_SET_BIT/ACTIVITYFUNCTIONS                    ----- -----  ----- -----

_CLEAR_BIT/ACTIVITYFUNCTIONS                  ----- -----  ----- -----

LX51 LINKER/LOCATER V4.66.93.0                                                        04/19/2019  09:16:48  PAGE 23


SOUND_ALARM_PAUSE_DISABLE/SOUND_TYPE          ----- -----  ----- -----

_DISP_VHB80_PIC/LCD                           ----- -----  0113H 0113H
  +--> _DISP_VHB80_56X40/LCD
  +--> _DISP_HEAT_36X24/LCD
  +--> _DISP_CQK25X24/LCD
  +--> _DRAW_RECTANGLE_REAL/LCD
  +--> _DISP_RTD28X24/LCD
  +--> _DISP_JQK41X16/LCD

_DISP_VHB80_56X40/LCD                         ----- -----  ----- -----
  +--> _DISP_MONO_GRAP/LCD

_DISP_CQK25X24/LCD                            ----- -----  ----- -----
  +--> _DISP_MONO_GRAP/LCD

_DISP_RTD28X24/LCD                            ----- -----  ----- -----
  +--> _DISP_MONO_GRAP/LCD

_DISP_JQK41X16/LCD                            ----- -----  ----- -----
  +--> _DISP_MONO_GRAP/LCD

LOWTEMPDET1STASK/NORMAL_TASK                  ----- -----  ----- -----
  +--> _WS_TASKJUDGE/WS_TASK_MANAGE
  +--> _WS_DELTASKIFG/WS_TASK_MANAGE
  +--> LOWTEMPDET1SFUNC/ACTIVITYFUNCTIONS

LOWTEMPDET1SFUNC/ACTIVITYFUNCTIONS            ----- -----  0110H 0115H
  +--> _LCD_SHOWXNUM/LCD
  +--> _CLEAR_BIT/ACTIVITYFUNCTIONS
  +--> _SET_BIT/ACTIVITYFUNCTIONS

SAVEDATETOFLASHTASK/NORMAL_TASK               ----- -----  ----- -----
  +--> _WS_TASKJUDGE/WS_TASK_MANAGE
  +--> _WS_DELTASKIFG/WS_TASK_MANAGE
  +--> SAVEDATETOFLASHFUNC/ACTIVITYFUNCTIONS

SAVEDATETOFLASHFUNC/ACTIVITYFUNCTIONS         ----- -----  0110H 0117H
  +--> _RX8010_GETTIME/RX8010
  +--> _SPI_WRITE_NBYTES/W25X
  +--> STORE_DATA/ACTIVITYFUNCTIONS
  +--> _SPI_ERASE_SECTOR/W25X

STORE_DATA/ACTIVITYFUNCTIONS                  ----- -----  0118H 0118H
  +--> _SPI_WRITE_NBYTES/W25X

UARTRECTASK/NORMAL_TASK                       ----- -----  ----- -----
  +--> _WS_TASKJUDGE/WS_TASK_MANAGE
  +--> _WS_DELTASKIFG/WS_TASK_MANAGE
  +--> UART_RECDATA_FUNC/ACTIVITYFUNCTIONS

UART_RECDATA_FUNC/ACTIVITYFUNCTIONS           ----- -----  0110H 0114H
  +--> EUSART_READ/UART_FUN
  +--> UART_RECBUF_CLEAR_FUN/ACTIVITYFUNCTIONS
  +--> _SPI_READ_NBYTES/W25X
  +--> _EUSART_WRITE_STR/UART_FUN

EUSART_READ/UART_FUN                          ----- -----  ----- -----

UART_RECBUF_CLEAR_FUN/ACTIVITYFUNCTIONS       ----- -----  ----- -----

_EUSART_WRITE_STR/UART_FUN                    ----- -----  0115H 0117H
  +--> _EUSART_WRITE/UART_FUN

_EUSART_WRITE/UART_FUN                        ----- -----  ----- -----
LX51 LINKER/LOCATER V4.66.93.0                                                        04/19/2019  09:16:48  PAGE 24


  +--> _SEND_CHAR_COM/UART_FUN

_SEND_CHAR_COM/UART_FUN                       ----- -----  ----- -----

?C_INITSEG                                    ----- -----  ----- -----
  +--> KEYUPPRESSSHORTACTION/KEY_DATAS
  +--> KEYUPPRESSLONGFIRSTACTION/KEY_DATAS
  +--> KEYUPPRESSLONGREPEATACTION/KEY_DATAS
  +--> KEYDOWNPRESSSHORTACTION/KEY_DATAS
  +--> KEYDOWNPRESSLONGFIRSTACTION/KEY_DATAS
  +--> KEYDOWNPRESSLONGREPEATACTION/KEY_DATAS
  +--> KEYOKPRESSSHORTACTION/KEY_DATAS
  +--> KEYOKPRESSLONGFIRSTACTION/KEY_DATAS
  +--> KEYOKPRESSLONGREPEATACTION/KEY_DATAS
  +--> KEYMUTEPRESSSHORTACTION/KEY_DATAS
  +--> KEYMUTEPRESSLONGFIRSTACTION/KEY_DATAS
  +--> KEYMUTEPRESSLONGREPEATACTION/KEY_DATAS

KEYUPPRESSSHORTACTION/KEY_DATAS               ----- -----  ----- -----

KEYUPPRESSLONGFIRSTACTION/KEY_DATAS           ----- -----  ----- -----

KEYUPPRESSLONGREPEATACTION/KEY_DATAS          ----- -----  ----- -----

KEYDOWNPRESSSHORTACTION/KEY_DATAS             ----- -----  ----- -----

KEYDOWNPRESSLONGFIRSTACTION/KEY_DATAS         ----- -----  ----- -----

KEYDOWNPRESSLONGREPEATACTION/KEY_DATAS        ----- -----  ----- -----

KEYOKPRESSSHORTACTION/KEY_DATAS               ----- -----  ----- -----

KEYOKPRESSLONGFIRSTACTION/KEY_DATAS           ----- -----  ----- -----

KEYOKPRESSLONGREPEATACTION/KEY_DATAS          ----- -----  ----- -----

KEYMUTEPRESSSHORTACTION/KEY_DATAS             ----- -----  ----- -----
  +--> SOUND_ALARM_PAUSE_ENABLE/SOUND_TYPE
  +--> SOUND_ALARM_PAUSE_DISABLE/SOUND_TYPE

SOUND_ALARM_PAUSE_ENABLE/SOUND_TYPE           ----- -----  ----- -----

KEYMUTEPRESSLONGFIRSTACTION/KEY_DATAS         ----- -----  ----- -----

KEYMUTEPRESSLONGREPEATACTION/KEY_DATAS        ----- -----  ----- -----



PUBLIC SYMBOLS OF MODULE:  ..\OBJ\VHB15A (STC_EEPROM)


      VALUE       CLASS    TYPE      PUBLIC SYMBOL NAME
      =================================================
      02000196H   XDATA    BYTE      ?_DISP_DHM?BYTE
      02000112H   XDATA    BYTE      ?_DISP_FNT10X24?BYTE
      020001B4H   XDATA    BYTE      ?_DISP_FNT12X24?BYTE
      020001B4H   XDATA    BYTE      ?_DISP_FNT8X16?BYTE
      02000196H   XDATA    BYTE      ?_DISP_ICO_32X40?BYTE
      02000196H   XDATA    BYTE      ?_DISP_ICO_40X40?BYTE
      02000196H   XDATA    BYTE      ?_DISP_ICO_52X64?BYTE
      02000196H   XDATA    BYTE      ?_DISP_RH14X24?BYTE
      0200019CH   XDATA    BYTE      ?_DISP_RH_17X40?BYTE
      0200019CH   XDATA    BYTE      ?_DISP_TEMP_30X56?BYTE
      02000113H   XDATA    BYTE      ?_DISP_TEMP_38X64?BYTE
      02000197H   XDATA    BYTE      ?_DISP_TIME_10X16?BYTE
LX51 LINKER/LOCATER V4.66.93.0                                                        04/19/2019  09:16:48  PAGE 25


      02000196H   XDATA    BYTE      ?_Draw_Circle?BYTE
      02000196H   XDATA    BYTE      ?_Draw_Rectangle?BYTE
      0200019CH   XDATA    BYTE      ?_Draw_Rectangle_Real?BYTE
      02000121H   XDATA    BYTE      ?_DS18B20_CheckCrc?BYTE
      020001C4H   XDATA    BYTE      ?_LCD_CrtlWrite_Area?BYTE
      020001ACH   XDATA    BYTE      ?_LCD_ShowChar?BYTE
      02000197H   XDATA    BYTE      ?_LCD_ShowString?BYTE
      02000148H   XDATA    BYTE      ?_LCD_ShowxNum?BYTE
      02000119H   XDATA    BYTE      ?_SPI_Read_nBytes?BYTE
      02000119H   XDATA    BYTE      ?_SPI_Write_nBytes?BYTE
      010004B8H   CODE     ---       ?C?CCASE
      01000135H   CODE     ---       ?C?CLDOPTR
      0100011CH   CODE     ---       ?C?CLDPTR
      00000000H   NUMBER   ---       ?C?CODESEG
      010000F6H   CODE     ---       ?C?COPY
      01000174H   CODE     ---       ?C?CSTOPTR
      01000162H   CODE     ---       ?C?CSTPTR
      010004DEH   CODE     ---       ?C?ICALL
      010004E2H   CODE     ---       ?C?ICALL2
      01000233H   CODE     ---       ?C?IILDX
      01000196H   CODE     ---       ?C?IMUL
      01000249H   CODE     ---       ?C?LADD
      01000381H   CODE     ---       ?C?LAND
      010003F5H   CODE     ---       ?C?LLDXDATA
      01000401H   CODE     ---       ?C?LLDXDATA0
      01000264H   CODE     ---       ?C?LMUL
      0100039BH   CODE     ---       ?C?LNOT
      0100038EH   CODE     ---       ?C?LOR
      010003E2H   CODE     ---       ?C?LSHL
      01000419H   CODE     ---       ?C?LSTKXDATA
      0100040DH   CODE     ---       ?C?LSTXDATA
      01000256H   CODE     ---       ?C?LSUB
      0100044AH   CODE     ---       ?C?OFFXADD
      010005DFH   CODE     ---       ?C?PLDCODE
      010005CDH   CODE     ---       ?C?PLDIDATA
      01000488H   CODE     ---       ?C?PLDOPTR
      010005D6H   CODE     ---       ?C?PLDPDATA
      01000468H   CODE     ---       ?C?PLDPTR
      01000456H   CODE     ---       ?C?PLDXDATA
      0100045FH   CODE     ---       ?C?PSTXDATA
      010001FDH   CODE     ---       ?C?SIDIV
      010003A8H   CODE     ---       ?C?SLCMP
      010009ECH   CODE     ---       ?C?SLDIV
      010005B0H   CODE     ---       ?C?STRCPY
      010001A8H   CODE     ---       ?C?UIDIV
      010003BEH   CODE     ---       ?C?ULCMP
      010002EFH   CODE     ---       ?C?ULDIV
      010003CFH   CODE     ---       ?C?ULSHR
      00000000H   NUMBER   ---       ?C?XDATASEG
      010009A7H   CODE     ---       ?C_START
      01000000H   CODE     ---       ?C_STARTUP
      02000110H   XDATA    BYTE      ?Key_Multifun?BYTE
      01000016H   CODE     ---       _ABS
      01009E43H   CODE     ---       _Bit_is_one
      010077F7H   CODE     ---       _delay_ms
      0100700BH   CODE     ---       _delay_us
      0100BEF9H   CODE     ---       _DISP_CQK25X24
      0100C030H   CODE     ---       _DISP_DHM
      01007999H   CODE     ---       _DISP_FNT10X24
      0100B254H   CODE     ---       _DISP_FNT12X24
      0100B3A1H   CODE     ---       _DISP_FNT8X16
      0100BF94H   CODE     ---       _DISP_HEAT_36X24
      01007FC6H   CODE     ---       _DISP_ICO_32X40
      0100BFFFH   CODE     ---       _DISP_ICO_40X40
      0100AEF5H   CODE     ---       _DISP_ICO_52X64
LX51 LINKER/LOCATER V4.66.93.0                                                        04/19/2019  09:16:48  PAGE 26


      01009EB8H   CODE     ---       _DISP_JQK41X16
      0100BFD9H   CODE     ---       _DISP_RH14X24
      01008BA7H   CODE     ---       _DISP_RH_17X40
      0100BFC4H   CODE     ---       _DISP_RTD28X24
      01008DDBH   CODE     ---       _DISP_TEMP_30X56
      01008F23H   CODE     ---       _DISP_TEMP_38X64
      01009554H   CODE     ---       _DISP_TIME_10X16
      0100BFA9H   CODE     ---       _DISP_VHB80_56X40
      01009E55H   CODE     ---       _DISP_VHB80_PIC
      0100BF2BH   CODE     ---       _Disp_WuChuang
      0100BF18H   CODE     ---       _Disp_YouChuang
      0100941AH   CODE     ---       _DisPlayTime
      0100898AH   CODE     ---       _Draw_Circle
      0100690AH   CODE     ---       _Draw_Rectangle
      01006B6EH   CODE     ---       _Draw_Rectangle_Real
      0100C275H   CODE     ---       _DS18B20_CheckCrc
      010072E5H   CODE     ---       _DS18B20_WriteByte
      0100C265H   CODE     ---       _EUSART_Write
      0100C24CH   CODE     ---       _EUSART_Write_Str
      01006427H   CODE     ---       _HmiEnterToWorkStateFunc
      01006A23H   CODE     ---       _LCD_CrtlWrite_Area
      01006F84H   CODE     ---       _LCD_CtrlWrite_Color
      01006F97H   CODE     ---       _LCD_CtrlWrite_ILI9328
      0100B4C8H   CODE     ---       _LCD_ShowChar
      01007FEEH   CODE     ---       _LCD_ShowString
      01008ACFH   CODE     ---       _LCD_ShowxNum
      0100C2FFH   CODE     ---       _readEEone
      010095C0H   CODE     ---       _RefreshRunTimeFunc
      0100A84FH   CODE     ---       _RefreshTempHumidyFunc
      010096ABH   CODE     ---       _RX8010_GetTime
      0100C3A3H   CODE     ---       _RX8010_SetTime
      0100A207H   CODE     ---       _SPI_Erase_Sector
      0100A1B1H   CODE     ---       _SPI_Read_nBytes
      0100A1E9H   CODE     ---       _SPI_Send_Byte
      0100A222H   CODE     ---       _SPI_Write_nBytes
      010067F4H   CODE     ---       _STC_IAP_Byte_Program
      01006352H   CODE     ---       _STC_IAP_Byte_Read
      01006810H   CODE     ---       _STC_IAP_Sector_Erase
      01008FF5H   CODE     ---       _WS_DelTaskIfg
      01007668H   CODE     ---       _WS_SetTaskIfg
      01009004H   CODE     ---       _WS_TaskJudge
*SFR* 000000D0H.6 DATA     BIT       AC
*SFR* 000000E0H   DATA     BYTE      ACC
*SFR* 000000BCH   DATA     BYTE      ADC_CONTR
*SFR* 000000BDH   DATA     BYTE      ADC_RES
*SFR* 000000BEH   DATA     BYTE      ADC_RESL
      0100987DH   CODE     ---       AlarmErrorFunc
      01009759H   CODE     ---       AlarmErrorTask
      020000A0H   XDATA    BYTE      AlarmInfoIndex
      0200009FH   XDATA    BYTE      AlarmSoundPauseStatus
*SFR* 0000008EH   DATA     BYTE      AUXR
*SFR* 000000A2H   DATA     BYTE      AUXR1
*SFR* 000000F0H   DATA     BYTE      B
      02000360H   XDATA    BYTE      Back_Color
*SFR* 0000009CH   DATA     BYTE      BRT
*SFR* 000000A1H   DATA     BYTE      BUS_SPEED
*SFR* 000000FAH   DATA     BYTE      CCAP0H
*SFR* 000000EAH   DATA     BYTE      CCAP0L
*SFR* 000000FBH   DATA     BYTE      CCAP1H
*SFR* 000000EBH   DATA     BYTE      CCAP1L
*SFR* 000000DAH   DATA     BYTE      CCAPM0
*SFR* 000000DBH   DATA     BYTE      CCAPM1
*SFR* 000000D8H.0 DATA     BIT       CCF0
*SFR* 000000D8H.1 DATA     BIT       CCF1
*SFR* 000000D8H   DATA     BYTE      CCON
LX51 LINKER/LOCATER V4.66.93.0                                                        04/19/2019  09:16:48  PAGE 27


*SFR* 000000D8H.7 DATA     BIT       CF
*SFR* 000000F9H   DATA     BYTE      CH
*SFR* 000000E9H   DATA     BYTE      CL
*SFR* 00000097H   DATA     BYTE      CLK_DIV
*SFR* 000000D9H   DATA     BYTE      CMOD
      02000071H   XDATA    LONG      CQK_Temp
      02000082H   XDATA    BYTE      CQK_Temp_Reach_Set_Cnt
*SFR* 000000D8H.6 DATA     BIT       CR
*SFR* 000000D0H.7 DATA     BIT       CY
      02000046H   XDATA    ---       data_flash
      0200004FH   XDATA    BYTE      defalut_mode
      02000083H   XDATA    WORD      Diplay_RTtemp
      0200033CH   XDATA    BYTE      Display_Temp_Kind
*SFR* 00000083H   DATA     BYTE      DPH
*SFR* 00000082H   DATA     BYTE      DPL
      01006631H   CODE     ---       DrawWorkWindows
      0100726CH   CODE     ---       DS18B20_ReadByte
*SFR* 000000A8H.7 DATA     BIT       EA
*SFR* 000000A8H.5 DATA     BIT       EADC
*SFR* 000000A8H.6 DATA     BIT       ELVD
      0100B7F3H   CODE     ---       Err_Base_HeaterWire_DISP_Enable
      0200008AH   XDATA    BYTE      ERR_Kind
*SFR* 000000A8H.4 DATA     BIT       ES
*SFR* 000000A8H.1 DATA     BIT       ET0
*SFR* 000000A8H.3 DATA     BIT       ET1
      0100C6E5H   CODE     ---       EUSART_Initialize
      0100A08BH   CODE     ---       EUSART_Read
      0100A055H   CODE     ---       EUSART_Receive_ISR
      0100A078H   CODE     ---       EUSART_Transmit_ISR
      0200024FH   XDATA    BYTE      eusartRxCount
*SFR* 000000A8H.0 DATA     BIT       EX0
*SFR* 000000A8H.2 DATA     BIT       EX1
*SFR* 000000D0H.5 DATA     BIT       F0
      01007021H   CODE     ---       GetTemp_HpChamberFunc
      01009846H   CODE     ---       GetTemp_HpChamberTask
      0100A3CBH   CODE     ---       GetTempHumidity_PatientFunc
      01009729H   CODE     ---       GetTempHumidity_PatientTask
      01000E34H   CONST    ---       gImage_FANEM
      01001668H   CONST    ---       gImage_LAN_SEL_EN
      010018BAH   CONST    ---       gImage_LAN_SEL_ES
      010019CEH   CONST    ---       gImage_LAN_SEL_FR
      0100175EH   CONST    ---       gImage_LAN_SEL_PT
      01000C99H   CONST    ---       gImage_LOGO1
      01000CF9H   CONST    ---       gImage_LOGO2
      01000D65H   CONST    ---       gImage_LOGO3
      01000DCBH   CONST    ---       gImage_LOGO4
      01000E04H   CONST    ---       gImage_LOGO5
      02000087H   XDATA    BYTE      HeaterPlate_State
      010080B8H   CODE     ---       HeaterPlateWireControlFunc
      01008825H   CODE     ---       HeaterPlateWireDriveFbTask
      01009857H   CODE     ---       HeaterWireControlTask
      0100A802H   CODE     ---       HeaterWireModeDetFunc
      01009749H   CODE     ---       HeaterWireModeDetTask
      0100C628H   CODE     ---       HmiFactoryDefault_Tik_Cnt
      01006BF7H   CODE     ---       HmiFactoryDefaultFunc
      01009813H   CODE     ---       HmiFactoryDefaultSelTask
      0100C641H   CODE     ---       HmiNon_InvasiveSel_Tik_Cnt
      0100689EH   CODE     ---       HmiNon_InvasiveSelFunc
      01009824H   CODE     ---       HmiNon_InvasiveSelTask
      01007DA9H   CODE     ---       HmiPostFunc
      0100C61BH   CODE     ---       HmiPostFunc_Tik_Cnt
      01009802H   CODE     ---       HmiPostTask
      0100AD87H   CODE     ---       HmiRunningFunc
      010091DAH   CODE     ---       HmiRunningTask
      0100893FH   CODE     ---       HmiScreenSaverMode_Tik_Cnt
LX51 LINKER/LOCATER V4.66.93.0                                                        04/19/2019  09:16:48  PAGE 28


      01008E12H   CODE     ---       HmiScreenSaverModeFunc
      01009835H   CODE     ---       HmiScreenSaverModeTask
      01007A98H   CODE     ---       HmiServiceModeFunc
      010097F2H   CODE     ---       HmiServiceModeTask
      0100C51DH   CODE     ---       HmiSetInExpFunc
      0100920AH   CODE     ---       HmiSetInExpTask
      0100ABF6H   CODE     ---       HmiSetTempChamberFunc
      010091FAH   CODE     ---       HmiSetTempChamberTask
      0100AA4AH   CODE     ---       HmiSetTempPatientFunc
      010091EAH   CODE     ---       HmiSetTempPatientTask
      01009229H   CODE     ---       HmiSetTimeFunc
      0100921AH   CODE     ---       HmiSetTimeTask
      02000088H   XDATA    WORD      HP_CNT_Int
      0200008CH   XDATA    WORD      HP_CNT_Int_End_Rem
*SFR* 000000C3H   DATA     BYTE      IAP_ADDRH
*SFR* 000000C4H   DATA     BYTE      IAP_ADDRL
*SFR* 000000C5H   DATA     BYTE      IAP_CMD
*SFR* 000000C7H   DATA     BYTE      IAP_CONTR
*SFR* 000000C2H   DATA     BYTE      IAP_DATA
*SFR* 000000C6H   DATA     BYTE      IAP_TRIG
      01001500H   CONST    ---       ICO24X24
*SFR* 000000A8H   DATA     BYTE      IE
*SFR* 00000088H.1 DATA     BIT       IE0
*SFR* 00000088H.3 DATA     BIT       IE1
*SFR* 000000AFH   DATA     BYTE      IE2
      02000067H   XDATA    BYTE      In_Exp_Ratio
      010078A2H   CODE     ---       Init_port
*SFR* 000000B8H   DATA     BYTE      IP
*SFR* 000000B5H   DATA     BYTE      IP2
*SFR* 000000B7H   DATA     BYTE      IPH
*SFR* 000000B6H   DATA     BYTE      IPH2
*SFR* 00000088H.0 DATA     BIT       IT0
*SFR* 00000088H.2 DATA     BIT       IT1
      0200006FH   XDATA    INT       JEP_Temp
      02000351H   XDATA    BYTE      Key_Down_Tik
      0100C43DH   CODE     ---       Key_Down_TikFunc
      010090C0H   CODE     ---       Key_Multifun
      02000353H   XDATA    BYTE      Key_Mute_Tik
      0100C481H   CODE     ---       Key_Mute_TikFunc
      02000352H   XDATA    BYTE      Key_OK_Tik
      0100C45FH   CODE     ---       Key_OK_TikFunc
      02000354H   XDATA    BYTE      Key_State_Present
      02000350H   XDATA    BYTE      Key_UP_Tik
      0100C41BH   CODE     ---       Key_UP_TikFunc
      0100C451H   CODE     ---       KeyDownPressLongFirstAction
      0100C458H   CODE     ---       KeyDownPressLongRepeatAction
      0100C44AH   CODE     ---       KeyDownPressShortAction
      0100C48EH   CODE     ---       KeyMutePressLongFirstAction
      0100C495H   CODE     ---       KeyMutePressLongRepeatAction
      0100BECDH   CODE     ---       KeyMutePressShortAction
      0100C473H   CODE     ---       KeyOKPressLongFirstAction
      0100C47AH   CODE     ---       KeyOKPressLongRepeatAction
      0100C46CH   CODE     ---       KeyOKPressShortAction
      0100902BH   CODE     ---       KeyScanTask
      0100C42FH   CODE     ---       KeyUpPressLongFirstAction
      0100C436H   CODE     ---       KeyUpPressLongRepeatAction
      0100C428H   CODE     ---       KeyUpPressShortAction
      01006A88H   CODE     ---       LCD_Initial
      01007F59H   CODE     ---       LCD_Show_Verion
      0100BE17H   CODE     ---       Load_Settings_Before_Choice
      01009F38H   CODE     ---       LowPowerModeFunc
      01009739H   CODE     ---       LowPowerModeTask
      0100B7FEH   CODE     ---       LowTempDet1SFunc
      01009769H   CODE     ---       LowTempDet1STask
      01007839H   CODE     ---       main
LX51 LINKER/LOCATER V4.66.93.0                                                        04/19/2019  09:16:48  PAGE 29


      0100BD8FH   CODE     ---       Main_Init
      01008820H   CODE     ---       Main_Tik_FunctionS
      01007823H   CODE     ---       Main_Tik_Tok_Initial_Fun
      010074C6H   CODE     ---       ManageTask
      01006368H   CODE     ---       Mem_Flash_Recall
      02000069H   XDATA    WORD      Micro_Temp_In
      0200006BH   XDATA    WORD      Micro_Temp_Out
      02000068H   XDATA    BYTE      Micro_Temp_Val
      020000A1H   XDATA    BYTE      No_HeatSensor_Times
      010012A8H   CONST    ---       Num8X16
      01001398H   CONST    ---       Num8X24
*SFR* 000000D0H.2 DATA     BIT       OV
*SFR* 000000D0H.0 DATA     BIT       P
*SFR* 00000080H   DATA     BYTE      P0
*SFR* 00000080H.0 DATA     BIT       P00
*SFR* 00000080H.1 DATA     BIT       P01
*SFR* 00000080H.2 DATA     BIT       P02
*SFR* 00000080H.3 DATA     BIT       P03
*SFR* 00000080H.4 DATA     BIT       P04
*SFR* 00000080H.5 DATA     BIT       P05
*SFR* 00000080H.6 DATA     BIT       P06
*SFR* 00000080H.7 DATA     BIT       P07
*SFR* 00000094H   DATA     BYTE      P0M0
*SFR* 00000093H   DATA     BYTE      P0M1
*SFR* 00000090H   DATA     BYTE      P1
*SFR* 00000090H.0 DATA     BIT       P10
*SFR* 00000090H.1 DATA     BIT       P11
*SFR* 00000090H.2 DATA     BIT       P12
*SFR* 00000090H.3 DATA     BIT       P13
*SFR* 00000090H.4 DATA     BIT       P14
*SFR* 00000090H.5 DATA     BIT       P15
*SFR* 00000090H.6 DATA     BIT       P16
*SFR* 00000090H.7 DATA     BIT       P17
*SFR* 0000009DH   DATA     BYTE      P1ASF
*SFR* 00000092H   DATA     BYTE      P1M0
*SFR* 00000091H   DATA     BYTE      P1M1
*SFR* 000000A0H   DATA     BYTE      P2
*SFR* 000000A0H.0 DATA     BIT       P20
*SFR* 000000A0H.1 DATA     BIT       P21
*SFR* 000000A0H.2 DATA     BIT       P22
*SFR* 000000A0H.3 DATA     BIT       P23
*SFR* 000000A0H.4 DATA     BIT       P24
*SFR* 000000A0H.5 DATA     BIT       P25
*SFR* 000000A0H.6 DATA     BIT       P26
*SFR* 000000A0H.7 DATA     BIT       P27
*SFR* 00000096H   DATA     BYTE      P2M0
*SFR* 00000095H   DATA     BYTE      P2M1
*SFR* 000000B0H   DATA     BYTE      P3
*SFR* 000000B0H.0 DATA     BIT       P30
*SFR* 000000B0H.1 DATA     BIT       P31
*SFR* 000000B0H.2 DATA     BIT       P32
*SFR* 000000B0H.3 DATA     BIT       P33
*SFR* 000000B0H.4 DATA     BIT       P34
*SFR* 000000B0H.5 DATA     BIT       P35
*SFR* 000000B0H.6 DATA     BIT       P36
*SFR* 000000B0H.7 DATA     BIT       P37
*SFR* 000000B2H   DATA     BYTE      P3M0
*SFR* 000000B1H   DATA     BYTE      P3M1
*SFR* 000000C0H   DATA     BYTE      P4
*SFR* 000000C0H.0 DATA     BIT       P40
*SFR* 000000C0H.1 DATA     BIT       P41
*SFR* 000000C0H.2 DATA     BIT       P42
*SFR* 000000C0H.3 DATA     BIT       P43
*SFR* 000000C0H.4 DATA     BIT       P44
*SFR* 000000C0H.5 DATA     BIT       P45
LX51 LINKER/LOCATER V4.66.93.0                                                        04/19/2019  09:16:48  PAGE 30


*SFR* 000000C0H.6 DATA     BIT       P46
*SFR* 000000C0H.7 DATA     BIT       P47
*SFR* 000000B4H   DATA     BYTE      P4M0
*SFR* 000000B3H   DATA     BYTE      P4M1
*SFR* 000000BBH   DATA     BYTE      P4SW
*SFR* 000000C8H   DATA     BYTE      P5
*SFR* 000000CAH   DATA     BYTE      P5M0
*SFR* 000000C9H   DATA     BYTE      P5M1
*SFR* 000000B8H.5 DATA     BIT       PADC
*SFR* 000000F2H   DATA     BYTE      PCA_PWM0
*SFR* 000000F3H   DATA     BYTE      PCA_PWM1
*SFR* 00000087H   DATA     BYTE      PCON
*SFR* 000000B8H.6 DATA     BIT       PLVD
*SFR* 000000B8H.7 DATA     BIT       PPCA
*SFR* 000000B8H.4 DATA     BIT       PS
*SFR* 000000D0H   DATA     BYTE      PSW
*SFR* 000000B8H.1 DATA     BIT       PT0
*SFR* 000000B8H.3 DATA     BIT       PT1
*SFR* 000000B8H.0 DATA     BIT       PX0
*SFR* 000000B8H.2 DATA     BIT       PX1
*SFR* 00000098H.2 DATA     BIT       RB8
      0200035EH   XDATA    BYTE      Read_18B20_Value
      0200035FH   XDATA    BYTE      Read_18B20_Value2
      0100BF43H   CODE     ---       Refresh_Work_Mode
      0100957FH   CODE     ---       RefreshRTCTimeFunc
      010097BCH   CODE     ---       RefreshRTCTimeTask
      010097ABH   CODE     ---       RefreshRunTimeTask
      01009799H   CODE     ---       RefreshTempHumidyTask
*SFR* 00000098H.4 DATA     BIT       REN
*SFR* 00000098H.0 DATA     BIT       RI
*SFR* 000000D0H.3 DATA     BIT       RS0
*SFR* 000000D0H.4 DATA     BIT       RS1
      0200006DH   XDATA    INT       RT_Temp
      02000081H   XDATA    BYTE      RT_Temp_Reach_Set_Cnt
      0100B156H   CODE     ---       RX8010_Initialize
*SFR* 0000009BH   DATA     BYTE      S2BUF
*SFR* 0000009AH   DATA     BYTE      S2CON
*SFR* 000000A9H   DATA     BYTE      SADDR
*SFR* 000000B9H   DATA     BYTE      SADEN
      0200008EH   XDATA    ---       SaveData
      0100A252H   CODE     ---       SaveDateToFlashFunc
      01009779H   CODE     ---       SaveDateToFlashTask
*SFR* 00000099H   DATA     BYTE      SBUF
*SFR* 00000098H   DATA     BYTE      SCON
      01008BC8H   CODE     ---       ServiceMode_TempHumidy_Disp
      0200007BH   XDATA    WORD      Set_CQK_Temp
      0200007DH   XDATA    WORD      Set_CQK_WCTemp
      0200007FH   XDATA    WORD      Set_CQK_YCTemp
      02000075H   XDATA    INT       Set_RT_Temp
      02000077H   XDATA    WORD      Set_RT_WCTemp
      02000079H   XDATA    WORD      Set_RT_YCTemp
      01006839H   CODE     ---       Setting_write_to_flash
      01000A49H   CONST    ---       Shangbiao8
      02000050H   XDATA    ---       show_str
      0100C0C4H   CODE     ---       SHT21_ReadData
      0100745CH   CODE     ---       SHT21_WriteRH
      01007424H   CODE     ---       SHT21_WriteTemp
*SFR* 00000098H.7 DATA     BIT       SM0
*SFR* 00000098H.6 DATA     BIT       SM1
*SFR* 00000098H.5 DATA     BIT       SM2
      0100BEEBH   CODE     ---       Sound_Alarm_Pause_Disable
      0100BEC2H   CODE     ---       Sound_Alarm_Pause_Enable
      0100AED9H   CODE     ---       Sound_Short
      01008952H   CODE     ---       Sound_Type_Drive
*SFR* 00000081H   DATA     BYTE      SP
LX51 LINKER/LOCATER V4.66.93.0                                                        04/19/2019  09:16:48  PAGE 31


*SFR* 000000CEH   DATA     BYTE      SPCTL
*SFR* 000000CFH   DATA     BYTE      SPDAT
      0100C09BH   CODE     ---       SPI_Get_Byte
      0100C091H   CODE     ---       SPI_init
      0100C087H   CODE     ---       SPI_Write_Disable
      0100A7ABH   CODE     ---       SPI_Write_Enable
*SFR* 000000CDH   DATA     BYTE      SPSTAT
      0100892AH   CODE     ---       Sub_Tik_FunctionS
*SFR* 00000098H.3 DATA     BIT       TB8
*SFR* 00000088H   DATA     BYTE      TCON
      0200009EH   XDATA    BYTE      Test_Mode_Dis_Jrp_Ctl
*SFR* 00000088H.5 DATA     BIT       TF0
*SFR* 00000088H.7 DATA     BIT       TF1
*SFR* 0000008CH   DATA     BYTE      TH0
*SFR* 0000008DH   DATA     BYTE      TH1
*SFR* 00000098H.1 DATA     BIT       TI
      010087F8H   CODE     ---       Timer_T0_INT_Main
*SFR* 0000008AH   DATA     BYTE      TL0
*SFR* 0000008BH   DATA     BYTE      TL1
*SFR* 00000089H   DATA     BYTE      TMOD
*SFR* 00000088H.4 DATA     BIT       TR0
*SFR* 00000088H.6 DATA     BIT       TR1
      0100A0ADH   CODE     ---       UART_RecData_Func
      01009789H   CODE     ---       UartRecTask
*SFR* 0000008FH   DATA     BYTE      WAKE_CLKO
*SFR* 000000C1H   DATA     BYTE      WDT_CONTR
      0200008BH   XDATA    BYTE      Wire_Mode_Mismatch
      02000085H   XDATA    BYTE      WireIn_State
      0100BE88H   CODE     ---       WireInOut_State_Confirm
      02000086H   XDATA    BYTE      WireOut_State
      0200004EH   XDATA    BYTE      Work_Mode
      0200032EH   XDATA    BYTE      Work_State
      020000A2H   XDATA    WORD      Working_Normal
      020001CAH   XDATA    DWORD     WS_TaskIfg
      020001CEH   XDATA    ---       WS_TaskMap
      0200024EH   XDATA    BYTE      WS_TaskState



LINKER CODE PACKING SYMBOLS OF MODULE:  ..\OBJ\VHB15A (STC_EEPROM)


      VALUE       CLASS    TYPE      SYMBOL NAME
      ==========================================
      01008695H   CODE     PART      ?L?COM0001
      01008695H   CODE     END       ?L?COM0002
      01008695H   CODE     END       ?L?COM0003
      01008695H   CODE     END       ?L?COM0004
      010065F9H   CODE     PART      ?L?COM0005
      010065F9H   CODE     END       ?L?COM0006
      010065F9H   CODE     END       ?L?COM0007
      010065F9H   CODE     END       ?L?COM0008
      01008D98H   CODE     PART      ?L?COM0009
      01008D98H   CODE     END       ?L?COM000A
      01008D98H   CODE     END       ?L?COM000B
      01008D98H   CODE     END       ?L?COM000C
      01008D98H   CODE     END       ?L?COM000D
      01008D98H   CODE     END       ?L?COM000E
      01008D98H   CODE     END       ?L?COM000F
      010067A9H   CODE     PART      ?L?COM0010
      010067A9H   CODE     END       ?L?COM0011
      010067A9H   CODE     END       ?L?COM0012
      010067A9H   CODE     END       ?L?COM0013
      010074B2H   CODE     PART      ?L?COM0014
      010074B2H   CODE     END       ?L?COM0015
LX51 LINKER/LOCATER V4.66.93.0                                                        04/19/2019  09:16:48  PAGE 32


      010074B2H   CODE     END       ?L?COM0016
      01007D8EH   CODE     PART      ?L?COM0017
      01007D8EH   CODE     END       ?L?COM0018
      01007D8EH   CODE     END       ?L?COM0019
      01007D8EH   CODE     END       ?L?COM001A
      01007D8EH   CODE     END       ?L?COM001B
      01007A78H   CODE     PART      ?L?COM001C
      01007A78H   CODE     END       ?L?COM001D
      01007A78H   CODE     END       ?L?COM001E
      01007A78H   CODE     END       ?L?COM001F
      0100C702H   CODE     PART      ?L?COM0020
      0100C702H   CODE     END       ?L?COM0021
      0100C702H   CODE     END       ?L?COM0022
      01008DC4H   CODE     PART      ?L?COM0023
      01008DC4H   CODE     END       ?L?COM0024
      01008DC4H   CODE     END       ?L?COM0025
      01008DC4H   CODE     END       ?L?COM0026
      010067DDH   CODE     PART      ?L?COM0027
      010067DDH   CODE     END       ?L?COM0028
      010067DDH   CODE     END       ?L?COM0029
      010086B0H   CODE     PART      ?L?COM002A
      010086B0H   CODE     END       ?L?COM002B
      010086B0H   CODE     END       ?L?COM002C
      010086B0H   CODE     END       ?L?COM002D
      01008F9FH   CODE     PART      ?L?COM002E
      01008F9FH   CODE     END       ?L?COM002F
      01008F9FH   CODE     END       ?L?COM0030
      01008FF0H   CODE     BEGIN     ?L?COM0031
      01006F20H   CODE     PART      ?L?COM0032
      01006F20H   CODE     END       ?L?COM0033
      01006F20H   CODE     END       ?L?COM0034
      01006F20H   CODE     END       ?L?COM0035
      01006625H   CODE     PART      ?L?COM0036
      01006625H   CODE     END       ?L?COM0037
      01006625H   CODE     END       ?L?COM0038
      01008A9DH   CODE     PART      ?L?COM0039
      01008A9DH   CODE     END       ?L?COM003A
      01008A9DH   CODE     END       ?L?COM003B
      01007FAEH   CODE     BEGIN     ?L?COM003C
      01007FAEH   CODE     END       ?L?COM003D
      01007FAEH   CODE     END       ?L?COM003E
      01007FAEH   CODE     END       ?L?COM003F
      0100BF67H   CODE     PART      ?L?COM0040
      0100BF67H   CODE     END       ?L?COM0041
      0100BF67H   CODE     END       ?L?COM0042
      01009539H   CODE     PART      ?L?COM0043
      01009539H   CODE     END       ?L?COM0044
      01009539H   CODE     END       ?L?COM0045
      01008FB9H   CODE     PART      ?L?COM0046
      01008FB9H   CODE     END       ?L?COM0047
      0100A3ACH   CODE     PART      ?L?COM0048
      0100A3ACH   CODE     END       ?L?COM0049
      0100A3ACH   CODE     END       ?L?COM004A
      01008A5EH   CODE     PART      ?L?COM004B
      01008A5EH   CODE     END       ?L?COM004C
      01008A1DH   CODE     PART      ?L?COM004D
      01008A1DH   CODE     END       ?L?COM004E
      01008A1DH   CODE     END       ?L?COM004F
      01008A1DH   CODE     END       ?L?COM0050
      01006A57H   CODE     BEGIN     ?L?COM0051
      010086DBH   CODE     PART      ?L?COM0052
      010086DBH   CODE     END       ?L?COM0053
      0100A775H   CODE     PART      ?L?COM0054
      01008DFCH   CODE     PART      ?L?COM0055
      01008DFCH   CODE     END       ?L?COM0056
LX51 LINKER/LOCATER V4.66.93.0                                                        04/19/2019  09:16:48  PAGE 33


      01008DFCH   CODE     END       ?L?COM0057
      01008750H   CODE     PART      ?L?COM0058
      01008750H   CODE     END       ?L?COM0059
      01008750H   CODE     END       ?L?COM005A
      01006FFFH   CODE     BEGIN     ?L?COM005B
      01006FFFH   CODE     END       ?L?COM005C
      01006FFFH   CODE     END       ?L?COM005D
      01007F4BH   CODE     PART      ?L?COM005E
      01007F4BH   CODE     END       ?L?COM005F
      010091D4H   CODE     PART      ?L?COM0060
      01006F50H   CODE     BEGIN     ?L?COM0061
      01006F50H   CODE     END       ?L?COM0062
      01008742H   CODE     PART      ?L?COM0063
      01009524H   CODE     PART      ?L?COM0064
      01009524H   CODE     END       ?L?COM0065
      01009524H   CODE     END       ?L?COM0066
      01009524H   CODE     END       ?L?COM0067
      01007674H   CODE     PART      ?L?COM0068
      01007674H   CODE     END       ?L?COM0069
      01007674H   CODE     END       ?L?COM006A
      01009E36H   CODE     PART      ?L?COM006B
      01009E36H   CODE     END       ?L?COM006C
      0100BB03H   CODE     PART      ?L?COM006D
      0100BB03H   CODE     END       ?L?COM006E
      0100BB03H   CODE     END       ?L?COM006F
      0100B234H   CODE     PART      ?L?COM0070
      0100B234H   CODE     END       ?L?COM0071
      0100B234H   CODE     END       ?L?COM0072
      0100B234H   CODE     END       ?L?COM0073
      010086C2H   CODE     PART      ?L?COM0074
      010086C2H   CODE     END       ?L?COM0075
      01000003H   CODE     PART      ?L?COM0076
      0100740EH   CODE     PART      ?L?COM0077
      0100740EH   CODE     END       ?L?COM0078
      0100A731H   CODE     PART      ?L?COM0079
      0100A731H   CODE     END       ?L?COM007A
      0100A731H   CODE     END       ?L?COM007B
      0100A731H   CODE     END       ?L?COM007C
      0100A758H   CODE     PART      ?L?COM007D
      0100A758H   CODE     END       ?L?COM007E
      0100A758H   CODE     END       ?L?COM007F
      01009E1EH   CODE     PART      ?L?COM0080
      01009E1EH   CODE     END       ?L?COM0081
      01009E1EH   CODE     END       ?L?COM0082
      0100919CH   CODE     PART      ?L?COM0083
      0100919CH   CODE     END       ?L?COM0084
      0100C74FH   CODE     PART      ?L?COM0085
      0100C74FH   CODE     END       ?L?COM0086
      0100C74FH   CODE     END       ?L?COM0087
      0100C768H   CODE     PART      ?L?COM0088
      0100C768H   CODE     END       ?L?COM0089
      0100BAF5H   CODE     PART      ?L?COM008A
      0100BAF5H   CODE     END       ?L?COM008B
      0100AA3DH   CODE     PART      ?L?COM008C
      0100AA3DH   CODE     END       ?L?COM008D
      0100B4FBH   CODE     PART      ?L?COM008E
      0100B4FBH   CODE     END       ?L?COM008F
      0100ABE7H   CODE     PART      ?L?COM0090
      0100ABE7H   CODE     END       ?L?COM0091
      0100966CH   CODE     PART      ?L?COM0092
      0100966CH   CODE     END       ?L?COM0093
      01006FBDH   CODE     PART      ?L?COM0094
      01006FBDH   CODE     END       ?L?COM0095
      01006FBDH   CODE     END       ?L?COM0096
      01009ED5H   CODE     PART      ?L?COM0097
LX51 LINKER/LOCATER V4.66.93.0                                                        04/19/2019  09:16:48  PAGE 34


      01009ED5H   CODE     END       ?L?COM0098
      01009ED5H   CODE     END       ?L?COM0099
      0100C788H   CODE     PART      ?L?COM009A
      0100C788H   CODE     END       ?L?COM009B
      01009530H   CODE     PART      ?L?COM009C
      01009530H   CODE     END       ?L?COM009D
      010086FEH   CODE     PART      ?L?COM009E
      0100BF0EH   CODE     PART      ?L?COM009F
      01009E2CH   CODE     PART      ?L?COM00A0
      0100C7A2H   CODE     PART      ?L?COM00A1
      0100C7A2H   CODE     END       ?L?COM00A2
      01009681H   CODE     PART      ?L?COM00A3
      0100968CH   CODE     PART      ?L?COM00A4
      0100AD7BH   CODE     PART      ?L?COM00A5
      0100AD7BH   CODE     END       ?L?COM00A6
      0100B600H   CODE     PART      ?L?COM00A7
      010086CEH   CODE     PART      ?L?COM00A8
      010086CEH   CODE     END       ?L?COM00A9
      0100C7B3H   CODE     PART      ?L?COM00AA
      0100C7B3H   CODE     END       ?L?COM00AB
      0100C7CAH   CODE     PART      ?L?COM00AC
      0100C7CAH   CODE     END       ?L?COM00AD
      010095B7H   CODE     PART      ?L?COM00AE
      010095B7H   CODE     END       ?L?COM00AF
      0100C7E1H   CODE     PART      ?L?COM00B0
      01008F81H   CODE     PART      ?L?COM00B1
      01008F81H   CODE     END       ?L?COM00B2
      0100AF34H   CODE     PART      ?L?COM00B3
      0100AF34H   CODE     END       ?L?COM00B4
      0100B215H   CODE     PART      ?L?COM00B5
      0100B215H   CODE     END       ?L?COM00B6
      0100B215H   CODE     END       ?L?COM00B7
      0100B215H   CODE     END       ?L?COM00B8
      0100C7F5H   CODE     PART      ?L?COM00B9
      010080AFH   CODE     PART      ?L?COM00BA
      010080AFH   CODE     END       ?L?COM00BB
      010072D5H   CODE     PART      ?L?COM00BC
      010091A6H   CODE     PART      ?L?COM00BD
      010091A6H   CODE     END       ?L?COM00BE
      010091A6H   CODE     END       ?L?COM00BF
      0100AD29H   CODE     PART      ?L?COM00C0
      0100AD29H   CODE     END       ?L?COM00C1
      01007F43H   CODE     PART      ?L?COM00C2
      0100A7CAH   CODE     PART      ?L?COM00C3
      0100A7CAH   CODE     END       ?L?COM00C4
      0100AF44H   CODE     PART      ?L?COM00C5
      0100AF44H   CODE     END       ?L?COM00C6
      01008F15H   CODE     BEGIN     ?L?COM00C7
      01008F15H   CODE     END       ?L?COM00C8
      01007742H   CODE     PART      ?L?COM00C9
      01007742H   CODE     END       ?L?COM00CA
      01006824H   CODE     PART      ?L?COM00CB
      010087E8H   CODE     PART      ?L?COM00CC
      010087E8H   CODE     END       ?L?COM00CD
      0100A73DH   CODE     PART      ?L?COM00CE
      0100A73DH   CODE     END       ?L?COM00CF
      01008A44H   CODE     PART      ?L?COM00D0
      01008A44H   CODE     END       ?L?COM00D1
      01007FA2H   CODE     PART      ?L?COM00D2
      01007FA2H   CODE     END       ?L?COM00D3
      01007FA2H   CODE     END       ?L?COM00D4
      01008705H   CODE     PART      ?L?COM00D5
      010091C6H   CODE     PART      ?L?COM00D6
      010091C6H   CODE     END       ?L?COM00D7
      0100AFD5H   CODE     PART      ?L?COM00D8
LX51 LINKER/LOCATER V4.66.93.0                                                        04/19/2019  09:16:48  PAGE 35


      0100C817H   CODE     PART      ?L?COM00D9
      0100C817H   CODE     END       ?L?COM00DA
      01006FC9H   CODE     PART      ?L?COM00DB
      0100C82FH   CODE     PART      ?L?COM00DC
      0100C82FH   CODE     END       ?L?COM00DD
      0100BD43H   CODE     PART      ?L?COM00DE
      0100BD43H   CODE     END       ?L?COM00DF
      0100BD43H   CODE     END       ?L?COM00E0
      01008DD5H   CODE     BEGIN     ?L?COM00E1
      01008DD5H   CODE     END       ?L?COM00E2
      0100C241H   CODE     PART      ?L?COM00E3
      0100C241H   CODE     END       ?L?COM00E4
      0100ABD9H   CODE     PART      ?L?COM00E5
      0100ABD9H   CODE     END       ?L?COM00E6
      01009F01H   CODE     PART      ?L?COM00E7
      01009F01H   CODE     END       ?L?COM00E8
      0100BD27H   CODE     PART      ?L?COM00E9
      0100BD27H   CODE     END       ?L?COM00EA
      0100BD7AH   CODE     PART      ?L?COM00EB
      0100BD7AH   CODE     END       ?L?COM00EC
      010087A7H   CODE     PART      ?L?COM00ED
      010087A7H   CODE     END       ?L?COM00EE
      01008F8CH   CODE     PART      ?L?COM00EF
      01008F8CH   CODE     END       ?L?COM00F0
      010091BBH   CODE     PART      ?L?COM00F1
      01008714H   CODE     PART      ?L?COM00F2
      01008714H   CODE     END       ?L?COM00F3
      01009EF9H   CODE     PART      ?L?COM00F4
      01009EF9H   CODE     END       ?L?COM00F5
      0100B47EH   CODE     PART      ?L?COM00F6
      01008F53H   CODE     PART      ?L?COM00F7
      01006FEFH   CODE     PART      ?L?COM00F8
      01006B6AH   CODE     BEGIN     ?L?COM00F9
      01009550H   CODE     BEGIN     ?L?COM00FA
      0100A7D8H   CODE     PART      ?L?COM00FB
      0100C83FH   CODE     PART      ?L?COM00FC
      0100C83FH   CODE     END       ?L?COM00FD
      0100AEE6H   CODE     PART      ?L?COM00FE
      0100AEE6H   CODE     END       ?L?COM00FF
      0100B48CH   CODE     PART      ?L?COM0100
      0100B48CH   CODE     END       ?L?COM0101
      01006FD4H   CODE     PART      ?L?COM0102
      01006FD4H   CODE     END       ?L?COM0103
      0100798CH   CODE     PART      ?L?COM0104
      0100798CH   CODE     END       ?L?COM0105
      010077A6H   CODE     PART      ?L?COM0106
      0100A1A1H   CODE     PART      ?L?COM0107
      0100871CH   CODE     PART      ?L?COM0108
      0100871CH   CODE     END       ?L?COM0109
      0100AFA7H   CODE     PART      ?L?COM010A
      0100AFA7H   CODE     END       ?L?COM010B
      01008A51H   CODE     PART      ?L?COM010C
      01006901H   CODE     BEGIN     ?L?COM010D
      0100C1A9H   CODE     PART      ?L?COM010E
      010090BAH   CODE     BEGIN     ?L?COM010F
      010091B1H   CODE     PART      ?L?COM0110
      0100B6FDH   CODE     PART      ?L?COM0111
      0100B6FDH   CODE     END       ?L?COM0112
      0100C850H   CODE     PART      ?L?COM0113
      0100B50EH   CODE     PART      ?L?COM0114
      01007FE4H   CODE     BEGIN     ?L?COM0115
      01007FE4H   CODE     END       ?L?COM0116
      0100B21FH   CODE     PART      ?L?COM0117
      0100B399H   CODE     PART      ?L?COM0118
      01007405H   CODE     PART      ?L?COM0119
LX51 LINKER/LOCATER V4.66.93.0                                                        04/19/2019  09:16:48  PAGE 36


      01008727H   CODE     PART      ?L?COM011A
      01008727H   CODE     END       ?L?COM011B
      01009FE2H   CODE     PART      ?L?COM011C
      01009FE2H   CODE     END       ?L?COM011D
      0100C865H   CODE     PART      ?L?COM011E
      0100879EH   CODE     PART      ?L?COM011F
      0100A79EH   CODE     PART      ?L?COM0120
      0100A79EH   CODE     END       ?L?COM0121
      0100C5FDH   CODE     PART      ?L?COM0122
      010097EBH   CODE     PART      ?L?COM0123
      0100967AH   CODE     PART      ?L?COM0124
      01007494H   CODE     PART      ?L?COM0125
      0100A74DH   CODE     PART      ?L?COM0126
      0100A74DH   CODE     END       ?L?COM0127
      010087F0H   CODE     PART      ?L?COM0128
      0100A7BEH   CODE     PART      ?L?COM0129
      0100A7BEH   CODE     END       ?L?COM012A
      01006FE0H   CODE     PART      ?L?COM012B
      01006FE0H   CODE     END       ?L?COM012C
      0100AF2AH   CODE     PART      ?L?COM012D
      0100AF2AH   CODE     END       ?L?COM012E
      0100AF2AH   CODE     END       ?L?COM012F
      0100778AH   CODE     PART      ?L?COM0130
      0100778AH   CODE     END       ?L?COM0131
      0100B4B6H   CODE     PART      ?L?COM0132
      010087B1H   CODE     PART      ?L?COM0133
      0100969EH   CODE     PART      ?L?COM0134
      0100969EH   CODE     END       ?L?COM0135
      01006FB0H   CODE     PART      ?L?COM0136
      01006FB0H   CODE     END       ?L?COM0137
      01008F5BH   CODE     PART      ?L?COM0138
      01008F5BH   CODE     END       ?L?COM0139
      01008A8CH   CODE     PART      ?L?COM013A
      01006FB5H   CODE     PART      ?L?COM013B
      01006FB5H   CODE     END       ?L?COM013C
      0100C878H   CODE     PART      ?L?COM013D
      0100BB1BH   CODE     PART      ?L?COM013E
      0100BB1BH   CODE     END       ?L?COM013F
      0100B046H   CODE     PART      ?L?COM0140
      0100B046H   CODE     END       ?L?COM0141
      010087C9H   CODE     PART      ?L?COM0142
      01008734H   CODE     PART      ?L?COM0143
      01008760H   CODE     PART      ?L?COM0144
      01009F2DH   CODE     PART      ?L?COM0145
      01009F2DH   CODE     END       ?L?COM0146
      010097D9H   CODE     PART      ?L?COM0147
      0100AD72H   CODE     PART      ?L?COM0148
      0100AF5FH   CODE     PART      ?L?COM0149
      0100C889H   CODE     PART      ?L?COM014A
      0100C890H   CODE     PART      ?L?COM014B
      01008F77H   CODE     PART      ?L?COM014C
      0100873BH   CODE     PART      ?L?COM014D
      01008AC9H   CODE     BEGIN     ?L?COM014E
      0100C899H   CODE     PART      ?L?COM014F
      0100C899H   CODE     END       ?L?COM0150
      0100C8A1H   CODE     PART      ?L?COM0151
      0100B4A7H   CODE     PART      ?L?COM0152
      0100BD6BH   CODE     PART      ?L?COM0153
      0100C8B0H   CODE     PART      ?L?COM0154
      010077E5H   CODE     PART      ?L?COM0155
      010077E5H   CODE     END       ?L?COM0156
      0100AF98H   CODE     PART      ?L?COM0157
      0100BD3AH   CODE     PART      ?L?COM0158
      0100C8BFH   CODE     PART      ?L?COM0159
      0100B7DAH   CODE     PART      ?L?COM015A
LX51 LINKER/LOCATER V4.66.93.0                                                        04/19/2019  09:16:48  PAGE 37


      0100C01EH   CODE     PART      ?L?COM015B
      0100AF8FH   CODE     PART      ?L?COM015C
      0100C8CCH   CODE     PART      ?L?COM015D
      0100876EH   CODE     PART      ?L?COM015E
      0100C8D5H   CODE     PART      ?L?COM015F
      0100C8E3H   CODE     PART      ?L?COM0160
      0100C8F1H   CODE     PART      ?L?COM0161
      0100C8FFH   CODE     PART      ?L?COM0162
      01009ECEH   CODE     PART      ?L?COM0163
      0100AFB7H   CODE     PART      ?L?COM0164
      0100AFDFH   CODE     PART      ?L?COM0165
      0100BE6DH   CODE     PART      ?L?COM0166
      0100C90DH   CODE     PART      ?L?COM0167
      0100C1B5H   CODE     PART      ?L?COM0168
      0100C919H   CODE     PART      ?L?COM0169
      0100BE7AH   CODE     PART      ?L?COM016A
      0100BE81H   CODE     PART      ?L?COM016B
      010077DEH   CODE     PART      ?L?COM016C
      0100C925H   CODE     PART      ?L?COM016D
      0100C932H   CODE     PART      ?L?COM016E
      0100B227H   CODE     PART      ?L?COM016F
      0100870DH   CODE     PART      ?L?COM0170
      010087BCH   CODE     PART      ?L?COM0171
      010072DDH   CODE     BEGIN     ?L?COM0172
      0100BE0FH   CODE     PART      ?L?COM0173
      0100C93FH   CODE     PART      ?L?COM0174
      0100C93FH   CODE     END       ?L?COM0175
      01008F66H   CODE     PART      ?L?COM0176
      01008F66H   CODE     END       ?L?COM0177
      0100C948H   CODE     PART      ?L?COM0178
      0100C950H   CODE     PART      ?L?COM0179
      0100C95CH   CODE     PART      ?L?COM017A
      0100AF67H   CODE     PART      ?L?COM017B
      0100AF58H   CODE     PART      ?L?COM017C
      0100AF6FH   CODE     PART      ?L?COM017D
      0100AF77H   CODE     PART      ?L?COM017E
      0100C964H   CODE     PART      ?L?COM017F
      0100971DH   CODE     PART      ?L?COM0180
      0100C405H   CODE     PART      ?L?COM0181
      0100B49FH   CODE     PART      ?L?COM0182
      0100B466H   CODE     PART      ?L?COM0183
      0100B46EH   CODE     PART      ?L?COM0184
      0100B476H   CODE     PART      ?L?COM0185
      0100C970H   CODE     PART      ?L?COM0186
      01006FE8H   CODE     PART      ?L?COM0187
      0100C97CH   CODE     PART      ?L?COM0188
      0100BB29H   CODE     PART      ?L?COM0189
      0100A7EDH   CODE     PART      ?L?COM018A
      0100B7D2H   CODE     PART      ?L?COM018B
      01009FA3H   CODE     PART      ?L?COM018C
      01008776H   CODE     PART      ?L?COM018D
      01009F1DH   CODE     PART      ?L?COM018E
      01009FB2H   CODE     PART      ?L?COM018F
      0100A1ADH   CODE     BEGIN     ?L?COM0190
      0100AD6AH   CODE     PART      ?L?COM0191
      0100AD6AH   CODE     END       ?L?COM0192
      0100BFF8H   CODE     BEGIN     ?L?COM0193
      0100C988H   CODE     PART      ?L?COM0194
      0100A080H   CODE     PART      ?L?COM0195
      010097E0H   CODE     PART      ?L?COM0196
      0100C399H   CODE     PART      ?L?COM0197
      0100A7B4H   CODE     PART      ?L?COM0198
      01008FDFH   CODE     PART      ?L?COM0199
      0100BF38H   CODE     PART      ?L?COM019A
      01006A4CH   CODE     PART      ?L?COM019B
LX51 LINKER/LOCATER V4.66.93.0                                                        04/19/2019  09:16:48  PAGE 38


      0100877EH   CODE     PART      ?L?COM019C
      0100877EH   CODE     END       ?L?COM019D
      0100C992H   CODE     PART      ?L?COM019E
      0100C99DH   CODE     PART      ?L?COM019F
      0100C411H   CODE     PART      ?L?COM01A0
      01008BA1H   CODE     BEGIN     ?L?COM01A1
      01008F6FH   CODE     PART      ?L?COM01A2
      0100C9A4H   CODE     PART      ?L?COM01A3
      01008767H   CODE     PART      ?L?COM01A4
      01009717H   CODE     PART      ?L?COM01A5
      010080A6H   CODE     PART      ?L?COM01A6
      0100AFBEH   CODE     PART      ?L?COM01A7
      0100C9AEH   CODE     PART      ?L?COM01A8
      0100681DH   CODE     PART      ?L?COM01A9
      0100C9B5H   CODE     PART      ?L?COM01AA
      0100C5F6H   CODE     PART      ?L?COM01AB
      0100C9BEH   CODE     PART      ?L?COM01AC
      0100C9C7H   CODE     PART      ?L?COM01AD
      010087DAH   CODE     PART      ?L?COM01AE
      0100BF25H   CODE     BEGIN     ?L?COM01AF
      0100C9D0H   CODE     PART      ?L?COM01B0
      0100B14FH   CODE     PART      ?L?COM01B1
      010077CFH   CODE     PART      ?L?COM01B2
      0100C390H   CODE     PART      ?L?COM01B3
      0100C9D9H   CODE     PART      ?L?COM01B4
      0100BFBEH   CODE     BEGIN     ?L?COM01B5
      0100BEF3H   CODE     BEGIN     ?L?COM01B6
      01008FD5H   CODE     PART      ?L?COM01B7
      0100BD1EH   CODE     PART      ?L?COM01B8
      010087E1H   CODE     PART      ?L?COM01B9
      0100C9E3H   CODE     PART      ?L?COM01BA
      0100BAD6H   CODE     PART      ?L?COM01BB
      01009F0FH   CODE     PART      ?L?COM01BC
      01009E52H   CODE     BEGIN     ?L?COM01BD
      01009F16H   CODE     PART      ?L?COM01BE
      01009FABH   CODE     PART      ?L?COM01BF
      0100C9EDH   CODE     PART      ?L?COM01C0
      010077EDH   CODE     PART      ?L?COM01C1
      01009697H   CODE     PART      ?L?COM01C2
      0100AD63H   CODE     PART      ?L?COM01C3
      0100C9F7H   CODE     PART      ?L?COM01C4
      0100CA01H   CODE     PART      ?L?COM01C5
      0100CA0BH   CODE     PART      ?L?COM01C6
      0100AF7FH   CODE     PART      ?L?COM01C7
      01009FBAH   CODE     PART      ?L?COM01C8
      0100BADDH   CODE     PART      ?L?COM01C9
      01006835H   CODE     BEGIN     ?L?COM01CA
      01008786H   CODE     PART      ?L?COM01CB
      0100CA13H   CODE     PART      ?L?COM01CC
      0100CA1BH   CODE     PART      ?L?COM01CD
      0100CA23H   CODE     PART      ?L?COM01CE
      0100BD53H   CODE     PART      ?L?COM01CF
      01008986H   CODE     BEGIN     ?L?COM01D0
      0100CA2AH   CODE     PART      ?L?COM01D1
      0100C5EEH   CODE     PART      ?L?COM01D2
      01006423H   CODE     BEGIN     ?L?COM01D3
      0100C606H   CODE     PART      ?L?COM01D4
      0100AF1BH   CODE     PART      ?L?COM01D5
      0100AF87H   CODE     PART      ?L?COM01D6
      01009FECH   CODE     PART      ?L?COM01D7
      0100AF23H   CODE     PART      ?L?COM01D8
      01006FF7H   CODE     PART      ?L?COM01D9
      0100CA32H   CODE     PART      ?L?COM01DA
      010077BAH   CODE     PART      ?L?COM01DB
      010077C1H   CODE     PART      ?L?COM01DC
LX51 LINKER/LOCATER V4.66.93.0                                                        04/19/2019  09:16:48  PAGE 39


      0100CA39H   CODE     PART      ?L?COM01DD
      0100C02CH   CODE     BEGIN     ?L?COM01DE
      0100897FH   CODE     PART      ?L?COM01DF
      0100CA41H   CODE     PART      ?L?COM01E0
      0100CA49H   CODE     PART      ?L?COM01E1
      0100B4F3H   CODE     PART      ?L?COM01E2
      0100B7E3H   CODE     PART      ?L?COM01E3
      0100B7EBH   CODE     PART      ?L?COM01E4
      01009F25H   CODE     PART      ?L?COM01E5
      0100CA51H   CODE     PART      ?L?COM01E6
      0100CA59H   CODE     PART      ?L?COM01E7
      0100BD5BH   CODE     PART      ?L?COM01E8
      0100BD63H   CODE     PART      ?L?COM01E9
      0100B6F5H   CODE     PART      ?L?COM01EA
      0100CA61H   CODE     PART      ?L?COM01EB
      0100CA69H   CODE     PART      ?L?COM01EC
      0100CA71H   CODE     PART      ?L?COM01ED
      0100CA79H   CODE     PART      ?L?COM01EE
      0100BAE5H   CODE     PART      ?L?COM01EF
      0100BAEDH   CODE     PART      ?L?COM01F0
      01009FC2H   CODE     PART      ?L?COM01F1
      01009FCAH   CODE     PART      ?L?COM01F2
      01009FD2H   CODE     PART      ?L?COM01F3
      0100AFC5H   CODE     PART      ?L?COM01F4
      01009FDAH   CODE     PART      ?L?COM01F5
      0100AFCDH   CODE     PART      ?L?COM01F6
      0100878EH   CODE     PART      ?L?COM01F7
      01008796H   CODE     PART      ?L?COM01F8
      010077C8H   CODE     PART      ?L?COM01F9
      0100CA81H   CODE     PART      ?L?COM01FA
      0100A7E6H   CODE     PART      ?L?COM01FB
      01008FEAH   CODE     PART      ?L?COM01FC



SYMBOL TABLE OF MODULE:  ..\OBJ\VHB15A (STC_EEPROM)

      VALUE       REP       CLASS    TYPE      SYMBOL NAME
      ====================================================
      ---         MODULE    ---      ---       STC_EEPROM
      01006810H   PUBLIC    CODE     ---       _STC_IAP_Sector_Erase
      010067F4H   PUBLIC    CODE     ---       _STC_IAP_Byte_Program
      01006352H   PUBLIC    CODE     ---       _STC_IAP_Byte_Read
      000000E0H   SFRSYM    DATA     BYTE      ACC
      000000F0H   SFRSYM    DATA     BYTE      B
      000000D0H   SFRSYM    DATA     BYTE      PSW
      000000D0H.7 SFRSYM    DATA     BIT       CY
      000000D0H.6 SFRSYM    DATA     BIT       AC
      000000D0H.5 SFRSYM    DATA     BIT       F0
      000000D0H.4 SFRSYM    DATA     BIT       RS1
      000000D0H.3 SFRSYM    DATA     BIT       RS0
      000000D0H.2 SFRSYM    DATA     BIT       OV
      000000D0H.0 SFRSYM    DATA     BIT       P
      00000081H   SFRSYM    DATA     BYTE      SP
      00000082H   SFRSYM    DATA     BYTE      DPL
      00000083H   SFRSYM    DATA     BYTE      DPH
      00000087H   SFRSYM    DATA     BYTE      PCON
      0000008EH   SFRSYM    DATA     BYTE      AUXR
      000000A2H   SFRSYM    DATA     BYTE      AUXR1
      0000008FH   SFRSYM    DATA     BYTE      WAKE_CLKO
      00000097H   SFRSYM    DATA     BYTE      CLK_DIV
      000000A1H   SFRSYM    DATA     BYTE      BUS_SPEED
      000000A8H   SFRSYM    DATA     BYTE      IE
      000000A8H.7 SFRSYM    DATA     BIT       EA
      000000A8H.6 SFRSYM    DATA     BIT       ELVD
LX51 LINKER/LOCATER V4.66.93.0                                                        04/19/2019  09:16:48  PAGE 40


      000000A8H.5 SFRSYM    DATA     BIT       EADC
      000000A8H.4 SFRSYM    DATA     BIT       ES
      000000A8H.3 SFRSYM    DATA     BIT       ET1
      000000A8H.2 SFRSYM    DATA     BIT       EX1
      000000A8H.1 SFRSYM    DATA     BIT       ET0
      000000A8H.0 SFRSYM    DATA     BIT       EX0
      000000AFH   SFRSYM    DATA     BYTE      IE2
      000000B8H   SFRSYM    DATA     BYTE      IP
      000000B8H.7 SFRSYM    DATA     BIT       PPCA
      000000B8H.6 SFRSYM    DATA     BIT       PLVD
      000000B8H.5 SFRSYM    DATA     BIT       PADC
      000000B8H.4 SFRSYM    DATA     BIT       PS
      000000B8H.3 SFRSYM    DATA     BIT       PT1
      000000B8H.2 SFRSYM    DATA     BIT       PX1
      000000B8H.1 SFRSYM    DATA     BIT       PT0
      000000B8H.0 SFRSYM    DATA     BIT       PX0
      000000B7H   SFRSYM    DATA     BYTE      IPH
      000000B5H   SFRSYM    DATA     BYTE      IP2
      000000B6H   SFRSYM    DATA     BYTE      IPH2
      00000080H   SFRSYM    DATA     BYTE      P0
      00000080H.0 SFRSYM    DATA     BIT       P00
      00000080H.1 SFRSYM    DATA     BIT       P01
      00000080H.2 SFRSYM    DATA     BIT       P02
      00000080H.3 SFRSYM    DATA     BIT       P03
      00000080H.4 SFRSYM    DATA     BIT       P04
      00000080H.5 SFRSYM    DATA     BIT       P05
      00000080H.6 SFRSYM    DATA     BIT       P06
      00000080H.7 SFRSYM    DATA     BIT       P07
      00000094H   SFRSYM    DATA     BYTE      P0M0
      00000093H   SFRSYM    DATA     BYTE      P0M1
      00000090H   SFRSYM    DATA     BYTE      P1
      00000090H.0 SFRSYM    DATA     BIT       P10
      00000090H.1 SFRSYM    DATA     BIT       P11
      00000090H.2 SFRSYM    DATA     BIT       P12
      00000090H.3 SFRSYM    DATA     BIT       P13
      00000090H.4 SFRSYM    DATA     BIT       P14
      00000090H.5 SFRSYM    DATA     BIT       P15
      00000090H.6 SFRSYM    DATA     BIT       P16
      00000090H.7 SFRSYM    DATA     BIT       P17
      00000092H   SFRSYM    DATA     BYTE      P1M0
      00000091H   SFRSYM    DATA     BYTE      P1M1
      0000009DH   SFRSYM    DATA     BYTE      P1ASF
      000000A0H   SFRSYM    DATA     BYTE      P2
      000000A0H.0 SFRSYM    DATA     BIT       P20
      000000A0H.1 SFRSYM    DATA     BIT       P21
      000000A0H.2 SFRSYM    DATA     BIT       P22
      000000A0H.3 SFRSYM    DATA     BIT       P23
      000000A0H.4 SFRSYM    DATA     BIT       P24
      000000A0H.5 SFRSYM    DATA     BIT       P25
      000000A0H.6 SFRSYM    DATA     BIT       P26
      000000A0H.7 SFRSYM    DATA     BIT       P27
      00000096H   SFRSYM    DATA     BYTE      P2M0
      00000095H   SFRSYM    DATA     BYTE      P2M1
      000000B0H   SFRSYM    DATA     BYTE      P3
      000000B0H.0 SFRSYM    DATA     BIT       P30
      000000B0H.1 SFRSYM    DATA     BIT       P31
      000000B0H.2 SFRSYM    DATA     BIT       P32
      000000B0H.3 SFRSYM    DATA     BIT       P33
      000000B0H.4 SFRSYM    DATA     BIT       P34
      000000B0H.5 SFRSYM    DATA     BIT       P35
      000000B0H.6 SFRSYM    DATA     BIT       P36
      000000B0H.7 SFRSYM    DATA     BIT       P37
      000000B2H   SFRSYM    DATA     BYTE      P3M0
      000000B1H   SFRSYM    DATA     BYTE      P3M1
      000000C0H   SFRSYM    DATA     BYTE      P4
LX51 LINKER/LOCATER V4.66.93.0                                                        04/19/2019  09:16:48  PAGE 41


      000000C0H.0 SFRSYM    DATA     BIT       P40
      000000C0H.1 SFRSYM    DATA     BIT       P41
      000000C0H.2 SFRSYM    DATA     BIT       P42
      000000C0H.3 SFRSYM    DATA     BIT       P43
      000000C0H.4 SFRSYM    DATA     BIT       P44
      000000C0H.5 SFRSYM    DATA     BIT       P45
      000000C0H.6 SFRSYM    DATA     BIT       P46
      000000C0H.7 SFRSYM    DATA     BIT       P47
      000000B4H   SFRSYM    DATA     BYTE      P4M0
      000000B3H   SFRSYM    DATA     BYTE      P4M1
      000000BBH   SFRSYM    DATA     BYTE      P4SW
      000000C8H   SFRSYM    DATA     BYTE      P5
      000000CAH   SFRSYM    DATA     BYTE      P5M0
      000000C9H   SFRSYM    DATA     BYTE      P5M1
      00000088H   SFRSYM    DATA     BYTE      TCON
      00000088H.7 SFRSYM    DATA     BIT       TF1
      00000088H.6 SFRSYM    DATA     BIT       TR1
      00000088H.5 SFRSYM    DATA     BIT       TF0
      00000088H.4 SFRSYM    DATA     BIT       TR0
      00000088H.3 SFRSYM    DATA     BIT       IE1
      00000088H.2 SFRSYM    DATA     BIT       IT1
      00000088H.1 SFRSYM    DATA     BIT       IE0
      00000088H.0 SFRSYM    DATA     BIT       IT0
      00000089H   SFRSYM    DATA     BYTE      TMOD
      0000008AH   SFRSYM    DATA     BYTE      TL0
      0000008CH   SFRSYM    DATA     BYTE      TH0
      0000008BH   SFRSYM    DATA     BYTE      TL1
      0000008DH   SFRSYM    DATA     BYTE      TH1
      00000098H   SFRSYM    DATA     BYTE      SCON
      00000098H.7 SFRSYM    DATA     BIT       SM0
      00000098H.6 SFRSYM    DATA     BIT       SM1
      00000098H.5 SFRSYM    DATA     BIT       SM2
      00000098H.4 SFRSYM    DATA     BIT       REN
      00000098H.3 SFRSYM    DATA     BIT       TB8
      00000098H.2 SFRSYM    DATA     BIT       RB8
      00000098H.1 SFRSYM    DATA     BIT       TI
      00000098H.0 SFRSYM    DATA     BIT       RI
      00000099H   SFRSYM    DATA     BYTE      SBUF
      000000B9H   SFRSYM    DATA     BYTE      SADEN
      000000A9H   SFRSYM    DATA     BYTE      SADDR
      0000009AH   SFRSYM    DATA     BYTE      S2CON
      0000009BH   SFRSYM    DATA     BYTE      S2BUF
      0000009CH   SFRSYM    DATA     BYTE      BRT
      000000C1H   SFRSYM    DATA     BYTE      WDT_CONTR
      000000D8H   SFRSYM    DATA     BYTE      CCON
      000000D8H.7 SFRSYM    DATA     BIT       CF
      000000D8H.6 SFRSYM    DATA     BIT       CR
      000000D8H.1 SFRSYM    DATA     BIT       CCF1
      000000D8H.0 SFRSYM    DATA     BIT       CCF0
      000000D9H   SFRSYM    DATA     BYTE      CMOD
      000000E9H   SFRSYM    DATA     BYTE      CL
      000000F9H   SFRSYM    DATA     BYTE      CH
      000000DAH   SFRSYM    DATA     BYTE      CCAPM0
      000000DBH   SFRSYM    DATA     BYTE      CCAPM1
      000000EAH   SFRSYM    DATA     BYTE      CCAP0L
      000000FAH   SFRSYM    DATA     BYTE      CCAP0H
      000000EBH   SFRSYM    DATA     BYTE      CCAP1L
      000000FBH   SFRSYM    DATA     BYTE      CCAP1H
      000000F2H   SFRSYM    DATA     BYTE      PCA_PWM0
      000000F3H   SFRSYM    DATA     BYTE      PCA_PWM1
      000000BCH   SFRSYM    DATA     BYTE      ADC_CONTR
      000000BDH   SFRSYM    DATA     BYTE      ADC_RES
      000000BEH   SFRSYM    DATA     BYTE      ADC_RESL
      000000CEH   SFRSYM    DATA     BYTE      SPCTL
      000000CDH   SFRSYM    DATA     BYTE      SPSTAT
LX51 LINKER/LOCATER V4.66.93.0                                                        04/19/2019  09:16:48  PAGE 42


      000000CFH   SFRSYM    DATA     BYTE      SPDAT
      000000C2H   SFRSYM    DATA     BYTE      IAP_DATA
      000000C3H   SFRSYM    DATA     BYTE      IAP_ADDRH
      000000C4H   SFRSYM    DATA     BYTE      IAP_ADDRL
      000000C5H   SFRSYM    DATA     BYTE      IAP_CMD
      000000C6H   SFRSYM    DATA     BYTE      IAP_TRIG
      000000C7H   SFRSYM    DATA     BYTE      IAP_CONTR
      02000355H   SYMBOL    XDATA    ---       my_unTemp16
      01006804H   SYMBOL    CODE     ---       IAP_Disable

      01006352H   BLOCK     CODE     ---       LVL=0
      01006352H   LINE      ---      ---       #34
      01006352H   LINE      ---      ---       #35
      01006352H   LINE      ---      ---       #36
      01006355H   LINE      ---      ---       #37
      01006358H   LINE      ---      ---       #38
      0100635BH   LINE      ---      ---       #40
      0100635EH   LINE      ---      ---       #44
      01006361H   LINE      ---      ---       #46
      01006362H   LINE      ---      ---       #48
      01006365H   LINE      ---      ---       #50
      01006367H   LINE      ---      ---       #51
      00000006H   SYMBOL    DATA     WORD      add
      ---         BLOCKEND  ---      ---       LVL=0

      010067F4H   BLOCK     CODE     ---       LVL=0
      010067F4H   LINE      ---      ---       #53
      010067F4H   LINE      ---      ---       #54
      010067F4H   LINE      ---      ---       #55
      010067F7H   LINE      ---      ---       #56
      010067FAH   LINE      ---      ---       #58
      010067FDH   LINE      ---      ---       #62
      01006800H   LINE      ---      ---       #64
      01006803H   LINE      ---      ---       #66
      00000006H   SYMBOL    DATA     WORD      add
      00000005H   SYMBOL    DATA     BYTE      ch
      ---         BLOCKEND  ---      ---       LVL=0

      01006810H   BLOCK     CODE     ---       LVL=0
      01006810H   LINE      ---      ---       #71
      01006810H   LINE      ---      ---       #72
      01006810H   LINE      ---      ---       #73
      01006813H   LINE      ---      ---       #74
      01006816H   LINE      ---      ---       #76
      01006818H   LINE      ---      ---       #80
      0100681AH   LINE      ---      ---       #82
      0100681BH   LINE      ---      ---       #84
      00000006H   SYMBOL    DATA     WORD      add
      ---         BLOCKEND  ---      ---       LVL=0

      01006804H   BLOCK     CODE     ---       LVL=0
      01006804H   LINE      ---      ---       #87
      01006804H   LINE      ---      ---       #88
      01006804H   LINE      ---      ---       #89
      01006807H   LINE      ---      ---       #90
      01006809H   LINE      ---      ---       #91
      0100680BH   LINE      ---      ---       #92
      0100680DH   LINE      ---      ---       #93
      0100680FH   LINE      ---      ---       #94
      ---         BLOCKEND  ---      ---       LVL=0

      ---         MODULE    ---      ---       DELAY
      010077F7H   PUBLIC    CODE     ---       _delay_ms
      0100700BH   PUBLIC    CODE     ---       _delay_us

LX51 LINKER/LOCATER V4.66.93.0                                                        04/19/2019  09:16:48  PAGE 43


      01006FFFH   BLOCK     CODE     ---       LVL=0
      0100700BH   LINE      ---      ---       #4
      0100700BH   LINE      ---      ---       #5
      0100700BH   LINE      ---      ---       #6
      0100701DH   LINE      ---      ---       #7
      0100701DH   LINE      ---      ---       #8
      0100701EH   LINE      ---      ---       #9
      01007020H   LINE      ---      ---       #10
      01006FFFH   SYMBOL    CODE     NEAR LAB  ?L?COM005B
      00000006H   SYMBOL    DATA     WORD      t
      ---         BLOCKEND  ---      ---       LVL=0

      010077F7H   BLOCK     CODE     ---       LVL=0
      010077F7H   LINE      ---      ---       #13
      010077F7H   LINE      ---      ---       #14
      00000006H   SYMBOL    DATA     WORD      t
      010077F7H   BLOCK     CODE     NEAR LAB  LVL=1
      010077F7H   LINE      ---      ---       #16
      01007809H   LINE      ---      ---       #17
      01007809H   LINE      ---      ---       #18
      0100780DH   LINE      ---      ---       #19
      0100781FH   LINE      ---      ---       #20
      0100781FH   LINE      ---      ---       #21
      01007820H   LINE      ---      ---       #22
      01007822H   LINE      ---      ---       #23
      01007822H   LINE      ---      ---       #24
      00000004H   SYMBOL    DATA     WORD      i
      ---         BLOCKEND  CODE     ---       LVL=1
      ---         BLOCKEND  CODE     ---       LVL=0

      ---         MODULE    ---      ---       MAIN_TIK_TOK
      010087F8H   PUBLIC    CODE     ---       Timer_T0_INT_Main
      01007823H   PUBLIC    CODE     ---       Main_Tik_Tok_Initial_Fun
      000000E0H   SFRSYM    DATA     BYTE      ACC
      000000F0H   SFRSYM    DATA     BYTE      B
      000000D0H   SFRSYM    DATA     BYTE      PSW
      000000D0H.7 SFRSYM    DATA     BIT       CY
      000000D0H.6 SFRSYM    DATA     BIT       AC
      000000D0H.5 SFRSYM    DATA     BIT       F0
      000000D0H.4 SFRSYM    DATA     BIT       RS1
      000000D0H.3 SFRSYM    DATA     BIT       RS0
      000000D0H.2 SFRSYM    DATA     BIT       OV
      000000D0H.0 SFRSYM    DATA     BIT       P
      00000081H   SFRSYM    DATA     BYTE      SP
      00000082H   SFRSYM    DATA     BYTE      DPL
      00000083H   SFRSYM    DATA     BYTE      DPH
      00000087H   SFRSYM    DATA     BYTE      PCON
      0000008EH   SFRSYM    DATA     BYTE      AUXR
      000000A2H   SFRSYM    DATA     BYTE      AUXR1
      0000008FH   SFRSYM    DATA     BYTE      WAKE_CLKO
      00000097H   SFRSYM    DATA     BYTE      CLK_DIV
      000000A1H   SFRSYM    DATA     BYTE      BUS_SPEED
      000000A8H   SFRSYM    DATA     BYTE      IE
      000000A8H.7 SFRSYM    DATA     BIT       EA
      000000A8H.6 SFRSYM    DATA     BIT       ELVD
      000000A8H.5 SFRSYM    DATA     BIT       EADC
      000000A8H.4 SFRSYM    DATA     BIT       ES
      000000A8H.3 SFRSYM    DATA     BIT       ET1
      000000A8H.2 SFRSYM    DATA     BIT       EX1
      000000A8H.1 SFRSYM    DATA     BIT       ET0
      000000A8H.0 SFRSYM    DATA     BIT       EX0
      000000AFH   SFRSYM    DATA     BYTE      IE2
      000000B8H   SFRSYM    DATA     BYTE      IP
      000000B8H.7 SFRSYM    DATA     BIT       PPCA
      000000B8H.6 SFRSYM    DATA     BIT       PLVD
LX51 LINKER/LOCATER V4.66.93.0                                                        04/19/2019  09:16:48  PAGE 44


      000000B8H.5 SFRSYM    DATA     BIT       PADC
      000000B8H.4 SFRSYM    DATA     BIT       PS
      000000B8H.3 SFRSYM    DATA     BIT       PT1
      000000B8H.2 SFRSYM    DATA     BIT       PX1
      000000B8H.1 SFRSYM    DATA     BIT       PT0
      000000B8H.0 SFRSYM    DATA     BIT       PX0
      000000B7H   SFRSYM    DATA     BYTE      IPH
      000000B5H   SFRSYM    DATA     BYTE      IP2
      000000B6H   SFRSYM    DATA     BYTE      IPH2
      00000080H   SFRSYM    DATA     BYTE      P0
      00000080H.0 SFRSYM    DATA     BIT       P00
      00000080H.1 SFRSYM    DATA     BIT       P01
      00000080H.2 SFRSYM    DATA     BIT       P02
      00000080H.3 SFRSYM    DATA     BIT       P03
      00000080H.4 SFRSYM    DATA     BIT       P04
      00000080H.5 SFRSYM    DATA     BIT       P05
      00000080H.6 SFRSYM    DATA     BIT       P06
      00000080H.7 SFRSYM    DATA     BIT       P07
      00000094H   SFRSYM    DATA     BYTE      P0M0
      00000093H   SFRSYM    DATA     BYTE      P0M1
      00000090H   SFRSYM    DATA     BYTE      P1
      00000090H.0 SFRSYM    DATA     BIT       P10
      00000090H.1 SFRSYM    DATA     BIT       P11
      00000090H.2 SFRSYM    DATA     BIT       P12
      00000090H.3 SFRSYM    DATA     BIT       P13
      00000090H.4 SFRSYM    DATA     BIT       P14
      00000090H.5 SFRSYM    DATA     BIT       P15
      00000090H.6 SFRSYM    DATA     BIT       P16
      00000090H.7 SFRSYM    DATA     BIT       P17
      00000092H   SFRSYM    DATA     BYTE      P1M0
      00000091H   SFRSYM    DATA     BYTE      P1M1
      0000009DH   SFRSYM    DATA     BYTE      P1ASF
      000000A0H   SFRSYM    DATA     BYTE      P2
      000000A0H.0 SFRSYM    DATA     BIT       P20
      000000A0H.1 SFRSYM    DATA     BIT       P21
      000000A0H.2 SFRSYM    DATA     BIT       P22
      000000A0H.3 SFRSYM    DATA     BIT       P23
      000000A0H.4 SFRSYM    DATA     BIT       P24
      000000A0H.5 SFRSYM    DATA     BIT       P25
      000000A0H.6 SFRSYM    DATA     BIT       P26
      000000A0H.7 SFRSYM    DATA     BIT       P27
      00000096H   SFRSYM    DATA     BYTE      P2M0
      00000095H   SFRSYM    DATA     BYTE      P2M1
      000000B0H   SFRSYM    DATA     BYTE      P3
      000000B0H.0 SFRSYM    DATA     BIT       P30
      000000B0H.1 SFRSYM    DATA     BIT       P31
      000000B0H.2 SFRSYM    DATA     BIT       P32
      000000B0H.3 SFRSYM    DATA     BIT       P33
      000000B0H.4 SFRSYM    DATA     BIT       P34
      000000B0H.5 SFRSYM    DATA     BIT       P35
      000000B0H.6 SFRSYM    DATA     BIT       P36
      000000B0H.7 SFRSYM    DATA     BIT       P37
      000000B2H   SFRSYM    DATA     BYTE      P3M0
      000000B1H   SFRSYM    DATA     BYTE      P3M1
      000000C0H   SFRSYM    DATA     BYTE      P4
      000000C0H.0 SFRSYM    DATA     BIT       P40
      000000C0H.1 SFRSYM    DATA     BIT       P41
      000000C0H.2 SFRSYM    DATA     BIT       P42
      000000C0H.3 SFRSYM    DATA     BIT       P43
      000000C0H.4 SFRSYM    DATA     BIT       P44
      000000C0H.5 SFRSYM    DATA     BIT       P45
      000000C0H.6 SFRSYM    DATA     BIT       P46
      000000C0H.7 SFRSYM    DATA     BIT       P47
      000000B4H   SFRSYM    DATA     BYTE      P4M0
      000000B3H   SFRSYM    DATA     BYTE      P4M1
LX51 LINKER/LOCATER V4.66.93.0                                                        04/19/2019  09:16:48  PAGE 45


      000000BBH   SFRSYM    DATA     BYTE      P4SW
      000000C8H   SFRSYM    DATA     BYTE      P5
      000000CAH   SFRSYM    DATA     BYTE      P5M0
      000000C9H   SFRSYM    DATA     BYTE      P5M1
      00000088H   SFRSYM    DATA     BYTE      TCON
      00000088H.7 SFRSYM    DATA     BIT       TF1
      00000088H.6 SFRSYM    DATA     BIT       TR1
      00000088H.5 SFRSYM    DATA     BIT       TF0
      00000088H.4 SFRSYM    DATA     BIT       TR0
      00000088H.3 SFRSYM    DATA     BIT       IE1
      00000088H.2 SFRSYM    DATA     BIT       IT1
      00000088H.1 SFRSYM    DATA     BIT       IE0
      00000088H.0 SFRSYM    DATA     BIT       IT0
      00000089H   SFRSYM    DATA     BYTE      TMOD
      0000008AH   SFRSYM    DATA     BYTE      TL0
      0000008CH   SFRSYM    DATA     BYTE      TH0
      0000008BH   SFRSYM    DATA     BYTE      TL1
      0000008DH   SFRSYM    DATA     BYTE      TH1
      00000098H   SFRSYM    DATA     BYTE      SCON
      00000098H.7 SFRSYM    DATA     BIT       SM0
      00000098H.6 SFRSYM    DATA     BIT       SM1
      00000098H.5 SFRSYM    DATA     BIT       SM2
      00000098H.4 SFRSYM    DATA     BIT       REN
      00000098H.3 SFRSYM    DATA     BIT       TB8
      00000098H.2 SFRSYM    DATA     BIT       RB8
      00000098H.1 SFRSYM    DATA     BIT       TI
      00000098H.0 SFRSYM    DATA     BIT       RI
      00000099H   SFRSYM    DATA     BYTE      SBUF
      000000B9H   SFRSYM    DATA     BYTE      SADEN
      000000A9H   SFRSYM    DATA     BYTE      SADDR
      0000009AH   SFRSYM    DATA     BYTE      S2CON
      0000009BH   SFRSYM    DATA     BYTE      S2BUF
      0000009CH   SFRSYM    DATA     BYTE      BRT
      000000C1H   SFRSYM    DATA     BYTE      WDT_CONTR
      000000D8H   SFRSYM    DATA     BYTE      CCON
      000000D8H.7 SFRSYM    DATA     BIT       CF
      000000D8H.6 SFRSYM    DATA     BIT       CR
      000000D8H.1 SFRSYM    DATA     BIT       CCF1
      000000D8H.0 SFRSYM    DATA     BIT       CCF0
      000000D9H   SFRSYM    DATA     BYTE      CMOD
      000000E9H   SFRSYM    DATA     BYTE      CL
      000000F9H   SFRSYM    DATA     BYTE      CH
      000000DAH   SFRSYM    DATA     BYTE      CCAPM0
      000000DBH   SFRSYM    DATA     BYTE      CCAPM1
      000000EAH   SFRSYM    DATA     BYTE      CCAP0L
      000000FAH   SFRSYM    DATA     BYTE      CCAP0H
      000000EBH   SFRSYM    DATA     BYTE      CCAP1L
      000000FBH   SFRSYM    DATA     BYTE      CCAP1H
      000000F2H   SFRSYM    DATA     BYTE      PCA_PWM0
      000000F3H   SFRSYM    DATA     BYTE      PCA_PWM1
      000000BCH   SFRSYM    DATA     BYTE      ADC_CONTR
      000000BDH   SFRSYM    DATA     BYTE      ADC_RES
      000000BEH   SFRSYM    DATA     BYTE      ADC_RESL
      000000CEH   SFRSYM    DATA     BYTE      SPCTL
      000000CDH   SFRSYM    DATA     BYTE      SPSTAT
      000000CFH   SFRSYM    DATA     BYTE      SPDAT
      000000C2H   SFRSYM    DATA     BYTE      IAP_DATA
      000000C3H   SFRSYM    DATA     BYTE      IAP_ADDRH
      000000C4H   SFRSYM    DATA     BYTE      IAP_ADDRL
      000000C5H   SFRSYM    DATA     BYTE      IAP_CMD
      000000C6H   SFRSYM    DATA     BYTE      IAP_TRIG
      000000C7H   SFRSYM    DATA     BYTE      IAP_CONTR

      01007823H   BLOCK     CODE     ---       LVL=0
      01007823H   LINE      ---      ---       #19
LX51 LINKER/LOCATER V4.66.93.0                                                        04/19/2019  09:16:48  PAGE 46


      01007823H   LINE      ---      ---       #20
      01007823H   LINE      ---      ---       #21
      01007826H   LINE      ---      ---       #22
      01007829H   LINE      ---      ---       #23
      0100782CH   LINE      ---      ---       #24
      0100782FH   LINE      ---      ---       #25
      01007832H   LINE      ---      ---       #26
      01007834H   LINE      ---      ---       #27
      01007836H   LINE      ---      ---       #28
      01007838H   LINE      ---      ---       #29
      ---         BLOCKEND  ---      ---       LVL=0

      010087F8H   BLOCK     CODE     ---       LVL=0
      010087F8H   LINE      ---      ---       #33
      010087F8H   LINE      ---      ---       #34
      010087F8H   BLOCK     CODE     NEAR LAB  LVL=1
      010087F8H   LINE      ---      ---       #36
      010087FBH   LINE      ---      ---       #37
      010087FEH   LINE      ---      ---       #39
      01008801H   LINE      ---      ---       #40
      01008804H   LINE      ---      ---       #41
      0100880AH   LINE      ---      ---       #42
      01008819H   LINE      ---      ---       #43
      01008819H   LINE      ---      ---       #44
      0100881DH   LINE      ---      ---       #45
      0100881FH   LINE      ---      ---       #46
      0100881FH   LINE      ---      ---       #47
      0200035CH   SYMBOL    XDATA    WORD      Sub_1_TikCount
      ---         BLOCKEND  CODE     ---       LVL=1
      ---         BLOCKEND  CODE     ---       LVL=0

      ---         MODULE    ---      ---       WS_TASK_MANAGE
      0200024EH   PUBLIC    XDATA    BYTE      WS_TaskState
      020001CEH   PUBLIC    XDATA    ---       WS_TaskMap
      020001CAH   PUBLIC    XDATA    DWORD     WS_TaskIfg
      01009004H   PUBLIC    CODE     ---       _WS_TaskJudge
      01008FF5H   PUBLIC    CODE     ---       _WS_DelTaskIfg
      01007668H   PUBLIC    CODE     ---       _WS_SetTaskIfg

      01007668H   BLOCK     CODE     ---       LVL=0
      01007668H   LINE      ---      ---       #48
      01007668H   LINE      ---      ---       #49
      01007668H   LINE      ---      ---       #50
      00000007H   SYMBOL    DATA     BYTE      Setprio
      ---         BLOCKEND  ---      ---       LVL=0

      01008FF0H   BLOCK     CODE     ---       LVL=0
      01008FF5H   LINE      ---      ---       #54
      01008FF5H   LINE      ---      ---       #55
      01008FF5H   LINE      ---      ---       #56
      01008FF0H   SYMBOL    CODE     NEAR LAB  ?L?COM0031
      00000007H   SYMBOL    DATA     BYTE      DelPrio
      ---         BLOCKEND  ---      ---       LVL=0

      01009004H   BLOCK     CODE     ---       LVL=0
      01009004H   LINE      ---      ---       #60
      01009004H   LINE      ---      ---       #61
      00000007H   SYMBOL    DATA     BYTE      AllPrio
      01009004H   BLOCK     CODE     NEAR LAB  LVL=1
      01009004H   LINE      ---      ---       #62
      01009009H   LINE      ---      ---       #63
      0100901BH   LINE      ---      ---       #64
      0100901BH   LINE      ---      ---       #65
      0100901EH   LINE      ---      ---       #66
      01009020H   LINE      ---      ---       #68
LX51 LINKER/LOCATER V4.66.93.0                                                        04/19/2019  09:16:48  PAGE 47


      01009020H   LINE      ---      ---       #69
      01009025H   LINE      ---      ---       #70
      01009025H   LINE      ---      ---       #71
      0100902AH   LINE      ---      ---       #72
      02000110H   SYMBOL    XDATA    BYTE      res
      ---         BLOCKEND  CODE     ---       LVL=1
      ---         BLOCKEND  CODE     ---       LVL=0

      ---         MODULE    ---      ---       MAIN_TIK_FUNCTION
      01008820H   PUBLIC    CODE     ---       Main_Tik_FunctionS
      000000E0H   SFRSYM    DATA     BYTE      ACC
      000000F0H   SFRSYM    DATA     BYTE      B
      000000D0H   SFRSYM    DATA     BYTE      PSW
      000000D0H.7 SFRSYM    DATA     BIT       CY
      000000D0H.6 SFRSYM    DATA     BIT       AC
      000000D0H.5 SFRSYM    DATA     BIT       F0
      000000D0H.4 SFRSYM    DATA     BIT       RS1
      000000D0H.3 SFRSYM    DATA     BIT       RS0
      000000D0H.2 SFRSYM    DATA     BIT       OV
      000000D0H.0 SFRSYM    DATA     BIT       P
      00000081H   SFRSYM    DATA     BYTE      SP
      00000082H   SFRSYM    DATA     BYTE      DPL
      00000083H   SFRSYM    DATA     BYTE      DPH
      00000087H   SFRSYM    DATA     BYTE      PCON
      0000008EH   SFRSYM    DATA     BYTE      AUXR
      000000A2H   SFRSYM    DATA     BYTE      AUXR1
      0000008FH   SFRSYM    DATA     BYTE      WAKE_CLKO
      00000097H   SFRSYM    DATA     BYTE      CLK_DIV
      000000A1H   SFRSYM    DATA     BYTE      BUS_SPEED
      000000A8H   SFRSYM    DATA     BYTE      IE
      000000A8H.7 SFRSYM    DATA     BIT       EA
      000000A8H.6 SFRSYM    DATA     BIT       ELVD
      000000A8H.5 SFRSYM    DATA     BIT       EADC
      000000A8H.4 SFRSYM    DATA     BIT       ES
      000000A8H.3 SFRSYM    DATA     BIT       ET1
      000000A8H.2 SFRSYM    DATA     BIT       EX1
      000000A8H.1 SFRSYM    DATA     BIT       ET0
      000000A8H.0 SFRSYM    DATA     BIT       EX0
      000000AFH   SFRSYM    DATA     BYTE      IE2
      000000B8H   SFRSYM    DATA     BYTE      IP
      000000B8H.7 SFRSYM    DATA     BIT       PPCA
      000000B8H.6 SFRSYM    DATA     BIT       PLVD
      000000B8H.5 SFRSYM    DATA     BIT       PADC
      000000B8H.4 SFRSYM    DATA     BIT       PS
      000000B8H.3 SFRSYM    DATA     BIT       PT1
      000000B8H.2 SFRSYM    DATA     BIT       PX1
      000000B8H.1 SFRSYM    DATA     BIT       PT0
      000000B8H.0 SFRSYM    DATA     BIT       PX0
      000000B7H   SFRSYM    DATA     BYTE      IPH
      000000B5H   SFRSYM    DATA     BYTE      IP2
      000000B6H   SFRSYM    DATA     BYTE      IPH2
      00000080H   SFRSYM    DATA     BYTE      P0
      00000080H.0 SFRSYM    DATA     BIT       P00
      00000080H.1 SFRSYM    DATA     BIT       P01
      00000080H.2 SFRSYM    DATA     BIT       P02
      00000080H.3 SFRSYM    DATA     BIT       P03
      00000080H.4 SFRSYM    DATA     BIT       P04
      00000080H.5 SFRSYM    DATA     BIT       P05
      00000080H.6 SFRSYM    DATA     BIT       P06
      00000080H.7 SFRSYM    DATA     BIT       P07
      00000094H   SFRSYM    DATA     BYTE      P0M0
      00000093H   SFRSYM    DATA     BYTE      P0M1
      00000090H   SFRSYM    DATA     BYTE      P1
      00000090H.0 SFRSYM    DATA     BIT       P10
      00000090H.1 SFRSYM    DATA     BIT       P11
LX51 LINKER/LOCATER V4.66.93.0                                                        04/19/2019  09:16:48  PAGE 48


      00000090H.2 SFRSYM    DATA     BIT       P12
      00000090H.3 SFRSYM    DATA     BIT       P13
      00000090H.4 SFRSYM    DATA     BIT       P14
      00000090H.5 SFRSYM    DATA     BIT       P15
      00000090H.6 SFRSYM    DATA     BIT       P16
      00000090H.7 SFRSYM    DATA     BIT       P17
      00000092H   SFRSYM    DATA     BYTE      P1M0
      00000091H   SFRSYM    DATA     BYTE      P1M1
      0000009DH   SFRSYM    DATA     BYTE      P1ASF
      000000A0H   SFRSYM    DATA     BYTE      P2
      000000A0H.0 SFRSYM    DATA     BIT       P20
      000000A0H.1 SFRSYM    DATA     BIT       P21
      000000A0H.2 SFRSYM    DATA     BIT       P22
      000000A0H.3 SFRSYM    DATA     BIT       P23
      000000A0H.4 SFRSYM    DATA     BIT       P24
      000000A0H.5 SFRSYM    DATA     BIT       P25
      000000A0H.6 SFRSYM    DATA     BIT       P26
      000000A0H.7 SFRSYM    DATA     BIT       P27
      00000096H   SFRSYM    DATA     BYTE      P2M0
      00000095H   SFRSYM    DATA     BYTE      P2M1
      000000B0H   SFRSYM    DATA     BYTE      P3
      000000B0H.0 SFRSYM    DATA     BIT       P30
      000000B0H.1 SFRSYM    DATA     BIT       P31
      000000B0H.2 SFRSYM    DATA     BIT       P32
      000000B0H.3 SFRSYM    DATA     BIT       P33
      000000B0H.4 SFRSYM    DATA     BIT       P34
      000000B0H.5 SFRSYM    DATA     BIT       P35
      000000B0H.6 SFRSYM    DATA     BIT       P36
      000000B0H.7 SFRSYM    DATA     BIT       P37
      000000B2H   SFRSYM    DATA     BYTE      P3M0
      000000B1H   SFRSYM    DATA     BYTE      P3M1
      000000C0H   SFRSYM    DATA     BYTE      P4
      000000C0H.0 SFRSYM    DATA     BIT       P40
      000000C0H.1 SFRSYM    DATA     BIT       P41
      000000C0H.2 SFRSYM    DATA     BIT       P42
      000000C0H.3 SFRSYM    DATA     BIT       P43
      000000C0H.4 SFRSYM    DATA     BIT       P44
      000000C0H.5 SFRSYM    DATA     BIT       P45
      000000C0H.6 SFRSYM    DATA     BIT       P46
      000000C0H.7 SFRSYM    DATA     BIT       P47
      000000B4H   SFRSYM    DATA     BYTE      P4M0
      000000B3H   SFRSYM    DATA     BYTE      P4M1
      000000BBH   SFRSYM    DATA     BYTE      P4SW
      000000C8H   SFRSYM    DATA     BYTE      P5
      000000CAH   SFRSYM    DATA     BYTE      P5M0
      000000C9H   SFRSYM    DATA     BYTE      P5M1
      00000088H   SFRSYM    DATA     BYTE      TCON
      00000088H.7 SFRSYM    DATA     BIT       TF1
      00000088H.6 SFRSYM    DATA     BIT       TR1
      00000088H.5 SFRSYM    DATA     BIT       TF0
      00000088H.4 SFRSYM    DATA     BIT       TR0
      00000088H.3 SFRSYM    DATA     BIT       IE1
      00000088H.2 SFRSYM    DATA     BIT       IT1
      00000088H.1 SFRSYM    DATA     BIT       IE0
      00000088H.0 SFRSYM    DATA     BIT       IT0
      00000089H   SFRSYM    DATA     BYTE      TMOD
      0000008AH   SFRSYM    DATA     BYTE      TL0
      0000008CH   SFRSYM    DATA     BYTE      TH0
      0000008BH   SFRSYM    DATA     BYTE      TL1
      0000008DH   SFRSYM    DATA     BYTE      TH1
      00000098H   SFRSYM    DATA     BYTE      SCON
      00000098H.7 SFRSYM    DATA     BIT       SM0
      00000098H.6 SFRSYM    DATA     BIT       SM1
      00000098H.5 SFRSYM    DATA     BIT       SM2
      00000098H.4 SFRSYM    DATA     BIT       REN
LX51 LINKER/LOCATER V4.66.93.0                                                        04/19/2019  09:16:48  PAGE 49


      00000098H.3 SFRSYM    DATA     BIT       TB8
      00000098H.2 SFRSYM    DATA     BIT       RB8
      00000098H.1 SFRSYM    DATA     BIT       TI
      00000098H.0 SFRSYM    DATA     BIT       RI
      00000099H   SFRSYM    DATA     BYTE      SBUF
      000000B9H   SFRSYM    DATA     BYTE      SADEN
      000000A9H   SFRSYM    DATA     BYTE      SADDR
      0000009AH   SFRSYM    DATA     BYTE      S2CON
      0000009BH   SFRSYM    DATA     BYTE      S2BUF
      0000009CH   SFRSYM    DATA     BYTE      BRT
      000000C1H   SFRSYM    DATA     BYTE      WDT_CONTR
      000000D8H   SFRSYM    DATA     BYTE      CCON
      000000D8H.7 SFRSYM    DATA     BIT       CF
      000000D8H.6 SFRSYM    DATA     BIT       CR
      000000D8H.1 SFRSYM    DATA     BIT       CCF1
      000000D8H.0 SFRSYM    DATA     BIT       CCF0
      000000D9H   SFRSYM    DATA     BYTE      CMOD
      000000E9H   SFRSYM    DATA     BYTE      CL
      000000F9H   SFRSYM    DATA     BYTE      CH
      000000DAH   SFRSYM    DATA     BYTE      CCAPM0
      000000DBH   SFRSYM    DATA     BYTE      CCAPM1
      000000EAH   SFRSYM    DATA     BYTE      CCAP0L
      000000FAH   SFRSYM    DATA     BYTE      CCAP0H
      000000EBH   SFRSYM    DATA     BYTE      CCAP1L
      000000FBH   SFRSYM    DATA     BYTE      CCAP1H
      000000F2H   SFRSYM    DATA     BYTE      PCA_PWM0
      000000F3H   SFRSYM    DATA     BYTE      PCA_PWM1
      000000BCH   SFRSYM    DATA     BYTE      ADC_CONTR
      000000BDH   SFRSYM    DATA     BYTE      ADC_RES
      000000BEH   SFRSYM    DATA     BYTE      ADC_RESL
      000000CEH   SFRSYM    DATA     BYTE      SPCTL
      000000CDH   SFRSYM    DATA     BYTE      SPSTAT
      000000CFH   SFRSYM    DATA     BYTE      SPDAT
      000000C2H   SFRSYM    DATA     BYTE      IAP_DATA
      000000C3H   SFRSYM    DATA     BYTE      IAP_ADDRH
      000000C4H   SFRSYM    DATA     BYTE      IAP_ADDRL
      000000C5H   SFRSYM    DATA     BYTE      IAP_CMD
      000000C6H   SFRSYM    DATA     BYTE      IAP_TRIG
      000000C7H   SFRSYM    DATA     BYTE      IAP_CONTR

      01008820H   BLOCK     CODE     ---       LVL=0
      01008820H   LINE      ---      ---       #6
      01008820H   LINE      ---      ---       #7
      01008820H   LINE      ---      ---       #8
      ---         BLOCKEND  ---      ---       LVL=0

      ---         MODULE    ---      ---       SUB_TIK_FUNCTION
      0100892AH   PUBLIC    CODE     ---       Sub_Tik_FunctionS
      000000E0H   SFRSYM    DATA     BYTE      ACC
      000000F0H   SFRSYM    DATA     BYTE      B
      000000D0H   SFRSYM    DATA     BYTE      PSW
      000000D0H.7 SFRSYM    DATA     BIT       CY
      000000D0H.6 SFRSYM    DATA     BIT       AC
      000000D0H.5 SFRSYM    DATA     BIT       F0
      000000D0H.4 SFRSYM    DATA     BIT       RS1
      000000D0H.3 SFRSYM    DATA     BIT       RS0
      000000D0H.2 SFRSYM    DATA     BIT       OV
      000000D0H.0 SFRSYM    DATA     BIT       P
      00000081H   SFRSYM    DATA     BYTE      SP
      00000082H   SFRSYM    DATA     BYTE      DPL
      00000083H   SFRSYM    DATA     BYTE      DPH
      00000087H   SFRSYM    DATA     BYTE      PCON
      0000008EH   SFRSYM    DATA     BYTE      AUXR
      000000A2H   SFRSYM    DATA     BYTE      AUXR1
      0000008FH   SFRSYM    DATA     BYTE      WAKE_CLKO
LX51 LINKER/LOCATER V4.66.93.0                                                        04/19/2019  09:16:48  PAGE 50


      00000097H   SFRSYM    DATA     BYTE      CLK_DIV
      000000A1H   SFRSYM    DATA     BYTE      BUS_SPEED
      000000A8H   SFRSYM    DATA     BYTE      IE
      000000A8H.7 SFRSYM    DATA     BIT       EA
      000000A8H.6 SFRSYM    DATA     BIT       ELVD
      000000A8H.5 SFRSYM    DATA     BIT       EADC
      000000A8H.4 SFRSYM    DATA     BIT       ES
      000000A8H.3 SFRSYM    DATA     BIT       ET1
      000000A8H.2 SFRSYM    DATA     BIT       EX1
      000000A8H.1 SFRSYM    DATA     BIT       ET0
      000000A8H.0 SFRSYM    DATA     BIT       EX0
      000000AFH   SFRSYM    DATA     BYTE      IE2
      000000B8H   SFRSYM    DATA     BYTE      IP
      000000B8H.7 SFRSYM    DATA     BIT       PPCA
      000000B8H.6 SFRSYM    DATA     BIT       PLVD
      000000B8H.5 SFRSYM    DATA     BIT       PADC
      000000B8H.4 SFRSYM    DATA     BIT       PS
      000000B8H.3 SFRSYM    DATA     BIT       PT1
      000000B8H.2 SFRSYM    DATA     BIT       PX1
      000000B8H.1 SFRSYM    DATA     BIT       PT0
      000000B8H.0 SFRSYM    DATA     BIT       PX0
      000000B7H   SFRSYM    DATA     BYTE      IPH
      000000B5H   SFRSYM    DATA     BYTE      IP2
      000000B6H   SFRSYM    DATA     BYTE      IPH2
      00000080H   SFRSYM    DATA     BYTE      P0
      00000080H.0 SFRSYM    DATA     BIT       P00
      00000080H.1 SFRSYM    DATA     BIT       P01
      00000080H.2 SFRSYM    DATA     BIT       P02
      00000080H.3 SFRSYM    DATA     BIT       P03
      00000080H.4 SFRSYM    DATA     BIT       P04
      00000080H.5 SFRSYM    DATA     BIT       P05
      00000080H.6 SFRSYM    DATA     BIT       P06
      00000080H.7 SFRSYM    DATA     BIT       P07
      00000094H   SFRSYM    DATA     BYTE      P0M0
      00000093H   SFRSYM    DATA     BYTE      P0M1
      00000090H   SFRSYM    DATA     BYTE      P1
      00000090H.0 SFRSYM    DATA     BIT       P10
      00000090H.1 SFRSYM    DATA     BIT       P11
      00000090H.2 SFRSYM    DATA     BIT       P12
      00000090H.3 SFRSYM    DATA     BIT       P13
      00000090H.4 SFRSYM    DATA     BIT       P14
      00000090H.5 SFRSYM    DATA     BIT       P15
      00000090H.6 SFRSYM    DATA     BIT       P16
      00000090H.7 SFRSYM    DATA     BIT       P17
      00000092H   SFRSYM    DATA     BYTE      P1M0
      00000091H   SFRSYM    DATA     BYTE      P1M1
      0000009DH   SFRSYM    DATA     BYTE      P1ASF
      000000A0H   SFRSYM    DATA     BYTE      P2
      000000A0H.0 SFRSYM    DATA     BIT       P20
      000000A0H.1 SFRSYM    DATA     BIT       P21
      000000A0H.2 SFRSYM    DATA     BIT       P22
      000000A0H.3 SFRSYM    DATA     BIT       P23
      000000A0H.4 SFRSYM    DATA     BIT       P24
      000000A0H.5 SFRSYM    DATA     BIT       P25
      000000A0H.6 SFRSYM    DATA     BIT       P26
      000000A0H.7 SFRSYM    DATA     BIT       P27
      00000096H   SFRSYM    DATA     BYTE      P2M0
      00000095H   SFRSYM    DATA     BYTE      P2M1
      000000B0H   SFRSYM    DATA     BYTE      P3
      000000B0H.0 SFRSYM    DATA     BIT       P30
      000000B0H.1 SFRSYM    DATA     BIT       P31
      000000B0H.2 SFRSYM    DATA     BIT       P32
      000000B0H.3 SFRSYM    DATA     BIT       P33
      000000B0H.4 SFRSYM    DATA     BIT       P34
      000000B0H.5 SFRSYM    DATA     BIT       P35
LX51 LINKER/LOCATER V4.66.93.0                                                        04/19/2019  09:16:48  PAGE 51


      000000B0H.6 SFRSYM    DATA     BIT       P36
      000000B0H.7 SFRSYM    DATA     BIT       P37
      000000B2H   SFRSYM    DATA     BYTE      P3M0
      000000B1H   SFRSYM    DATA     BYTE      P3M1
      000000C0H   SFRSYM    DATA     BYTE      P4
      000000C0H.0 SFRSYM    DATA     BIT       P40
      000000C0H.1 SFRSYM    DATA     BIT       P41
      000000C0H.2 SFRSYM    DATA     BIT       P42
      000000C0H.3 SFRSYM    DATA     BIT       P43
      000000C0H.4 SFRSYM    DATA     BIT       P44
      000000C0H.5 SFRSYM    DATA     BIT       P45
      000000C0H.6 SFRSYM    DATA     BIT       P46
      000000C0H.7 SFRSYM    DATA     BIT       P47
      000000B4H   SFRSYM    DATA     BYTE      P4M0
      000000B3H   SFRSYM    DATA     BYTE      P4M1
      000000BBH   SFRSYM    DATA     BYTE      P4SW
      000000C8H   SFRSYM    DATA     BYTE      P5
      000000CAH   SFRSYM    DATA     BYTE      P5M0
      000000C9H   SFRSYM    DATA     BYTE      P5M1
      00000088H   SFRSYM    DATA     BYTE      TCON
      00000088H.7 SFRSYM    DATA     BIT       TF1
      00000088H.6 SFRSYM    DATA     BIT       TR1
      00000088H.5 SFRSYM    DATA     BIT       TF0
      00000088H.4 SFRSYM    DATA     BIT       TR0
      00000088H.3 SFRSYM    DATA     BIT       IE1
      00000088H.2 SFRSYM    DATA     BIT       IT1
      00000088H.1 SFRSYM    DATA     BIT       IE0
      00000088H.0 SFRSYM    DATA     BIT       IT0
      00000089H   SFRSYM    DATA     BYTE      TMOD
      0000008AH   SFRSYM    DATA     BYTE      TL0
      0000008CH   SFRSYM    DATA     BYTE      TH0
      0000008BH   SFRSYM    DATA     BYTE      TL1
      0000008DH   SFRSYM    DATA     BYTE      TH1
      00000098H   SFRSYM    DATA     BYTE      SCON
      00000098H.7 SFRSYM    DATA     BIT       SM0
      00000098H.6 SFRSYM    DATA     BIT       SM1
      00000098H.5 SFRSYM    DATA     BIT       SM2
      00000098H.4 SFRSYM    DATA     BIT       REN
      00000098H.3 SFRSYM    DATA     BIT       TB8
      00000098H.2 SFRSYM    DATA     BIT       RB8
      00000098H.1 SFRSYM    DATA     BIT       TI
      00000098H.0 SFRSYM    DATA     BIT       RI
      00000099H   SFRSYM    DATA     BYTE      SBUF
      000000B9H   SFRSYM    DATA     BYTE      SADEN
      000000A9H   SFRSYM    DATA     BYTE      SADDR
      0000009AH   SFRSYM    DATA     BYTE      S2CON
      0000009BH   SFRSYM    DATA     BYTE      S2BUF
      0000009CH   SFRSYM    DATA     BYTE      BRT
      000000C1H   SFRSYM    DATA     BYTE      WDT_CONTR
      000000D8H   SFRSYM    DATA     BYTE      CCON
      000000D8H.7 SFRSYM    DATA     BIT       CF
      000000D8H.6 SFRSYM    DATA     BIT       CR
      000000D8H.1 SFRSYM    DATA     BIT       CCF1
      000000D8H.0 SFRSYM    DATA     BIT       CCF0
      000000D9H   SFRSYM    DATA     BYTE      CMOD
      000000E9H   SFRSYM    DATA     BYTE      CL
      000000F9H   SFRSYM    DATA     BYTE      CH
      000000DAH   SFRSYM    DATA     BYTE      CCAPM0
      000000DBH   SFRSYM    DATA     BYTE      CCAPM1
      000000EAH   SFRSYM    DATA     BYTE      CCAP0L
      000000FAH   SFRSYM    DATA     BYTE      CCAP0H
      000000EBH   SFRSYM    DATA     BYTE      CCAP1L
      000000FBH   SFRSYM    DATA     BYTE      CCAP1H
      000000F2H   SFRSYM    DATA     BYTE      PCA_PWM0
      000000F3H   SFRSYM    DATA     BYTE      PCA_PWM1
LX51 LINKER/LOCATER V4.66.93.0                                                        04/19/2019  09:16:48  PAGE 52


      000000BCH   SFRSYM    DATA     BYTE      ADC_CONTR
      000000BDH   SFRSYM    DATA     BYTE      ADC_RES
      000000BEH   SFRSYM    DATA     BYTE      ADC_RESL
      000000CEH   SFRSYM    DATA     BYTE      SPCTL
      000000CDH   SFRSYM    DATA     BYTE      SPSTAT
      000000CFH   SFRSYM    DATA     BYTE      SPDAT
      000000C2H   SFRSYM    DATA     BYTE      IAP_DATA
      000000C3H   SFRSYM    DATA     BYTE      IAP_ADDRH
      000000C4H   SFRSYM    DATA     BYTE      IAP_ADDRL
      000000C5H   SFRSYM    DATA     BYTE      IAP_CMD
      000000C6H   SFRSYM    DATA     BYTE      IAP_TRIG
      000000C7H   SFRSYM    DATA     BYTE      IAP_CONTR

      0100892AH   BLOCK     CODE     ---       LVL=0
      0100892AH   LINE      ---      ---       #8
      0100892AH   LINE      ---      ---       #9
      0100892AH   LINE      ---      ---       #10
      0100892DH   LINE      ---      ---       #11
      01008930H   LINE      ---      ---       #12
      01008933H   LINE      ---      ---       #13
      01008936H   LINE      ---      ---       #15
      01008939H   LINE      ---      ---       #16
      0100893CH   LINE      ---      ---       #17
      ---         BLOCKEND  ---      ---       LVL=0

      ---         MODULE    ---      ---       NORMAL_TASK
      0200032EH   PUBLIC    XDATA    BYTE      Work_State
      01009789H   PUBLIC    CODE     ---       UartRecTask
      01009779H   PUBLIC    CODE     ---       SaveDateToFlashTask
      01009769H   PUBLIC    CODE     ---       LowTempDet1STask
      01009759H   PUBLIC    CODE     ---       AlarmErrorTask
      01009749H   PUBLIC    CODE     ---       HeaterWireModeDetTask
      01009739H   PUBLIC    CODE     ---       LowPowerModeTask
      01009857H   PUBLIC    CODE     ---       HeaterWireControlTask
      010097BCH   PUBLIC    CODE     ---       RefreshRTCTimeTask
      010097ABH   PUBLIC    CODE     ---       RefreshRunTimeTask
      01009799H   PUBLIC    CODE     ---       RefreshTempHumidyTask
      01009729H   PUBLIC    CODE     ---       GetTempHumidity_PatientTask
      01009846H   PUBLIC    CODE     ---       GetTemp_HpChamberTask
      01009835H   PUBLIC    CODE     ---       HmiScreenSaverModeTask
      0100921AH   PUBLIC    CODE     ---       HmiSetTimeTask
      0100920AH   PUBLIC    CODE     ---       HmiSetInExpTask
      010091FAH   PUBLIC    CODE     ---       HmiSetTempChamberTask
      010091EAH   PUBLIC    CODE     ---       HmiSetTempPatientTask
      010091DAH   PUBLIC    CODE     ---       HmiRunningTask
      01009824H   PUBLIC    CODE     ---       HmiNon_InvasiveSelTask
      01009813H   PUBLIC    CODE     ---       HmiFactoryDefaultSelTask
      01009802H   PUBLIC    CODE     ---       HmiPostTask
      010097F2H   PUBLIC    CODE     ---       HmiServiceModeTask
      0100902BH   PUBLIC    CODE     ---       KeyScanTask
      010074C6H   PUBLIC    CODE     ---       ManageTask
      000000E0H   SFRSYM    DATA     BYTE      ACC
      000000F0H   SFRSYM    DATA     BYTE      B
      000000D0H   SFRSYM    DATA     BYTE      PSW
      000000D0H.7 SFRSYM    DATA     BIT       CY
      000000D0H.6 SFRSYM    DATA     BIT       AC
      000000D0H.5 SFRSYM    DATA     BIT       F0
      000000D0H.4 SFRSYM    DATA     BIT       RS1
      000000D0H.3 SFRSYM    DATA     BIT       RS0
      000000D0H.2 SFRSYM    DATA     BIT       OV
      000000D0H.0 SFRSYM    DATA     BIT       P
      00000081H   SFRSYM    DATA     BYTE      SP
      00000082H   SFRSYM    DATA     BYTE      DPL
      00000083H   SFRSYM    DATA     BYTE      DPH
      00000087H   SFRSYM    DATA     BYTE      PCON
LX51 LINKER/LOCATER V4.66.93.0                                                        04/19/2019  09:16:48  PAGE 53


      0000008EH   SFRSYM    DATA     BYTE      AUXR
      000000A2H   SFRSYM    DATA     BYTE      AUXR1
      0000008FH   SFRSYM    DATA     BYTE      WAKE_CLKO
      00000097H   SFRSYM    DATA     BYTE      CLK_DIV
      000000A1H   SFRSYM    DATA     BYTE      BUS_SPEED
      000000A8H   SFRSYM    DATA     BYTE      IE
      000000A8H.7 SFRSYM    DATA     BIT       EA
      000000A8H.6 SFRSYM    DATA     BIT       ELVD
      000000A8H.5 SFRSYM    DATA     BIT       EADC
      000000A8H.4 SFRSYM    DATA     BIT       ES
      000000A8H.3 SFRSYM    DATA     BIT       ET1
      000000A8H.2 SFRSYM    DATA     BIT       EX1
      000000A8H.1 SFRSYM    DATA     BIT       ET0
      000000A8H.0 SFRSYM    DATA     BIT       EX0
      000000AFH   SFRSYM    DATA     BYTE      IE2
      000000B8H   SFRSYM    DATA     BYTE      IP
      000000B8H.7 SFRSYM    DATA     BIT       PPCA
      000000B8H.6 SFRSYM    DATA     BIT       PLVD
      000000B8H.5 SFRSYM    DATA     BIT       PADC
      000000B8H.4 SFRSYM    DATA     BIT       PS
      000000B8H.3 SFRSYM    DATA     BIT       PT1
      000000B8H.2 SFRSYM    DATA     BIT       PX1
      000000B8H.1 SFRSYM    DATA     BIT       PT0
      000000B8H.0 SFRSYM    DATA     BIT       PX0
      000000B7H   SFRSYM    DATA     BYTE      IPH
      000000B5H   SFRSYM    DATA     BYTE      IP2
      000000B6H   SFRSYM    DATA     BYTE      IPH2
      00000080H   SFRSYM    DATA     BYTE      P0
      00000080H.0 SFRSYM    DATA     BIT       P00
      00000080H.1 SFRSYM    DATA     BIT       P01
      00000080H.2 SFRSYM    DATA     BIT       P02
      00000080H.3 SFRSYM    DATA     BIT       P03
      00000080H.4 SFRSYM    DATA     BIT       P04
      00000080H.5 SFRSYM    DATA     BIT       P05
      00000080H.6 SFRSYM    DATA     BIT       P06
      00000080H.7 SFRSYM    DATA     BIT       P07
      00000094H   SFRSYM    DATA     BYTE      P0M0
      00000093H   SFRSYM    DATA     BYTE      P0M1
      00000090H   SFRSYM    DATA     BYTE      P1
      00000090H.0 SFRSYM    DATA     BIT       P10
      00000090H.1 SFRSYM    DATA     BIT       P11
      00000090H.2 SFRSYM    DATA     BIT       P12
      00000090H.3 SFRSYM    DATA     BIT       P13
      00000090H.4 SFRSYM    DATA     BIT       P14
      00000090H.5 SFRSYM    DATA     BIT       P15
      00000090H.6 SFRSYM    DATA     BIT       P16
      00000090H.7 SFRSYM    DATA     BIT       P17
      00000092H   SFRSYM    DATA     BYTE      P1M0
      00000091H   SFRSYM    DATA     BYTE      P1M1
      0000009DH   SFRSYM    DATA     BYTE      P1ASF
      000000A0H   SFRSYM    DATA     BYTE      P2
      000000A0H.0 SFRSYM    DATA     BIT       P20
      000000A0H.1 SFRSYM    DATA     BIT       P21
      000000A0H.2 SFRSYM    DATA     BIT       P22
      000000A0H.3 SFRSYM    DATA     BIT       P23
      000000A0H.4 SFRSYM    DATA     BIT       P24
      000000A0H.5 SFRSYM    DATA     BIT       P25
      000000A0H.6 SFRSYM    DATA     BIT       P26
      000000A0H.7 SFRSYM    DATA     BIT       P27
      00000096H   SFRSYM    DATA     BYTE      P2M0
      00000095H   SFRSYM    DATA     BYTE      P2M1
      000000B0H   SFRSYM    DATA     BYTE      P3
      000000B0H.0 SFRSYM    DATA     BIT       P30
      000000B0H.1 SFRSYM    DATA     BIT       P31
      000000B0H.2 SFRSYM    DATA     BIT       P32
LX51 LINKER/LOCATER V4.66.93.0                                                        04/19/2019  09:16:48  PAGE 54


      000000B0H.3 SFRSYM    DATA     BIT       P33
      000000B0H.4 SFRSYM    DATA     BIT       P34
      000000B0H.5 SFRSYM    DATA     BIT       P35
      000000B0H.6 SFRSYM    DATA     BIT       P36
      000000B0H.7 SFRSYM    DATA     BIT       P37
      000000B2H   SFRSYM    DATA     BYTE      P3M0
      000000B1H   SFRSYM    DATA     BYTE      P3M1
      000000C0H   SFRSYM    DATA     BYTE      P4
      000000C0H.0 SFRSYM    DATA     BIT       P40
      000000C0H.1 SFRSYM    DATA     BIT       P41
      000000C0H.2 SFRSYM    DATA     BIT       P42
      000000C0H.3 SFRSYM    DATA     BIT       P43
      000000C0H.4 SFRSYM    DATA     BIT       P44
      000000C0H.5 SFRSYM    DATA     BIT       P45
      000000C0H.6 SFRSYM    DATA     BIT       P46
      000000C0H.7 SFRSYM    DATA     BIT       P47
      000000B4H   SFRSYM    DATA     BYTE      P4M0
      000000B3H   SFRSYM    DATA     BYTE      P4M1
      000000BBH   SFRSYM    DATA     BYTE      P4SW
      000000C8H   SFRSYM    DATA     BYTE      P5
      000000CAH   SFRSYM    DATA     BYTE      P5M0
      000000C9H   SFRSYM    DATA     BYTE      P5M1
      00000088H   SFRSYM    DATA     BYTE      TCON
      00000088H.7 SFRSYM    DATA     BIT       TF1
      00000088H.6 SFRSYM    DATA     BIT       TR1
      00000088H.5 SFRSYM    DATA     BIT       TF0
      00000088H.4 SFRSYM    DATA     BIT       TR0
      00000088H.3 SFRSYM    DATA     BIT       IE1
      00000088H.2 SFRSYM    DATA     BIT       IT1
      00000088H.1 SFRSYM    DATA     BIT       IE0
      00000088H.0 SFRSYM    DATA     BIT       IT0
      00000089H   SFRSYM    DATA     BYTE      TMOD
      0000008AH   SFRSYM    DATA     BYTE      TL0
      0000008CH   SFRSYM    DATA     BYTE      TH0
      0000008BH   SFRSYM    DATA     BYTE      TL1
      0000008DH   SFRSYM    DATA     BYTE      TH1
      00000098H   SFRSYM    DATA     BYTE      SCON
      00000098H.7 SFRSYM    DATA     BIT       SM0
      00000098H.6 SFRSYM    DATA     BIT       SM1
      00000098H.5 SFRSYM    DATA     BIT       SM2
      00000098H.4 SFRSYM    DATA     BIT       REN
      00000098H.3 SFRSYM    DATA     BIT       TB8
      00000098H.2 SFRSYM    DATA     BIT       RB8
      00000098H.1 SFRSYM    DATA     BIT       TI
      00000098H.0 SFRSYM    DATA     BIT       RI
      00000099H   SFRSYM    DATA     BYTE      SBUF
      000000B9H   SFRSYM    DATA     BYTE      SADEN
      000000A9H   SFRSYM    DATA     BYTE      SADDR
      0000009AH   SFRSYM    DATA     BYTE      S2CON
      0000009BH   SFRSYM    DATA     BYTE      S2BUF
      0000009CH   SFRSYM    DATA     BYTE      BRT
      000000C1H   SFRSYM    DATA     BYTE      WDT_CONTR
      000000D8H   SFRSYM    DATA     BYTE      CCON
      000000D8H.7 SFRSYM    DATA     BIT       CF
      000000D8H.6 SFRSYM    DATA     BIT       CR
      000000D8H.1 SFRSYM    DATA     BIT       CCF1
      000000D8H.0 SFRSYM    DATA     BIT       CCF0
      000000D9H   SFRSYM    DATA     BYTE      CMOD
      000000E9H   SFRSYM    DATA     BYTE      CL
      000000F9H   SFRSYM    DATA     BYTE      CH
      000000DAH   SFRSYM    DATA     BYTE      CCAPM0
      000000DBH   SFRSYM    DATA     BYTE      CCAPM1
      000000EAH   SFRSYM    DATA     BYTE      CCAP0L
      000000FAH   SFRSYM    DATA     BYTE      CCAP0H
      000000EBH   SFRSYM    DATA     BYTE      CCAP1L
LX51 LINKER/LOCATER V4.66.93.0                                                        04/19/2019  09:16:48  PAGE 55


      000000FBH   SFRSYM    DATA     BYTE      CCAP1H
      000000F2H   SFRSYM    DATA     BYTE      PCA_PWM0
      000000F3H   SFRSYM    DATA     BYTE      PCA_PWM1
      000000BCH   SFRSYM    DATA     BYTE      ADC_CONTR
      000000BDH   SFRSYM    DATA     BYTE      ADC_RES
      000000BEH   SFRSYM    DATA     BYTE      ADC_RESL
      000000CEH   SFRSYM    DATA     BYTE      SPCTL
      000000CDH   SFRSYM    DATA     BYTE      SPSTAT
      000000CFH   SFRSYM    DATA     BYTE      SPDAT
      000000C2H   SFRSYM    DATA     BYTE      IAP_DATA
      000000C3H   SFRSYM    DATA     BYTE      IAP_ADDRH
      000000C4H   SFRSYM    DATA     BYTE      IAP_ADDRL
      000000C5H   SFRSYM    DATA     BYTE      IAP_CMD
      000000C6H   SFRSYM    DATA     BYTE      IAP_TRIG
      000000C7H   SFRSYM    DATA     BYTE      IAP_CONTR

      010074C6H   BLOCK     CODE     ---       LVL=0
      010074C6H   LINE      ---      ---       #12
      010074C6H   LINE      ---      ---       #13
      010074C6H   BLOCK     CODE     NEAR LAB  LVL=1
      010074C6H   LINE      ---      ---       #18
      010074D1H   LINE      ---      ---       #20
      010074D1H   LINE      ---      ---       #21
      010074D4H   LINE      ---      ---       #22
      010074D4H   LINE      ---      ---       #24
      010074D8H   LINE      ---      ---       #25
      010074DCH   LINE      ---      ---       #27
      010074E7H   LINE      ---      ---       #28
      010074E7H   LINE      ---      ---       #29
      010074EAH   LINE      ---      ---       #30
      010074EAH   LINE      ---      ---       #31
      010074EEH   LINE      ---      ---       #32
      010074F2H   LINE      ---      ---       #33
      010074F2H   LINE      ---      ---       #35
      010074F7H   LINE      ---      ---       #36
      0100750AH   LINE      ---      ---       #37
      0100750AH   LINE      ---      ---       #38
      01007511H   LINE      ---      ---       #41
      01007511H   LINE      ---      ---       #42
      01007513H   LINE      ---      ---       #43
      01007515H   LINE      ---      ---       #44
      0100751DH   LINE      ---      ---       #45
      0100751DH   LINE      ---      ---       #46
      0100751FH   LINE      ---      ---       #47
      01007521H   LINE      ---      ---       #48
      01007529H   LINE      ---      ---       #49
      01007529H   LINE      ---      ---       #50
      0100752BH   LINE      ---      ---       #51
      0100752DH   LINE      ---      ---       #52
      01007535H   LINE      ---      ---       #53
      01007535H   LINE      ---      ---       #54
      01007537H   LINE      ---      ---       #55
      01007539H   LINE      ---      ---       #56
      01007541H   LINE      ---      ---       #57
      01007541H   LINE      ---      ---       #58
      01007543H   LINE      ---      ---       #59
      01007545H   LINE      ---      ---       #60
      0100754DH   LINE      ---      ---       #61
      0100754DH   LINE      ---      ---       #62
      0100754FH   LINE      ---      ---       #63
      01007551H   LINE      ---      ---       #64
      01007559H   LINE      ---      ---       #65
      01007559H   LINE      ---      ---       #66
      0100755BH   LINE      ---      ---       #67
      0100755DH   LINE      ---      ---       #68
LX51 LINKER/LOCATER V4.66.93.0                                                        04/19/2019  09:16:48  PAGE 56


      01007565H   LINE      ---      ---       #69
      01007565H   LINE      ---      ---       #70
      01007567H   LINE      ---      ---       #71
      01007569H   LINE      ---      ---       #72
      01007571H   LINE      ---      ---       #73
      01007571H   LINE      ---      ---       #74
      01007575H   LINE      ---      ---       #75
      01007575H   LINE      ---      ---       #77
      01007575H   LINE      ---      ---       #79
      01007575H   LINE      ---      ---       #81
      0100758FH   LINE      ---      ---       #86
      0100758FH   LINE      ---      ---       #87
      01007593H   LINE      ---      ---       #88
      01007593H   LINE      ---      ---       #91
      010075B2H   LINE      ---      ---       #96
      010075B2H   LINE      ---      ---       #97
      010075BEH   LINE      ---      ---       #99
      010075BEH   LINE      ---      ---       #100
      010075C2H   LINE      ---      ---       #101
      010075C2H   LINE      ---      ---       #102
      010075C2H   LINE      ---      ---       #103
      010075C2H   LINE      ---      ---       #106
      010075C7H   LINE      ---      ---       #107
      010075D8H   LINE      ---      ---       #108
      010075D8H   LINE      ---      ---       #109
      010075EBH   LINE      ---      ---       #113
      010075EBH   LINE      ---      ---       #114
      010075F7H   LINE      ---      ---       #116
      010075F7H   LINE      ---      ---       #117
      010075FBH   LINE      ---      ---       #118
      010075FBH   LINE      ---      ---       #119
      010075FBH   LINE      ---      ---       #121
      01007615H   LINE      ---      ---       #126
      01007615H   LINE      ---      ---       #127
      01007619H   LINE      ---      ---       #128
      01007619H   LINE      ---      ---       #129
      01007619H   LINE      ---      ---       #132
      0100761EH   LINE      ---      ---       #133
      0100762FH   LINE      ---      ---       #134
      0100762FH   LINE      ---      ---       #135
      0100764FH   LINE      ---      ---       #142
      0100764FH   LINE      ---      ---       #143
      01007653H   LINE      ---      ---       #144
      01007657H   LINE      ---      ---       #145
      0100765BH   LINE      ---      ---       #146
      0100765FH   LINE      ---      ---       #147
      01007663H   LINE      ---      ---       #148
      01007667H   LINE      ---      ---       #149
      01007667H   LINE      ---      ---       #150
      01007667H   LINE      ---      ---       #151
      01007667H   LINE      ---      ---       #152
      01007667H   LINE      ---      ---       #153
      01007667H   LINE      ---      ---       #154
      020002D3H   SYMBOL    XDATA    INT       Manage_Tik_100mS_Cnt
      020002D5H   SYMBOL    XDATA    INT       Manage_Tik_250mS_Cnt
      020002D7H   SYMBOL    XDATA    INT       Manage_Tik_1000mS_Cnt
      ---         BLOCKEND  CODE     ---       LVL=1
      ---         BLOCKEND  CODE     ---       LVL=0

      0100902BH   BLOCK     CODE     ---       LVL=0
      0100902BH   LINE      ---      ---       #157
      0100902BH   LINE      ---      ---       #158
      0100902BH   BLOCK     CODE     NEAR LAB  LVL=1
      0100902BH   LINE      ---      ---       #230
      01009036H   LINE      ---      ---       #232
LX51 LINKER/LOCATER V4.66.93.0                                                        04/19/2019  09:16:48  PAGE 57


      01009036H   LINE      ---      ---       #233
      01009039H   LINE      ---      ---       #234
      01009039H   LINE      ---      ---       #235
      0100903DH   LINE      ---      ---       #238
      01009043H   LINE      ---      ---       #239
      01009043H   LINE      ---      ---       #240
      01009046H   LINE      ---      ---       #241
      01009048H   LINE      ---      ---       #243
      01009048H   LINE      ---      ---       #244
      0100904BH   LINE      ---      ---       #245
      0100904BH   LINE      ---      ---       #246
      01009059H   LINE      ---      ---       #248
      0100905DH   LINE      ---      ---       #249
      01009063H   LINE      ---      ---       #250
      01009063H   LINE      ---      ---       #251
      01009066H   LINE      ---      ---       #252
      01009068H   LINE      ---      ---       #254
      01009068H   LINE      ---      ---       #255
      0100906BH   LINE      ---      ---       #256
      0100906BH   LINE      ---      ---       #258
      01009079H   LINE      ---      ---       #260
      0100907DH   LINE      ---      ---       #262
      01009083H   LINE      ---      ---       #263
      01009083H   LINE      ---      ---       #264
      01009086H   LINE      ---      ---       #265
      01009088H   LINE      ---      ---       #267
      01009088H   LINE      ---      ---       #268
      0100908BH   LINE      ---      ---       #269
      0100908BH   LINE      ---      ---       #271
      01009099H   LINE      ---      ---       #273
      0100909DH   LINE      ---      ---       #275
      010090A3H   LINE      ---      ---       #276
      010090A3H   LINE      ---      ---       #277
      010090A6H   LINE      ---      ---       #278
      010090A8H   LINE      ---      ---       #280
      010090A8H   LINE      ---      ---       #281
      010090ABH   LINE      ---      ---       #282
      010090ABH   LINE      ---      ---       #284
      010090B9H   LINE      ---      ---       #285
      010090B9H   LINE      ---      ---       #286
      010090B9H   LINE      ---      ---       #287
      020002D9H   SYMBOL    XDATA    BYTE      KeyToFuncVal
      020002DAH   SYMBOL    XDATA    ---       Key_UP_Element
      020002E8H   SYMBOL    XDATA    ---       Key_UP
      020002EFH   SYMBOL    XDATA    ---       Key_Down_Element
      020002FDH   SYMBOL    XDATA    ---       Key_Down
      02000304H   SYMBOL    XDATA    ---       Key_OK_Element
      02000312H   SYMBOL    XDATA    ---       Key_OK
      02000319H   SYMBOL    XDATA    ---       Key_Mute_Element
      02000327H   SYMBOL    XDATA    ---       Key_Mute
      00000020H.0 SYMBOL    BIT      BIT       bit_status
      ---         BLOCKEND  CODE     ---       LVL=1
      ---         BLOCKEND  CODE     ---       LVL=0

      010097F2H   BLOCK     CODE     ---       LVL=0
      010097F2H   LINE      ---      ---       #289
      010097F2H   LINE      ---      ---       #290
      010097F2H   LINE      ---      ---       #291
      010097FBH   LINE      ---      ---       #293
      010097FBH   LINE      ---      ---       #294
      010097FEH   LINE      ---      ---       #295
      010097FEH   LINE      ---      ---       #296
      01009801H   LINE      ---      ---       #297
      01009801H   LINE      ---      ---       #298
      01009801H   LINE      ---      ---       #299
LX51 LINKER/LOCATER V4.66.93.0                                                        04/19/2019  09:16:48  PAGE 58


      ---         BLOCKEND  ---      ---       LVL=0

      01009802H   BLOCK     CODE     ---       LVL=0
      01009802H   LINE      ---      ---       #301
      01009802H   LINE      ---      ---       #302
      01009802H   LINE      ---      ---       #303
      0100980CH   LINE      ---      ---       #305
      0100980CH   LINE      ---      ---       #306
      0100980FH   LINE      ---      ---       #307
      0100980FH   LINE      ---      ---       #308
      01009812H   LINE      ---      ---       #309
      01009812H   LINE      ---      ---       #310
      01009812H   LINE      ---      ---       #311
      ---         BLOCKEND  ---      ---       LVL=0

      01009813H   BLOCK     CODE     ---       LVL=0
      01009813H   LINE      ---      ---       #313
      01009813H   LINE      ---      ---       #314
      01009813H   LINE      ---      ---       #315
      0100981DH   LINE      ---      ---       #317
      0100981DH   LINE      ---      ---       #318
      01009820H   LINE      ---      ---       #319
      01009820H   LINE      ---      ---       #320
      01009823H   LINE      ---      ---       #322
      01009823H   LINE      ---      ---       #323
      01009823H   LINE      ---      ---       #324
      ---         BLOCKEND  ---      ---       LVL=0

      01009824H   BLOCK     CODE     ---       LVL=0
      01009824H   LINE      ---      ---       #326
      01009824H   LINE      ---      ---       #327
      01009824H   LINE      ---      ---       #328
      0100982EH   LINE      ---      ---       #330
      0100982EH   LINE      ---      ---       #331
      01009831H   LINE      ---      ---       #332
      01009831H   LINE      ---      ---       #333
      01009834H   LINE      ---      ---       #334
      01009834H   LINE      ---      ---       #335
      01009834H   LINE      ---      ---       #336
      ---         BLOCKEND  ---      ---       LVL=0

      010091DAH   BLOCK     CODE     ---       LVL=0
      010091DAH   LINE      ---      ---       #338
      010091DAH   LINE      ---      ---       #339
      010091DAH   LINE      ---      ---       #340
      010091E3H   LINE      ---      ---       #342
      010091E3H   LINE      ---      ---       #343
      010091E6H   LINE      ---      ---       #344
      010091E6H   LINE      ---      ---       #345
      010091E9H   LINE      ---      ---       #346
      010091E9H   LINE      ---      ---       #347
      010091E9H   LINE      ---      ---       #348
      ---         BLOCKEND  ---      ---       LVL=0

      010091EAH   BLOCK     CODE     ---       LVL=0
      010091EAH   LINE      ---      ---       #350
      010091EAH   LINE      ---      ---       #351
      010091EAH   LINE      ---      ---       #352
      010091F3H   LINE      ---      ---       #354
      010091F3H   LINE      ---      ---       #355
      010091F6H   LINE      ---      ---       #356
      010091F6H   LINE      ---      ---       #357
      010091F9H   LINE      ---      ---       #358
      010091F9H   LINE      ---      ---       #359
      010091F9H   LINE      ---      ---       #360
LX51 LINKER/LOCATER V4.66.93.0                                                        04/19/2019  09:16:48  PAGE 59


      ---         BLOCKEND  ---      ---       LVL=0

      010091FAH   BLOCK     CODE     ---       LVL=0
      010091FAH   LINE      ---      ---       #362
      010091FAH   LINE      ---      ---       #363
      010091FAH   LINE      ---      ---       #364
      01009203H   LINE      ---      ---       #366
      01009203H   LINE      ---      ---       #367
      01009206H   LINE      ---      ---       #368
      01009206H   LINE      ---      ---       #369
      01009209H   LINE      ---      ---       #370
      01009209H   LINE      ---      ---       #371
      01009209H   LINE      ---      ---       #372
      ---         BLOCKEND  ---      ---       LVL=0

      0100920AH   BLOCK     CODE     ---       LVL=0
      0100920AH   LINE      ---      ---       #374
      0100920AH   LINE      ---      ---       #375
      0100920AH   LINE      ---      ---       #376
      01009213H   LINE      ---      ---       #378
      01009213H   LINE      ---      ---       #379
      01009216H   LINE      ---      ---       #380
      01009216H   LINE      ---      ---       #381
      01009219H   LINE      ---      ---       #382
      01009219H   LINE      ---      ---       #383
      01009219H   LINE      ---      ---       #384
      ---         BLOCKEND  ---      ---       LVL=0

      0100921AH   BLOCK     CODE     ---       LVL=0
      0100921AH   LINE      ---      ---       #386
      0100921AH   LINE      ---      ---       #387
      0100921AH   LINE      ---      ---       #388
      01009223H   LINE      ---      ---       #390
      01009223H   LINE      ---      ---       #391
      01009226H   LINE      ---      ---       #392
      01009226H   LINE      ---      ---       #393
      01009228H   LINE      ---      ---       #394
      01009228H   LINE      ---      ---       #395
      01009228H   LINE      ---      ---       #396
      ---         BLOCKEND  ---      ---       LVL=0

      01009835H   BLOCK     CODE     ---       LVL=0
      01009835H   LINE      ---      ---       #398
      01009835H   LINE      ---      ---       #399
      01009835H   LINE      ---      ---       #400
      0100983FH   LINE      ---      ---       #402
      0100983FH   LINE      ---      ---       #403
      01009842H   LINE      ---      ---       #404
      01009842H   LINE      ---      ---       #405
      01009845H   LINE      ---      ---       #406
      01009845H   LINE      ---      ---       #407
      01009845H   LINE      ---      ---       #408
      ---         BLOCKEND  ---      ---       LVL=0

      01009846H   BLOCK     CODE     ---       LVL=0
      01009846H   LINE      ---      ---       #410
      01009846H   LINE      ---      ---       #411
      01009846H   LINE      ---      ---       #412
      01009850H   LINE      ---      ---       #414
      01009850H   LINE      ---      ---       #415
      01009853H   LINE      ---      ---       #416
      01009853H   LINE      ---      ---       #417
      01009856H   LINE      ---      ---       #418
      01009856H   LINE      ---      ---       #419
      01009856H   LINE      ---      ---       #420
LX51 LINKER/LOCATER V4.66.93.0                                                        04/19/2019  09:16:48  PAGE 60


      ---         BLOCKEND  ---      ---       LVL=0

      01009729H   BLOCK     CODE     ---       LVL=0
      01009729H   LINE      ---      ---       #422
      01009729H   LINE      ---      ---       #423
      01009729H   LINE      ---      ---       #424
      01009732H   LINE      ---      ---       #426
      01009732H   LINE      ---      ---       #427
      01009735H   LINE      ---      ---       #428
      01009735H   LINE      ---      ---       #429
      01009738H   LINE      ---      ---       #430
      01009738H   LINE      ---      ---       #431
      01009738H   LINE      ---      ---       #432
      ---         BLOCKEND  ---      ---       LVL=0

      01009799H   BLOCK     CODE     ---       LVL=0
      01009799H   LINE      ---      ---       #434
      01009799H   LINE      ---      ---       #435
      01009799H   LINE      ---      ---       #436
      010097A2H   LINE      ---      ---       #438
      010097A2H   LINE      ---      ---       #439
      010097A5H   LINE      ---      ---       #440
      010097A5H   LINE      ---      ---       #441
      010097AAH   LINE      ---      ---       #442
      010097AAH   LINE      ---      ---       #443
      010097AAH   LINE      ---      ---       #444
      ---         BLOCKEND  ---      ---       LVL=0

      010097ABH   BLOCK     CODE     ---       LVL=0
      010097ABH   LINE      ---      ---       #446
      010097ABH   LINE      ---      ---       #447
      010097ABH   LINE      ---      ---       #448
      010097B4H   LINE      ---      ---       #450
      010097B4H   LINE      ---      ---       #451
      010097B7H   LINE      ---      ---       #452
      010097B7H   LINE      ---      ---       #453
      010097BBH   LINE      ---      ---       #454
      010097BBH   LINE      ---      ---       #455
      010097BBH   LINE      ---      ---       #456
      ---         BLOCKEND  ---      ---       LVL=0

      010097BCH   BLOCK     CODE     ---       LVL=0
      010097BCH   LINE      ---      ---       #458
      010097BCH   LINE      ---      ---       #459
      010097BCH   LINE      ---      ---       #460
      010097C5H   LINE      ---      ---       #462
      010097C5H   LINE      ---      ---       #463
      010097C8H   LINE      ---      ---       #464
      010097C8H   LINE      ---      ---       #465
      010097D6H   LINE      ---      ---       #467
      010097D6H   LINE      ---      ---       #468
      010097D8H   LINE      ---      ---       #469
      010097D8H   LINE      ---      ---       #471
      010097D8H   LINE      ---      ---       #472
      010097D8H   LINE      ---      ---       #473
      ---         BLOCKEND  ---      ---       LVL=0

      01009857H   BLOCK     CODE     ---       LVL=0
      01009857H   LINE      ---      ---       #475
      01009857H   LINE      ---      ---       #476
      01009857H   LINE      ---      ---       #477
      01009861H   LINE      ---      ---       #479
      01009861H   LINE      ---      ---       #480
      01009864H   LINE      ---      ---       #481
      01009864H   LINE      ---      ---       #482
LX51 LINKER/LOCATER V4.66.93.0                                                        04/19/2019  09:16:48  PAGE 61


      01009867H   LINE      ---      ---       #483
      01009867H   LINE      ---      ---       #484
      01009867H   LINE      ---      ---       #485
      ---         BLOCKEND  ---      ---       LVL=0

      01009739H   BLOCK     CODE     ---       LVL=0
      01009739H   LINE      ---      ---       #487
      01009739H   LINE      ---      ---       #488
      01009739H   LINE      ---      ---       #489
      01009742H   LINE      ---      ---       #491
      01009742H   LINE      ---      ---       #492
      01009745H   LINE      ---      ---       #493
      01009745H   LINE      ---      ---       #494
      01009748H   LINE      ---      ---       #495
      01009748H   LINE      ---      ---       #496
      01009748H   LINE      ---      ---       #497
      ---         BLOCKEND  ---      ---       LVL=0

      01009749H   BLOCK     CODE     ---       LVL=0
      01009749H   LINE      ---      ---       #499
      01009749H   LINE      ---      ---       #500
      01009749H   LINE      ---      ---       #501
      01009752H   LINE      ---      ---       #503
      01009752H   LINE      ---      ---       #504
      01009755H   LINE      ---      ---       #505
      01009755H   LINE      ---      ---       #506
      01009758H   LINE      ---      ---       #507
      01009758H   LINE      ---      ---       #508
      01009758H   LINE      ---      ---       #509
      ---         BLOCKEND  ---      ---       LVL=0

      01009759H   BLOCK     CODE     ---       LVL=0
      01009759H   LINE      ---      ---       #511
      01009759H   LINE      ---      ---       #512
      01009759H   LINE      ---      ---       #513
      01009762H   LINE      ---      ---       #515
      01009762H   LINE      ---      ---       #516
      01009765H   LINE      ---      ---       #517
      01009765H   LINE      ---      ---       #518
      01009768H   LINE      ---      ---       #519
      01009768H   LINE      ---      ---       #520
      01009768H   LINE      ---      ---       #521
      ---         BLOCKEND  ---      ---       LVL=0

      01009769H   BLOCK     CODE     ---       LVL=0
      01009769H   LINE      ---      ---       #523
      01009769H   LINE      ---      ---       #524
      01009769H   LINE      ---      ---       #525
      01009772H   LINE      ---      ---       #527
      01009772H   LINE      ---      ---       #528
      01009775H   LINE      ---      ---       #529
      01009775H   LINE      ---      ---       #530
      01009778H   LINE      ---      ---       #531
      01009778H   LINE      ---      ---       #532
      01009778H   LINE      ---      ---       #533
      ---         BLOCKEND  ---      ---       LVL=0

      01009779H   BLOCK     CODE     ---       LVL=0
      01009779H   LINE      ---      ---       #535
      01009779H   LINE      ---      ---       #536
      01009779H   LINE      ---      ---       #537
      01009782H   LINE      ---      ---       #539
      01009782H   LINE      ---      ---       #540
      01009785H   LINE      ---      ---       #541
      01009785H   LINE      ---      ---       #542
LX51 LINKER/LOCATER V4.66.93.0                                                        04/19/2019  09:16:48  PAGE 62


      01009788H   LINE      ---      ---       #543
      01009788H   LINE      ---      ---       #544
      01009788H   LINE      ---      ---       #545
      ---         BLOCKEND  ---      ---       LVL=0

      01009789H   BLOCK     CODE     ---       LVL=0
      01009789H   LINE      ---      ---       #547
      01009789H   LINE      ---      ---       #548
      01009789H   LINE      ---      ---       #549
      01009792H   LINE      ---      ---       #551
      01009792H   LINE      ---      ---       #552
      01009795H   LINE      ---      ---       #553
      01009798H   LINE      ---      ---       #554
      01009798H   LINE      ---      ---       #555
      ---         BLOCKEND  ---      ---       LVL=0

      ---         MODULE    ---      ---       ACTIVITYFUNCTIONS
      020000A2H   PUBLIC    XDATA    WORD      Working_Normal
      020000A1H   PUBLIC    XDATA    BYTE      No_HeatSensor_Times
      020000A0H   PUBLIC    XDATA    BYTE      AlarmInfoIndex
      0200009FH   PUBLIC    XDATA    BYTE      AlarmSoundPauseStatus
      0200009EH   PUBLIC    XDATA    BYTE      Test_Mode_Dis_Jrp_Ctl
      0200008EH   PUBLIC    XDATA    ---       SaveData
      0200008CH   PUBLIC    XDATA    WORD      HP_CNT_Int_End_Rem
      0200008BH   PUBLIC    XDATA    BYTE      Wire_Mode_Mismatch
      0200008AH   PUBLIC    XDATA    BYTE      ERR_Kind
      02000088H   PUBLIC    XDATA    WORD      HP_CNT_Int
      02000087H   PUBLIC    XDATA    BYTE      HeaterPlate_State
      02000086H   PUBLIC    XDATA    BYTE      WireOut_State
      02000085H   PUBLIC    XDATA    BYTE      WireIn_State
      02000083H   PUBLIC    XDATA    WORD      Diplay_RTtemp
      02000082H   PUBLIC    XDATA    BYTE      CQK_Temp_Reach_Set_Cnt
      02000081H   PUBLIC    XDATA    BYTE      RT_Temp_Reach_Set_Cnt
      0200007FH   PUBLIC    XDATA    WORD      Set_CQK_YCTemp
      0200007DH   PUBLIC    XDATA    WORD      Set_CQK_WCTemp
      0200007BH   PUBLIC    XDATA    WORD      Set_CQK_Temp
      02000079H   PUBLIC    XDATA    WORD      Set_RT_YCTemp
      02000077H   PUBLIC    XDATA    WORD      Set_RT_WCTemp
      02000075H   PUBLIC    XDATA    INT       Set_RT_Temp
      02000071H   PUBLIC    XDATA    LONG      CQK_Temp
      0200006FH   PUBLIC    XDATA    INT       JEP_Temp
      0200006DH   PUBLIC    XDATA    INT       RT_Temp
      0200006BH   PUBLIC    XDATA    WORD      Micro_Temp_Out
      02000069H   PUBLIC    XDATA    WORD      Micro_Temp_In
      02000068H   PUBLIC    XDATA    BYTE      Micro_Temp_Val
      02000067H   PUBLIC    XDATA    BYTE      In_Exp_Ratio
      02000050H   PUBLIC    XDATA    ---       show_str
      0200004FH   PUBLIC    XDATA    BYTE      defalut_mode
      0200004EH   PUBLIC    XDATA    BYTE      Work_Mode
      02000046H   PUBLIC    XDATA    ---       data_flash
      01008825H   PUBLIC    CODE     ---       HeaterPlateWireDriveFbTask
      0100BE88H   PUBLIC    CODE     ---       WireInOut_State_Confirm
      01009F38H   PUBLIC    CODE     ---       LowPowerModeFunc
      0100BE17H   PUBLIC    CODE     ---       Load_Settings_Before_Choice
      01006368H   PUBLIC    CODE     ---       Mem_Flash_Recall
      01006839H   PUBLIC    CODE     ---       Setting_write_to_flash
      01008BC8H   PUBLIC    CODE     ---       ServiceMode_TempHumidy_Disp
      0100BD8FH   PUBLIC    CODE     ---       Main_Init
      010078A2H   PUBLIC    CODE     ---       Init_port
      0100A252H   PUBLIC    CODE     ---       SaveDateToFlashFunc
      0100B7FEH   PUBLIC    CODE     ---       LowTempDet1SFunc
      0100987DH   PUBLIC    CODE     ---       AlarmErrorFunc
      0100B7F3H   PUBLIC    CODE     ---       Err_Base_HeaterWire_DISP_Enable
      010080B8H   PUBLIC    CODE     ---       HeaterPlateWireControlFunc
      01007021H   PUBLIC    CODE     ---       GetTemp_HpChamberFunc
LX51 LINKER/LOCATER V4.66.93.0                                                        04/19/2019  09:16:48  PAGE 63


      0100A3CBH   PUBLIC    CODE     ---       GetTempHumidity_PatientFunc
      0100957FH   PUBLIC    CODE     ---       RefreshRTCTimeFunc
      010095C0H   PUBLIC    CODE     ---       _RefreshRunTimeFunc
      0100A84FH   PUBLIC    CODE     ---       _RefreshTempHumidyFunc
      0100A802H   PUBLIC    CODE     ---       HeaterWireModeDetFunc
      0100A0ADH   PUBLIC    CODE     ---       UART_RecData_Func
      01009E43H   PUBLIC    CODE     ---       _Bit_is_one
      000000E0H   SFRSYM    DATA     BYTE      ACC
      000000F0H   SFRSYM    DATA     BYTE      B
      000000D0H   SFRSYM    DATA     BYTE      PSW
      000000D0H.7 SFRSYM    DATA     BIT       CY
      000000D0H.6 SFRSYM    DATA     BIT       AC
      000000D0H.5 SFRSYM    DATA     BIT       F0
      000000D0H.4 SFRSYM    DATA     BIT       RS1
      000000D0H.3 SFRSYM    DATA     BIT       RS0
      000000D0H.2 SFRSYM    DATA     BIT       OV
      000000D0H.0 SFRSYM    DATA     BIT       P
      00000081H   SFRSYM    DATA     BYTE      SP
      00000082H   SFRSYM    DATA     BYTE      DPL
      00000083H   SFRSYM    DATA     BYTE      DPH
      00000087H   SFRSYM    DATA     BYTE      PCON
      0000008EH   SFRSYM    DATA     BYTE      AUXR
      000000A2H   SFRSYM    DATA     BYTE      AUXR1
      0000008FH   SFRSYM    DATA     BYTE      WAKE_CLKO
      00000097H   SFRSYM    DATA     BYTE      CLK_DIV
      000000A1H   SFRSYM    DATA     BYTE      BUS_SPEED
      000000A8H   SFRSYM    DATA     BYTE      IE
      000000A8H.7 SFRSYM    DATA     BIT       EA
      000000A8H.6 SFRSYM    DATA     BIT       ELVD
      000000A8H.5 SFRSYM    DATA     BIT       EADC
      000000A8H.4 SFRSYM    DATA     BIT       ES
      000000A8H.3 SFRSYM    DATA     BIT       ET1
      000000A8H.2 SFRSYM    DATA     BIT       EX1
      000000A8H.1 SFRSYM    DATA     BIT       ET0
      000000A8H.0 SFRSYM    DATA     BIT       EX0
      000000AFH   SFRSYM    DATA     BYTE      IE2
      000000B8H   SFRSYM    DATA     BYTE      IP
      000000B8H.7 SFRSYM    DATA     BIT       PPCA
      000000B8H.6 SFRSYM    DATA     BIT       PLVD
      000000B8H.5 SFRSYM    DATA     BIT       PADC
      000000B8H.4 SFRSYM    DATA     BIT       PS
      000000B8H.3 SFRSYM    DATA     BIT       PT1
      000000B8H.2 SFRSYM    DATA     BIT       PX1
      000000B8H.1 SFRSYM    DATA     BIT       PT0
      000000B8H.0 SFRSYM    DATA     BIT       PX0
      000000B7H   SFRSYM    DATA     BYTE      IPH
      000000B5H   SFRSYM    DATA     BYTE      IP2
      000000B6H   SFRSYM    DATA     BYTE      IPH2
      00000080H   SFRSYM    DATA     BYTE      P0
      00000080H.0 SFRSYM    DATA     BIT       P00
      00000080H.1 SFRSYM    DATA     BIT       P01
      00000080H.2 SFRSYM    DATA     BIT       P02
      00000080H.3 SFRSYM    DATA     BIT       P03
      00000080H.4 SFRSYM    DATA     BIT       P04
      00000080H.5 SFRSYM    DATA     BIT       P05
      00000080H.6 SFRSYM    DATA     BIT       P06
      00000080H.7 SFRSYM    DATA     BIT       P07
      00000094H   SFRSYM    DATA     BYTE      P0M0
      00000093H   SFRSYM    DATA     BYTE      P0M1
      00000090H   SFRSYM    DATA     BYTE      P1
      00000090H.0 SFRSYM    DATA     BIT       P10
      00000090H.1 SFRSYM    DATA     BIT       P11
      00000090H.2 SFRSYM    DATA     BIT       P12
      00000090H.3 SFRSYM    DATA     BIT       P13
      00000090H.4 SFRSYM    DATA     BIT       P14
LX51 LINKER/LOCATER V4.66.93.0                                                        04/19/2019  09:16:48  PAGE 64


      00000090H.5 SFRSYM    DATA     BIT       P15
      00000090H.6 SFRSYM    DATA     BIT       P16
      00000090H.7 SFRSYM    DATA     BIT       P17
      00000092H   SFRSYM    DATA     BYTE      P1M0
      00000091H   SFRSYM    DATA     BYTE      P1M1
      0000009DH   SFRSYM    DATA     BYTE      P1ASF
      000000A0H   SFRSYM    DATA     BYTE      P2
      000000A0H.0 SFRSYM    DATA     BIT       P20
      000000A0H.1 SFRSYM    DATA     BIT       P21
      000000A0H.2 SFRSYM    DATA     BIT       P22
      000000A0H.3 SFRSYM    DATA     BIT       P23
      000000A0H.4 SFRSYM    DATA     BIT       P24
      000000A0H.5 SFRSYM    DATA     BIT       P25
      000000A0H.6 SFRSYM    DATA     BIT       P26
      000000A0H.7 SFRSYM    DATA     BIT       P27
      00000096H   SFRSYM    DATA     BYTE      P2M0
      00000095H   SFRSYM    DATA     BYTE      P2M1
      000000B0H   SFRSYM    DATA     BYTE      P3
      000000B0H.0 SFRSYM    DATA     BIT       P30
      000000B0H.1 SFRSYM    DATA     BIT       P31
      000000B0H.2 SFRSYM    DATA     BIT       P32
      000000B0H.3 SFRSYM    DATA     BIT       P33
      000000B0H.4 SFRSYM    DATA     BIT       P34
      000000B0H.5 SFRSYM    DATA     BIT       P35
      000000B0H.6 SFRSYM    DATA     BIT       P36
      000000B0H.7 SFRSYM    DATA     BIT       P37
      000000B2H   SFRSYM    DATA     BYTE      P3M0
      000000B1H   SFRSYM    DATA     BYTE      P3M1
      000000C0H   SFRSYM    DATA     BYTE      P4
      000000C0H.0 SFRSYM    DATA     BIT       P40
      000000C0H.1 SFRSYM    DATA     BIT       P41
      000000C0H.2 SFRSYM    DATA     BIT       P42
      000000C0H.3 SFRSYM    DATA     BIT       P43
      000000C0H.4 SFRSYM    DATA     BIT       P44
      000000C0H.5 SFRSYM    DATA     BIT       P45
      000000C0H.6 SFRSYM    DATA     BIT       P46
      000000C0H.7 SFRSYM    DATA     BIT       P47
      000000B4H   SFRSYM    DATA     BYTE      P4M0
      000000B3H   SFRSYM    DATA     BYTE      P4M1
      000000BBH   SFRSYM    DATA     BYTE      P4SW
      000000C8H   SFRSYM    DATA     BYTE      P5
      000000CAH   SFRSYM    DATA     BYTE      P5M0
      000000C9H   SFRSYM    DATA     BYTE      P5M1
      00000088H   SFRSYM    DATA     BYTE      TCON
      00000088H.7 SFRSYM    DATA     BIT       TF1
      00000088H.6 SFRSYM    DATA     BIT       TR1
      00000088H.5 SFRSYM    DATA     BIT       TF0
      00000088H.4 SFRSYM    DATA     BIT       TR0
      00000088H.3 SFRSYM    DATA     BIT       IE1
      00000088H.2 SFRSYM    DATA     BIT       IT1
      00000088H.1 SFRSYM    DATA     BIT       IE0
      00000088H.0 SFRSYM    DATA     BIT       IT0
      00000089H   SFRSYM    DATA     BYTE      TMOD
      0000008AH   SFRSYM    DATA     BYTE      TL0
      0000008CH   SFRSYM    DATA     BYTE      TH0
      0000008BH   SFRSYM    DATA     BYTE      TL1
      0000008DH   SFRSYM    DATA     BYTE      TH1
      00000098H   SFRSYM    DATA     BYTE      SCON
      00000098H.7 SFRSYM    DATA     BIT       SM0
      00000098H.6 SFRSYM    DATA     BIT       SM1
      00000098H.5 SFRSYM    DATA     BIT       SM2
      00000098H.4 SFRSYM    DATA     BIT       REN
      00000098H.3 SFRSYM    DATA     BIT       TB8
      00000098H.2 SFRSYM    DATA     BIT       RB8
      00000098H.1 SFRSYM    DATA     BIT       TI
LX51 LINKER/LOCATER V4.66.93.0                                                        04/19/2019  09:16:48  PAGE 65


      00000098H.0 SFRSYM    DATA     BIT       RI
      00000099H   SFRSYM    DATA     BYTE      SBUF
      000000B9H   SFRSYM    DATA     BYTE      SADEN
      000000A9H   SFRSYM    DATA     BYTE      SADDR
      0000009AH   SFRSYM    DATA     BYTE      S2CON
      0000009BH   SFRSYM    DATA     BYTE      S2BUF
      0000009CH   SFRSYM    DATA     BYTE      BRT
      000000C1H   SFRSYM    DATA     BYTE      WDT_CONTR
      000000D8H   SFRSYM    DATA     BYTE      CCON
      000000D8H.7 SFRSYM    DATA     BIT       CF
      000000D8H.6 SFRSYM    DATA     BIT       CR
      000000D8H.1 SFRSYM    DATA     BIT       CCF1
      000000D8H.0 SFRSYM    DATA     BIT       CCF0
      000000D9H   SFRSYM    DATA     BYTE      CMOD
      000000E9H   SFRSYM    DATA     BYTE      CL
      000000F9H   SFRSYM    DATA     BYTE      CH
      000000DAH   SFRSYM    DATA     BYTE      CCAPM0
      000000DBH   SFRSYM    DATA     BYTE      CCAPM1
      000000EAH   SFRSYM    DATA     BYTE      CCAP0L
      000000FAH   SFRSYM    DATA     BYTE      CCAP0H
      000000EBH   SFRSYM    DATA     BYTE      CCAP1L
      000000FBH   SFRSYM    DATA     BYTE      CCAP1H
      000000F2H   SFRSYM    DATA     BYTE      PCA_PWM0
      000000F3H   SFRSYM    DATA     BYTE      PCA_PWM1
      000000BCH   SFRSYM    DATA     BYTE      ADC_CONTR
      000000BDH   SFRSYM    DATA     BYTE      ADC_RES
      000000BEH   SFRSYM    DATA     BYTE      ADC_RESL
      000000CEH   SFRSYM    DATA     BYTE      SPCTL
      000000CDH   SFRSYM    DATA     BYTE      SPSTAT
      000000CFH   SFRSYM    DATA     BYTE      SPDAT
      000000C2H   SFRSYM    DATA     BYTE      IAP_DATA
      000000C3H   SFRSYM    DATA     BYTE      IAP_ADDRH
      000000C4H   SFRSYM    DATA     BYTE      IAP_ADDRL
      000000C5H   SFRSYM    DATA     BYTE      IAP_CMD
      000000C6H   SFRSYM    DATA     BYTE      IAP_TRIG
      000000C7H   SFRSYM    DATA     BYTE      IAP_CONTR
      020000A4H   SYMBOL    XDATA    BYTE      Wire_Mode_Sel
      020000A5H   SYMBOL    XDATA    BYTE      JRP_Sensor_Err
      020000A6H   SYMBOL    XDATA    BYTE      CQK_Sensor_Err
      020000A7H   SYMBOL    XDATA    BYTE      RTD_Sensor_Err
      020000A8H   SYMBOL    XDATA    BYTE      SHIDU_Sensor_Err
      020000A9H   SYMBOL    XDATA    BYTE      HiTemp_Count
      020000AAH   SYMBOL    XDATA    BYTE      LoTemp_Count
      020000ABH   SYMBOL    XDATA    BYTE      LoTemp_CQK_Count
      020000ACH   SYMBOL    XDATA    BYTE      LoHumity_Count
      020000ADH   SYMBOL    XDATA    WORD      No_CQKSensor_Times
      020000AFH   SYMBOL    XDATA    WORD      CQKSensor_Hithen800_Times
      020000B1H   SYMBOL    XDATA    WORD      JRP_Sensor_Temp_No_Change_Times
      020000B3H   SYMBOL    XDATA    WORD      CQK_Sensor_Temp_No_Change_Times
      020000B5H   SYMBOL    XDATA    BYTE      ERR_RT_Temp_Times
      020000B6H   SYMBOL    XDATA    BYTE      No_ReadData_SHIDU_Times
      020000B7H   SYMBOL    XDATA    WORD      RT_Temp_Not_Updated_10mS
      020000B9H   SYMBOL    XDATA    BYTE      No_ReadData_Temp_Times
      020000BAH   SYMBOL    XDATA    WORD      Nochange_Times
      020000BCH   SYMBOL    XDATA    WORD      Run_Count
      020000BEH   SYMBOL    XDATA    WORD      RT_SHIDU
      020000C0H   SYMBOL    XDATA    WORD      CONTROL_RT_SHIDU
      020000C2H   SYMBOL    XDATA    INT       JEP_Temp_Aim
      020000C4H   SYMBOL    XDATA    WORD      Wire_Warm_Up_Sec
      020000C6H   SYMBOL    XDATA    WORD      Plate_Warm_Up_Sec
      020000C8H   SYMBOL    XDATA    WORD      Humidity_No_Change_Sec
      020000CAH   SYMBOL    XDATA    WORD      Low_Power_Mode_Flag
      020000CCH   SYMBOL    XDATA    BYTE      Micro_Adj_Mode_Test
      020000CDH   SYMBOL    XDATA    BYTE      Enable_Save_Data
      020000CEH   SYMBOL    XDATA    ---       Controler_temp
LX51 LINKER/LOCATER V4.66.93.0                                                        04/19/2019  09:16:48  PAGE 66


      020000D8H   SYMBOL    XDATA    ---       Controler_temp2
      020000E2H   SYMBOL    XDATA    ---       Controler_temp3
      020000ECH   SYMBOL    XDATA    ---       NowTime
      0100AFECH   SYMBOL    CODE     ---       Store_Data
      0100B051H   SYMBOL    CODE     ---       Get_RunCount
      0100BDF3H   SYMBOL    CODE     ---       Write_Default_Setting_to_flash
      0100BB31H   SYMBOL    CODE     ---       PatientTemp_NoneHeatWire_Adj
      0100B70AH   SYMBOL    CODE     ---       Controler_Calc
      0100B60BH   SYMBOL    CODE     ---       HeatPlateTemp_Aim_Controler_Calc
      0100B522H   SYMBOL    CODE     ---       HeatPlate_Controler_Calc
      01009868H   SYMBOL    CODE     ---       _Clear_bit
      01009EE5H   SYMBOL    CODE     ---       _Set_bit
      01009FF3H   SYMBOL    CODE     ---       Interrupt_EXT1
      0100A014H   SYMBOL    CODE     ---       Interrupt_Time0
      0100A02FH   SYMBOL    CODE     ---       Interrupt_Serial
      020000F3H   SYMBOL    XDATA    ---       UART_Rec_Buf
      0100A7F5H   SYMBOL    CODE     ---       UART_RecBuf_Clear_Fun
      02000107H   SYMBOL    XDATA    INT       Temp2_Int
      02000109H   SYMBOL    XDATA    WORD      NoneWire_Heat_Sec
      0200010BH   SYMBOL    XDATA    INT       Set_CQK_Temp_Comp
      0200010DH   SYMBOL    XDATA    BYTE      Wire_Mode_Sel_Rem
      0200010EH   SYMBOL    XDATA    BYTE      Disp_ERR_VHB80_Code

      01009868H   BLOCK     CODE     ---       LVL=0
      01009868H   LINE      ---      ---       #185
      01009868H   LINE      ---      ---       #186
      00000001H   SYMBOL    DATA     ---       Value
      00000004H   SYMBOL    DATA     INT       bit_num
      01009868H   BLOCK     CODE     NEAR LAB  LVL=1
      01009868H   LINE      ---      ---       #187
      01009868H   LINE      ---      ---       #188
      00000001H   SYMBOL    DATA     ---       pV
      ---         BLOCKEND  CODE     ---       LVL=1
      ---         BLOCKEND  CODE     ---       LVL=0

      01009EE5H   BLOCK     CODE     ---       LVL=0
      01009EE5H   LINE      ---      ---       #190
      01009EE5H   LINE      ---      ---       #191
      00000001H   SYMBOL    DATA     ---       Value
      00000004H   SYMBOL    DATA     INT       bit_num
      01009EE5H   BLOCK     CODE     NEAR LAB  LVL=1
      01009EE5H   LINE      ---      ---       #192
      01009EE5H   LINE      ---      ---       #193
      00000001H   SYMBOL    DATA     ---       pV
      ---         BLOCKEND  CODE     ---       LVL=1
      ---         BLOCKEND  CODE     ---       LVL=0

      01009E43H   BLOCK     CODE     ---       LVL=0
      01009E43H   LINE      ---      ---       #196
      01009E43H   LINE      ---      ---       #197
      01009E43H   LINE      ---      ---       #198
      01009E51H   LINE      ---      ---       #199
      00000007H   SYMBOL    DATA     BYTE      Value
      00000004H   SYMBOL    DATA     INT       bit_num
      ---         BLOCKEND  ---      ---       LVL=0

      01009FF3H   BLOCK     CODE     ---       LVL=0
      0100A000H   LINE      ---      ---       #203
      0100A000H   LINE      ---      ---       #205
      0100A006H   LINE      ---      ---       #206
      ---         BLOCKEND  ---      ---       LVL=0

      0100A014H   BLOCK     CODE     ---       LVL=0
      0100A021H   LINE      ---      ---       #208
      0100A021H   LINE      ---      ---       #211
LX51 LINKER/LOCATER V4.66.93.0                                                        04/19/2019  09:16:48  PAGE 67


      0100A024H   LINE      ---      ---       #213
      ---         BLOCKEND  ---      ---       LVL=0

      0100A02FH   BLOCK     CODE     ---       LVL=0
      0100A03CH   LINE      ---      ---       #215
      0100A03CH   LINE      ---      ---       #217
      0100A03FH   LINE      ---      ---       #218
      0100A03FH   LINE      ---      ---       #219
      0100A041H   LINE      ---      ---       #221
      0100A043H   LINE      ---      ---       #222
      0100A043H   LINE      ---      ---       #224
      0100A046H   LINE      ---      ---       #225
      0100A046H   LINE      ---      ---       #226
      0100A048H   LINE      ---      ---       #227
      0100A04AH   LINE      ---      ---       #228
      0100A04AH   LINE      ---      ---       #229
      ---         BLOCKEND  ---      ---       LVL=0

      0100A7F5H   BLOCK     CODE     ---       LVL=0
      0100A7F5H   LINE      ---      ---       #246
      0100A7F5H   LINE      ---      ---       #247
      0100A7F5H   BLOCK     CODE     NEAR LAB  LVL=1
      0100A7F5H   LINE      ---      ---       #250
      0100A7F7H   LINE      ---      ---       #251
      0100A7F7H   LINE      ---      ---       #252
      0100A801H   LINE      ---      ---       #253
      0100A801H   LINE      ---      ---       #254
      00000006H   SYMBOL    DATA     INT       i
      ---         BLOCKEND  CODE     ---       LVL=1
      ---         BLOCKEND  CODE     ---       LVL=0

      0100A0ADH   BLOCK     CODE     ---       LVL=0
      0100A0ADH   LINE      ---      ---       #258
      0100A0ADH   LINE      ---      ---       #259
      0100A0ADH   BLOCK     CODE     NEAR LAB  LVL=1
      0100A0ADH   LINE      ---      ---       #267
      0100A0B2H   LINE      ---      ---       #276
      0100A0BAH   LINE      ---      ---       #277
      0100A0BAH   LINE      ---      ---       #278
      0100A0BEH   LINE      ---      ---       #280
      0100A0C6H   LINE      ---      ---       #281
      0100A0C6H   LINE      ---      ---       #282
      0100A0CCH   LINE      ---      ---       #283
      0100A0D5H   LINE      ---      ---       #284
      0100A0D5H   LINE      ---      ---       #285
      0100A0D7H   LINE      ---      ---       #286
      0100A0D9H   LINE      ---      ---       #287
      0100A0DEH   LINE      ---      ---       #288
      0100A0E4H   LINE      ---      ---       #290
      0100A0E6H   LINE      ---      ---       #291
      0100A0ECH   LINE      ---      ---       #292
      0100A0ECH   LINE      ---      ---       #293
      0100A0F6H   LINE      ---      ---       #294
      0100A0FCH   LINE      ---      ---       #295
      0100A0FCH   LINE      ---      ---       #297
      0100A108H   LINE      ---      ---       #298
      0100A108H   LINE      ---      ---       #300
      0100A10EH   LINE      ---      ---       #301
      0100A110H   LINE      ---      ---       #302
      0100A115H   LINE      ---      ---       #303
      0100A117H   LINE      ---      ---       #305
      0100A117H   LINE      ---      ---       #306
      0100A11DH   LINE      ---      ---       #307
      0100A11FH   LINE      ---      ---       #308
      0100A11FH   LINE      ---      ---       #309
LX51 LINKER/LOCATER V4.66.93.0                                                        04/19/2019  09:16:48  PAGE 68


      0100A137H   LINE      ---      ---       #310
      0100A13EH   LINE      ---      ---       #311
      0100A13EH   LINE      ---      ---       #312
      0100A13EH   LINE      ---      ---       #313
      0100A13EH   LINE      ---      ---       #314
      0100A146H   LINE      ---      ---       #315
      0100A146H   LINE      ---      ---       #316
      0100A153H   LINE      ---      ---       #318
      0100A159H   LINE      ---      ---       #319
      0100A159H   LINE      ---      ---       #320
      0100A15FH   LINE      ---      ---       #321
      0100A15FH   LINE      ---      ---       #322
      0100A15FH   LINE      ---      ---       #324
      0100A15FH   LINE      ---      ---       #326
      0100A15FH   LINE      ---      ---       #328
      0100A169H   LINE      ---      ---       #329
      0100A169H   LINE      ---      ---       #330
      0100A16AH   LINE      ---      ---       #332
      0100A197H   LINE      ---      ---       #336
      0100A19EH   LINE      ---      ---       #337
      0100A19EH   LINE      ---      ---       #338
      0100A19EH   LINE      ---      ---       #339
      0100A1A0H   LINE      ---      ---       #340
      02000110H   SYMBOL    XDATA    BYTE      UART_RecState
      02000000H   SYMBOL    XDATA    BYTE      UART_Rec_Cnt
      00000007H   SYMBOL    DATA     BYTE      i
      00000005H   SYMBOL    DATA     BYTE      uart_data
      02000111H   SYMBOL    XDATA    DWORD     Adress
      ---         BLOCKEND  CODE     ---       LVL=1
      ---         BLOCKEND  CODE     ---       LVL=0

      0100A802H   BLOCK     CODE     ---       LVL=0
      0100A802H   LINE      ---      ---       #342
      0100A802H   LINE      ---      ---       #343
      0100A802H   LINE      ---      ---       #344
      0100A80BH   LINE      ---      ---       #345
      0100A80BH   LINE      ---      ---       #346
      0100A815H   LINE      ---      ---       #347
      0100A815H   LINE      ---      ---       #348
      0100A815H   LINE      ---      ---       #349
      0100A817H   LINE      ---      ---       #355
      0100A81DH   LINE      ---      ---       #356
      0100A81DH   LINE      ---      ---       #357
      0100A82AH   LINE      ---      ---       #358
      0100A82AH   LINE      ---      ---       #359
      0100A82AH   LINE      ---      ---       #360
      0100A82CH   LINE      ---      ---       #362
      0100A82CH   LINE      ---      ---       #363
      0100A82CH   LINE      ---      ---       #364
      0100A82CH   LINE      ---      ---       #365
      0100A82EH   LINE      ---      ---       #366
      0100A833H   LINE      ---      ---       #367
      0100A833H   LINE      ---      ---       #368
      0100A842H   LINE      ---      ---       #369
      0100A842H   LINE      ---      ---       #370
      0100A848H   LINE      ---      ---       #371
      0100A849H   LINE      ---      ---       #373
      0100A849H   LINE      ---      ---       #374
      0100A84EH   LINE      ---      ---       #375
      0100A84EH   LINE      ---      ---       #376
      0100A84EH   LINE      ---      ---       #378
      0100A84EH   LINE      ---      ---       #380
      0100A84EH   LINE      ---      ---       #381
      ---         BLOCKEND  ---      ---       LVL=0

LX51 LINKER/LOCATER V4.66.93.0                                                        04/19/2019  09:16:48  PAGE 69


      0100A84FH   BLOCK     CODE     ---       LVL=0
      0100A84FH   LINE      ---      ---       #383
      0100A84FH   LINE      ---      ---       #384
      00000007H   SYMBOL    DATA     BYTE      Refresh_En
      0100A84FH   BLOCK     CODE     NEAR LAB  LVL=1
      0100A84FH   LINE      ---      ---       #388
      0100A856H   LINE      ---      ---       #390
      0100A85CH   LINE      ---      ---       #393
      0100A862H   LINE      ---      ---       #394
      0100A868H   LINE      ---      ---       #395
      0100A868H   LINE      ---      ---       #396
      0100A86AH   LINE      ---      ---       #397
      0100A86AH   LINE      ---      ---       #399
      0100A871H   LINE      ---      ---       #401
      0100A871H   LINE      ---      ---       #402
      0100A873H   LINE      ---      ---       #403
      0100A873H   LINE      ---      ---       #406
      0100A876H   LINE      ---      ---       #407
      0100A878H   LINE      ---      ---       #410
      0100A87BH   LINE      ---      ---       #411
      0100A87BH   LINE      ---      ---       #412
      0100A883H   LINE      ---      ---       #413
      0100A883H   LINE      ---      ---       #415
      0100A892H   LINE      ---      ---       #418
      0100A892H   LINE      ---      ---       #419
      0100A89BH   LINE      ---      ---       #422
      0100A89BH   LINE      ---      ---       #423
      0100A89EH   LINE      ---      ---       #424
      0100A89EH   LINE      ---      ---       #425
      0100A8A0H   LINE      ---      ---       #427
      0100A8B9H   LINE      ---      ---       #428
      0100A8B9H   LINE      ---      ---       #429
      0100A8BEH   LINE      ---      ---       #432
      0100A8BEH   LINE      ---      ---       #433
      0100A8C7H   LINE      ---      ---       #434
      0100A8C7H   LINE      ---      ---       #435
      0100A8C9H   LINE      ---      ---       #437
      0100A8C9H   LINE      ---      ---       #438
      0100A8CFH   LINE      ---      ---       #439
      0100A8CFH   LINE      ---      ---       #440
      0100A8D1H   LINE      ---      ---       #441
      0100A8D1H   LINE      ---      ---       #442
      0100A8D1H   LINE      ---      ---       #444
      0100A8DFH   LINE      ---      ---       #445
      0100A8DFH   LINE      ---      ---       #446
      0100A8E8H   LINE      ---      ---       #447
      0100A8E8H   LINE      ---      ---       #448
      0100A8EDH   LINE      ---      ---       #449
      0100A8F2H   LINE      ---      ---       #450
      0100A8F4H   LINE      ---      ---       #451
      0100A8F7H   LINE      ---      ---       #452
      0100A8F7H   LINE      ---      ---       #453
      0100A906H   LINE      ---      ---       #454
      0100A90BH   LINE      ---      ---       #455
      0100A90BH   LINE      ---      ---       #457
      0100A90BH   LINE      ---      ---       #459
      0100A90BH   LINE      ---      ---       #461
      0100A90EH   LINE      ---      ---       #462
      0100A90EH   LINE      ---      ---       #463
      0100A944H   LINE      ---      ---       #468
      0100A946H   LINE      ---      ---       #469
      0100A953H   LINE      ---      ---       #470
      0100A953H   LINE      ---      ---       #471
      0100A96BH   LINE      ---      ---       #474
      0100A974H   LINE      ---      ---       #475
LX51 LINKER/LOCATER V4.66.93.0                                                        04/19/2019  09:16:48  PAGE 70


      0100A976H   LINE      ---      ---       #477
      0100A976H   LINE      ---      ---       #478
      0100A99CH   LINE      ---      ---       #481
      0100A9AFH   LINE      ---      ---       #482
      0100A9AFH   LINE      ---      ---       #483
      0100A9AFH   LINE      ---      ---       #486
      0100A9B8H   LINE      ---      ---       #488
      0100A9B8H   LINE      ---      ---       #489
      0100A9BDH   LINE      ---      ---       #492
      0100A9BDH   LINE      ---      ---       #493
      0100A9C6H   LINE      ---      ---       #494
      0100A9C6H   LINE      ---      ---       #495
      0100A9C8H   LINE      ---      ---       #497
      0100A9C8H   LINE      ---      ---       #498
      0100A9CEH   LINE      ---      ---       #499
      0100A9CEH   LINE      ---      ---       #500
      0100A9D0H   LINE      ---      ---       #501
      0100A9D0H   LINE      ---      ---       #502
      0100A9D0H   LINE      ---      ---       #504
      0100A9DCH   LINE      ---      ---       #505
      0100A9DCH   LINE      ---      ---       #506
      0100A9E2H   LINE      ---      ---       #507
      0100A9E2H   LINE      ---      ---       #508
      0100AA17H   LINE      ---      ---       #511
      0100AA17H   LINE      ---      ---       #513
      0100AA17H   LINE      ---      ---       #514
      0100AA2BH   LINE      ---      ---       #515
      0100AA3CH   LINE      ---      ---       #516
      0100AA3CH   LINE      ---      ---       #517
      0100AA3CH   LINE      ---      ---       #518
      02000001H   SYMBOL    XDATA    BYTE      Refresh_WenDu_Cnt
      02000002H   SYMBOL    XDATA    BYTE      Alarm_WenDu_Cnt
      02000196H   SYMBOL    XDATA    WORD      Disp
      02000198H   SYMBOL    XDATA    WORD      color
      0200019AH   SYMBOL    XDATA    WORD      Temp_Dis_En
      00000003H   SYMBOL    DATA     BYTE      Disp_Err
      ---         BLOCKEND  CODE     ---       LVL=1
      ---         BLOCKEND  CODE     ---       LVL=0

      010095C0H   BLOCK     CODE     ---       LVL=0
      010095C0H   LINE      ---      ---       #521
      010095C5H   LINE      ---      ---       #523
      02000196H   SYMBOL    XDATA    BYTE      Refresh_En
      010095C5H   BLOCK     CODE     NEAR LAB  LVL=1
      010095C5H   LINE      ---      ---       #532
      010095CBH   LINE      ---      ---       #535
      010095D2H   LINE      ---      ---       #536
      010095D2H   LINE      ---      ---       #537
      010095D4H   LINE      ---      ---       #538
      010095DDH   LINE      ---      ---       #539
      010095DDH   LINE      ---      ---       #540
      010095DDH   LINE      ---      ---       #541
      010095DFH   LINE      ---      ---       #543
      010095DFH   LINE      ---      ---       #544
      010095E4H   LINE      ---      ---       #545
      010095E6H   LINE      ---      ---       #547
      010095EBH   LINE      ---      ---       #548
      010095F1H   LINE      ---      ---       #550
      010095FAH   LINE      ---      ---       #551
      010095FAH   LINE      ---      ---       #552
      010095FAH   LINE      ---      ---       #553
      010095FCH   LINE      ---      ---       #555
      010095FCH   LINE      ---      ---       #556
      01009601H   LINE      ---      ---       #557
      0100960AH   LINE      ---      ---       #558
LX51 LINKER/LOCATER V4.66.93.0                                                        04/19/2019  09:16:48  PAGE 71


      0100960AH   LINE      ---      ---       #559
      0100960AH   LINE      ---      ---       #560
      0100960CH   LINE      ---      ---       #561
      0100960CH   LINE      ---      ---       #562
      01009611H   LINE      ---      ---       #563
      0100961AH   LINE      ---      ---       #564
      0100961AH   LINE      ---      ---       #565
      0100961DH   LINE      ---      ---       #566
      0100961DH   LINE      ---      ---       #567
      0100961DH   LINE      ---      ---       #568
      0100961DH   LINE      ---      ---       #569
      0100961DH   LINE      ---      ---       #570
      0100961DH   LINE      ---      ---       #572
      01009627H   LINE      ---      ---       #573
      01009627H   LINE      ---      ---       #575
      0100962CH   LINE      ---      ---       #576
      0100962CH   LINE      ---      ---       #577
      0100962FH   LINE      ---      ---       #578
      0100963AH   LINE      ---      ---       #579
      01009643H   LINE      ---      ---       #580
      0100964EH   LINE      ---      ---       #581
      01009657H   LINE      ---      ---       #582
      01009662H   LINE      ---      ---       #583
      0100966BH   LINE      ---      ---       #584
      0100966BH   LINE      ---      ---       #585
      0100966BH   LINE      ---      ---       #586
      00000007H   SYMBOL    DATA     BYTE      t
      02000003H   SYMBOL    XDATA    BYTE      Last_Sec
      02000004H   SYMBOL    XDATA    BYTE      Work_Min
      02000005H   SYMBOL    XDATA    BYTE      Work_Sec
      02000006H   SYMBOL    XDATA    BYTE      Work_Day
      02000007H   SYMBOL    XDATA    BYTE      Work_Hour
      ---         BLOCKEND  CODE     ---       LVL=1
      ---         BLOCKEND  CODE     ---       LVL=0

      0100957FH   BLOCK     CODE     ---       LVL=0
      0100957FH   LINE      ---      ---       #589
      0100957FH   LINE      ---      ---       #590
      0100957FH   BLOCK     CODE     NEAR LAB  LVL=1
      0100957FH   LINE      ---      ---       #598
      01009585H   LINE      ---      ---       #600
      0100958CH   LINE      ---      ---       #601
      0100958CH   LINE      ---      ---       #602
      0100958EH   LINE      ---      ---       #604
      0100959AH   LINE      ---      ---       #605
      0100959AH   LINE      ---      ---       #606
      0100959CH   LINE      ---      ---       #607
      0100959CH   LINE      ---      ---       #609
      010095B6H   LINE      ---      ---       #615
      010095B6H   LINE      ---      ---       #616
      02000008H   SYMBOL    XDATA    BYTE      Last_Min
      00000007H   SYMBOL    DATA     BYTE      t
      02000009H   SYMBOL    XDATA    BYTE      Last_Sec
      ---         BLOCKEND  CODE     ---       LVL=1
      ---         BLOCKEND  CODE     ---       LVL=0

      0100A3CBH   BLOCK     CODE     ---       LVL=0
      0100A3CBH   LINE      ---      ---       #618
      0100A3CBH   LINE      ---      ---       #619
      0100A3CBH   BLOCK     CODE     NEAR LAB  LVL=1
      0100A3CBH   LINE      ---      ---       #622
      0100A3D0H   LINE      ---      ---       #633
      0100A3D6H   LINE      ---      ---       #634
      0100A3DCH   LINE      ---      ---       #635
      0100A3DCH   LINE      ---      ---       #636
LX51 LINKER/LOCATER V4.66.93.0                                                        04/19/2019  09:16:48  PAGE 72


      0100A3DEH   LINE      ---      ---       #637
      0100A3E8H   LINE      ---      ---       #638
      0100A3F3H   LINE      ---      ---       #639
      0100A402H   LINE      ---      ---       #640
      0100A420H   LINE      ---      ---       #641
      0100A420H   LINE      ---      ---       #654
      0100A42FH   LINE      ---      ---       #655
      0100A42FH   LINE      ---      ---       #656
      0100A432H   LINE      ---      ---       #657
      0100A432H   LINE      ---      ---       #659
      0100A432H   LINE      ---      ---       #660
      0100A438H   LINE      ---      ---       #661
      0100A438H   LINE      ---      ---       #662
      0100A440H   LINE      ---      ---       #663
      0100A442H   LINE      ---      ---       #664
      0100A442H   LINE      ---      ---       #665
      0100A442H   LINE      ---      ---       #666
      0100A444H   LINE      ---      ---       #668
      0100A444H   LINE      ---      ---       #669
      0100A449H   LINE      ---      ---       #670
      0100A449H   LINE      ---      ---       #671
      0100A449H   LINE      ---      ---       #672
      0100A44BH   LINE      ---      ---       #673
      0100A455H   LINE      ---      ---       #674
      0100A455H   LINE      ---      ---       #677
      0100A458H   LINE      ---      ---       #678
      0100A458H   LINE      ---      ---       #679
      0100A45DH   LINE      ---      ---       #680
      0100A45FH   LINE      ---      ---       #682
      0100A45FH   LINE      ---      ---       #683
      0100A464H   LINE      ---      ---       #684
      0100A464H   LINE      ---      ---       #685
      0100A46EH   LINE      ---      ---       #686
      0100A46EH   LINE      ---      ---       #687
      0100A470H   LINE      ---      ---       #692
      0100A484H   LINE      ---      ---       #693
      0100A484H   LINE      ---      ---       #695
      0100A489H   LINE      ---      ---       #696
      0100A48BH   LINE      ---      ---       #698
      0100A48BH   LINE      ---      ---       #699
      0100A490H   LINE      ---      ---       #700
      0100A49CH   LINE      ---      ---       #703
      0100A49CH   LINE      ---      ---       #704
      0100A4A2H   LINE      ---      ---       #705
      0100A4A2H   LINE      ---      ---       #706
      0100A4CBH   LINE      ---      ---       #707
      0100A4CDH   LINE      ---      ---       #709
      0100A4CDH   LINE      ---      ---       #710
      0100A4F9H   LINE      ---      ---       #711
      0100A4F9H   LINE      ---      ---       #714
      0100A506H   LINE      ---      ---       #715
      0100A506H   LINE      ---      ---       #716
      0100A53AH   LINE      ---      ---       #717
      0100A53AH   LINE      ---      ---       #720
      0100A547H   LINE      ---      ---       #721
      0100A547H   LINE      ---      ---       #722
      0100A55AH   LINE      ---      ---       #723
      0100A55AH   LINE      ---      ---       #724
      0100A560H   LINE      ---      ---       #725
      0100A560H   LINE      ---      ---       #726
      0100A562H   LINE      ---      ---       #728
      0100A562H   LINE      ---      ---       #729
      0100A567H   LINE      ---      ---       #730
      0100A567H   LINE      ---      ---       #731
      0100A567H   LINE      ---      ---       #732
LX51 LINKER/LOCATER V4.66.93.0                                                        04/19/2019  09:16:48  PAGE 73


      0100A567H   LINE      ---      ---       #733
      0100A569H   LINE      ---      ---       #735
      0100A569H   LINE      ---      ---       #736
      0100A577H   LINE      ---      ---       #738
      0100A577H   LINE      ---      ---       #739
      0100A577H   LINE      ---      ---       #740
      0100A579H   LINE      ---      ---       #742
      0100A579H   LINE      ---      ---       #744
      0100A579H   LINE      ---      ---       #747
      0100A579H   LINE      ---      ---       #748
      0100A580H   LINE      ---      ---       #749
      0100A580H   LINE      ---      ---       #750
      0100A588H   LINE      ---      ---       #751
      0100A58DH   LINE      ---      ---       #752
      0100A58DH   LINE      ---      ---       #753
      0100A58DH   LINE      ---      ---       #754
      0100A58FH   LINE      ---      ---       #756
      0100A58FH   LINE      ---      ---       #757
      0100A592H   LINE      ---      ---       #758
      0100A597H   LINE      ---      ---       #759
      0100A597H   LINE      ---      ---       #760
      0100A599H   LINE      ---      ---       #761
      0100A5A3H   LINE      ---      ---       #762
      0100A5A3H   LINE      ---      ---       #765
      0100A5A6H   LINE      ---      ---       #766
      0100A5A6H   LINE      ---      ---       #767
      0100A5ABH   LINE      ---      ---       #768
      0100A5ADH   LINE      ---      ---       #770
      0100A5ADH   LINE      ---      ---       #771
      0100A5B2H   LINE      ---      ---       #772
      0100A5B2H   LINE      ---      ---       #773
      0100A5BCH   LINE      ---      ---       #774
      0100A5BCH   LINE      ---      ---       #776
      0100A5BEH   LINE      ---      ---       #779
      0100A5D2H   LINE      ---      ---       #780
      0100A5D2H   LINE      ---      ---       #781
      0100A5DBH   LINE      ---      ---       #782
      0100A5DBH   LINE      ---      ---       #783
      0100A5DEH   LINE      ---      ---       #784
      0100A5DEH   LINE      ---      ---       #785
      0100A5E5H   LINE      ---      ---       #786
      0100A5EBH   LINE      ---      ---       #788
      0100A5EDH   LINE      ---      ---       #790
      0100A5EDH   LINE      ---      ---       #791
      0100A5F2H   LINE      ---      ---       #792
      0100A5FDH   LINE      ---      ---       #793
      0100A602H   LINE      ---      ---       #794
      0100A60EH   LINE      ---      ---       #795
      0100A60EH   LINE      ---      ---       #796
      0100A618H   LINE      ---      ---       #797
      0100A618H   LINE      ---      ---       #798
      0100A622H   LINE      ---      ---       #799
      0100A62EH   LINE      ---      ---       #802
      0100A62EH   LINE      ---      ---       #803
      0100A63CH   LINE      ---      ---       #804
      0100A63CH   LINE      ---      ---       #805
      0100A649H   LINE      ---      ---       #806
      0100A649H   LINE      ---      ---       #807
      0100A664H   LINE      ---      ---       #808
      0100A66CH   LINE      ---      ---       #809
      0100A66CH   LINE      ---      ---       #810
      0100A675H   LINE      ---      ---       #811
      0100A675H   LINE      ---      ---       #812
      0100A677H   LINE      ---      ---       #814
      0100A677H   LINE      ---      ---       #815
LX51 LINKER/LOCATER V4.66.93.0                                                        04/19/2019  09:16:48  PAGE 74


      0100A679H   LINE      ---      ---       #816
      0100A679H   LINE      ---      ---       #817
      0100A689H   LINE      ---      ---       #818
      0100A68BH   LINE      ---      ---       #820
      0100A68BH   LINE      ---      ---       #821
      0100A695H   LINE      ---      ---       #823
      0100A695H   LINE      ---      ---       #825
      0100A6A4H   LINE      ---      ---       #826
      0100A6A4H   LINE      ---      ---       #827
      0100A6BAH   LINE      ---      ---       #828
      0100A6BAH   LINE      ---      ---       #829
      0100A6BAH   LINE      ---      ---       #831
      0100A6BAH   LINE      ---      ---       #833
      0100A6BAH   LINE      ---      ---       #834
      0100A6C0H   LINE      ---      ---       #835
      0100A6CFH   LINE      ---      ---       #836
      0100A6CFH   LINE      ---      ---       #837
      0100A6D6H   LINE      ---      ---       #838
      0100A6D6H   LINE      ---      ---       #839
      0100A6D6H   LINE      ---      ---       #840
      0100A6D6H   LINE      ---      ---       #842
      0100A6D6H   LINE      ---      ---       #844
      0100A6D6H   LINE      ---      ---       #847
      0100A6D6H   LINE      ---      ---       #849
      0100A6D6H   LINE      ---      ---       #851
      0100A6D6H   LINE      ---      ---       #853
      0100A6E6H   LINE      ---      ---       #854
      0100A6E6H   LINE      ---      ---       #855
      0100A6EFH   LINE      ---      ---       #856
      0100A6EFH   LINE      ---      ---       #857
      0100A6F2H   LINE      ---      ---       #858
      0100A6F2H   LINE      ---      ---       #859
      0100A6FBH   LINE      ---      ---       #860
      0100A6FBH   LINE      ---      ---       #861
      0100A6FEH   LINE      ---      ---       #862
      0100A6FEH   LINE      ---      ---       #864
      0100A700H   LINE      ---      ---       #866
      0100A700H   LINE      ---      ---       #867
      0100A705H   LINE      ---      ---       #868
      0100A709H   LINE      ---      ---       #869
      0100A709H   LINE      ---      ---       #871
      0100A70FH   LINE      ---      ---       #872
      0100A715H   LINE      ---      ---       #873
      0100A715H   LINE      ---      ---       #874
      0100A717H   LINE      ---      ---       #875
      0100A71DH   LINE      ---      ---       #876
      0100A71DH   LINE      ---      ---       #877
      0100A71FH   LINE      ---      ---       #878
      0100A720H   LINE      ---      ---       #879
      0100A724H   LINE      ---      ---       #880
      0100A724H   LINE      ---      ---       #881
      0100A72AH   LINE      ---      ---       #882
      0100A72BH   LINE      ---      ---       #884
      0100A72BH   LINE      ---      ---       #885
      0100A730H   LINE      ---      ---       #886
      0100A730H   LINE      ---      ---       #887
      0100A730H   LINE      ---      ---       #888
      0100A730H   LINE      ---      ---       #889
      0200000AH   SYMBOL    XDATA    BYTE      Get_time_out
      0200000BH   SYMBOL    XDATA    BYTE      Read_Order
      02000110H   SYMBOL    XDATA    BYTE      Read_SHT21_Err
      02000111H   SYMBOL    XDATA    BYTE      Read_SCL_CONF
      02000112H   SYMBOL    XDATA    DWORD     TempLong
      02000116H   SYMBOL    XDATA    WORD      Temp2
      0200000CH   SYMBOL    XDATA    WORD      RT_Temp_Mem_L1
LX51 LINKER/LOCATER V4.66.93.0                                                        04/19/2019  09:16:48  PAGE 75


      0200000EH   SYMBOL    XDATA    WORD      RT_Temp_Mem_L2
      02000010H   SYMBOL    XDATA    WORD      RT_Temp_Mem_L3
      02000012H   SYMBOL    XDATA    BYTE      ReCnt
      ---         BLOCKEND  CODE     ---       LVL=1
      ---         BLOCKEND  CODE     ---       LVL=0

      01007021H   BLOCK     CODE     ---       LVL=0
      01007021H   LINE      ---      ---       #892
      01007021H   LINE      ---      ---       #893
      01007021H   BLOCK     CODE     NEAR LAB  LVL=1
      01007021H   LINE      ---      ---       #895
      01007026H   LINE      ---      ---       #912
      0100702AH   LINE      ---      ---       #913
      0100702CH   LINE      ---      ---       #916
      01007032H   LINE      ---      ---       #921
      01007038H   LINE      ---      ---       #922
      0100703EH   LINE      ---      ---       #923
      0100703EH   LINE      ---      ---       #924
      01007040H   LINE      ---      ---       #925
      01007040H   LINE      ---      ---       #927
      0100704FH   LINE      ---      ---       #928
      0100704FH   LINE      ---      ---       #929
      01007051H   LINE      ---      ---       #930
      01007051H   LINE      ---      ---       #931
      0100705AH   LINE      ---      ---       #932
      0100705AH   LINE      ---      ---       #933
      0100705DH   LINE      ---      ---       #934
      0100705DH   LINE      ---      ---       #936
      01007063H   LINE      ---      ---       #937
      01007063H   LINE      ---      ---       #938
      01007065H   LINE      ---      ---       #946
      01007067H   LINE      ---      ---       #948
      0100706BH   LINE      ---      ---       #949
      0100706BH   LINE      ---      ---       #950
      01007075H   LINE      ---      ---       #952
      01007075H   LINE      ---      ---       #953
      01007077H   LINE      ---      ---       #961
      0100707AH   LINE      ---      ---       #962
      0100707AH   LINE      ---      ---       #963
      0100707CH   LINE      ---      ---       #964
      0100707EH   LINE      ---      ---       #966
      0100707EH   LINE      ---      ---       #967
      01007083H   LINE      ---      ---       #968
      01007083H   LINE      ---      ---       #969
      01007085H   LINE      ---      ---       #971
      01007089H   LINE      ---      ---       #972
      0100708BH   LINE      ---      ---       #973
      01007091H   LINE      ---      ---       #975
      01007099H   LINE      ---      ---       #976
      0100709FH   LINE      ---      ---       #978
      010070A7H   LINE      ---      ---       #980
      010070AFH   LINE      ---      ---       #981
      010070AFH   LINE      ---      ---       #982
      010070B7H   LINE      ---      ---       #983
      010070E2H   LINE      ---      ---       #1000
      010070F6H   LINE      ---      ---       #1002
      010070F9H   LINE      ---      ---       #1003
      010070F9H   LINE      ---      ---       #1004
      010070FBH   LINE      ---      ---       #1005
      010070FBH   LINE      ---      ---       #1007
      01007103H   LINE      ---      ---       #1008
      01007103H   LINE      ---      ---       #1009
      01007108H   LINE      ---      ---       #1010
      0100710EH   LINE      ---      ---       #1013
      01007111H   LINE      ---      ---       #1014
LX51 LINKER/LOCATER V4.66.93.0                                                        04/19/2019  09:16:48  PAGE 76


      01007111H   LINE      ---      ---       #1015
      01007116H   LINE      ---      ---       #1017
      01007118H   LINE      ---      ---       #1019
      01007118H   LINE      ---      ---       #1020
      0100711BH   LINE      ---      ---       #1021
      01007120H   LINE      ---      ---       #1022
      01007120H   LINE      ---      ---       #1024
      01007137H   LINE      ---      ---       #1025
      01007137H   LINE      ---      ---       #1026
      0100713CH   LINE      ---      ---       #1027
      0100714BH   LINE      ---      ---       #1028
      0100714BH   LINE      ---      ---       #1029
      01007152H   LINE      ---      ---       #1030
      01007152H   LINE      ---      ---       #1031
      01007154H   LINE      ---      ---       #1033
      01007154H   LINE      ---      ---       #1034
      0100715BH   LINE      ---      ---       #1035
      0100715BH   LINE      ---      ---       #1037
      0100716AH   LINE      ---      ---       #1038
      0100716AH   LINE      ---      ---       #1040
      0100716AH   LINE      ---      ---       #1042
      0100716AH   LINE      ---      ---       #1043
      01007171H   LINE      ---      ---       #1044
      01007171H   LINE      ---      ---       #1047
      010071B2H   LINE      ---      ---       #1048
      010071B2H   LINE      ---      ---       #1049
      010071C7H   LINE      ---      ---       #1050
      010071C7H   LINE      ---      ---       #1051
      010071D0H   LINE      ---      ---       #1052
      010071D4H   LINE      ---      ---       #1053
      010071D4H   LINE      ---      ---       #1054
      010071F2H   LINE      ---      ---       #1055
      010071F2H   LINE      ---      ---       #1056
      010071F2H   LINE      ---      ---       #1057
      010071F2H   LINE      ---      ---       #1059
      010071F2H   LINE      ---      ---       #1061
      010071F2H   LINE      ---      ---       #1062
      01007201H   LINE      ---      ---       #1063
      01007201H   LINE      ---      ---       #1064
      01007201H   LINE      ---      ---       #1071
      01007201H   LINE      ---      ---       #1072
      01007208H   LINE      ---      ---       #1073
      01007208H   LINE      ---      ---       #1075
      0100720DH   LINE      ---      ---       #1076
      01007213H   LINE      ---      ---       #1086
      01007216H   LINE      ---      ---       #1087
      01007216H   LINE      ---      ---       #1088
      0100721BH   LINE      ---      ---       #1090
      0100721DH   LINE      ---      ---       #1092
      0100721DH   LINE      ---      ---       #1093
      01007220H   LINE      ---      ---       #1094
      01007225H   LINE      ---      ---       #1095
      01007225H   LINE      ---      ---       #1098
      01007233H   LINE      ---      ---       #1099
      01007233H   LINE      ---      ---       #1100
      01007238H   LINE      ---      ---       #1101
      01007247H   LINE      ---      ---       #1102
      01007247H   LINE      ---      ---       #1103
      0100724EH   LINE      ---      ---       #1104
      0100724EH   LINE      ---      ---       #1105
      01007250H   LINE      ---      ---       #1107
      01007250H   LINE      ---      ---       #1108
      01007257H   LINE      ---      ---       #1109
      01007257H   LINE      ---      ---       #1110
      01007261H   LINE      ---      ---       #1112
LX51 LINKER/LOCATER V4.66.93.0                                                        04/19/2019  09:16:48  PAGE 77


      0100726BH   LINE      ---      ---       #1121
      0100726BH   LINE      ---      ---       #1122
      0100726BH   LINE      ---      ---       #1124
      0100726BH   LINE      ---      ---       #1126
      0100726BH   LINE      ---      ---       #1127
      02000110H   SYMBOL    XDATA    BYTE      CQKSensorExist
      02000111H   SYMBOL    XDATA    BYTE      T18B20_L
      02000112H   SYMBOL    XDATA    BYTE      T18B20_H
      02000113H   SYMBOL    XDATA    BYTE      CQK_T18B20_L
      02000114H   SYMBOL    XDATA    BYTE      CQK_T18B20_H
      00000005H   SYMBOL    DATA     BYTE      T18B20_H_GET
      00000004H   SYMBOL    DATA     BYTE      T18B20_L_GET
      00000005H   SYMBOL    DATA     BYTE      CQK_T18B20_H_GET
      00000004H   SYMBOL    DATA     BYTE      CQK_T18B20_L_GET
      02000013H   SYMBOL    XDATA    WORD      CQK_Temp_Last
      02000115H   SYMBOL    XDATA    BYTE      CRC8_error
      02000116H   SYMBOL    XDATA    BYTE      checksum
      02000117H   SYMBOL    XDATA    ---       DS18B20_Cdata
      0200011FH   SYMBOL    XDATA    WORD      temp
      02000015H   SYMBOL    XDATA    WORD      JRP_Temp_Last
      02000017H   SYMBOL    XDATA    BYTE      Get_Temp_Cnt
      ---         BLOCKEND  CODE     ---       LVL=1
      ---         BLOCKEND  CODE     ---       LVL=0

      010080B8H   BLOCK     CODE     ---       LVL=0
      010080B8H   LINE      ---      ---       #1133
      010080B8H   LINE      ---      ---       #1134
      010080B8H   BLOCK     CODE     NEAR LAB  LVL=1
      010080B8H   LINE      ---      ---       #1136
      010080BAH   LINE      ---      ---       #1147
      010080C6H   LINE      ---      ---       #1148
      010080C6H   LINE      ---      ---       #1149
      010080C9H   LINE      ---      ---       #1150
      01008199H   LINE      ---      ---       #1171
      010081A1H   LINE      ---      ---       #1172
      010081A1H   LINE      ---      ---       #1173
      010081BCH   LINE      ---      ---       #1176
      010081CAH   LINE      ---      ---       #1177
      010081CAH   LINE      ---      ---       #1178
      010081D3H   LINE      ---      ---       #1179
      010081D5H   LINE      ---      ---       #1181
      010081D5H   LINE      ---      ---       #1182
      010081E5H   LINE      ---      ---       #1183
      010081E5H   LINE      ---      ---       #1186
      010081F5H   LINE      ---      ---       #1189
      01008203H   LINE      ---      ---       #1190
      01008203H   LINE      ---      ---       #1191
      0100820CH   LINE      ---      ---       #1192
      0100820EH   LINE      ---      ---       #1194
      0100820EH   LINE      ---      ---       #1195
      0100821EH   LINE      ---      ---       #1196
      0100821EH   LINE      ---      ---       #1199
      0100822FH   LINE      ---      ---       #1200
      01008231H   LINE      ---      ---       #1202
      01008231H   LINE      ---      ---       #1203
      0100824CH   LINE      ---      ---       #1205
      0100824CH   LINE      ---      ---       #1207
      0100829FH   LINE      ---      ---       #1213
      0100829FH   LINE      ---      ---       #1220
      010082B8H   LINE      ---      ---       #1221
      010082B8H   LINE      ---      ---       #1222
      010082BEH   LINE      ---      ---       #1224
      010082C2H   LINE      ---      ---       #1226
      010082C9H   LINE      ---      ---       #1228
      010082CBH   LINE      ---      ---       #1229
LX51 LINKER/LOCATER V4.66.93.0                                                        04/19/2019  09:16:48  PAGE 78


      010082CBH   LINE      ---      ---       #1231
      010082CBH   LINE      ---      ---       #1234
      010082D4H   LINE      ---      ---       #1235
      010082D4H   LINE      ---      ---       #1236
      010082DBH   LINE      ---      ---       #1237
      010082DDH   LINE      ---      ---       #1238
      010082DDH   LINE      ---      ---       #1239
      010082E4H   LINE      ---      ---       #1240
      010082E4H   LINE      ---      ---       #1242
      010082E6H   LINE      ---      ---       #1244
      010082F2H   LINE      ---      ---       #1245
      010082F2H   LINE      ---      ---       #1246
      010082FAH   LINE      ---      ---       #1247
      010082FAH   LINE      ---      ---       #1248
      010082FEH   LINE      ---      ---       #1249
      010082FEH   LINE      ---      ---       #1250
      01008305H   LINE      ---      ---       #1251
      01008307H   LINE      ---      ---       #1253
      01008307H   LINE      ---      ---       #1254
      01008316H   LINE      ---      ---       #1255
      01008316H   LINE      ---      ---       #1256
      01008326H   LINE      ---      ---       #1257
      01008326H   LINE      ---      ---       #1258
      0100832BH   LINE      ---      ---       #1259
      0100832BH   LINE      ---      ---       #1263
      01008342H   LINE      ---      ---       #1264
      01008345H   LINE      ---      ---       #1265
      0100834FH   LINE      ---      ---       #1267
      01008355H   LINE      ---      ---       #1268
      01008355H   LINE      ---      ---       #1269
      0100836EH   LINE      ---      ---       #1270
      0100836EH   LINE      ---      ---       #1272
      0100836EH   LINE      ---      ---       #1273
      0100837BH   LINE      ---      ---       #1274
      0100837BH   LINE      ---      ---       #1276
      0100837BH   LINE      ---      ---       #1277
      01008381H   LINE      ---      ---       #1278
      01008381H   LINE      ---      ---       #1280
      01008381H   LINE      ---      ---       #1281
      0100838DH   LINE      ---      ---       #1282
      0100838DH   LINE      ---      ---       #1284
      0100838DH   LINE      ---      ---       #1286
      0100838DH   LINE      ---      ---       #1287
      0100838DH   LINE      ---      ---       #1288
      0100838DH   LINE      ---      ---       #1289
      0100838FH   LINE      ---      ---       #1291
      0100838FH   LINE      ---      ---       #1292
      0100838FH   LINE      ---      ---       #1293
      0100838FH   LINE      ---      ---       #1294
      01008391H   LINE      ---      ---       #1296
      01008391H   LINE      ---      ---       #1297
      01008393H   LINE      ---      ---       #1298
      01008393H   LINE      ---      ---       #1300
      01008397H   LINE      ---      ---       #1301
      01008397H   LINE      ---      ---       #1303
      01008397H   LINE      ---      ---       #1305
      01008397H   LINE      ---      ---       #1306
      010083A1H   LINE      ---      ---       #1307
      010083A1H   LINE      ---      ---       #1308
      010083A7H   LINE      ---      ---       #1309
      010083A7H   LINE      ---      ---       #1310
      010083A7H   LINE      ---      ---       #1313
      010083B1H   LINE      ---      ---       #1315
      010083B3H   LINE      ---      ---       #1316
      010083B9H   LINE      ---      ---       #1317
LX51 LINKER/LOCATER V4.66.93.0                                                        04/19/2019  09:16:48  PAGE 79


      010083B9H   LINE      ---      ---       #1318
      010083B9H   LINE      ---      ---       #1319
      010083CEH   LINE      ---      ---       #1320
      010083D6H   LINE      ---      ---       #1321
      010083D6H   LINE      ---      ---       #1322
      010083DBH   LINE      ---      ---       #1323
      010083DBH   LINE      ---      ---       #1324
      010083E1H   LINE      ---      ---       #1325
      010083E1H   LINE      ---      ---       #1326
      010083EBH   LINE      ---      ---       #1327
      010083EBH   LINE      ---      ---       #1328
      01008403H   LINE      ---      ---       #1329
      01008403H   LINE      ---      ---       #1330
      01008403H   LINE      ---      ---       #1331
      0100840DH   LINE      ---      ---       #1332
      0100840DH   LINE      ---      ---       #1333
      0100840DH   LINE      ---      ---       #1334
      0100840DH   LINE      ---      ---       #1335
      0100840DH   LINE      ---      ---       #1336
      0100840FH   LINE      ---      ---       #1338
      0100840FH   LINE      ---      ---       #1339
      01008411H   LINE      ---      ---       #1340
      01008411H   LINE      ---      ---       #1341
      0100841BH   LINE      ---      ---       #1342
      0100841BH   LINE      ---      ---       #1347
      01008423H   LINE      ---      ---       #1348
      01008423H   LINE      ---      ---       #1349
      0100842DH   LINE      ---      ---       #1351
      0100842DH   LINE      ---      ---       #1352
      01008432H   LINE      ---      ---       #1353
      01008432H   LINE      ---      ---       #1354
      01008434H   LINE      ---      ---       #1356
      01008434H   LINE      ---      ---       #1357
      0100843BH   LINE      ---      ---       #1358
      0100843BH   LINE      ---      ---       #1360
      0100844EH   LINE      ---      ---       #1362
      0100844EH   LINE      ---      ---       #1363
      01008453H   LINE      ---      ---       #1364
      01008453H   LINE      ---      ---       #1366
      0100845FH   LINE      ---      ---       #1367
      0100845FH   LINE      ---      ---       #1368
      01008461H   LINE      ---      ---       #1369
      01008461H   LINE      ---      ---       #1370
      01008470H   LINE      ---      ---       #1372
      0100847FH   LINE      ---      ---       #1373
      0100847FH   LINE      ---      ---       #1374
      01008486H   LINE      ---      ---       #1375
      0100848CH   LINE      ---      ---       #1377
      0100848CH   LINE      ---      ---       #1379
      0100849FH   LINE      ---      ---       #1380
      0100849FH   LINE      ---      ---       #1381
      010084A5H   LINE      ---      ---       #1383
      010084A6H   LINE      ---      ---       #1385
      010084AEH   LINE      ---      ---       #1386
      010084AEH   LINE      ---      ---       #1387
      010084BAH   LINE      ---      ---       #1388
      010084BAH   LINE      ---      ---       #1389
      010084C0H   LINE      ---      ---       #1390
      010084C0H   LINE      ---      ---       #1391
      010084C2H   LINE      ---      ---       #1392
      010084C8H   LINE      ---      ---       #1393
      010084CAH   LINE      ---      ---       #1395
      010084CAH   LINE      ---      ---       #1396
      010084DBH   LINE      ---      ---       #1399
      010084DBH   LINE      ---      ---       #1400
LX51 LINKER/LOCATER V4.66.93.0                                                        04/19/2019  09:16:48  PAGE 80


      010084E4H   LINE      ---      ---       #1401
      010084E4H   LINE      ---      ---       #1403
      010084E8H   LINE      ---      ---       #1404
      010084E8H   LINE      ---      ---       #1405
      010084EAH   LINE      ---      ---       #1407
      010084EAH   LINE      ---      ---       #1408
      010084F3H   LINE      ---      ---       #1409
      010084F3H   LINE      ---      ---       #1410
      010084FFH   LINE      ---      ---       #1411
      010084FFH   LINE      ---      ---       #1412
      010084FFH   LINE      ---      ---       #1414
      0100850DH   LINE      ---      ---       #1415
      0100850DH   LINE      ---      ---       #1417
      01008521H   LINE      ---      ---       #1418
      01008521H   LINE      ---      ---       #1420
      01008528H   LINE      ---      ---       #1421
      01008528H   LINE      ---      ---       #1423
      01008539H   LINE      ---      ---       #1424
      01008539H   LINE      ---      ---       #1425
      01008540H   LINE      ---      ---       #1426
      01008540H   LINE      ---      ---       #1427
      01008542H   LINE      ---      ---       #1429
      01008542H   LINE      ---      ---       #1430
      01008553H   LINE      ---      ---       #1431
      01008553H   LINE      ---      ---       #1432
      01008556H   LINE      ---      ---       #1433
      01008556H   LINE      ---      ---       #1434
      01008556H   LINE      ---      ---       #1439
      0100856FH   LINE      ---      ---       #1440
      0100856FH   LINE      ---      ---       #1441
      01008576H   LINE      ---      ---       #1442
      01008578H   LINE      ---      ---       #1444
      01008578H   LINE      ---      ---       #1445
      0100857EH   LINE      ---      ---       #1446
      0100858FH   LINE      ---      ---       #1447
      0100858FH   LINE      ---      ---       #1448
      010085A6H   LINE      ---      ---       #1450
      010085A9H   LINE      ---      ---       #1452
      010085B6H   LINE      ---      ---       #1454
      010085BDH   LINE      ---      ---       #1455
      010085BDH   LINE      ---      ---       #1456
      010085CAH   LINE      ---      ---       #1457
      010085CAH   LINE      ---      ---       #1458
      010085D1H   LINE      ---      ---       #1459
      010085D1H   LINE      ---      ---       #1460
      010085D3H   LINE      ---      ---       #1462
      010085D3H   LINE      ---      ---       #1463
      010085E0H   LINE      ---      ---       #1464
      010085E0H   LINE      ---      ---       #1465
      010085E7H   LINE      ---      ---       #1466
      010085E7H   LINE      ---      ---       #1467
      010085E7H   LINE      ---      ---       #1469
      010085EBH   LINE      ---      ---       #1471
      010085EBH   LINE      ---      ---       #1472
      010085F8H   LINE      ---      ---       #1473
      010085F8H   LINE      ---      ---       #1474
      010085FFH   LINE      ---      ---       #1475
      010085FFH   LINE      ---      ---       #1476
      01008601H   LINE      ---      ---       #1478
      01008601H   LINE      ---      ---       #1479
      0100860EH   LINE      ---      ---       #1480
      0100860EH   LINE      ---      ---       #1481
      01008611H   LINE      ---      ---       #1482
      01008611H   LINE      ---      ---       #1483
      01008611H   LINE      ---      ---       #1484
LX51 LINKER/LOCATER V4.66.93.0                                                        04/19/2019  09:16:48  PAGE 81


      01008611H   LINE      ---      ---       #1485
      01008611H   LINE      ---      ---       #1488
      01008626H   LINE      ---      ---       #1492
      01008647H   LINE      ---      ---       #1493
      01008647H   LINE      ---      ---       #1494
      01008651H   LINE      ---      ---       #1495
      01008651H   LINE      ---      ---       #1496
      01008657H   LINE      ---      ---       #1497
      01008657H   LINE      ---      ---       #1498
      01008662H   LINE      ---      ---       #1499
      01008662H   LINE      ---      ---       #1500
      01008662H   LINE      ---      ---       #1501
      01008662H   LINE      ---      ---       #1503
      01008662H   LINE      ---      ---       #1505
      01008662H   LINE      ---      ---       #1507
      01008662H   LINE      ---      ---       #1508
      01008662H   LINE      ---      ---       #1509
      01008662H   LINE      ---      ---       #1512
      0100866DH   LINE      ---      ---       #1513
      0100866DH   LINE      ---      ---       #1514
      01008673H   LINE      ---      ---       #1515
      01008673H   LINE      ---      ---       #1516
      0100867DH   LINE      ---      ---       #1517
      0100867DH   LINE      ---      ---       #1518
      01008686H   LINE      ---      ---       #1519
      01008686H   LINE      ---      ---       #1521
      01008687H   LINE      ---      ---       #1522
      01008691H   LINE      ---      ---       #1523
      01008691H   LINE      ---      ---       #1524
      01008694H   LINE      ---      ---       #1526
      01008694H   LINE      ---      ---       #1528
      01008694H   LINE      ---      ---       #1530
      01008694H   LINE      ---      ---       #1532
      01008694H   LINE      ---      ---       #1533
      02000110H   SYMBOL    XDATA    WORD      Val_Calc
      02000112H   SYMBOL    XDATA    INT       Humidity_Err
      02000114H   SYMBOL    XDATA    INT       Humidity_Comp
      02000018H   SYMBOL    XDATA    WORD      Last_Rem_Humidity
      0200001AH   SYMBOL    XDATA    WORD      Aim_SHIDU
      0200001CH   SYMBOL    XDATA    INT       Temp1_Int
      0200001EH   SYMBOL    XDATA    WORD      WarmUp_S_Cnt
      ---         BLOCKEND  CODE     ---       LVL=1
      ---         BLOCKEND  CODE     ---       LVL=0

      0100AFECH   BLOCK     CODE     ---       LVL=0
      0100AFECH   LINE      ---      ---       #1536
      0100AFECH   LINE      ---      ---       #1537
      0100AFECH   BLOCK     CODE     NEAR LAB  LVL=1
      0100AFECH   LINE      ---      ---       #1540
      0100AFFBH   LINE      ---      ---       #1541
      0100AFFBH   LINE      ---      ---       #1543
      0100AFFBH   LINE      ---      ---       #1545
      0100AFFBH   LINE      ---      ---       #1546
      0100B017H   LINE      ---      ---       #1547
      0100B01BH   LINE      ---      ---       #1548
      0100B028H   LINE      ---      ---       #1549
      0100B028H   LINE      ---      ---       #1550
      0100B02AH   LINE      ---      ---       #1551
      0100B02AH   LINE      ---      ---       #1552
      0100B045H   LINE      ---      ---       #1556
      0100B045H   LINE      ---      ---       #1557
      00000006H   SYMBOL    DATA     WORD      i
      00000005H   SYMBOL    DATA     BYTE      N
      02000118H   SYMBOL    XDATA    BYTE      j
      ---         BLOCKEND  CODE     ---       LVL=1
LX51 LINKER/LOCATER V4.66.93.0                                                        04/19/2019  09:16:48  PAGE 82


      ---         BLOCKEND  CODE     ---       LVL=0

      0100B051H   BLOCK     CODE     ---       LVL=0
      0100B051H   LINE      ---      ---       #1559
      0100B051H   LINE      ---      ---       #1560
      0100B051H   BLOCK     CODE     NEAR LAB  LVL=1
      0100B051H   LINE      ---      ---       #1563
      0100B056H   LINE      ---      ---       #1564
      0100B05DH   LINE      ---      ---       #1565
      0100B061H   LINE      ---      ---       #1566
      0100B061H   LINE      ---      ---       #1567
      0100B07DH   LINE      ---      ---       #1569
      0100B084H   LINE      ---      ---       #1570
      0100B08BH   LINE      ---      ---       #1571
      0100B08BH   LINE      ---      ---       #1572
      0100B09AH   LINE      ---      ---       #1573
      0100B09CH   LINE      ---      ---       #1574
      0100B09CH   LINE      ---      ---       #1575
      0100B0ACH   LINE      ---      ---       #1576
      0100B0CDH   LINE      ---      ---       #1577
      0100B0DDH   LINE      ---      ---       #1578
      0100B0E5H   LINE      ---      ---       #1579
      0100B0E5H   LINE      ---      ---       #1581
      0100B0E5H   LINE      ---      ---       #1582
      0100B0EBH   LINE      ---      ---       #1583
      0100B0F0H   LINE      ---      ---       #1584
      0100B0F0H   LINE      ---      ---       #1585
      0100B0F0H   LINE      ---      ---       #1586
      0100B0FAH   LINE      ---      ---       #1587
      0100B127H   LINE      ---      ---       #1589
      0100B127H   LINE      ---      ---       #1590
      0100B13DH   LINE      ---      ---       #1591
      0100B13DH   LINE      ---      ---       #1592
      0100B13DH   LINE      ---      ---       #1593
      0100B13DH   LINE      ---      ---       #1594
      0100B141H   LINE      ---      ---       #1595
      02000110H   SYMBOL    XDATA    WORD      Start1
      02000112H   SYMBOL    XDATA    WORD      Start2
      02000114H   SYMBOL    XDATA    WORD      StartAdr
      02000116H   SYMBOL    XDATA    BYTE      N
      02000117H   SYMBOL    XDATA    BYTE      K
      02000118H   SYMBOL    XDATA    BYTE      j
      ---         BLOCKEND  CODE     ---       LVL=1
      ---         BLOCKEND  CODE     ---       LVL=0

      0100B7F3H   BLOCK     CODE     ---       LVL=0
      0100B7F3H   LINE      ---      ---       #1627
      0100B7F3H   LINE      ---      ---       #1628
      0100B7F3H   LINE      ---      ---       #1629
      0100B7F9H   LINE      ---      ---       #1630
      0100B7FDH   LINE      ---      ---       #1631
      ---         BLOCKEND  ---      ---       LVL=0

      0100987DH   BLOCK     CODE     ---       LVL=0
      0100987DH   LINE      ---      ---       #1634
      0100987DH   LINE      ---      ---       #1635
      0100987DH   BLOCK     CODE     NEAR LAB  LVL=1
      0100987DH   LINE      ---      ---       #1636
      01009882H   LINE      ---      ---       #1643
      0100988AH   LINE      ---      ---       #1645
      0100988AH   LINE      ---      ---       #1646
      0100988CH   LINE      ---      ---       #1647
      0100988CH   LINE      ---      ---       #1648
      01009891H   LINE      ---      ---       #1649
      01009894H   LINE      ---      ---       #1656
LX51 LINKER/LOCATER V4.66.93.0                                                        04/19/2019  09:16:48  PAGE 83


      010098C7H   LINE      ---      ---       #1658
      010098C7H   LINE      ---      ---       #1659
      010098D1H   LINE      ---      ---       #1661
      010098DCH   LINE      ---      ---       #1664
      010098DEH   LINE      ---      ---       #1666
      010098DEH   LINE      ---      ---       #1667
      010098E9H   LINE      ---      ---       #1669
      010098E9H   LINE      ---      ---       #1671
      010098FBH   LINE      ---      ---       #1672
      010098FBH   LINE      ---      ---       #1673
      01009901H   LINE      ---      ---       #1674
      01009908H   LINE      ---      ---       #1676
      01009912H   LINE      ---      ---       #1681
      01009914H   LINE      ---      ---       #1683
      01009914H   LINE      ---      ---       #1684
      0100991FH   LINE      ---      ---       #1686
      0100991FH   LINE      ---      ---       #1689
      01009939H   LINE      ---      ---       #1690
      01009939H   LINE      ---      ---       #1691
      0100993FH   LINE      ---      ---       #1692
      01009948H   LINE      ---      ---       #1693
      01009948H   LINE      ---      ---       #1694
      0100994BH   LINE      ---      ---       #1696
      0100994BH   LINE      ---      ---       #1697
      01009950H   LINE      ---      ---       #1700
      01009952H   LINE      ---      ---       #1701
      01009954H   LINE      ---      ---       #1703
      01009954H   LINE      ---      ---       #1704
      01009959H   LINE      ---      ---       #1705
      01009959H   LINE      ---      ---       #1708
      01009970H   LINE      ---      ---       #1709
      01009970H   LINE      ---      ---       #1710
      01009976H   LINE      ---      ---       #1711
      01009981H   LINE      ---      ---       #1712
      01009983H   LINE      ---      ---       #1714
      01009983H   LINE      ---      ---       #1715
      0100998EH   LINE      ---      ---       #1717
      0100998EH   LINE      ---      ---       #1718
      01009998H   LINE      ---      ---       #1719
      01009998H   LINE      ---      ---       #1720
      0100999AH   LINE      ---      ---       #1721
      0100999CH   LINE      ---      ---       #1723
      0100999CH   LINE      ---      ---       #1724
      0100999EH   LINE      ---      ---       #1725
      0100999EH   LINE      ---      ---       #1728
      010099A8H   LINE      ---      ---       #1729
      010099A8H   LINE      ---      ---       #1730
      010099AAH   LINE      ---      ---       #1731
      010099ACH   LINE      ---      ---       #1733
      010099ACH   LINE      ---      ---       #1734
      010099AEH   LINE      ---      ---       #1735
      010099AEH   LINE      ---      ---       #1738
      010099B2H   LINE      ---      ---       #1739
      010099B2H   LINE      ---      ---       #1740
      010099BAH   LINE      ---      ---       #1741
      010099BCH   LINE      ---      ---       #1743
      010099BCH   LINE      ---      ---       #1744
      010099C2H   LINE      ---      ---       #1745
      010099C2H   LINE      ---      ---       #1746
      010099C6H   LINE      ---      ---       #1747
      010099C6H   LINE      ---      ---       #1748
      010099C6H   LINE      ---      ---       #1762
      010099CDH   LINE      ---      ---       #1763
      010099CDH   LINE      ---      ---       #1764
      010099DBH   LINE      ---      ---       #1765
LX51 LINKER/LOCATER V4.66.93.0                                                        04/19/2019  09:16:48  PAGE 84


      010099DBH   LINE      ---      ---       #1766
      010099EEH   LINE      ---      ---       #1767
      010099EEH   LINE      ---      ---       #1768
      010099F5H   LINE      ---      ---       #1769
      010099F5H   LINE      ---      ---       #1770
      01009A05H   LINE      ---      ---       #1771
      01009A05H   LINE      ---      ---       #1772
      01009A0CH   LINE      ---      ---       #1773
      01009A0CH   LINE      ---      ---       #1774
      01009A1DH   LINE      ---      ---       #1775
      01009A1DH   LINE      ---      ---       #1776
      01009A21H   LINE      ---      ---       #1777
      01009A21H   LINE      ---      ---       #1778
      01009A2EH   LINE      ---      ---       #1779
      01009A2EH   LINE      ---      ---       #1780
      01009A32H   LINE      ---      ---       #1781
      01009A32H   LINE      ---      ---       #1782
      01009A43H   LINE      ---      ---       #1783
      01009A43H   LINE      ---      ---       #1784
      01009A47H   LINE      ---      ---       #1785
      01009A47H   LINE      ---      ---       #1786
      01009A58H   LINE      ---      ---       #1787
      01009A58H   LINE      ---      ---       #1788
      01009A5EH   LINE      ---      ---       #1789
      01009A5EH   LINE      ---      ---       #1790
      01009A6EH   LINE      ---      ---       #1791
      01009A6EH   LINE      ---      ---       #1792
      01009A75H   LINE      ---      ---       #1793
      01009A75H   LINE      ---      ---       #1794
      01009A86H   LINE      ---      ---       #1795
      01009A86H   LINE      ---      ---       #1796
      01009A8AH   LINE      ---      ---       #1797
      01009A8AH   LINE      ---      ---       #1798
      01009A9EH   LINE      ---      ---       #1799
      01009A9EH   LINE      ---      ---       #1800
      01009A9EH   LINE      ---      ---       #1803
      01009AA4H   LINE      ---      ---       #1804
      01009AA4H   LINE      ---      ---       #1805
      01009AA9H   LINE      ---      ---       #1806
      01009AABH   LINE      ---      ---       #1807
      01009AAFH   LINE      ---      ---       #1808
      01009AAFH   LINE      ---      ---       #1809
      01009AB5H   LINE      ---      ---       #1810
      01009AB7H   LINE      ---      ---       #1811
      01009AC5H   LINE      ---      ---       #1812
      01009AC5H   LINE      ---      ---       #1813
      01009ACBH   LINE      ---      ---       #1814
      01009ACDH   LINE      ---      ---       #1815
      01009AD8H   LINE      ---      ---       #1816
      01009AD8H   LINE      ---      ---       #1817
      01009ADEH   LINE      ---      ---       #1818
      01009AE0H   LINE      ---      ---       #1819
      01009AE7H   LINE      ---      ---       #1820
      01009AE7H   LINE      ---      ---       #1821
      01009AEDH   LINE      ---      ---       #1822
      01009AEFH   LINE      ---      ---       #1823
      01009AF3H   LINE      ---      ---       #1824
      01009AF3H   LINE      ---      ---       #1825
      01009AF9H   LINE      ---      ---       #1826
      01009AFBH   LINE      ---      ---       #1827
      01009B01H   LINE      ---      ---       #1828
      01009B01H   LINE      ---      ---       #1829
      01009B07H   LINE      ---      ---       #1830
      01009B09H   LINE      ---      ---       #1831
      01009B10H   LINE      ---      ---       #1832
LX51 LINKER/LOCATER V4.66.93.0                                                        04/19/2019  09:16:48  PAGE 85


      01009B10H   LINE      ---      ---       #1833
      01009B16H   LINE      ---      ---       #1834
      01009B18H   LINE      ---      ---       #1836
      01009B18H   LINE      ---      ---       #1837
      01009B1DH   LINE      ---      ---       #1838
      01009B21H   LINE      ---      ---       #1839
      01009B21H   LINE      ---      ---       #1841
      01009B2DH   LINE      ---      ---       #1842
      01009B2DH   LINE      ---      ---       #1843
      01009B32H   LINE      ---      ---       #1844
      01009B35H   LINE      ---      ---       #1845
      01009B35H   LINE      ---      ---       #1847
      01009B3DH   LINE      ---      ---       #1851
      01009B44H   LINE      ---      ---       #1852
      01009B5AH   LINE      ---      ---       #1853
      01009B5AH   LINE      ---      ---       #1854
      01009B61H   LINE      ---      ---       #1855
      01009B61H   LINE      ---      ---       #1857
      01009B6CH   LINE      ---      ---       #1858
      01009B6CH   LINE      ---      ---       #1859
      01009B72H   LINE      ---      ---       #1860
      01009B72H   LINE      ---      ---       #1861
      01009B74H   LINE      ---      ---       #1863
      01009B79H   LINE      ---      ---       #1864
      01009B79H   LINE      ---      ---       #1865
      01009B81H   LINE      ---      ---       #1866
      01009B81H   LINE      ---      ---       #1867
      01009B85H   LINE      ---      ---       #1870
      01009B8AH   LINE      ---      ---       #1871
      01009B8AH   LINE      ---      ---       #1872
      01009B8FH   LINE      ---      ---       #1873
      01009B8FH   LINE      ---      ---       #1874
      01009B94H   LINE      ---      ---       #1875
      01009B94H   LINE      ---      ---       #1876
      01009BA2H   LINE      ---      ---       #1878
      01009BA2H   LINE      ---      ---       #1879
      01009BA2H   LINE      ---      ---       #1881
      01009BABH   LINE      ---      ---       #1882
      01009BABH   LINE      ---      ---       #1883
      01009BB0H   LINE      ---      ---       #1884
      01009BB0H   LINE      ---      ---       #1885
      01009BC4H   LINE      ---      ---       #1888
      01009BC4H   LINE      ---      ---       #1889
      01009BC4H   LINE      ---      ---       #1890
      01009BC4H   LINE      ---      ---       #1891
      01009BC7H   LINE      ---      ---       #1892
      01009BC7H   LINE      ---      ---       #1893
      01009BCDH   LINE      ---      ---       #1894
      01009BCDH   LINE      ---      ---       #1895
      01009BD1H   LINE      ---      ---       #1896
      01009BD3H   LINE      ---      ---       #1897
      01009BDCH   LINE      ---      ---       #1898
      01009BDCH   LINE      ---      ---       #1899
      01009BDEH   LINE      ---      ---       #1900
      01009BDEH   LINE      ---      ---       #1902
      01009BDEH   LINE      ---      ---       #1904
      01009BDEH   LINE      ---      ---       #1907
      01009BDEH   LINE      ---      ---       #1908
      01009BE0H   LINE      ---      ---       #1910
      01009BE0H   LINE      ---      ---       #1911
      01009BE5H   LINE      ---      ---       #1912
      01009BE5H   LINE      ---      ---       #1913
      01009BE6H   LINE      ---      ---       #1914
      01009BEAH   LINE      ---      ---       #1916
      01009BEAH   LINE      ---      ---       #1918
LX51 LINKER/LOCATER V4.66.93.0                                                        04/19/2019  09:16:48  PAGE 86


      01009BF2H   LINE      ---      ---       #1919
      01009BF2H   LINE      ---      ---       #1920
      01009BF5H   LINE      ---      ---       #1921
      01009BF8H   LINE      ---      ---       #1922
      01009BF8H   LINE      ---      ---       #1923
      01009BFEH   LINE      ---      ---       #1924
      01009BFEH   LINE      ---      ---       #1925
      01009C02H   LINE      ---      ---       #1926
      01009C04H   LINE      ---      ---       #1927
      01009C0BH   LINE      ---      ---       #1928
      01009C0BH   LINE      ---      ---       #1929
      01009C11H   LINE      ---      ---       #1930
      01009C11H   LINE      ---      ---       #1932
      01009C11H   LINE      ---      ---       #1934
      01009C11H   LINE      ---      ---       #1935
      01009C21H   LINE      ---      ---       #1937
      01009C23H   LINE      ---      ---       #1939
      01009C44H   LINE      ---      ---       #1942
      01009C44H   LINE      ---      ---       #1944
      01009C4CH   LINE      ---      ---       #1945
      01009C4CH   LINE      ---      ---       #1946
      01009C4FH   LINE      ---      ---       #1947
      01009C53H   LINE      ---      ---       #1948
      01009C53H   LINE      ---      ---       #1950
      01009C59H   LINE      ---      ---       #1951
      01009C59H   LINE      ---      ---       #1952
      01009C5DH   LINE      ---      ---       #1953
      01009C5FH   LINE      ---      ---       #1954
      01009C66H   LINE      ---      ---       #1955
      01009C66H   LINE      ---      ---       #1956
      01009C68H   LINE      ---      ---       #1957
      01009C68H   LINE      ---      ---       #1959
      01009C68H   LINE      ---      ---       #1961
      01009C68H   LINE      ---      ---       #1964
      01009C68H   LINE      ---      ---       #1966
      01009C72H   LINE      ---      ---       #1967
      01009C72H   LINE      ---      ---       #1968
      01009C77H   LINE      ---      ---       #1969
      01009C79H   LINE      ---      ---       #1970
      01009C79H   LINE      ---      ---       #1971
      01009C7EH   LINE      ---      ---       #1972
      01009C7EH   LINE      ---      ---       #1973
      01009C8EH   LINE      ---      ---       #1974
      01009C8EH   LINE      ---      ---       #1975
      01009C93H   LINE      ---      ---       #1976
      01009C95H   LINE      ---      ---       #1977
      01009C95H   LINE      ---      ---       #1978
      01009C9AH   LINE      ---      ---       #1979
      01009C9AH   LINE      ---      ---       #1980
      01009C9EH   LINE      ---      ---       #1981
      01009C9EH   LINE      ---      ---       #1983
      01009C9EH   LINE      ---      ---       #1985
      01009C9EH   LINE      ---      ---       #1986
      01009C9EH   LINE      ---      ---       #1987
      01009CA0H   LINE      ---      ---       #1989
      01009CA0H   LINE      ---      ---       #1990
      01009CA0H   LINE      ---      ---       #1991
      01009CA2H   LINE      ---      ---       #1992
      01009CACH   LINE      ---      ---       #1994
      01009CACH   LINE      ---      ---       #1995
      01009CAEH   LINE      ---      ---       #1997
      01009CAEH   LINE      ---      ---       #1998
      01009CB6H   LINE      ---      ---       #1999
      01009CB6H   LINE      ---      ---       #2000
      01009CB9H   LINE      ---      ---       #2001
LX51 LINKER/LOCATER V4.66.93.0                                                        04/19/2019  09:16:48  PAGE 87


      01009CBDH   LINE      ---      ---       #2002
      01009CBDH   LINE      ---      ---       #2005
      01009CCAH   LINE      ---      ---       #2006
      01009CCAH   LINE      ---      ---       #2007
      01009CCDH   LINE      ---      ---       #2008
      01009CCFH   LINE      ---      ---       #2010
      01009CCFH   LINE      ---      ---       #2011
      01009CD2H   LINE      ---      ---       #2012
      01009CD2H   LINE      ---      ---       #2013
      01009CD7H   LINE      ---      ---       #2014
      01009CD7H   LINE      ---      ---       #2015
      01009CD7H   LINE      ---      ---       #2016
      01009CDCH   LINE      ---      ---       #2017
      01009CDCH   LINE      ---      ---       #2020
      01009CFBH   LINE      ---      ---       #2022
      01009CFBH   LINE      ---      ---       #2023
      01009CFBH   LINE      ---      ---       #2025
      01009CFBH   LINE      ---      ---       #2026
      01009D00H   LINE      ---      ---       #2027
      01009D00H   LINE      ---      ---       #2028
      01009D00H   LINE      ---      ---       #2030
      01009D00H   LINE      ---      ---       #2032
      01009D00H   LINE      ---      ---       #2034
      01009D13H   LINE      ---      ---       #2039
      01009D20H   LINE      ---      ---       #2040
      01009D20H   LINE      ---      ---       #2041
      01009D23H   LINE      ---      ---       #2042
      01009D25H   LINE      ---      ---       #2044
      01009D25H   LINE      ---      ---       #2045
      01009D28H   LINE      ---      ---       #2046
      01009D28H   LINE      ---      ---       #2047
      01009D2DH   LINE      ---      ---       #2048
      01009D2DH   LINE      ---      ---       #2049
      01009D2DH   LINE      ---      ---       #2050
      01009D32H   LINE      ---      ---       #2051
      01009D32H   LINE      ---      ---       #2054
      01009D50H   LINE      ---      ---       #2056
      01009D50H   LINE      ---      ---       #2057
      01009D50H   LINE      ---      ---       #2059
      01009D50H   LINE      ---      ---       #2060
      01009D55H   LINE      ---      ---       #2061
      01009D55H   LINE      ---      ---       #2062
      01009D55H   LINE      ---      ---       #2064
      01009D55H   LINE      ---      ---       #2066
      01009D55H   LINE      ---      ---       #2068
      01009D6FH   LINE      ---      ---       #2071
      01009D6FH   LINE      ---      ---       #2072
      01009D6FH   LINE      ---      ---       #2073
      01009D75H   LINE      ---      ---       #2074
      01009D75H   LINE      ---      ---       #2075
      01009D77H   LINE      ---      ---       #2077
      01009D7FH   LINE      ---      ---       #2078
      01009D7FH   LINE      ---      ---       #2079
      01009D82H   LINE      ---      ---       #2080
      01009D85H   LINE      ---      ---       #2081
      01009D85H   LINE      ---      ---       #2082
      01009D8BH   LINE      ---      ---       #2083
      01009D8BH   LINE      ---      ---       #2085
      01009D91H   LINE      ---      ---       #2086
      01009D93H   LINE      ---      ---       #2088
      01009D9AH   LINE      ---      ---       #2089
      01009D9AH   LINE      ---      ---       #2090
      01009D9CH   LINE      ---      ---       #2091
      01009D9CH   LINE      ---      ---       #2093
      01009D9CH   LINE      ---      ---       #2095
LX51 LINKER/LOCATER V4.66.93.0                                                        04/19/2019  09:16:48  PAGE 88


      01009D9CH   LINE      ---      ---       #2096
      01009DAAH   LINE      ---      ---       #2098
      01009DAAH   LINE      ---      ---       #2099
      01009DB3H   LINE      ---      ---       #2100
      01009DB3H   LINE      ---      ---       #2102
      01009DB8H   LINE      ---      ---       #2103
      01009DB8H   LINE      ---      ---       #2104
      01009DC0H   LINE      ---      ---       #2105
      01009DC0H   LINE      ---      ---       #2106
      01009DC4H   LINE      ---      ---       #2108
      01009DC4H   LINE      ---      ---       #2111
      01009DC9H   LINE      ---      ---       #2112
      01009DC9H   LINE      ---      ---       #2113
      01009DCEH   LINE      ---      ---       #2114
      01009DCEH   LINE      ---      ---       #2115
      01009DD3H   LINE      ---      ---       #2116
      01009DD3H   LINE      ---      ---       #2117
      01009DDCH   LINE      ---      ---       #2120
      01009DDCH   LINE      ---      ---       #2121
      01009DDCH   LINE      ---      ---       #2122
      01009DDCH   LINE      ---      ---       #2123
      01009DDEH   LINE      ---      ---       #2124
      01009DE2H   LINE      ---      ---       #2125
      01009DE2H   LINE      ---      ---       #2126
      01009DF8H   LINE      ---      ---       #2129
      01009E0DH   LINE      ---      ---       #2132
      01009E0DH   LINE      ---      ---       #2134
      01009E0DH   LINE      ---      ---       #2136
      01009E0DH   LINE      ---      ---       #2137
      01009E0DH   LINE      ---      ---       #2138
      01009E10H   LINE      ---      ---       #2139
      01009E10H   LINE      ---      ---       #2140
      01009E10H   LINE      ---      ---       #2141
      01009E11H   LINE      ---      ---       #2143
      01009E11H   LINE      ---      ---       #2144
      01009E17H   LINE      ---      ---       #2145
      01009E17H   LINE      ---      ---       #2146
      01009E19H   LINE      ---      ---       #2147
      01009E1DH   LINE      ---      ---       #2148
      01009E1DH   LINE      ---      ---       #2149
      01009E1DH   LINE      ---      ---       #2150
      01009E1DH   LINE      ---      ---       #2153
      02000110H   SYMBOL    XDATA    BYTE      color
      02000020H   SYMBOL    XDATA    BYTE      Err_Event_Cnt
      02000111H   SYMBOL    XDATA    BYTE      Err_Event_1
      02000112H   SYMBOL    XDATA    BYTE      Err_Event_2
      02000021H   SYMBOL    XDATA    BYTE      AlarmInfoRem
      ---         BLOCKEND  CODE     ---       LVL=1
      ---         BLOCKEND  CODE     ---       LVL=0

      0100B7FEH   BLOCK     CODE     ---       LVL=0
      0100B7FEH   LINE      ---      ---       #2156
      0100B7FEH   LINE      ---      ---       #2157
      0100B7FEH   BLOCK     CODE     NEAR LAB  LVL=1
      0100B7FEH   LINE      ---      ---       #2158
      0100B801H   LINE      ---      ---       #2164
      0100B810H   LINE      ---      ---       #2165
      0100B810H   LINE      ---      ---       #2166
      0100B813H   LINE      ---      ---       #2167
      0100B813H   LINE      ---      ---       #2170
      0100B81DH   LINE      ---      ---       #2171
      0100B81DH   LINE      ---      ---       #2172
      0100B846H   LINE      ---      ---       #2174
      0100B846H   LINE      ---      ---       #2177
      0100B855H   LINE      ---      ---       #2178
LX51 LINKER/LOCATER V4.66.93.0                                                        04/19/2019  09:16:48  PAGE 89


      0100B855H   LINE      ---      ---       #2179
      0100B858H   LINE      ---      ---       #2180
      0100B858H   LINE      ---      ---       #2182
      0100B867H   LINE      ---      ---       #2183
      0100B867H   LINE      ---      ---       #2184
      0100B86AH   LINE      ---      ---       #2185
      0100B86AH   LINE      ---      ---       #2186
      0100B870H   LINE      ---      ---       #2188
      0100B877H   LINE      ---      ---       #2189
      0100B877H   LINE      ---      ---       #2190
      0100B89FH   LINE      ---      ---       #2191
      0100B89FH   LINE      ---      ---       #2192
      0100B8AAH   LINE      ---      ---       #2193
      0100B8AAH   LINE      ---      ---       #2194
      0100B8ADH   LINE      ---      ---       #2195
      0100B8ADH   LINE      ---      ---       #2196
      0100B8AFH   LINE      ---      ---       #2198
      0100B8AFH   LINE      ---      ---       #2199
      0100B8B1H   LINE      ---      ---       #2200
      0100B8B1H   LINE      ---      ---       #2204
      0100B8B9H   LINE      ---      ---       #2205
      0100B8C3H   LINE      ---      ---       #2206
      0100B8C5H   LINE      ---      ---       #2208
      0100B8C5H   LINE      ---      ---       #2209
      0100B8C7H   LINE      ---      ---       #2210
      0100B8C7H   LINE      ---      ---       #2216
      0100B8CAH   LINE      ---      ---       #2217
      0100B8CAH   LINE      ---      ---       #2219
      0100B8CAH   LINE      ---      ---       #2221
      0100B8CAH   LINE      ---      ---       #2222
      0100B8D3H   LINE      ---      ---       #2223
      0100B8D3H   LINE      ---      ---       #2225
      0100B8E0H   LINE      ---      ---       #2226
      0100B8E0H   LINE      ---      ---       #2227
      0100B8E7H   LINE      ---      ---       #2229
      0100B8E7H   LINE      ---      ---       #2230
      0100B8EAH   LINE      ---      ---       #2231
      0100B8EAH   LINE      ---      ---       #2232
      0100B8ECH   LINE      ---      ---       #2234
      0100B8ECH   LINE      ---      ---       #2235
      0100B8F5H   LINE      ---      ---       #2236
      0100B8F5H   LINE      ---      ---       #2237
      0100B8F7H   LINE      ---      ---       #2238
      0100B8F7H   LINE      ---      ---       #2239
      0100B8F7H   LINE      ---      ---       #2243
      0100B8FCH   LINE      ---      ---       #2244
      0100B8FCH   LINE      ---      ---       #2245
      0100B904H   LINE      ---      ---       #2246
      0100B904H   LINE      ---      ---       #2247
      0100B90DH   LINE      ---      ---       #2248
      0100B90DH   LINE      ---      ---       #2249
      0100B910H   LINE      ---      ---       #2250
      0100B910H   LINE      ---      ---       #2251
      0100B91AH   LINE      ---      ---       #2252
      0100B91AH   LINE      ---      ---       #2253
      0100B91AH   LINE      ---      ---       #2254
      0100B91AH   LINE      ---      ---       #2255
      0100B91CH   LINE      ---      ---       #2257
      0100B91CH   LINE      ---      ---       #2258
      0100B921H   LINE      ---      ---       #2259
      0100B921H   LINE      ---      ---       #2260
      0100B92AH   LINE      ---      ---       #2261
      0100B92AH   LINE      ---      ---       #2262
      0100B934H   LINE      ---      ---       #2263
      0100B934H   LINE      ---      ---       #2264
LX51 LINKER/LOCATER V4.66.93.0                                                        04/19/2019  09:16:48  PAGE 90


      0100B934H   LINE      ---      ---       #2266
      0100B943H   LINE      ---      ---       #2267
      0100B943H   LINE      ---      ---       #2268
      0100B950H   LINE      ---      ---       #2270
      0100B950H   LINE      ---      ---       #2276
      0100B950H   LINE      ---      ---       #2277
      0100B965H   LINE      ---      ---       #2278
      0100B965H   LINE      ---      ---       #2279
      0100B96BH   LINE      ---      ---       #2280
      0100B970H   LINE      ---      ---       #2281
      0100B970H   LINE      ---      ---       #2282
      0100B973H   LINE      ---      ---       #2283
      0100B973H   LINE      ---      ---       #2284
      0100B975H   LINE      ---      ---       #2286
      0100B975H   LINE      ---      ---       #2287
      0100B97EH   LINE      ---      ---       #2288
      0100B97EH   LINE      ---      ---       #2289
      0100B980H   LINE      ---      ---       #2290
      0100B980H   LINE      ---      ---       #2291
      0100B980H   LINE      ---      ---       #2292
      0100B980H   LINE      ---      ---       #2294
      0100B987H   LINE      ---      ---       #2295
      0100B987H   LINE      ---      ---       #2296
      0100B990H   LINE      ---      ---       #2297
      0100B999H   LINE      ---      ---       #2298
      0100B999H   LINE      ---      ---       #2299
      0100B99BH   LINE      ---      ---       #2300
      0100B99DH   LINE      ---      ---       #2302
      0100B99DH   LINE      ---      ---       #2303
      0100B9A4H   LINE      ---      ---       #2304
      0100B9A4H   LINE      ---      ---       #2306
      0100B9A9H   LINE      ---      ---       #2307
      0100B9ABH   LINE      ---      ---       #2308
      0100B9AFH   LINE      ---      ---       #2309
      0100B9AFH   LINE      ---      ---       #2310
      0100B9B6H   LINE      ---      ---       #2311
      0100B9BFH   LINE      ---      ---       #2312
      0100B9BFH   LINE      ---      ---       #2313
      0100B9C2H   LINE      ---      ---       #2314
      0100B9C4H   LINE      ---      ---       #2316
      0100B9C4H   LINE      ---      ---       #2317
      0100B9C6H   LINE      ---      ---       #2318
      0100B9C6H   LINE      ---      ---       #2320
      0100B9D0H   LINE      ---      ---       #2321
      0100B9D0H   LINE      ---      ---       #2323
      0100B9D0H   LINE      ---      ---       #2325
      0100B9D0H   LINE      ---      ---       #2327
      0100B9E6H   LINE      ---      ---       #2328
      0100B9E6H   LINE      ---      ---       #2329
      0100B9EEH   LINE      ---      ---       #2330
      0100B9EEH   LINE      ---      ---       #2331
      0100B9F1H   LINE      ---      ---       #2332
      0100B9F1H   LINE      ---      ---       #2333
      0100B9F3H   LINE      ---      ---       #2334
      0100B9F3H   LINE      ---      ---       #2335
      0100B9F8H   LINE      ---      ---       #2336
      0100B9F8H   LINE      ---      ---       #2347
      0100B9FDH   LINE      ---      ---       #2348
      0100B9FDH   LINE      ---      ---       #2351
      0100BA14H   LINE      ---      ---       #2352
      0100BA14H   LINE      ---      ---       #2353
      0100BA29H   LINE      ---      ---       #2356
      0100BA29H   LINE      ---      ---       #2357
      0100BA31H   LINE      ---      ---       #2358
      0100BA31H   LINE      ---      ---       #2359
LX51 LINKER/LOCATER V4.66.93.0                                                        04/19/2019  09:16:48  PAGE 91


      0100BA35H   LINE      ---      ---       #2360
      0100BA35H   LINE      ---      ---       #2361
      0100BA37H   LINE      ---      ---       #2363
      0100BA37H   LINE      ---      ---       #2365
      0100BA37H   LINE      ---      ---       #2366
      0100BA37H   LINE      ---      ---       #2367
      0100BA43H   LINE      ---      ---       #2368
      0100BA43H   LINE      ---      ---       #2369
      0100BA52H   LINE      ---      ---       #2370
      0100BA52H   LINE      ---      ---       #2371
      0100BA5AH   LINE      ---      ---       #2372
      0100BA5AH   LINE      ---      ---       #2373
      0100BA5DH   LINE      ---      ---       #2374
      0100BA5DH   LINE      ---      ---       #2375
      0100BA5DH   LINE      ---      ---       #2376
      0100BA5FH   LINE      ---      ---       #2383
      0100BA5FH   LINE      ---      ---       #2384
      0100BA64H   LINE      ---      ---       #2385
      0100BA64H   LINE      ---      ---       #2389
      0100BA69H   LINE      ---      ---       #2390
      0100BA69H   LINE      ---      ---       #2391
      0100BA7DH   LINE      ---      ---       #2392
      0100BA7DH   LINE      ---      ---       #2393
      0100BA86H   LINE      ---      ---       #2394
      0100BA86H   LINE      ---      ---       #2395
      0100BA89H   LINE      ---      ---       #2396
      0100BA89H   LINE      ---      ---       #2397
      0100BA8BH   LINE      ---      ---       #2404
      0100BA8BH   LINE      ---      ---       #2405
      0100BA90H   LINE      ---      ---       #2406
      0100BA90H   LINE      ---      ---       #2410
      0100BA97H   LINE      ---      ---       #2411
      0100BA97H   LINE      ---      ---       #2412
      0100BA9EH   LINE      ---      ---       #2414
      0100BA9EH   LINE      ---      ---       #2415
      0100BAA1H   LINE      ---      ---       #2416
      0100BAA1H   LINE      ---      ---       #2417
      0100BAA3H   LINE      ---      ---       #2419
      0100BAA3H   LINE      ---      ---       #2420
      0100BAA7H   LINE      ---      ---       #2421
      0100BAA7H   LINE      ---      ---       #2422
      0100BAA9H   LINE      ---      ---       #2423
      0100BAA9H   LINE      ---      ---       #2424
      0100BAA9H   LINE      ---      ---       #2426
      0100BAAEH   LINE      ---      ---       #2427
      0100BAAEH   LINE      ---      ---       #2429
      0100BABCH   LINE      ---      ---       #2430
      0100BABCH   LINE      ---      ---       #2431
      0100BAC5H   LINE      ---      ---       #2432
      0100BAC5H   LINE      ---      ---       #2433
      0100BAC7H   LINE      ---      ---       #2434
      0100BAC7H   LINE      ---      ---       #2436
      0100BAC7H   LINE      ---      ---       #2437
      0100BAC7H   LINE      ---      ---       #2439
      0100BAC7H   LINE      ---      ---       #2440
      0100BACDH   LINE      ---      ---       #2441
      0100BACDH   LINE      ---      ---       #2442
      0100BACDH   LINE      ---      ---       #2443
      0100BACEH   LINE      ---      ---       #2445
      0100BACEH   LINE      ---      ---       #2446
      0100BACEH   LINE      ---      ---       #2447
      0100BACEH   LINE      ---      ---       #2448
      0100BAD0H   LINE      ---      ---       #2450
      0100BAD0H   LINE      ---      ---       #2451
      0100BAD5H   LINE      ---      ---       #2452
LX51 LINKER/LOCATER V4.66.93.0                                                        04/19/2019  09:16:48  PAGE 92


      0100BAD5H   LINE      ---      ---       #2453
      02000110H   SYMBOL    XDATA    WORD      a
      02000112H   SYMBOL    XDATA    WORD      b
      02000114H   SYMBOL    XDATA    WORD      c
      02000022H   SYMBOL    XDATA    BYTE      No_Water_Times
      02000023H   SYMBOL    XDATA    BYTE      RT_SHIDU_More_then_90_Cnt
      02000024H   SYMBOL    XDATA    WORD      Last1s_RThumity
      02000026H   SYMBOL    XDATA    WORD      Last1s_RTtemp
      ---         BLOCKEND  CODE     ---       LVL=1
      ---         BLOCKEND  CODE     ---       LVL=0

      0100A252H   BLOCK     CODE     ---       LVL=0
      0100A252H   LINE      ---      ---       #2455
      0100A252H   LINE      ---      ---       #2456
      0100A252H   BLOCK     CODE     NEAR LAB  LVL=1
      0100A252H   LINE      ---      ---       #2460
      0100A254H   LINE      ---      ---       #2461
      0100A25DH   LINE      ---      ---       #2462
      0100A25DH   LINE      ---      ---       #2463
      0100A262H   LINE      ---      ---       #2465
      0100A262H   LINE      ---      ---       #2466
      0100A264H   LINE      ---      ---       #2467
      0100A264H   LINE      ---      ---       #2468
      0100A264H   LINE      ---      ---       #2469
      0100A26CH   LINE      ---      ---       #2470
      0100A26CH   LINE      ---      ---       #2471
      0100A274H   LINE      ---      ---       #2472
      0100A274H   LINE      ---      ---       #2474
      0100A27AH   LINE      ---      ---       #2478
      0100A27AH   LINE      ---      ---       #2479
      0100A27CH   LINE      ---      ---       #2480
      0100A286H   LINE      ---      ---       #2481
      0100A286H   LINE      ---      ---       #2482
      0100A290H   LINE      ---      ---       #2486
      0100A290H   LINE      ---      ---       #2487
      0100A295H   LINE      ---      ---       #2491
      0100A2BBH   LINE      ---      ---       #2492
      0100A2BDH   LINE      ---      ---       #2496
      0100A2C2H   LINE      ---      ---       #2497
      0100A2C2H   LINE      ---      ---       #2498
      0100A2C4H   LINE      ---      ---       #2499
      0100A2C8H   LINE      ---      ---       #2500
      0100A2CAH   LINE      ---      ---       #2502
      0100A2CAH   LINE      ---      ---       #2503
      0100A2CCH   LINE      ---      ---       #2504
      0100A2CCH   LINE      ---      ---       #2505
      0100A2D5H   LINE      ---      ---       #2506
      0100A2DBH   LINE      ---      ---       #2507
      0100A2EDH   LINE      ---      ---       #2510
      0100A2EDH   LINE      ---      ---       #2512
      0100A2F5H   LINE      ---      ---       #2513
      0100A2FBH   LINE      ---      ---       #2514
      0100A2FBH   LINE      ---      ---       #2515
      0100A302H   LINE      ---      ---       #2516
      0100A302H   LINE      ---      ---       #2517
      0100A308H   LINE      ---      ---       #2518
      0100A308H   LINE      ---      ---       #2519
      0100A30FH   LINE      ---      ---       #2520
      0100A30FH   LINE      ---      ---       #2521
      0100A315H   LINE      ---      ---       #2522
      0100A315H   LINE      ---      ---       #2523
      0100A31CH   LINE      ---      ---       #2524
      0100A31CH   LINE      ---      ---       #2529
      0100A32DH   LINE      ---      ---       #2534
      0100A33AH   LINE      ---      ---       #2535
LX51 LINKER/LOCATER V4.66.93.0                                                        04/19/2019  09:16:48  PAGE 93


      0100A354H   LINE      ---      ---       #2545
      0100A360H   LINE      ---      ---       #2548
      0100A364H   LINE      ---      ---       #2554
      0100A36EH   LINE      ---      ---       #2556
      0100A36EH   LINE      ---      ---       #2557
      0100A375H   LINE      ---      ---       #2558
      0100A375H   LINE      ---      ---       #2559
      0100A378H   LINE      ---      ---       #2560
      0100A378H   LINE      ---      ---       #2561
      0100A37FH   LINE      ---      ---       #2562
      0100A37FH   LINE      ---      ---       #2564
      0100A384H   LINE      ---      ---       #2565
      0100A384H   LINE      ---      ---       #2566
      0100A38EH   LINE      ---      ---       #2567
      0100A38EH   LINE      ---      ---       #2568
      0100A38EH   LINE      ---      ---       #2569
      0100A395H   LINE      ---      ---       #2570
      0100A395H   LINE      ---      ---       #2572
      0100A39AH   LINE      ---      ---       #2573
      0100A39AH   LINE      ---      ---       #2574
      0100A3A4H   LINE      ---      ---       #2575
      0100A3ABH   LINE      ---      ---       #2576
      0100A3ABH   LINE      ---      ---       #2577
      0100A3ABH   LINE      ---      ---       #2578
      0100A3ABH   LINE      ---      ---       #2579
      0100A3ABH   LINE      ---      ---       #2581
      0100A3ABH   LINE      ---      ---       #2583
      0100A3ABH   LINE      ---      ---       #2585
      0100A3ABH   LINE      ---      ---       #2586
      00000002H   SYMBOL    DATA     WORD      a
      02000110H   SYMBOL    XDATA    WORD      b
      00000004H   SYMBOL    DATA     WORD      c
      02000112H   SYMBOL    XDATA    DWORD     Adress
      02000116H   SYMBOL    XDATA    INT       tmp
      ---         BLOCKEND  CODE     ---       LVL=1
      ---         BLOCKEND  CODE     ---       LVL=0

      010078A2H   BLOCK     CODE     ---       LVL=0
      010078A2H   LINE      ---      ---       #2589
      010078A2H   LINE      ---      ---       #2590
      010078A2H   BLOCK     CODE     NEAR LAB  LVL=1
      010078A2H   LINE      ---      ---       #2591
      010078A5H   LINE      ---      ---       #2593
      010078A8H   LINE      ---      ---       #2594
      010078AAH   LINE      ---      ---       #2595
      010078ADH   LINE      ---      ---       #2596
      010078B0H   LINE      ---      ---       #2597
      010078B3H   LINE      ---      ---       #2598
      010078B6H   LINE      ---      ---       #2599
      010078B8H   LINE      ---      ---       #2600
      010078BBH   LINE      ---      ---       #2601
      010078BEH   LINE      ---      ---       #2603
      010078C1H   LINE      ---      ---       #2604
      010078C3H   LINE      ---      ---       #2606
      010078C5H   LINE      ---      ---       #2607
      010078C7H   LINE      ---      ---       #2608
      010078C9H   LINE      ---      ---       #2609
      010078CBH   LINE      ---      ---       #2610
      010078CDH   LINE      ---      ---       #2611
      010078CFH   LINE      ---      ---       #2612
      010078D1H   LINE      ---      ---       #2613
      010078D3H   LINE      ---      ---       #2614
      010078D9H   LINE      ---      ---       #2615
      010078DBH   LINE      ---      ---       #2617
      010078DEH   LINE      ---      ---       #2618
LX51 LINKER/LOCATER V4.66.93.0                                                        04/19/2019  09:16:48  PAGE 94


      010078E1H   LINE      ---      ---       #2619
      010078E4H   LINE      ---      ---       #2623
      010078EAH   LINE      ---      ---       #2624
      010078EAH   LINE      ---      ---       #2625
      010078F0H   LINE      ---      ---       #2626
      010078F2H   LINE      ---      ---       #2628
      010078F2H   LINE      ---      ---       #2629
      010078F8H   LINE      ---      ---       #2630
      010078F8H   LINE      ---      ---       #2633
      01007902H   LINE      ---      ---       #2634
      01007902H   LINE      ---      ---       #2635
      01007908H   LINE      ---      ---       #2638
      0100790BH   LINE      ---      ---       #2640
      01007912H   LINE      ---      ---       #2642
      01007918H   LINE      ---      ---       #2643
      01007918H   LINE      ---      ---       #2644
      0100792AH   LINE      ---      ---       #2645
      0100793CH   LINE      ---      ---       #2646
      01007953H   LINE      ---      ---       #2647
      01007953H   LINE      ---      ---       #2648
      01007962H   LINE      ---      ---       #2649
      0100796AH   LINE      ---      ---       #2650
      01007982H   LINE      ---      ---       #2655
      01007984H   LINE      ---      ---       #2656
      01007986H   LINE      ---      ---       #2657
      01007986H   LINE      ---      ---       #2659
      0100798BH   LINE      ---      ---       #2660
      02000110H   SYMBOL    XDATA    WORD      j
      ---         BLOCKEND  CODE     ---       LVL=1
      ---         BLOCKEND  CODE     ---       LVL=0

      0100BD8FH   BLOCK     CODE     ---       LVL=0
      0100BD8FH   LINE      ---      ---       #2662
      0100BD8FH   LINE      ---      ---       #2663
      0100BD8FH   LINE      ---      ---       #2664
      0100BD92H   LINE      ---      ---       #2666
      0100BD9CH   LINE      ---      ---       #2668
      0100BDA1H   LINE      ---      ---       #2669
      0100BDA3H   LINE      ---      ---       #2670
      0100BDA7H   LINE      ---      ---       #2671
      0100BDABH   LINE      ---      ---       #2673
      0100BDB1H   LINE      ---      ---       #2675
      0100BDB6H   LINE      ---      ---       #2676
      0100BDBAH   LINE      ---      ---       #2678
      0100BDBEH   LINE      ---      ---       #2679
      0100BDC2H   LINE      ---      ---       #2681
      0100BDC8H   LINE      ---      ---       #2684
      0100BDD1H   LINE      ---      ---       #2685
      0100BDD4H   LINE      ---      ---       #2687
      0100BDE7H   LINE      ---      ---       #2688
      0100BDEEH   LINE      ---      ---       #2691
      0100BDF2H   LINE      ---      ---       #2692
      ---         BLOCKEND  ---      ---       LVL=0

      01008BC8H   BLOCK     CODE     ---       LVL=0
      01008BC8H   LINE      ---      ---       #2698
      01008BC8H   LINE      ---      ---       #2699
      01008BC8H   BLOCK     CODE     NEAR LAB  LVL=1
      01008BC8H   LINE      ---      ---       #2702
      01008BCBH   LINE      ---      ---       #2705
      01008BE3H   LINE      ---      ---       #2706
      01008BE3H   LINE      ---      ---       #2707
      01008BEDH   LINE      ---      ---       #2709
      01008BEFH   LINE      ---      ---       #2711
      01008BEFH   LINE      ---      ---       #2712
LX51 LINKER/LOCATER V4.66.93.0                                                        04/19/2019  09:16:48  PAGE 95


      01008BF4H   LINE      ---      ---       #2713
      01008BF4H   LINE      ---      ---       #2715
      01008BFDH   LINE      ---      ---       #2716
      01008BFDH   LINE      ---      ---       #2717
      01008C06H   LINE      ---      ---       #2719
      01008C08H   LINE      ---      ---       #2721
      01008C08H   LINE      ---      ---       #2722
      01008C0DH   LINE      ---      ---       #2723
      01008C0DH   LINE      ---      ---       #2725
      01008C1EH   LINE      ---      ---       #2726
      01008C1EH   LINE      ---      ---       #2727
      01008C24H   LINE      ---      ---       #2728
      01008C27H   LINE      ---      ---       #2730
      01008C29H   LINE      ---      ---       #2732
      01008C29H   LINE      ---      ---       #2733
      01008C2EH   LINE      ---      ---       #2734
      01008C2EH   LINE      ---      ---       #2737
      01008C37H   LINE      ---      ---       #2738
      01008C37H   LINE      ---      ---       #2739
      01008C3DH   LINE      ---      ---       #2740
      01008C44H   LINE      ---      ---       #2741
      01008C46H   LINE      ---      ---       #2743
      01008C46H   LINE      ---      ---       #2744
      01008C4BH   LINE      ---      ---       #2745
      01008C4BH   LINE      ---      ---       #2749
      01008C4BH   LINE      ---      ---       #2750
      01008C57H   LINE      ---      ---       #2752
      01008C57H   LINE      ---      ---       #2753
      01008C5EH   LINE      ---      ---       #2755
      01008C65H   LINE      ---      ---       #2756
      01008C65H   LINE      ---      ---       #2757
      01008C6EH   LINE      ---      ---       #2758
      01008C76H   LINE      ---      ---       #2759
      01008C7AH   LINE      ---      ---       #2760
      01008C83H   LINE      ---      ---       #2761
      01008C85H   LINE      ---      ---       #2763
      01008C85H   LINE      ---      ---       #2764
      01008C90H   LINE      ---      ---       #2765
      01008C96H   LINE      ---      ---       #2766
      01008C9FH   LINE      ---      ---       #2767
      01008CB2H   LINE      ---      ---       #2768
      01008CB2H   LINE      ---      ---       #2771
      01008CBAH   LINE      ---      ---       #2773
      01008CBAH   LINE      ---      ---       #2774
      01008CD3H   LINE      ---      ---       #2777
      01008CDCH   LINE      ---      ---       #2778
      01008CDEH   LINE      ---      ---       #2780
      01008CDEH   LINE      ---      ---       #2781
      01008CFCH   LINE      ---      ---       #2784
      01008D0FH   LINE      ---      ---       #2785
      01008D0FH   LINE      ---      ---       #2788
      01008D1CH   LINE      ---      ---       #2790
      01008D1CH   LINE      ---      ---       #2791
      01008D31H   LINE      ---      ---       #2794
      01008D43H   LINE      ---      ---       #2795
      01008D45H   LINE      ---      ---       #2797
      01008D45H   LINE      ---      ---       #2798
      01008D5FH   LINE      ---      ---       #2801
      01008D72H   LINE      ---      ---       #2802
      01008D72H   LINE      ---      ---       #2805
      01008D72H   LINE      ---      ---       #2806
      01008D86H   LINE      ---      ---       #2807
      02000111H   SYMBOL    XDATA    WORD      Disp
      02000113H   SYMBOL    XDATA    WORD      color
      ---         BLOCKEND  CODE     ---       LVL=1
LX51 LINKER/LOCATER V4.66.93.0                                                        04/19/2019  09:16:48  PAGE 96


      ---         BLOCKEND  CODE     ---       LVL=0

      01006835H   BLOCK     CODE     ---       LVL=0
      01006839H   LINE      ---      ---       #2813
      01006839H   LINE      ---      ---       #2814
      01006839H   LINE      ---      ---       #2815
      0100683FH   LINE      ---      ---       #2816
      0100684AH   LINE      ---      ---       #2817
      01006856H   LINE      ---      ---       #2818
      01006862H   LINE      ---      ---       #2819
      0100686EH   LINE      ---      ---       #2820
      0100687AH   LINE      ---      ---       #2821
      01006886H   LINE      ---      ---       #2822
      01006892H   LINE      ---      ---       #2823
      01006835H   SYMBOL    CODE     NEAR LAB  ?L?COM01CA
      ---         BLOCKEND  ---      ---       LVL=0

      0100BDF3H   BLOCK     CODE     ---       LVL=0
      0100BDF3H   LINE      ---      ---       #2827
      0100BDF3H   LINE      ---      ---       #2828
      0100BDF3H   LINE      ---      ---       #2829
      0100BDF9H   LINE      ---      ---       #2830
      0100BDFDH   LINE      ---      ---       #2831
      0100BE01H   LINE      ---      ---       #2832
      0100BE04H   LINE      ---      ---       #2834
      0100BE08H   LINE      ---      ---       #2835
      0100BE0CH   LINE      ---      ---       #2838
      ---         BLOCKEND  ---      ---       LVL=0

      01006368H   BLOCK     CODE     ---       LVL=0
      01006368H   LINE      ---      ---       #2842
      01006368H   LINE      ---      ---       #2843
      01006368H   LINE      ---      ---       #2844
      01006372H   LINE      ---      ---       #2845
      0100637DH   LINE      ---      ---       #2846
      01006388H   LINE      ---      ---       #2847
      01006393H   LINE      ---      ---       #2848
      0100639EH   LINE      ---      ---       #2849
      010063A9H   LINE      ---      ---       #2850
      010063B4H   LINE      ---      ---       #2851
      010063BFH   LINE      ---      ---       #2866
      0100641AH   LINE      ---      ---       #2868
      0100641AH   LINE      ---      ---       #2869
      0100641FH   LINE      ---      ---       #2870
      01006422H   LINE      ---      ---       #2871
      01006422H   LINE      ---      ---       #2872
      ---         BLOCKEND  ---      ---       LVL=0

      0100BE17H   BLOCK     CODE     ---       LVL=0
      0100BE17H   LINE      ---      ---       #2876
      0100BE17H   LINE      ---      ---       #2877
      0100BE17H   LINE      ---      ---       #2878
      0100BE1EH   LINE      ---      ---       #2879
      0100BE1EH   LINE      ---      ---       #2880
      0100BE20H   LINE      ---      ---       #2881
      0100BE20H   LINE      ---      ---       #2883
      0100BE29H   LINE      ---      ---       #2884
      0100BE33H   LINE      ---      ---       #2885
      0100BE3DH   LINE      ---      ---       #2886
      0100BE47H   LINE      ---      ---       #2887
      0100BE51H   LINE      ---      ---       #2888
      0100BE59H   LINE      ---      ---       #2890
      0100BE5CH   LINE      ---      ---       #2891
      0100BE5CH   LINE      ---      ---       #2892
      0100BE62H   LINE      ---      ---       #2893
LX51 LINKER/LOCATER V4.66.93.0                                                        04/19/2019  09:16:48  PAGE 97


      0100BE65H   LINE      ---      ---       #2894
      0100BE67H   LINE      ---      ---       #2896
      0100BE67H   LINE      ---      ---       #2897
      0100BE6AH   LINE      ---      ---       #2898
      ---         BLOCKEND  ---      ---       LVL=0

      01009F38H   BLOCK     CODE     ---       LVL=0
      01009F38H   LINE      ---      ---       #2911
      01009F38H   LINE      ---      ---       #2912
      01009F38H   LINE      ---      ---       #2913
      01009F46H   LINE      ---      ---       #2914
      01009F46H   LINE      ---      ---       #2919
      01009F5CH   LINE      ---      ---       #2920
      01009F5CH   LINE      ---      ---       #2921
      01009F5CH   LINE      ---      ---       #2923
      01009F5CH   LINE      ---      ---       #2924
      01009F62H   LINE      ---      ---       #2925
      01009F62H   LINE      ---      ---       #2926
      01009F69H   LINE      ---      ---       #2927
      01009F77H   LINE      ---      ---       #2928
      01009F77H   LINE      ---      ---       #2929
      01009F7DH   LINE      ---      ---       #2930
      01009F7FH   LINE      ---      ---       #2932
      01009F7FH   LINE      ---      ---       #2933
      01009F84H   LINE      ---      ---       #2934
      01009F84H   LINE      ---      ---       #2935
      01009F8DH   LINE      ---      ---       #2936
      01009F94H   LINE      ---      ---       #2937
      01009F9AH   LINE      ---      ---       #2938
      01009F9BH   LINE      ---      ---       #2946
      01009F9BH   LINE      ---      ---       #2947
      01009FA2H   LINE      ---      ---       #2948
      01009FA2H   LINE      ---      ---       #2950
      ---         BLOCKEND  ---      ---       LVL=0

      0100B70AH   BLOCK     CODE     ---       LVL=0
      0100B70AH   LINE      ---      ---       #2970
      0100B70AH   LINE      ---      ---       #2971
      0100B70AH   BLOCK     CODE     NEAR LAB  LVL=1
      0100B70AH   LINE      ---      ---       #2978
      0100B71BH   LINE      ---      ---       #2979
      0100B71BH   LINE      ---      ---       #2980
      0100B71EH   LINE      ---      ---       #2981
      0100B71EH   LINE      ---      ---       #2982
      0100B72FH   LINE      ---      ---       #2983
      0100B72FH   LINE      ---      ---       #2984
      0100B731H   LINE      ---      ---       #2985
      0100B731H   LINE      ---      ---       #2987
      0100B73FH   LINE      ---      ---       #2988
      0100B750H   LINE      ---      ---       #2989
      0100B750H   LINE      ---      ---       #2990
      0100B753H   LINE      ---      ---       #2991
      0100B753H   LINE      ---      ---       #2992
      0100B753H   LINE      ---      ---       #2993
      0100B753H   LINE      ---      ---       #2995
      0100B753H   LINE      ---      ---       #2996
      0100B767H   LINE      ---      ---       #3000
      0100B793H   LINE      ---      ---       #3001
      0100B799H   LINE      ---      ---       #3002
      0100B7A3H   LINE      ---      ---       #3005
      0100B7A3H   LINE      ---      ---       #3006
      0100B7A9H   LINE      ---      ---       #3007
      0100B7ABH   LINE      ---      ---       #3008
      0100B7B6H   LINE      ---      ---       #3009
      0100B7B6H   LINE      ---      ---       #3010
LX51 LINKER/LOCATER V4.66.93.0                                                        04/19/2019  09:16:48  PAGE 98


      0100B7BAH   LINE      ---      ---       #3011
      0100B7BAH   LINE      ---      ---       #3013
      0100B7BAH   LINE      ---      ---       #3015
      0100B7BAH   LINE      ---      ---       #3017
      0100B7C8H   LINE      ---      ---       #3019
      0100B7CDH   LINE      ---      ---       #3020
      00000002H   SYMBOL    DATA     INT       Vlaue1
      00000006H   SYMBOL    DATA     INT       tmp
      02000028H   SYMBOL    XDATA    INT       Controler_Kp
      0200002AH   SYMBOL    XDATA    INT       Controler_Ki
      0200002CH   SYMBOL    XDATA    INT       Controler_Kd
      ---         BLOCKEND  CODE     ---       LVL=1
      ---         BLOCKEND  CODE     ---       LVL=0

      0100B522H   BLOCK     CODE     ---       LVL=0
      0100B522H   LINE      ---      ---       #3025
      0100B522H   LINE      ---      ---       #3026
      0100B522H   BLOCK     CODE     NEAR LAB  LVL=1
      0100B522H   LINE      ---      ---       #3034
      0100B533H   LINE      ---      ---       #3035
      0100B533H   LINE      ---      ---       #3036
      0100B536H   LINE      ---      ---       #3037
      0100B536H   LINE      ---      ---       #3038
      0100B547H   LINE      ---      ---       #3039
      0100B547H   LINE      ---      ---       #3040
      0100B549H   LINE      ---      ---       #3041
      0100B549H   LINE      ---      ---       #3043
      0100B557H   LINE      ---      ---       #3044
      0100B568H   LINE      ---      ---       #3045
      0100B568H   LINE      ---      ---       #3046
      0100B56BH   LINE      ---      ---       #3047
      0100B56BH   LINE      ---      ---       #3048
      0100B57CH   LINE      ---      ---       #3049
      0100B57CH   LINE      ---      ---       #3050
      0100B583H   LINE      ---      ---       #3051
      0100B583H   LINE      ---      ---       #3053
      0100B597H   LINE      ---      ---       #3057
      0100B5C3H   LINE      ---      ---       #3058
      0100B5C9H   LINE      ---      ---       #3059
      0100B5D3H   LINE      ---      ---       #3062
      0100B5D3H   LINE      ---      ---       #3063
      0100B5D9H   LINE      ---      ---       #3064
      0100B5DBH   LINE      ---      ---       #3065
      0100B5E6H   LINE      ---      ---       #3066
      0100B5E6H   LINE      ---      ---       #3067
      0100B5EAH   LINE      ---      ---       #3068
      0100B5EAH   LINE      ---      ---       #3070
      0100B5EAH   LINE      ---      ---       #3072
      0100B5EAH   LINE      ---      ---       #3074
      0100B5F8H   LINE      ---      ---       #3076
      0100B5FDH   LINE      ---      ---       #3077
      00000002H   SYMBOL    DATA     INT       Vlaue1
      00000006H   SYMBOL    DATA     INT       tmp
      0200002EH   SYMBOL    XDATA    INT       Controler_Kp2
      02000030H   SYMBOL    XDATA    INT       Controler_Ki2
      02000032H   SYMBOL    XDATA    INT       Controler_Kd2
      ---         BLOCKEND  CODE     ---       LVL=1
      ---         BLOCKEND  CODE     ---       LVL=0

      0100B60BH   BLOCK     CODE     ---       LVL=0
      0100B60BH   LINE      ---      ---       #3082
      0100B60BH   LINE      ---      ---       #3083
      0100B60BH   BLOCK     CODE     NEAR LAB  LVL=1
      0100B60BH   LINE      ---      ---       #3090
      0100B61CH   LINE      ---      ---       #3091
LX51 LINKER/LOCATER V4.66.93.0                                                        04/19/2019  09:16:48  PAGE 99


      0100B61CH   LINE      ---      ---       #3092
      0100B61FH   LINE      ---      ---       #3093
      0100B61FH   LINE      ---      ---       #3094
      0100B630H   LINE      ---      ---       #3095
      0100B630H   LINE      ---      ---       #3096
      0100B632H   LINE      ---      ---       #3097
      0100B632H   LINE      ---      ---       #3099
      0100B63DH   LINE      ---      ---       #3100
      0100B64EH   LINE      ---      ---       #3101
      0100B64EH   LINE      ---      ---       #3102
      0100B655H   LINE      ---      ---       #3103
      0100B655H   LINE      ---      ---       #3104
      0100B666H   LINE      ---      ---       #3105
      0100B666H   LINE      ---      ---       #3106
      0100B66DH   LINE      ---      ---       #3107
      0100B66DH   LINE      ---      ---       #3109
      0100B685H   LINE      ---      ---       #3113
      0100B68BH   LINE      ---      ---       #3115
      0100B6A7H   LINE      ---      ---       #3116
      0100B6AAH   LINE      ---      ---       #3117
      0100B6AFH   LINE      ---      ---       #3119
      0100B6B9H   LINE      ---      ---       #3120
      0100B6B9H   LINE      ---      ---       #3121
      0100B6C3H   LINE      ---      ---       #3122
      0100B6C5H   LINE      ---      ---       #3123
      0100B6D6H   LINE      ---      ---       #3124
      0100B6D6H   LINE      ---      ---       #3125
      0100B6DDH   LINE      ---      ---       #3126
      0100B6DDH   LINE      ---      ---       #3128
      0100B6DDH   LINE      ---      ---       #3130
      0100B6DDH   LINE      ---      ---       #3132
      0100B6EBH   LINE      ---      ---       #3134
      0100B6F0H   LINE      ---      ---       #3135
      00000002H   SYMBOL    DATA     INT       Vlaue1
      00000006H   SYMBOL    DATA     INT       tmp
      02000034H   SYMBOL    XDATA    INT       Controler_Kp3
      02000036H   SYMBOL    XDATA    INT       Controler_Ki3
      02000038H   SYMBOL    XDATA    INT       Controler_Kd3
      ---         BLOCKEND  CODE     ---       LVL=1
      ---         BLOCKEND  CODE     ---       LVL=0

      0100BB31H   BLOCK     CODE     ---       LVL=0
      0100BB31H   LINE      ---      ---       #3141
      0100BB31H   LINE      ---      ---       #3142
      0100BB31H   BLOCK     CODE     NEAR LAB  LVL=1
      0100BB31H   LINE      ---      ---       #3147
      0100BB34H   LINE      ---      ---       #3151
      0100BB3AH   LINE      ---      ---       #3152
      0100BB3AH   LINE      ---      ---       #3156
      0100BB59H   LINE      ---      ---       #3159
      0100BB5DH   LINE      ---      ---       #3161
      0100BB67H   LINE      ---      ---       #3163
      0100BB68H   LINE      ---      ---       #3165
      0100BB68H   LINE      ---      ---       #3166
      0100BB6EH   LINE      ---      ---       #3167
      0100BB7DH   LINE      ---      ---       #3168
      0100BB7DH   LINE      ---      ---       #3169
      0100BB84H   LINE      ---      ---       #3170
      0100BB84H   LINE      ---      ---       #3171
      0100BB93H   LINE      ---      ---       #3172
      0100BB93H   LINE      ---      ---       #3174
      0100BBBAH   LINE      ---      ---       #3175
      0100BBBAH   LINE      ---      ---       #3176
      0100BBBFH   LINE      ---      ---       #3177
      0100BBBFH   LINE      ---      ---       #3178
LX51 LINKER/LOCATER V4.66.93.0                                                        04/19/2019  09:16:48  PAGE 100


      0100BBBFH   LINE      ---      ---       #3179
      0100BBC1H   LINE      ---      ---       #3181
      0100BBC1H   LINE      ---      ---       #3182
      0100BBDCH   LINE      ---      ---       #3183
      0100BBE6H   LINE      ---      ---       #3184
      0100BBE6H   LINE      ---      ---       #3185
      0100BBEFH   LINE      ---      ---       #3186
      0100BBF1H   LINE      ---      ---       #3187
      0100BC02H   LINE      ---      ---       #3188
      0100BC02H   LINE      ---      ---       #3189
      0100BC09H   LINE      ---      ---       #3190
      0100BC09H   LINE      ---      ---       #3192
      0100BC09H   LINE      ---      ---       #3194
      0100BC09H   LINE      ---      ---       #3198
      0100BC13H   LINE      ---      ---       #3199
      0100BC13H   LINE      ---      ---       #3200
      0100BC16H   LINE      ---      ---       #3201
      0100BC1FH   LINE      ---      ---       #3202
      0100BC1FH   LINE      ---      ---       #3203
      0100BC28H   LINE      ---      ---       #3204
      0100BC2AH   LINE      ---      ---       #3206
      0100BC2AH   LINE      ---      ---       #3207
      0100BC3AH   LINE      ---      ---       #3208
      0100BC3AH   LINE      ---      ---       #3209
      0100BC56H   LINE      ---      ---       #3210
      0100BC56H   LINE      ---      ---       #3212
      0100BC5CH   LINE      ---      ---       #3213
      0100BC6DH   LINE      ---      ---       #3214
      0100BC6DH   LINE      ---      ---       #3215
      0100BC71H   LINE      ---      ---       #3217
      0100BC80H   LINE      ---      ---       #3221
      0100BCD7H   LINE      ---      ---       #3223
      0100BCE1H   LINE      ---      ---       #3224
      0100BCE1H   LINE      ---      ---       #3225
      0100BCE6H   LINE      ---      ---       #3226
      0100BCE6H   LINE      ---      ---       #3228
      0100BCF0H   LINE      ---      ---       #3229
      0100BCF0H   LINE      ---      ---       #3230
      0100BCF0H   LINE      ---      ---       #3233
      0100BD09H   LINE      ---      ---       #3236
      0100BD11H   LINE      ---      ---       #3237
      0100BD11H   LINE      ---      ---       #3238
      0100BD12H   LINE      ---      ---       #3240
      0100BD14H   LINE      ---      ---       #3242
      0100BD14H   LINE      ---      ---       #3243
      0100BD1DH   LINE      ---      ---       #3244
      0100BD1DH   LINE      ---      ---       #3245
      0100BD1DH   LINE      ---      ---       #3246
      0100BD1DH   LINE      ---      ---       #3247
      0200003AH   SYMBOL    XDATA    WORD      NoneWire_Warm_Up_Sec
      0200003CH   SYMBOL    XDATA    INT       err_sum
      0200003EH   SYMBOL    XDATA    INT       RT_Temp_Mem
      02000116H   SYMBOL    XDATA    INT       Calc_int
      02000118H   SYMBOL    XDATA    WORD      Val_Calc
      ---         BLOCKEND  CODE     ---       LVL=1
      ---         BLOCKEND  CODE     ---       LVL=0

      0100BE88H   BLOCK     CODE     ---       LVL=0
      0100BE88H   LINE      ---      ---       #3250
      0100BE88H   LINE      ---      ---       #3251
      0100BE88H   LINE      ---      ---       #3252
      0100BE99H   LINE      ---      ---       #3253
      0100BE99H   LINE      ---      ---       #3254
      0100BE9EH   LINE      ---      ---       #3255
      0100BE9FH   LINE      ---      ---       #3256
LX51 LINKER/LOCATER V4.66.93.0                                                        04/19/2019  09:16:48  PAGE 101


      0100BEABH   LINE      ---      ---       #3257
      0100BEABH   LINE      ---      ---       #3258
      0100BEB0H   LINE      ---      ---       #3259
      0100BEB1H   LINE      ---      ---       #3260
      0100BEBBH   LINE      ---      ---       #3261
      0100BEBBH   LINE      ---      ---       #3262
      0100BEC1H   LINE      ---      ---       #3263
      0100BEC1H   LINE      ---      ---       #3265
      0100BEC1H   LINE      ---      ---       #3267
      0100BEC1H   LINE      ---      ---       #3268
      ---         BLOCKEND  ---      ---       LVL=0

      01008825H   BLOCK     CODE     ---       LVL=0
      01008825H   LINE      ---      ---       #3270
      01008825H   LINE      ---      ---       #3271
      01008825H   BLOCK     CODE     NEAR LAB  LVL=1
      01008825H   LINE      ---      ---       #3279
      0100882BH   LINE      ---      ---       #3280
      01008831H   LINE      ---      ---       #3281
      01008831H   LINE      ---      ---       #3282
      01008833H   LINE      ---      ---       #3285
      01008843H   LINE      ---      ---       #3286
      0100884AH   LINE      ---      ---       #3287
      0100884AH   LINE      ---      ---       #3288
      01008850H   LINE      ---      ---       #3289
      01008856H   LINE      ---      ---       #3290
      01008856H   LINE      ---      ---       #3291
      01008859H   LINE      ---      ---       #3292
      0100885EH   LINE      ---      ---       #3293
      0100885EH   LINE      ---      ---       #3294
      01008860H   LINE      ---      ---       #3296
      01008860H   LINE      ---      ---       #3297
      01008865H   LINE      ---      ---       #3298
      0100886AH   LINE      ---      ---       #3299
      0100886AH   LINE      ---      ---       #3300
      01008871H   LINE      ---      ---       #3301
      01008871H   LINE      ---      ---       #3304
      0100887EH   LINE      ---      ---       #3305
      0100887EH   LINE      ---      ---       #3306
      01008880H   LINE      ---      ---       #3307
      01008882H   LINE      ---      ---       #3309
      01008882H   LINE      ---      ---       #3310
      01008884H   LINE      ---      ---       #3311
      01008884H   LINE      ---      ---       #3314
      01008893H   LINE      ---      ---       #3315
      01008893H   LINE      ---      ---       #3316
      01008895H   LINE      ---      ---       #3317
      01008897H   LINE      ---      ---       #3318
      01008899H   LINE      ---      ---       #3320
      01008899H   LINE      ---      ---       #3321
      0100889CH   LINE      ---      ---       #3322
      0100889CH   LINE      ---      ---       #3323
      0100889EH   LINE      ---      ---       #3324
      010088A0H   LINE      ---      ---       #3325
      010088A0H   LINE      ---      ---       #3326
      010088A0H   LINE      ---      ---       #3327
      010088A2H   LINE      ---      ---       #3329
      010088A2H   LINE      ---      ---       #3330
      010088A8H   LINE      ---      ---       #3331
      010088ABH   LINE      ---      ---       #3332
      010088ABH   LINE      ---      ---       #3333
      010088B1H   LINE      ---      ---       #3334
      010088B1H   LINE      ---      ---       #3335
      010088BAH   LINE      ---      ---       #3336
      010088BAH   LINE      ---      ---       #3337
LX51 LINKER/LOCATER V4.66.93.0                                                        04/19/2019  09:16:48  PAGE 102


      010088C2H   LINE      ---      ---       #3338
      010088C2H   LINE      ---      ---       #3339
      010088C7H   LINE      ---      ---       #3340
      010088C9H   LINE      ---      ---       #3342
      010088C9H   LINE      ---      ---       #3343
      010088CFH   LINE      ---      ---       #3344
      010088CFH   LINE      ---      ---       #3345
      010088D4H   LINE      ---      ---       #3346
      010088D8H   LINE      ---      ---       #3347
      010088D8H   LINE      ---      ---       #3348
      010088D8H   LINE      ---      ---       #3349
      010088D8H   LINE      ---      ---       #3352
      010088E5H   LINE      ---      ---       #3353
      010088E5H   LINE      ---      ---       #3354
      010088E7H   LINE      ---      ---       #3355
      010088E9H   LINE      ---      ---       #3356
      010088EAH   LINE      ---      ---       #3358
      010088EAH   LINE      ---      ---       #3359
      010088EDH   LINE      ---      ---       #3360
      010088EDH   LINE      ---      ---       #3361
      010088EFH   LINE      ---      ---       #3362
      010088F1H   LINE      ---      ---       #3363
      010088F1H   LINE      ---      ---       #3364
      010088F1H   LINE      ---      ---       #3365
      010088F3H   LINE      ---      ---       #3367
      010088F3H   LINE      ---      ---       #3368
      010088F9H   LINE      ---      ---       #3369
      010088FCH   LINE      ---      ---       #3370
      010088FCH   LINE      ---      ---       #3371
      01008902H   LINE      ---      ---       #3372
      01008902H   LINE      ---      ---       #3373
      0100890BH   LINE      ---      ---       #3374
      0100890BH   LINE      ---      ---       #3375
      01008913H   LINE      ---      ---       #3376
      01008913H   LINE      ---      ---       #3377
      01008918H   LINE      ---      ---       #3378
      0100891AH   LINE      ---      ---       #3380
      0100891AH   LINE      ---      ---       #3381
      01008920H   LINE      ---      ---       #3382
      01008920H   LINE      ---      ---       #3383
      01008925H   LINE      ---      ---       #3384
      01008929H   LINE      ---      ---       #3385
      01008929H   LINE      ---      ---       #3386
      01008929H   LINE      ---      ---       #3387
      01008929H   LINE      ---      ---       #3388
      02000040H   SYMBOL    XDATA    BYTE      Micro_Temp_CLK
      02000041H   SYMBOL    XDATA    BYTE      Check_WireInTimes
      02000042H   SYMBOL    XDATA    BYTE      Check_WireOutTimes
      02000043H   SYMBOL    XDATA    BYTE      WireIn_FB_Count
      02000044H   SYMBOL    XDATA    BYTE      WireOut_FB_Count
      02000045H   SYMBOL    XDATA    BYTE      NoHpCheck_Times
      ---         BLOCKEND  CODE     ---       LVL=1
      ---         BLOCKEND  CODE     ---       LVL=0

      ---         MODULE    ---      ---       SOUND_TYPE
      01008952H   PUBLIC    CODE     ---       Sound_Type_Drive
      0100BEEBH   PUBLIC    CODE     ---       Sound_Alarm_Pause_Disable
      0100BEC2H   PUBLIC    CODE     ---       Sound_Alarm_Pause_Enable
      0100AED9H   PUBLIC    CODE     ---       Sound_Short
      000000E0H   SFRSYM    DATA     BYTE      ACC
      000000F0H   SFRSYM    DATA     BYTE      B
      000000D0H   SFRSYM    DATA     BYTE      PSW
      000000D0H.7 SFRSYM    DATA     BIT       CY
      000000D0H.6 SFRSYM    DATA     BIT       AC
      000000D0H.5 SFRSYM    DATA     BIT       F0
LX51 LINKER/LOCATER V4.66.93.0                                                        04/19/2019  09:16:48  PAGE 103


      000000D0H.4 SFRSYM    DATA     BIT       RS1
      000000D0H.3 SFRSYM    DATA     BIT       RS0
      000000D0H.2 SFRSYM    DATA     BIT       OV
      000000D0H.0 SFRSYM    DATA     BIT       P
      00000081H   SFRSYM    DATA     BYTE      SP
      00000082H   SFRSYM    DATA     BYTE      DPL
      00000083H   SFRSYM    DATA     BYTE      DPH
      00000087H   SFRSYM    DATA     BYTE      PCON
      0000008EH   SFRSYM    DATA     BYTE      AUXR
      000000A2H   SFRSYM    DATA     BYTE      AUXR1
      0000008FH   SFRSYM    DATA     BYTE      WAKE_CLKO
      00000097H   SFRSYM    DATA     BYTE      CLK_DIV
      000000A1H   SFRSYM    DATA     BYTE      BUS_SPEED
      000000A8H   SFRSYM    DATA     BYTE      IE
      000000A8H.7 SFRSYM    DATA     BIT       EA
      000000A8H.6 SFRSYM    DATA     BIT       ELVD
      000000A8H.5 SFRSYM    DATA     BIT       EADC
      000000A8H.4 SFRSYM    DATA     BIT       ES
      000000A8H.3 SFRSYM    DATA     BIT       ET1
      000000A8H.2 SFRSYM    DATA     BIT       EX1
      000000A8H.1 SFRSYM    DATA     BIT       ET0
      000000A8H.0 SFRSYM    DATA     BIT       EX0
      000000AFH   SFRSYM    DATA     BYTE      IE2
      000000B8H   SFRSYM    DATA     BYTE      IP
      000000B8H.7 SFRSYM    DATA     BIT       PPCA
      000000B8H.6 SFRSYM    DATA     BIT       PLVD
      000000B8H.5 SFRSYM    DATA     BIT       PADC
      000000B8H.4 SFRSYM    DATA     BIT       PS
      000000B8H.3 SFRSYM    DATA     BIT       PT1
      000000B8H.2 SFRSYM    DATA     BIT       PX1
      000000B8H.1 SFRSYM    DATA     BIT       PT0
      000000B8H.0 SFRSYM    DATA     BIT       PX0
      000000B7H   SFRSYM    DATA     BYTE      IPH
      000000B5H   SFRSYM    DATA     BYTE      IP2
      000000B6H   SFRSYM    DATA     BYTE      IPH2
      00000080H   SFRSYM    DATA     BYTE      P0
      00000080H.0 SFRSYM    DATA     BIT       P00
      00000080H.1 SFRSYM    DATA     BIT       P01
      00000080H.2 SFRSYM    DATA     BIT       P02
      00000080H.3 SFRSYM    DATA     BIT       P03
      00000080H.4 SFRSYM    DATA     BIT       P04
      00000080H.5 SFRSYM    DATA     BIT       P05
      00000080H.6 SFRSYM    DATA     BIT       P06
      00000080H.7 SFRSYM    DATA     BIT       P07
      00000094H   SFRSYM    DATA     BYTE      P0M0
      00000093H   SFRSYM    DATA     BYTE      P0M1
      00000090H   SFRSYM    DATA     BYTE      P1
      00000090H.0 SFRSYM    DATA     BIT       P10
      00000090H.1 SFRSYM    DATA     BIT       P11
      00000090H.2 SFRSYM    DATA     BIT       P12
      00000090H.3 SFRSYM    DATA     BIT       P13
      00000090H.4 SFRSYM    DATA     BIT       P14
      00000090H.5 SFRSYM    DATA     BIT       P15
      00000090H.6 SFRSYM    DATA     BIT       P16
      00000090H.7 SFRSYM    DATA     BIT       P17
      00000092H   SFRSYM    DATA     BYTE      P1M0
      00000091H   SFRSYM    DATA     BYTE      P1M1
      0000009DH   SFRSYM    DATA     BYTE      P1ASF
      000000A0H   SFRSYM    DATA     BYTE      P2
      000000A0H.0 SFRSYM    DATA     BIT       P20
      000000A0H.1 SFRSYM    DATA     BIT       P21
      000000A0H.2 SFRSYM    DATA     BIT       P22
      000000A0H.3 SFRSYM    DATA     BIT       P23
      000000A0H.4 SFRSYM    DATA     BIT       P24
      000000A0H.5 SFRSYM    DATA     BIT       P25
LX51 LINKER/LOCATER V4.66.93.0                                                        04/19/2019  09:16:48  PAGE 104


      000000A0H.6 SFRSYM    DATA     BIT       P26
      000000A0H.7 SFRSYM    DATA     BIT       P27
      00000096H   SFRSYM    DATA     BYTE      P2M0
      00000095H   SFRSYM    DATA     BYTE      P2M1
      000000B0H   SFRSYM    DATA     BYTE      P3
      000000B0H.0 SFRSYM    DATA     BIT       P30
      000000B0H.1 SFRSYM    DATA     BIT       P31
      000000B0H.2 SFRSYM    DATA     BIT       P32
      000000B0H.3 SFRSYM    DATA     BIT       P33
      000000B0H.4 SFRSYM    DATA     BIT       P34
      000000B0H.5 SFRSYM    DATA     BIT       P35
      000000B0H.6 SFRSYM    DATA     BIT       P36
      000000B0H.7 SFRSYM    DATA     BIT       P37
      000000B2H   SFRSYM    DATA     BYTE      P3M0
      000000B1H   SFRSYM    DATA     BYTE      P3M1
      000000C0H   SFRSYM    DATA     BYTE      P4
      000000C0H.0 SFRSYM    DATA     BIT       P40
      000000C0H.1 SFRSYM    DATA     BIT       P41
      000000C0H.2 SFRSYM    DATA     BIT       P42
      000000C0H.3 SFRSYM    DATA     BIT       P43
      000000C0H.4 SFRSYM    DATA     BIT       P44
      000000C0H.5 SFRSYM    DATA     BIT       P45
      000000C0H.6 SFRSYM    DATA     BIT       P46
      000000C0H.7 SFRSYM    DATA     BIT       P47
      000000B4H   SFRSYM    DATA     BYTE      P4M0
      000000B3H   SFRSYM    DATA     BYTE      P4M1
      000000BBH   SFRSYM    DATA     BYTE      P4SW
      000000C8H   SFRSYM    DATA     BYTE      P5
      000000CAH   SFRSYM    DATA     BYTE      P5M0
      000000C9H   SFRSYM    DATA     BYTE      P5M1
      00000088H   SFRSYM    DATA     BYTE      TCON
      00000088H.7 SFRSYM    DATA     BIT       TF1
      00000088H.6 SFRSYM    DATA     BIT       TR1
      00000088H.5 SFRSYM    DATA     BIT       TF0
      00000088H.4 SFRSYM    DATA     BIT       TR0
      00000088H.3 SFRSYM    DATA     BIT       IE1
      00000088H.2 SFRSYM    DATA     BIT       IT1
      00000088H.1 SFRSYM    DATA     BIT       IE0
      00000088H.0 SFRSYM    DATA     BIT       IT0
      00000089H   SFRSYM    DATA     BYTE      TMOD
      0000008AH   SFRSYM    DATA     BYTE      TL0
      0000008CH   SFRSYM    DATA     BYTE      TH0
      0000008BH   SFRSYM    DATA     BYTE      TL1
      0000008DH   SFRSYM    DATA     BYTE      TH1
      00000098H   SFRSYM    DATA     BYTE      SCON
      00000098H.7 SFRSYM    DATA     BIT       SM0
      00000098H.6 SFRSYM    DATA     BIT       SM1
      00000098H.5 SFRSYM    DATA     BIT       SM2
      00000098H.4 SFRSYM    DATA     BIT       REN
      00000098H.3 SFRSYM    DATA     BIT       TB8
      00000098H.2 SFRSYM    DATA     BIT       RB8
      00000098H.1 SFRSYM    DATA     BIT       TI
      00000098H.0 SFRSYM    DATA     BIT       RI
      00000099H   SFRSYM    DATA     BYTE      SBUF
      000000B9H   SFRSYM    DATA     BYTE      SADEN
      000000A9H   SFRSYM    DATA     BYTE      SADDR
      0000009AH   SFRSYM    DATA     BYTE      S2CON
      0000009BH   SFRSYM    DATA     BYTE      S2BUF
      0000009CH   SFRSYM    DATA     BYTE      BRT
      000000C1H   SFRSYM    DATA     BYTE      WDT_CONTR
      000000D8H   SFRSYM    DATA     BYTE      CCON
      000000D8H.7 SFRSYM    DATA     BIT       CF
      000000D8H.6 SFRSYM    DATA     BIT       CR
      000000D8H.1 SFRSYM    DATA     BIT       CCF1
      000000D8H.0 SFRSYM    DATA     BIT       CCF0
LX51 LINKER/LOCATER V4.66.93.0                                                        04/19/2019  09:16:48  PAGE 105


      000000D9H   SFRSYM    DATA     BYTE      CMOD
      000000E9H   SFRSYM    DATA     BYTE      CL
      000000F9H   SFRSYM    DATA     BYTE      CH
      000000DAH   SFRSYM    DATA     BYTE      CCAPM0
      000000DBH   SFRSYM    DATA     BYTE      CCAPM1
      000000EAH   SFRSYM    DATA     BYTE      CCAP0L
      000000FAH   SFRSYM    DATA     BYTE      CCAP0H
      000000EBH   SFRSYM    DATA     BYTE      CCAP1L
      000000FBH   SFRSYM    DATA     BYTE      CCAP1H
      000000F2H   SFRSYM    DATA     BYTE      PCA_PWM0
      000000F3H   SFRSYM    DATA     BYTE      PCA_PWM1
      000000BCH   SFRSYM    DATA     BYTE      ADC_CONTR
      000000BDH   SFRSYM    DATA     BYTE      ADC_RES
      000000BEH   SFRSYM    DATA     BYTE      ADC_RESL
      000000CEH   SFRSYM    DATA     BYTE      SPCTL
      000000CDH   SFRSYM    DATA     BYTE      SPSTAT
      000000CFH   SFRSYM    DATA     BYTE      SPDAT
      000000C2H   SFRSYM    DATA     BYTE      IAP_DATA
      000000C3H   SFRSYM    DATA     BYTE      IAP_ADDRH
      000000C4H   SFRSYM    DATA     BYTE      IAP_ADDRL
      000000C5H   SFRSYM    DATA     BYTE      IAP_CMD
      000000C6H   SFRSYM    DATA     BYTE      IAP_TRIG
      000000C7H   SFRSYM    DATA     BYTE      IAP_CONTR
      02000359H   SYMBOL    XDATA    BYTE      Sound_En_Cnt
      0200035AH   SYMBOL    XDATA    WORD      SoundPauseCnt

      0100AED9H   BLOCK     CODE     ---       LVL=0
      0100AED9H   LINE      ---      ---       #10
      0100AED9H   LINE      ---      ---       #11
      0100AED9H   LINE      ---      ---       #12
      0100AEDFH   LINE      ---      ---       #13
      0100AEDFH   LINE      ---      ---       #15
      0100AEDFH   LINE      ---      ---       #17
      0100AEDFH   LINE      ---      ---       #18
      0100AEE5H   LINE      ---      ---       #19
      0100AEE5H   LINE      ---      ---       #20
      ---         BLOCKEND  ---      ---       LVL=0

      0100BEC2H   BLOCK     CODE     ---       LVL=0
      0100BEC2H   LINE      ---      ---       #22
      0100BEC2H   LINE      ---      ---       #23
      0100BEC2H   LINE      ---      ---       #24
      0100BECCH   LINE      ---      ---       #25
      ---         BLOCKEND  ---      ---       LVL=0

      0100BEEBH   BLOCK     CODE     ---       LVL=0
      0100BEEBH   LINE      ---      ---       #27
      0100BEEBH   LINE      ---      ---       #28
      0100BEEBH   LINE      ---      ---       #29
      0100BEF2H   LINE      ---      ---       #30
      ---         BLOCKEND  ---      ---       LVL=0

      01008952H   BLOCK     CODE     ---       LVL=0
      01008952H   LINE      ---      ---       #32
      01008952H   LINE      ---      ---       #33
      01008952H   LINE      ---      ---       #34
      01008958H   LINE      ---      ---       #35
      01008958H   LINE      ---      ---       #36
      01008962H   LINE      ---      ---       #37
      01008962H   LINE      ---      ---       #38
      01008964H   LINE      ---      ---       #39
      01008968H   LINE      ---      ---       #40
      01008969H   LINE      ---      ---       #42
      01008969H   LINE      ---      ---       #43
      0100896EH   LINE      ---      ---       #44
LX51 LINKER/LOCATER V4.66.93.0                                                        04/19/2019  09:16:48  PAGE 106


      01008970H   LINE      ---      ---       #45
      01008970H   LINE      ---      ---       #46
      01008971H   LINE      ---      ---       #48
      01008971H   LINE      ---      ---       #49
      01008977H   LINE      ---      ---       #50
      01008977H   LINE      ---      ---       #51
      01008979H   LINE      ---      ---       #52
      0100897BH   LINE      ---      ---       #53
      0100897CH   LINE      ---      ---       #55
      0100897CH   LINE      ---      ---       #56
      0100897EH   LINE      ---      ---       #57
      0100897EH   LINE      ---      ---       #58
      0100897EH   LINE      ---      ---       #59
      ---         BLOCKEND  ---      ---       LVL=0

      ---         MODULE    ---      ---       MAIN
      01007839H   PUBLIC    CODE     ---       main
      000000E0H   SFRSYM    DATA     BYTE      ACC
      000000F0H   SFRSYM    DATA     BYTE      B
      000000D0H   SFRSYM    DATA     BYTE      PSW
      000000D0H.7 SFRSYM    DATA     BIT       CY
      000000D0H.6 SFRSYM    DATA     BIT       AC
      000000D0H.5 SFRSYM    DATA     BIT       F0
      000000D0H.4 SFRSYM    DATA     BIT       RS1
      000000D0H.3 SFRSYM    DATA     BIT       RS0
      000000D0H.2 SFRSYM    DATA     BIT       OV
      000000D0H.0 SFRSYM    DATA     BIT       P
      00000081H   SFRSYM    DATA     BYTE      SP
      00000082H   SFRSYM    DATA     BYTE      DPL
      00000083H   SFRSYM    DATA     BYTE      DPH
      00000087H   SFRSYM    DATA     BYTE      PCON
      0000008EH   SFRSYM    DATA     BYTE      AUXR
      000000A2H   SFRSYM    DATA     BYTE      AUXR1
      0000008FH   SFRSYM    DATA     BYTE      WAKE_CLKO
      00000097H   SFRSYM    DATA     BYTE      CLK_DIV
      000000A1H   SFRSYM    DATA     BYTE      BUS_SPEED
      000000A8H   SFRSYM    DATA     BYTE      IE
      000000A8H.7 SFRSYM    DATA     BIT       EA
      000000A8H.6 SFRSYM    DATA     BIT       ELVD
      000000A8H.5 SFRSYM    DATA     BIT       EADC
      000000A8H.4 SFRSYM    DATA     BIT       ES
      000000A8H.3 SFRSYM    DATA     BIT       ET1
      000000A8H.2 SFRSYM    DATA     BIT       EX1
      000000A8H.1 SFRSYM    DATA     BIT       ET0
      000000A8H.0 SFRSYM    DATA     BIT       EX0
      000000AFH   SFRSYM    DATA     BYTE      IE2
      000000B8H   SFRSYM    DATA     BYTE      IP
      000000B8H.7 SFRSYM    DATA     BIT       PPCA
      000000B8H.6 SFRSYM    DATA     BIT       PLVD
      000000B8H.5 SFRSYM    DATA     BIT       PADC
      000000B8H.4 SFRSYM    DATA     BIT       PS
      000000B8H.3 SFRSYM    DATA     BIT       PT1
      000000B8H.2 SFRSYM    DATA     BIT       PX1
      000000B8H.1 SFRSYM    DATA     BIT       PT0
      000000B8H.0 SFRSYM    DATA     BIT       PX0
      000000B7H   SFRSYM    DATA     BYTE      IPH
      000000B5H   SFRSYM    DATA     BYTE      IP2
      000000B6H   SFRSYM    DATA     BYTE      IPH2
      00000080H   SFRSYM    DATA     BYTE      P0
      00000080H.0 SFRSYM    DATA     BIT       P00
      00000080H.1 SFRSYM    DATA     BIT       P01
      00000080H.2 SFRSYM    DATA     BIT       P02
      00000080H.3 SFRSYM    DATA     BIT       P03
      00000080H.4 SFRSYM    DATA     BIT       P04
      00000080H.5 SFRSYM    DATA     BIT       P05
LX51 LINKER/LOCATER V4.66.93.0                                                        04/19/2019  09:16:48  PAGE 107


      00000080H.6 SFRSYM    DATA     BIT       P06
      00000080H.7 SFRSYM    DATA     BIT       P07
      00000094H   SFRSYM    DATA     BYTE      P0M0
      00000093H   SFRSYM    DATA     BYTE      P0M1
      00000090H   SFRSYM    DATA     BYTE      P1
      00000090H.0 SFRSYM    DATA     BIT       P10
      00000090H.1 SFRSYM    DATA     BIT       P11
      00000090H.2 SFRSYM    DATA     BIT       P12
      00000090H.3 SFRSYM    DATA     BIT       P13
      00000090H.4 SFRSYM    DATA     BIT       P14
      00000090H.5 SFRSYM    DATA     BIT       P15
      00000090H.6 SFRSYM    DATA     BIT       P16
      00000090H.7 SFRSYM    DATA     BIT       P17
      00000092H   SFRSYM    DATA     BYTE      P1M0
      00000091H   SFRSYM    DATA     BYTE      P1M1
      0000009DH   SFRSYM    DATA     BYTE      P1ASF
      000000A0H   SFRSYM    DATA     BYTE      P2
      000000A0H.0 SFRSYM    DATA     BIT       P20
      000000A0H.1 SFRSYM    DATA     BIT       P21
      000000A0H.2 SFRSYM    DATA     BIT       P22
      000000A0H.3 SFRSYM    DATA     BIT       P23
      000000A0H.4 SFRSYM    DATA     BIT       P24
      000000A0H.5 SFRSYM    DATA     BIT       P25
      000000A0H.6 SFRSYM    DATA     BIT       P26
      000000A0H.7 SFRSYM    DATA     BIT       P27
      00000096H   SFRSYM    DATA     BYTE      P2M0
      00000095H   SFRSYM    DATA     BYTE      P2M1
      000000B0H   SFRSYM    DATA     BYTE      P3
      000000B0H.0 SFRSYM    DATA     BIT       P30
      000000B0H.1 SFRSYM    DATA     BIT       P31
      000000B0H.2 SFRSYM    DATA     BIT       P32
      000000B0H.3 SFRSYM    DATA     BIT       P33
      000000B0H.4 SFRSYM    DATA     BIT       P34
      000000B0H.5 SFRSYM    DATA     BIT       P35
      000000B0H.6 SFRSYM    DATA     BIT       P36
      000000B0H.7 SFRSYM    DATA     BIT       P37
      000000B2H   SFRSYM    DATA     BYTE      P3M0
      000000B1H   SFRSYM    DATA     BYTE      P3M1
      000000C0H   SFRSYM    DATA     BYTE      P4
      000000C0H.0 SFRSYM    DATA     BIT       P40
      000000C0H.1 SFRSYM    DATA     BIT       P41
      000000C0H.2 SFRSYM    DATA     BIT       P42
      000000C0H.3 SFRSYM    DATA     BIT       P43
      000000C0H.4 SFRSYM    DATA     BIT       P44
      000000C0H.5 SFRSYM    DATA     BIT       P45
      000000C0H.6 SFRSYM    DATA     BIT       P46
      000000C0H.7 SFRSYM    DATA     BIT       P47
      000000B4H   SFRSYM    DATA     BYTE      P4M0
      000000B3H   SFRSYM    DATA     BYTE      P4M1
      000000BBH   SFRSYM    DATA     BYTE      P4SW
      000000C8H   SFRSYM    DATA     BYTE      P5
      000000CAH   SFRSYM    DATA     BYTE      P5M0
      000000C9H   SFRSYM    DATA     BYTE      P5M1
      00000088H   SFRSYM    DATA     BYTE      TCON
      00000088H.7 SFRSYM    DATA     BIT       TF1
      00000088H.6 SFRSYM    DATA     BIT       TR1
      00000088H.5 SFRSYM    DATA     BIT       TF0
      00000088H.4 SFRSYM    DATA     BIT       TR0
      00000088H.3 SFRSYM    DATA     BIT       IE1
      00000088H.2 SFRSYM    DATA     BIT       IT1
      00000088H.1 SFRSYM    DATA     BIT       IE0
      00000088H.0 SFRSYM    DATA     BIT       IT0
      00000089H   SFRSYM    DATA     BYTE      TMOD
      0000008AH   SFRSYM    DATA     BYTE      TL0
      0000008CH   SFRSYM    DATA     BYTE      TH0
LX51 LINKER/LOCATER V4.66.93.0                                                        04/19/2019  09:16:48  PAGE 108


      0000008BH   SFRSYM    DATA     BYTE      TL1
      0000008DH   SFRSYM    DATA     BYTE      TH1
      00000098H   SFRSYM    DATA     BYTE      SCON
      00000098H.7 SFRSYM    DATA     BIT       SM0
      00000098H.6 SFRSYM    DATA     BIT       SM1
      00000098H.5 SFRSYM    DATA     BIT       SM2
      00000098H.4 SFRSYM    DATA     BIT       REN
      00000098H.3 SFRSYM    DATA     BIT       TB8
      00000098H.2 SFRSYM    DATA     BIT       RB8
      00000098H.1 SFRSYM    DATA     BIT       TI
      00000098H.0 SFRSYM    DATA     BIT       RI
      00000099H   SFRSYM    DATA     BYTE      SBUF
      000000B9H   SFRSYM    DATA     BYTE      SADEN
      000000A9H   SFRSYM    DATA     BYTE      SADDR
      0000009AH   SFRSYM    DATA     BYTE      S2CON
      0000009BH   SFRSYM    DATA     BYTE      S2BUF
      0000009CH   SFRSYM    DATA     BYTE      BRT
      000000C1H   SFRSYM    DATA     BYTE      WDT_CONTR
      000000D8H   SFRSYM    DATA     BYTE      CCON
      000000D8H.7 SFRSYM    DATA     BIT       CF
      000000D8H.6 SFRSYM    DATA     BIT       CR
      000000D8H.1 SFRSYM    DATA     BIT       CCF1
      000000D8H.0 SFRSYM    DATA     BIT       CCF0
      000000D9H   SFRSYM    DATA     BYTE      CMOD
      000000E9H   SFRSYM    DATA     BYTE      CL
      000000F9H   SFRSYM    DATA     BYTE      CH
      000000DAH   SFRSYM    DATA     BYTE      CCAPM0
      000000DBH   SFRSYM    DATA     BYTE      CCAPM1
      000000EAH   SFRSYM    DATA     BYTE      CCAP0L
      000000FAH   SFRSYM    DATA     BYTE      CCAP0H
      000000EBH   SFRSYM    DATA     BYTE      CCAP1L
      000000FBH   SFRSYM    DATA     BYTE      CCAP1H
      000000F2H   SFRSYM    DATA     BYTE      PCA_PWM0
      000000F3H   SFRSYM    DATA     BYTE      PCA_PWM1
      000000BCH   SFRSYM    DATA     BYTE      ADC_CONTR
      000000BDH   SFRSYM    DATA     BYTE      ADC_RES
      000000BEH   SFRSYM    DATA     BYTE      ADC_RESL
      000000CEH   SFRSYM    DATA     BYTE      SPCTL
      000000CDH   SFRSYM    DATA     BYTE      SPSTAT
      000000CFH   SFRSYM    DATA     BYTE      SPDAT
      000000C2H   SFRSYM    DATA     BYTE      IAP_DATA
      000000C3H   SFRSYM    DATA     BYTE      IAP_ADDRH
      000000C4H   SFRSYM    DATA     BYTE      IAP_ADDRL
      000000C5H   SFRSYM    DATA     BYTE      IAP_CMD
      000000C6H   SFRSYM    DATA     BYTE      IAP_TRIG
      000000C7H   SFRSYM    DATA     BYTE      IAP_CONTR

      01007839H   BLOCK     CODE     ---       LVL=0
      01007839H   LINE      ---      ---       #8
      01007839H   LINE      ---      ---       #9
      01007839H   BLOCK     CODE     NEAR LAB  LVL=1
      01007839H   LINE      ---      ---       #10
      0100783FH   LINE      ---      ---       #12
      01007841H   LINE      ---      ---       #13
      01007843H   LINE      ---      ---       #14
      01007846H   LINE      ---      ---       #15
      0100784EH   LINE      ---      ---       #17
      01007854H   LINE      ---      ---       #18
      01007854H   LINE      ---      ---       #19
      01007857H   LINE      ---      ---       #20
      0100785AH   LINE      ---      ---       #21
      0100785DH   LINE      ---      ---       #22
      01007860H   LINE      ---      ---       #23
      01007863H   LINE      ---      ---       #24
      01007866H   LINE      ---      ---       #25
LX51 LINKER/LOCATER V4.66.93.0                                                        04/19/2019  09:16:48  PAGE 109


      01007869H   LINE      ---      ---       #26
      0100786CH   LINE      ---      ---       #27
      0100786FH   LINE      ---      ---       #28
      01007872H   LINE      ---      ---       #29
      01007875H   LINE      ---      ---       #30
      01007878H   LINE      ---      ---       #31
      0100787BH   LINE      ---      ---       #32
      0100787EH   LINE      ---      ---       #33
      01007881H   LINE      ---      ---       #34
      01007884H   LINE      ---      ---       #35
      01007887H   LINE      ---      ---       #36
      0100788AH   LINE      ---      ---       #37
      0100788DH   LINE      ---      ---       #38
      01007890H   LINE      ---      ---       #39
      01007893H   LINE      ---      ---       #40
      01007896H   LINE      ---      ---       #41
      01007899H   LINE      ---      ---       #42
      0100789CH   LINE      ---      ---       #43
      0100789FH   LINE      ---      ---       #44
      010078A1H   LINE      ---      ---       #45
      0200010FH   SYMBOL    XDATA    BYTE      TRUE
      ---         BLOCKEND  CODE     ---       LVL=1
      ---         BLOCKEND  CODE     ---       LVL=0

      ---         MODULE    ---      ---       STCROMCRC16

      ---         MODULE    ---      ---       LCD
      02000360H   PUBLIC    XDATA    BYTE      Back_Color
      010019CEH   PUBLIC    CONST    ---       gImage_LAN_SEL_FR
      010018BAH   PUBLIC    CONST    ---       gImage_LAN_SEL_ES
      0100175EH   PUBLIC    CONST    ---       gImage_LAN_SEL_PT
      01001668H   PUBLIC    CONST    ---       gImage_LAN_SEL_EN
      01001500H   PUBLIC    CONST    ---       ICO24X24
      01001398H   PUBLIC    CONST    ---       Num8X24
      010012A8H   PUBLIC    CONST    ---       Num8X16
      01000E34H   PUBLIC    CONST    ---       gImage_FANEM
      01000E04H   PUBLIC    CONST    ---       gImage_LOGO5
      01000DCBH   PUBLIC    CONST    ---       gImage_LOGO4
      01000D65H   PUBLIC    CONST    ---       gImage_LOGO3
      01000CF9H   PUBLIC    CONST    ---       gImage_LOGO2
      01000C99H   PUBLIC    CONST    ---       gImage_LOGO1
      01000A49H   PUBLIC    CONST    ---       Shangbiao8
      01007F59H   PUBLIC    CODE     ---       LCD_Show_Verion
      01006631H   PUBLIC    CODE     ---       DrawWorkWindows
      0100BF43H   PUBLIC    CODE     ---       Refresh_Work_Mode
      02000196H   PUBLIC    XDATA    BYTE      ?_Draw_Circle?BYTE
      0100898AH   PUBLIC    CODE     ---       _Draw_Circle
      02000148H   PUBLIC    XDATA    BYTE      ?_LCD_ShowxNum?BYTE
      01008ACFH   PUBLIC    CODE     ---       _LCD_ShowxNum
      02000197H   PUBLIC    XDATA    BYTE      ?_LCD_ShowString?BYTE
      01007FEEH   PUBLIC    CODE     ---       _LCD_ShowString
      020001ACH   PUBLIC    XDATA    BYTE      ?_LCD_ShowChar?BYTE
      0100B4C8H   PUBLIC    CODE     ---       _LCD_ShowChar
      020001B4H   PUBLIC    XDATA    BYTE      ?_DISP_FNT12X24?BYTE
      0100B254H   PUBLIC    CODE     ---       _DISP_FNT12X24
      020001B4H   PUBLIC    XDATA    BYTE      ?_DISP_FNT8X16?BYTE
      0100B3A1H   PUBLIC    CODE     ---       _DISP_FNT8X16
      01009E55H   PUBLIC    CODE     ---       _DISP_VHB80_PIC
      0100BF2BH   PUBLIC    CODE     ---       _Disp_WuChuang
      0100BF18H   PUBLIC    CODE     ---       _Disp_YouChuang
      0100BFA9H   PUBLIC    CODE     ---       _DISP_VHB80_56X40
      02000196H   PUBLIC    XDATA    BYTE      ?_DISP_DHM?BYTE
      0100C030H   PUBLIC    CODE     ---       _DISP_DHM
      02000196H   PUBLIC    XDATA    BYTE      ?_DISP_ICO_52X64?BYTE
      0100AEF5H   PUBLIC    CODE     ---       _DISP_ICO_52X64
LX51 LINKER/LOCATER V4.66.93.0                                                        04/19/2019  09:16:48  PAGE 110


      02000196H   PUBLIC    XDATA    BYTE      ?_DISP_ICO_40X40?BYTE
      0100BFFFH   PUBLIC    CODE     ---       _DISP_ICO_40X40
      02000196H   PUBLIC    XDATA    BYTE      ?_DISP_ICO_32X40?BYTE
      01007FC6H   PUBLIC    CODE     ---       _DISP_ICO_32X40
      02000197H   PUBLIC    XDATA    BYTE      ?_DISP_TIME_10X16?BYTE
      01009554H   PUBLIC    CODE     ---       _DISP_TIME_10X16
      02000196H   PUBLIC    XDATA    BYTE      ?_DISP_RH14X24?BYTE
      0100BFD9H   PUBLIC    CODE     ---       _DISP_RH14X24
      02000112H   PUBLIC    XDATA    BYTE      ?_DISP_FNT10X24?BYTE
      01007999H   PUBLIC    CODE     ---       _DISP_FNT10X24
      0200019CH   PUBLIC    XDATA    BYTE      ?_DISP_RH_17X40?BYTE
      01008BA7H   PUBLIC    CODE     ---       _DISP_RH_17X40
      0100BF94H   PUBLIC    CODE     ---       _DISP_HEAT_36X24
      01009EB8H   PUBLIC    CODE     ---       _DISP_JQK41X16
      0100BFC4H   PUBLIC    CODE     ---       _DISP_RTD28X24
      0100BEF9H   PUBLIC    CODE     ---       _DISP_CQK25X24
      02000113H   PUBLIC    XDATA    BYTE      ?_DISP_TEMP_38X64?BYTE
      01008F23H   PUBLIC    CODE     ---       _DISP_TEMP_38X64
      0200019CH   PUBLIC    XDATA    BYTE      ?_DISP_TEMP_30X56?BYTE
      01008DDBH   PUBLIC    CODE     ---       _DISP_TEMP_30X56
      0200019CH   PUBLIC    XDATA    BYTE      ?_Draw_Rectangle_Real?BYTE
      01006B6EH   PUBLIC    CODE     ---       _Draw_Rectangle_Real
      02000196H   PUBLIC    XDATA    BYTE      ?_Draw_Rectangle?BYTE
      0100690AH   PUBLIC    CODE     ---       _Draw_Rectangle
      020001C4H   PUBLIC    XDATA    BYTE      ?_LCD_CrtlWrite_Area?BYTE
      01006A23H   PUBLIC    CODE     ---       _LCD_CrtlWrite_Area
      01006A88H   PUBLIC    CODE     ---       LCD_Initial
      01006F84H   PUBLIC    CODE     ---       _LCD_CtrlWrite_Color
      01006F97H   PUBLIC    CODE     ---       _LCD_CtrlWrite_ILI9328
      000000E0H   SFRSYM    DATA     BYTE      ACC
      000000F0H   SFRSYM    DATA     BYTE      B
      000000D0H   SFRSYM    DATA     BYTE      PSW
      000000D0H.7 SFRSYM    DATA     BIT       CY
      000000D0H.6 SFRSYM    DATA     BIT       AC
      000000D0H.5 SFRSYM    DATA     BIT       F0
      000000D0H.4 SFRSYM    DATA     BIT       RS1
      000000D0H.3 SFRSYM    DATA     BIT       RS0
      000000D0H.2 SFRSYM    DATA     BIT       OV
      000000D0H.0 SFRSYM    DATA     BIT       P
      00000081H   SFRSYM    DATA     BYTE      SP
      00000082H   SFRSYM    DATA     BYTE      DPL
      00000083H   SFRSYM    DATA     BYTE      DPH
      00000087H   SFRSYM    DATA     BYTE      PCON
      0000008EH   SFRSYM    DATA     BYTE      AUXR
      000000A2H   SFRSYM    DATA     BYTE      AUXR1
      0000008FH   SFRSYM    DATA     BYTE      WAKE_CLKO
      00000097H   SFRSYM    DATA     BYTE      CLK_DIV
      000000A1H   SFRSYM    DATA     BYTE      BUS_SPEED
      000000A8H   SFRSYM    DATA     BYTE      IE
      000000A8H.7 SFRSYM    DATA     BIT       EA
      000000A8H.6 SFRSYM    DATA     BIT       ELVD
      000000A8H.5 SFRSYM    DATA     BIT       EADC
      000000A8H.4 SFRSYM    DATA     BIT       ES
      000000A8H.3 SFRSYM    DATA     BIT       ET1
      000000A8H.2 SFRSYM    DATA     BIT       EX1
      000000A8H.1 SFRSYM    DATA     BIT       ET0
      000000A8H.0 SFRSYM    DATA     BIT       EX0
      000000AFH   SFRSYM    DATA     BYTE      IE2
      000000B8H   SFRSYM    DATA     BYTE      IP
      000000B8H.7 SFRSYM    DATA     BIT       PPCA
      000000B8H.6 SFRSYM    DATA     BIT       PLVD
      000000B8H.5 SFRSYM    DATA     BIT       PADC
      000000B8H.4 SFRSYM    DATA     BIT       PS
      000000B8H.3 SFRSYM    DATA     BIT       PT1
      000000B8H.2 SFRSYM    DATA     BIT       PX1
LX51 LINKER/LOCATER V4.66.93.0                                                        04/19/2019  09:16:48  PAGE 111


      000000B8H.1 SFRSYM    DATA     BIT       PT0
      000000B8H.0 SFRSYM    DATA     BIT       PX0
      000000B7H   SFRSYM    DATA     BYTE      IPH
      000000B5H   SFRSYM    DATA     BYTE      IP2
      000000B6H   SFRSYM    DATA     BYTE      IPH2
      00000080H   SFRSYM    DATA     BYTE      P0
      00000080H.0 SFRSYM    DATA     BIT       P00
      00000080H.1 SFRSYM    DATA     BIT       P01
      00000080H.2 SFRSYM    DATA     BIT       P02
      00000080H.3 SFRSYM    DATA     BIT       P03
      00000080H.4 SFRSYM    DATA     BIT       P04
      00000080H.5 SFRSYM    DATA     BIT       P05
      00000080H.6 SFRSYM    DATA     BIT       P06
      00000080H.7 SFRSYM    DATA     BIT       P07
      00000094H   SFRSYM    DATA     BYTE      P0M0
      00000093H   SFRSYM    DATA     BYTE      P0M1
      00000090H   SFRSYM    DATA     BYTE      P1
      00000090H.0 SFRSYM    DATA     BIT       P10
      00000090H.1 SFRSYM    DATA     BIT       P11
      00000090H.2 SFRSYM    DATA     BIT       P12
      00000090H.3 SFRSYM    DATA     BIT       P13
      00000090H.4 SFRSYM    DATA     BIT       P14
      00000090H.5 SFRSYM    DATA     BIT       P15
      00000090H.6 SFRSYM    DATA     BIT       P16
      00000090H.7 SFRSYM    DATA     BIT       P17
      00000092H   SFRSYM    DATA     BYTE      P1M0
      00000091H   SFRSYM    DATA     BYTE      P1M1
      0000009DH   SFRSYM    DATA     BYTE      P1ASF
      000000A0H   SFRSYM    DATA     BYTE      P2
      000000A0H.0 SFRSYM    DATA     BIT       P20
      000000A0H.1 SFRSYM    DATA     BIT       P21
      000000A0H.2 SFRSYM    DATA     BIT       P22
      000000A0H.3 SFRSYM    DATA     BIT       P23
      000000A0H.4 SFRSYM    DATA     BIT       P24
      000000A0H.5 SFRSYM    DATA     BIT       P25
      000000A0H.6 SFRSYM    DATA     BIT       P26
      000000A0H.7 SFRSYM    DATA     BIT       P27
      00000096H   SFRSYM    DATA     BYTE      P2M0
      00000095H   SFRSYM    DATA     BYTE      P2M1
      000000B0H   SFRSYM    DATA     BYTE      P3
      000000B0H.0 SFRSYM    DATA     BIT       P30
      000000B0H.1 SFRSYM    DATA     BIT       P31
      000000B0H.2 SFRSYM    DATA     BIT       P32
      000000B0H.3 SFRSYM    DATA     BIT       P33
      000000B0H.4 SFRSYM    DATA     BIT       P34
      000000B0H.5 SFRSYM    DATA     BIT       P35
      000000B0H.6 SFRSYM    DATA     BIT       P36
      000000B0H.7 SFRSYM    DATA     BIT       P37
      000000B2H   SFRSYM    DATA     BYTE      P3M0
      000000B1H   SFRSYM    DATA     BYTE      P3M1
      000000C0H   SFRSYM    DATA     BYTE      P4
      000000C0H.0 SFRSYM    DATA     BIT       P40
      000000C0H.1 SFRSYM    DATA     BIT       P41
      000000C0H.2 SFRSYM    DATA     BIT       P42
      000000C0H.3 SFRSYM    DATA     BIT       P43
      000000C0H.4 SFRSYM    DATA     BIT       P44
      000000C0H.5 SFRSYM    DATA     BIT       P45
      000000C0H.6 SFRSYM    DATA     BIT       P46
      000000C0H.7 SFRSYM    DATA     BIT       P47
      000000B4H   SFRSYM    DATA     BYTE      P4M0
      000000B3H   SFRSYM    DATA     BYTE      P4M1
      000000BBH   SFRSYM    DATA     BYTE      P4SW
      000000C8H   SFRSYM    DATA     BYTE      P5
      000000CAH   SFRSYM    DATA     BYTE      P5M0
      000000C9H   SFRSYM    DATA     BYTE      P5M1
LX51 LINKER/LOCATER V4.66.93.0                                                        04/19/2019  09:16:48  PAGE 112


      00000088H   SFRSYM    DATA     BYTE      TCON
      00000088H.7 SFRSYM    DATA     BIT       TF1
      00000088H.6 SFRSYM    DATA     BIT       TR1
      00000088H.5 SFRSYM    DATA     BIT       TF0
      00000088H.4 SFRSYM    DATA     BIT       TR0
      00000088H.3 SFRSYM    DATA     BIT       IE1
      00000088H.2 SFRSYM    DATA     BIT       IT1
      00000088H.1 SFRSYM    DATA     BIT       IE0
      00000088H.0 SFRSYM    DATA     BIT       IT0
      00000089H   SFRSYM    DATA     BYTE      TMOD
      0000008AH   SFRSYM    DATA     BYTE      TL0
      0000008CH   SFRSYM    DATA     BYTE      TH0
      0000008BH   SFRSYM    DATA     BYTE      TL1
      0000008DH   SFRSYM    DATA     BYTE      TH1
      00000098H   SFRSYM    DATA     BYTE      SCON
      00000098H.7 SFRSYM    DATA     BIT       SM0
      00000098H.6 SFRSYM    DATA     BIT       SM1
      00000098H.5 SFRSYM    DATA     BIT       SM2
      00000098H.4 SFRSYM    DATA     BIT       REN
      00000098H.3 SFRSYM    DATA     BIT       TB8
      00000098H.2 SFRSYM    DATA     BIT       RB8
      00000098H.1 SFRSYM    DATA     BIT       TI
      00000098H.0 SFRSYM    DATA     BIT       RI
      00000099H   SFRSYM    DATA     BYTE      SBUF
      000000B9H   SFRSYM    DATA     BYTE      SADEN
      000000A9H   SFRSYM    DATA     BYTE      SADDR
      0000009AH   SFRSYM    DATA     BYTE      S2CON
      0000009BH   SFRSYM    DATA     BYTE      S2BUF
      0000009CH   SFRSYM    DATA     BYTE      BRT
      000000C1H   SFRSYM    DATA     BYTE      WDT_CONTR
      000000D8H   SFRSYM    DATA     BYTE      CCON
      000000D8H.7 SFRSYM    DATA     BIT       CF
      000000D8H.6 SFRSYM    DATA     BIT       CR
      000000D8H.1 SFRSYM    DATA     BIT       CCF1
      000000D8H.0 SFRSYM    DATA     BIT       CCF0
      000000D9H   SFRSYM    DATA     BYTE      CMOD
      000000E9H   SFRSYM    DATA     BYTE      CL
      000000F9H   SFRSYM    DATA     BYTE      CH
      000000DAH   SFRSYM    DATA     BYTE      CCAPM0
      000000DBH   SFRSYM    DATA     BYTE      CCAPM1
      000000EAH   SFRSYM    DATA     BYTE      CCAP0L
      000000FAH   SFRSYM    DATA     BYTE      CCAP0H
      000000EBH   SFRSYM    DATA     BYTE      CCAP1L
      000000FBH   SFRSYM    DATA     BYTE      CCAP1H
      000000F2H   SFRSYM    DATA     BYTE      PCA_PWM0
      000000F3H   SFRSYM    DATA     BYTE      PCA_PWM1
      000000BCH   SFRSYM    DATA     BYTE      ADC_CONTR
      000000BDH   SFRSYM    DATA     BYTE      ADC_RES
      000000BEH   SFRSYM    DATA     BYTE      ADC_RESL
      000000CEH   SFRSYM    DATA     BYTE      SPCTL
      000000CDH   SFRSYM    DATA     BYTE      SPSTAT
      000000CFH   SFRSYM    DATA     BYTE      SPDAT
      000000C2H   SFRSYM    DATA     BYTE      IAP_DATA
      000000C3H   SFRSYM    DATA     BYTE      IAP_ADDRH
      000000C4H   SFRSYM    DATA     BYTE      IAP_ADDRL
      000000C5H   SFRSYM    DATA     BYTE      IAP_CMD
      000000C6H   SFRSYM    DATA     BYTE      IAP_TRIG
      000000C7H   SFRSYM    DATA     BYTE      IAP_CONTR
      0100000EH   SYMBOL    CODE     ---       _SdCmd
      01006A57H   SYMBOL    CODE     ---       _SdData
      010079C1H   SYMBOL    CODE     ---       _DISP_MONO_GRAP
      01006F50H   SYMBOL    CODE     ---       _LCD_DrawPoint
      0100C04FH   SYMBOL    CODE     ---       _LCD_Pow

      0100000EH   BLOCK     CODE     ---       LVL=0
LX51 LINKER/LOCATER V4.66.93.0                                                        04/19/2019  09:16:48  PAGE 113


      0100000EH   LINE      ---      ---       #33
      0100000EH   LINE      ---      ---       #34
      0100000EH   LINE      ---      ---       #35
      01000010H   LINE      ---      ---       #36
      00000007H   SYMBOL    DATA     BYTE      data8
      ---         BLOCKEND  ---      ---       LVL=0

      01006A57H   BLOCK     CODE     ---       LVL=0
      01006A84H   LINE      ---      ---       #44
      01006A84H   LINE      ---      ---       #45
      01006A84H   LINE      ---      ---       #46
      01006A86H   LINE      ---      ---       #47
      01006A57H   SYMBOL    CODE     NEAR LAB  ?L?COM0051
      00000007H   SYMBOL    DATA     BYTE      data8
      ---         BLOCKEND  ---      ---       LVL=0

      01006F97H   BLOCK     CODE     ---       LVL=0
      01006F97H   LINE      ---      ---       #54
      01006F9AH   LINE      ---      ---       #55
      01006F9AH   LINE      ---      ---       #56
      01006F9CH   LINE      ---      ---       #57
      01006F9EH   LINE      ---      ---       #58
      01006FA0H   LINE      ---      ---       #59
      01006FA2H   LINE      ---      ---       #60
      01006FA4H   LINE      ---      ---       #61
      01006FA7H   LINE      ---      ---       #62
      01006FA9H   LINE      ---      ---       #63
      01006FABH   LINE      ---      ---       #64
      01006FADH   LINE      ---      ---       #65
      01006FAFH   LINE      ---      ---       #66
      00000004H   SYMBOL    DATA     WORD      i
      ---         BLOCKEND  ---      ---       LVL=0

      01006F84H   BLOCK     CODE     ---       LVL=0
      01006F84H   LINE      ---      ---       #68
      01006F84H   LINE      ---      ---       #69
      00000007H   SYMBOL    DATA     BYTE      color
      01006F84H   BLOCK     CODE     NEAR LAB  LVL=1
      01006F84H   LINE      ---      ---       #84
      01001AFAH   SYMBOL    CONST    ---       Table_Color
      ---         BLOCKEND  CODE     ---       LVL=1
      ---         BLOCKEND  CODE     ---       LVL=0

      01006A88H   BLOCK     CODE     ---       LVL=0
      01006A88H   LINE      ---      ---       #87
      01006A88H   LINE      ---      ---       #88
      01006A88H   LINE      ---      ---       #90
      01006A8AH   LINE      ---      ---       #91
      01006A91H   LINE      ---      ---       #92
      01006A93H   LINE      ---      ---       #93
      01006A9AH   LINE      ---      ---       #95
      01006A9FH   LINE      ---      ---       #96
      01006AA6H   LINE      ---      ---       #97
      01006AAFH   LINE      ---      ---       #99
      01006AB4H   LINE      ---      ---       #100
      01006AB7H   LINE      ---      ---       #101
      01006ABCH   LINE      ---      ---       #103
      01006AC1H   LINE      ---      ---       #104
      01006AC5H   LINE      ---      ---       #106
      01006AC8H   LINE      ---      ---       #107
      01006ACCH   LINE      ---      ---       #110
      01006AD1H   LINE      ---      ---       #111
      01006AD5H   LINE      ---      ---       #113
      01006ADAH   LINE      ---      ---       #114
      01006ADEH   LINE      ---      ---       #116
LX51 LINKER/LOCATER V4.66.93.0                                                        04/19/2019  09:16:48  PAGE 114


      01006AE3H   LINE      ---      ---       #117
      01006AE7H   LINE      ---      ---       #119
      01006AECH   LINE      ---      ---       #120
      01006AF0H   LINE      ---      ---       #122
      01006AF5H   LINE      ---      ---       #123
      01006AF9H   LINE      ---      ---       #125
      01006AFEH   LINE      ---      ---       #126
      01006B02H   LINE      ---      ---       #128
      01006B07H   LINE      ---      ---       #129
      01006B0BH   LINE      ---      ---       #131
      01006B10H   LINE      ---      ---       #132
      01006B14H   LINE      ---      ---       #133
      01006B18H   LINE      ---      ---       #135
      01006B1DH   LINE      ---      ---       #136
      01006B21H   LINE      ---      ---       #138
      01006B25H   LINE      ---      ---       #151
      01006B28H   LINE      ---      ---       #155
      01006B2CH   LINE      ---      ---       #168
      01006B2FH   LINE      ---      ---       #171
      01006B38H   LINE      ---      ---       #172
      01006B3DH   LINE      ---      ---       #174
      01006B43H   LINE      ---      ---       #176
      01006B48H   LINE      ---      ---       #177
      01006B4BH   LINE      ---      ---       #179
      01006B4DH   LINE      ---      ---       #180
      01006B51H   LINE      ---      ---       #182
      01006B56H   LINE      ---      ---       #183
      01006B58H   LINE      ---      ---       #185
      01006B5BH   LINE      ---      ---       #186
      01006B5FH   LINE      ---      ---       #188
      01006B65H   LINE      ---      ---       #189
      ---         BLOCKEND  ---      ---       LVL=0

      01006A23H   BLOCK     CODE     ---       LVL=0
      01006A23H   LINE      ---      ---       #192
      01006A25H   LINE      ---      ---       #193
      01006A25H   LINE      ---      ---       #194
      01006A2AH   LINE      ---      ---       #195
      01006A2EH   LINE      ---      ---       #196
      01006A32H   LINE      ---      ---       #197
      01006A35H   LINE      ---      ---       #199
      01006A3AH   LINE      ---      ---       #200
      01006A3EH   LINE      ---      ---       #201
      01006A42H   LINE      ---      ---       #202
      01006A47H   LINE      ---      ---       #204
      00000004H   SYMBOL    DATA     BYTE      SX
      00000005H   SYMBOL    DATA     BYTE      EX
      00000002H   SYMBOL    DATA     WORD      SY
      020001C8H   SYMBOL    XDATA    WORD      EY
      ---         BLOCKEND  ---      ---       LVL=0

      01006901H   BLOCK     CODE     ---       LVL=0
      0100690AH   LINE      ---      ---       #209
      01006919H   LINE      ---      ---       #210
      01006901H   SYMBOL    CODE     NEAR LAB  ?L?COM010D
      02000196H   SYMBOL    XDATA    BYTE      Start_X
      02000197H   SYMBOL    XDATA    WORD      Start_Y
      00000001H   SYMBOL    DATA     BYTE      End_X
      0200019AH   SYMBOL    XDATA    WORD      End_Y
      0200019CH   SYMBOL    XDATA    BYTE      color
      0200019DH   SYMBOL    XDATA    BYTE      LineW
      01006919H   BLOCK     CODE     NEAR LAB  LVL=1
      01006919H   LINE      ---      ---       #212
      01006926H   LINE      ---      ---       #213
      01006941H   LINE      ---      ---       #215
LX51 LINKER/LOCATER V4.66.93.0                                                        04/19/2019  09:16:48  PAGE 115


      01006953H   LINE      ---      ---       #216
      0100695BH   LINE      ---      ---       #217
      0100695BH   LINE      ---      ---       #218
      0100696CH   LINE      ---      ---       #219
      0100696CH   LINE      ---      ---       #220
      01006973H   LINE      ---      ---       #222
      0100697AH   LINE      ---      ---       #223
      010069A0H   LINE      ---      ---       #225
      010069A0H   LINE      ---      ---       #226
      010069B1H   LINE      ---      ---       #227
      010069B1H   LINE      ---      ---       #228
      010069B8H   LINE      ---      ---       #230
      010069BFH   LINE      ---      ---       #231
      010069DAH   LINE      ---      ---       #233
      010069DAH   LINE      ---      ---       #234
      010069E4H   LINE      ---      ---       #235
      010069E4H   LINE      ---      ---       #236
      010069EBH   LINE      ---      ---       #238
      010069F2H   LINE      ---      ---       #239
      01006A0AH   LINE      ---      ---       #241
      01006A0AH   LINE      ---      ---       #242
      01006A14H   LINE      ---      ---       #243
      01006A14H   LINE      ---      ---       #244
      01006A1BH   LINE      ---      ---       #246
      01006A22H   LINE      ---      ---       #247
      0200019EH   SYMBOL    XDATA    WORD      i
      00000002H   SYMBOL    DATA     WORD      j
      020001A0H   SYMBOL    XDATA    WORD      w
      020001A2H   SYMBOL    XDATA    WORD      h
      ---         BLOCKEND  CODE     ---       LVL=1
      ---         BLOCKEND  CODE     ---       LVL=0

      01006B6AH   BLOCK     CODE     ---       LVL=0
      01006B6EH   LINE      ---      ---       #250
      01006B78H   LINE      ---      ---       #251
      01006B6AH   SYMBOL    CODE     NEAR LAB  ?L?COM00F9
      00000002H   SYMBOL    DATA     BYTE      Start_X
      0200019DH   SYMBOL    XDATA    WORD      Start_Y
      00000003H   SYMBOL    DATA     BYTE      End_X
      020001A0H   SYMBOL    XDATA    WORD      End_Y
      020001A2H   SYMBOL    XDATA    BYTE      color
      01006B78H   BLOCK     CODE     NEAR LAB  LVL=1
      01006B78H   LINE      ---      ---       #253
      01006B87H   LINE      ---      ---       #254
      01006B9FH   LINE      ---      ---       #255
      01006BB7H   LINE      ---      ---       #256
      01006BD0H   LINE      ---      ---       #257
      01006BD0H   LINE      ---      ---       #258
      01006BE0H   LINE      ---      ---       #259
      01006BE0H   LINE      ---      ---       #260
      01006BE7H   LINE      ---      ---       #261
      01006BEEH   LINE      ---      ---       #262
      01006BF6H   LINE      ---      ---       #263
      00000002H   SYMBOL    DATA     WORD      i
      020001A3H   SYMBOL    XDATA    WORD      j
      020001A5H   SYMBOL    XDATA    WORD      w
      020001A7H   SYMBOL    XDATA    WORD      h
      ---         BLOCKEND  CODE     ---       LVL=1
      ---         BLOCKEND  CODE     ---       LVL=0

      010079C1H   BLOCK     CODE     ---       LVL=0
      010079C1H   LINE      ---      ---       #273
      010079CEH   LINE      ---      ---       #274
      00000006H   SYMBOL    DATA     BYTE      X1
      020001A2H   SYMBOL    XDATA    WORD      Y1
LX51 LINKER/LOCATER V4.66.93.0                                                        04/19/2019  09:16:48  PAGE 116


      020001A4H   SYMBOL    XDATA    BYTE      H
      020001A5H   SYMBOL    XDATA    BYTE      W
      020001A6H   SYMBOL    XDATA    ---       gp
      020001A9H   SYMBOL    XDATA    BYTE      color
      010079CEH   BLOCK     CODE     NEAR LAB  LVL=1
      010079CEH   LINE      ---      ---       #276
      010079EFH   LINE      ---      ---       #277
      01007A1FH   LINE      ---      ---       #278
      01007A1FH   LINE      ---      ---       #279
      01007A26H   LINE      ---      ---       #280
      01007A26H   LINE      ---      ---       #281
      01007A4DH   LINE      ---      ---       #282
      01007A4DH   LINE      ---      ---       #283
      01007A50H   LINE      ---      ---       #284
      01007A52H   LINE      ---      ---       #286
      01007A52H   LINE      ---      ---       #287
      01007A5AH   LINE      ---      ---       #288
      01007A5AH   LINE      ---      ---       #289
      01007A6FH   LINE      ---      ---       #290
      01007A77H   LINE      ---      ---       #291
      020001AAH   SYMBOL    XDATA    WORD      w
      020001ACH   SYMBOL    XDATA    WORD      j
      ---         BLOCKEND  CODE     ---       LVL=1
      ---         BLOCKEND  CODE     ---       LVL=0

      01008DD5H   BLOCK     CODE     ---       LVL=0
      01008DDBH   LINE      ---      ---       #294
      01008DE2H   LINE      ---      ---       #295
      01008DD5H   SYMBOL    CODE     NEAR LAB  ?L?COM00E1
      0200019CH   SYMBOL    XDATA    BYTE      X
      0200019DH   SYMBOL    XDATA    WORD      Y
      00000003H   SYMBOL    DATA     BYTE      NUM
      020001A0H   SYMBOL    XDATA    BYTE      color
      01008DE2H   BLOCK     CODE     NEAR LAB  LVL=1
      01008DE2H   LINE      ---      ---       #429
      01001B10H   SYMBOL    CONST    ---       NUM30X56
      ---         BLOCKEND  CODE     ---       LVL=1
      ---         BLOCKEND  CODE     ---       LVL=0

      01008F15H   BLOCK     CODE     ---       LVL=0
      01008F23H   LINE      ---      ---       #432
      01008F2AH   LINE      ---      ---       #433
      01008F15H   SYMBOL    CODE     NEAR LAB  ?L?COM00C7
      02000113H   SYMBOL    XDATA    BYTE      X
      02000114H   SYMBOL    XDATA    WORD      Y
      00000003H   SYMBOL    DATA     BYTE      NUM
      02000117H   SYMBOL    XDATA    BYTE      color
      01008F2AH   BLOCK     CODE     NEAR LAB  LVL=1
      01008F2AH   LINE      ---      ---       #647
      01002344H   SYMBOL    CONST    ---       NUM38X64
      ---         BLOCKEND  CODE     ---       LVL=1
      ---         BLOCKEND  CODE     ---       LVL=0

      0100BEF3H   BLOCK     CODE     ---       LVL=0
      0100BEF9H   LINE      ---      ---       #650
      0100BEFBH   LINE      ---      ---       #651
      0100BEF3H   SYMBOL    CODE     NEAR LAB  ?L?COM01B6
      00000007H   SYMBOL    DATA     BYTE      X
      00000004H   SYMBOL    DATA     WORD      Y
      00000006H   SYMBOL    DATA     BYTE      color
      0100BEFBH   BLOCK     CODE     NEAR LAB  LVL=1
      0100BEFBH   LINE      ---      ---       #662
      01002F24H   SYMBOL    CONST    ---       CQK25X24
      ---         BLOCKEND  CODE     ---       LVL=1
      ---         BLOCKEND  CODE     ---       LVL=0
LX51 LINKER/LOCATER V4.66.93.0                                                        04/19/2019  09:16:48  PAGE 117



      0100BFBEH   BLOCK     CODE     ---       LVL=0
      0100BFC4H   LINE      ---      ---       #665
      0100BFC6H   LINE      ---      ---       #666
      0100BFBEH   SYMBOL    CODE     NEAR LAB  ?L?COM01B5
      00000007H   SYMBOL    DATA     BYTE      X
      00000004H   SYMBOL    DATA     WORD      Y
      00000006H   SYMBOL    DATA     BYTE      color
      0100BFC6H   BLOCK     CODE     NEAR LAB  LVL=1
      0100BFC6H   LINE      ---      ---       #677
      01002F6FH   SYMBOL    CONST    ---       RTD28X24
      ---         BLOCKEND  CODE     ---       LVL=1
      ---         BLOCKEND  CODE     ---       LVL=0

      01009EB8H   BLOCK     CODE     ---       LVL=0
      01009EB8H   LINE      ---      ---       #680
      01009EBAH   LINE      ---      ---       #681
      00000007H   SYMBOL    DATA     BYTE      X
      00000004H   SYMBOL    DATA     WORD      Y
      00000006H   SYMBOL    DATA     BYTE      color
      01009EBAH   BLOCK     CODE     NEAR LAB  LVL=1
      01009EBAH   LINE      ---      ---       #692
      01002FC3H   SYMBOL    CONST    ---       JQK41X16
      ---         BLOCKEND  CODE     ---       LVL=1
      ---         BLOCKEND  CODE     ---       LVL=0

      0100BF94H   BLOCK     CODE     ---       LVL=0
      0100BF94H   LINE      ---      ---       #697
      0100BF96H   LINE      ---      ---       #698
      00000007H   SYMBOL    DATA     BYTE      X
      00000004H   SYMBOL    DATA     WORD      Y
      00000006H   SYMBOL    DATA     BYTE      color
      0100BF96H   BLOCK     CODE     NEAR LAB  LVL=1
      0100BF96H   LINE      ---      ---       #712
      01003015H   SYMBOL    CONST    ---       HEAT36X32
      ---         BLOCKEND  CODE     ---       LVL=1
      ---         BLOCKEND  CODE     ---       LVL=0

      01008BA1H   BLOCK     CODE     ---       LVL=0
      01008BA7H   LINE      ---      ---       #715
      01008BAEH   LINE      ---      ---       #716
      01008BA1H   SYMBOL    CODE     NEAR LAB  ?L?COM01A1
      0200019CH   SYMBOL    XDATA    BYTE      X
      0200019DH   SYMBOL    XDATA    WORD      Y
      00000003H   SYMBOL    DATA     BYTE      NUM
      020001A0H   SYMBOL    XDATA    BYTE      color
      01008BAEH   BLOCK     CODE     NEAR LAB  LVL=1
      01008BAEH   LINE      ---      ---       #780
      01003081H   SYMBOL    CONST    ---       NUM17X40
      ---         BLOCKEND  CODE     ---       LVL=1
      ---         BLOCKEND  CODE     ---       LVL=0

      01007999H   BLOCK     CODE     ---       LVL=0
      01007999H   LINE      ---      ---       #783
      010079A1H   LINE      ---      ---       #784
      02000112H   SYMBOL    XDATA    BYTE      X
      02000113H   SYMBOL    XDATA    WORD      Y
      00000003H   SYMBOL    DATA     BYTE      NUM
      02000116H   SYMBOL    XDATA    BYTE      color
      010079A1H   BLOCK     CODE     NEAR LAB  LVL=1
      010079A1H   LINE      ---      ---       #818
      010033D3H   SYMBOL    CONST    ---       FNT10X24
      ---         BLOCKEND  CODE     ---       LVL=1
      ---         BLOCKEND  CODE     ---       LVL=0

LX51 LINKER/LOCATER V4.66.93.0                                                        04/19/2019  09:16:48  PAGE 118


      0100BFD9H   BLOCK     CODE     ---       LVL=0
      0100BFD9H   LINE      ---      ---       #821
      0100BFE1H   LINE      ---      ---       #822
      02000196H   SYMBOL    XDATA    BYTE      X
      02000197H   SYMBOL    XDATA    WORD      Y
      00000003H   SYMBOL    DATA     BYTE      NUM
      0200019AH   SYMBOL    XDATA    BYTE      color
      0100BFE1H   BLOCK     CODE     NEAR LAB  LVL=1
      0100BFE1H   LINE      ---      ---       #837
      01003595H   SYMBOL    CONST    ---       RH14X24
      ---         BLOCKEND  CODE     ---       LVL=1
      ---         BLOCKEND  CODE     ---       LVL=0

      01009550H   BLOCK     CODE     ---       LVL=0
      01009554H   LINE      ---      ---       #840
      0100955CH   LINE      ---      ---       #841
      01009550H   SYMBOL    CODE     NEAR LAB  ?L?COM00FA
      02000197H   SYMBOL    XDATA    BYTE      X
      02000198H   SYMBOL    XDATA    WORD      Y
      00000003H   SYMBOL    DATA     BYTE      NUM
      0200019BH   SYMBOL    XDATA    BYTE      color
      0100955CH   BLOCK     CODE     NEAR LAB  LVL=1
      0100955CH   LINE      ---      ---       #855
      01003613H   SYMBOL    CONST    ---       NUM10X16
      ---         BLOCKEND  CODE     ---       LVL=1
      ---         BLOCKEND  CODE     ---       LVL=0

      01007FAEH   BLOCK     CODE     ---       LVL=0
      01007FC6H   LINE      ---      ---       #857
      01007FCEH   LINE      ---      ---       #858
      01007FAEH   SYMBOL    CODE     NEAR LAB  ?L?COM003C
      02000196H   SYMBOL    XDATA    BYTE      X
      02000197H   SYMBOL    XDATA    WORD      Y
      00000003H   SYMBOL    DATA     BYTE      NUM
      0200019AH   SYMBOL    XDATA    BYTE      color
      01007FCEH   BLOCK     CODE     NEAR LAB  LVL=1
      01007FCEH   LINE      ---      ---       #932
      010036DBH   SYMBOL    CONST    ---       ICO32X40
      ---         BLOCKEND  CODE     ---       LVL=1
      ---         BLOCKEND  CODE     ---       LVL=0

      0100BFF8H   BLOCK     CODE     ---       LVL=0
      0100BFFFH   LINE      ---      ---       #935
      0100C007H   LINE      ---      ---       #936
      0100BFF8H   SYMBOL    CODE     NEAR LAB  ?L?COM0193
      02000196H   SYMBOL    XDATA    BYTE      X
      02000197H   SYMBOL    XDATA    WORD      Y
      00000003H   SYMBOL    DATA     BYTE      NUM
      0200019AH   SYMBOL    XDATA    BYTE      color
      0100C007H   BLOCK     CODE     NEAR LAB  LVL=1
      0100C007H   LINE      ---      ---       #1067
      01003B3BH   SYMBOL    CONST    ---       ICO40X40
      ---         BLOCKEND  CODE     ---       LVL=1
      ---         BLOCKEND  CODE     ---       LVL=0

      0100AEF5H   BLOCK     CODE     ---       LVL=0
      0100AEF5H   LINE      ---      ---       #1072
      0100AEFDH   LINE      ---      ---       #1073
      02000196H   SYMBOL    XDATA    BYTE      X
      02000197H   SYMBOL    XDATA    WORD      Y
      00000003H   SYMBOL    DATA     BYTE      NUM
      0200019AH   SYMBOL    XDATA    BYTE      color
      0100AEFDH   BLOCK     CODE     NEAR LAB  LVL=1
      0100AEFDH   LINE      ---      ---       #1119
      01004243H   SYMBOL    CONST    ---       ICO48X48
LX51 LINKER/LOCATER V4.66.93.0                                                        04/19/2019  09:16:48  PAGE 119


      ---         BLOCKEND  CODE     ---       LVL=1
      ---         BLOCKEND  CODE     ---       LVL=0

      0100C02CH   BLOCK     CODE     ---       LVL=0
      0100C030H   LINE      ---      ---       #1123
      0100C038H   LINE      ---      ---       #1124
      0100C02CH   SYMBOL    CODE     NEAR LAB  ?L?COM01DE
      02000196H   SYMBOL    XDATA    BYTE      X
      02000197H   SYMBOL    XDATA    WORD      Y
      00000003H   SYMBOL    DATA     BYTE      NUM
      0200019AH   SYMBOL    XDATA    BYTE      color
      0100C038H   BLOCK     CODE     NEAR LAB  LVL=1
      0100C038H   LINE      ---      ---       #1182
      01004483H   SYMBOL    CONST    ---       DHM14X16
      ---         BLOCKEND  CODE     ---       LVL=1
      ---         BLOCKEND  CODE     ---       LVL=0

      0100BFA9H   BLOCK     CODE     ---       LVL=0
      0100BFA9H   LINE      ---      ---       #1185
      0100BFABH   LINE      ---      ---       #1186
      00000007H   SYMBOL    DATA     BYTE      X
      00000004H   SYMBOL    DATA     WORD      Y
      00000006H   SYMBOL    DATA     BYTE      color
      0100BFABH   BLOCK     CODE     NEAR LAB  LVL=1
      0100BFABH   LINE      ---      ---       #1246
      01004697H   SYMBOL    CONST    ---       VHB8056X40
      ---         BLOCKEND  CODE     ---       LVL=1
      ---         BLOCKEND  CODE     ---       LVL=0

      0100BF18H   BLOCK     CODE     ---       LVL=0
      0100BF18H   LINE      ---      ---       #1250
      00000007H   SYMBOL    DATA     BYTE      X
      00000004H   SYMBOL    DATA     WORD      Y
      00000006H   SYMBOL    DATA     BYTE      color
      0100BF18H   BLOCK     CODE     NEAR LAB  LVL=1
      010047AFH   SYMBOL    CONST    ---       PIC_YouChuang
      ---         BLOCKEND  CODE     ---       LVL=1
      ---         BLOCKEND  CODE     ---       LVL=0

      0100BF25H   BLOCK     CODE     ---       LVL=0
      0100BF2BH   LINE      ---      ---       #1329
      0100BF25H   SYMBOL    CODE     NEAR LAB  ?L?COM01AF
      00000007H   SYMBOL    DATA     BYTE      X
      00000004H   SYMBOL    DATA     WORD      Y
      00000006H   SYMBOL    DATA     BYTE      color
      0100BF2BH   BLOCK     CODE     NEAR LAB  LVL=1
      01004A75H   SYMBOL    CONST    ---       PIC_WuChuang
      ---         BLOCKEND  CODE     ---       LVL=1
      ---         BLOCKEND  CODE     ---       LVL=0

      01009E52H   BLOCK     CODE     ---       LVL=0
      01009E55H   LINE      ---      ---       #1410
      01009E5BH   LINE      ---      ---       #1411
      01009E5BH   LINE      ---      ---       #1412
      01009E64H   LINE      ---      ---       #1413
      01009E72H   LINE      ---      ---       #1414
      01009E7AH   LINE      ---      ---       #1415
      01009E90H   LINE      ---      ---       #1418
      01009E52H   SYMBOL    CODE     NEAR LAB  ?L?COM01BD
      02000113H   SYMBOL    XDATA    BYTE      color
      ---         BLOCKEND  ---      ---       LVL=0

      01006F50H   BLOCK     CODE     ---       LVL=0
      01006F63H   LINE      ---      ---       #1428
      01006F6BH   LINE      ---      ---       #1429
LX51 LINKER/LOCATER V4.66.93.0                                                        04/19/2019  09:16:48  PAGE 120


      01006F6BH   LINE      ---      ---       #1430
      01006F70H   LINE      ---      ---       #1431
      01006F72H   LINE      ---      ---       #1433
      01006F74H   LINE      ---      ---       #1435
      01006F79H   LINE      ---      ---       #1436
      01006F7BH   LINE      ---      ---       #1438
      01006F7DH   LINE      ---      ---       #1440
      01006F82H   LINE      ---      ---       #1441
      01006F50H   SYMBOL    CODE     NEAR LAB  ?L?COM0061
      020001C4H   SYMBOL    XDATA    WORD      x
      00000004H   SYMBOL    DATA     WORD      y
      00000003H   SYMBOL    DATA     BYTE      color
      ---         BLOCKEND  ---      ---       LVL=0

      0100B3A1H   BLOCK     CODE     ---       LVL=0
      0100B3A1H   LINE      ---      ---       #1451
      0100B3A7H   LINE      ---      ---       #1452
      020001B4H   SYMBOL    XDATA    WORD      X
      020001B6H   SYMBOL    XDATA    WORD      Y
      00000003H   SYMBOL    DATA     BYTE      NUM
      020001B9H   SYMBOL    XDATA    BYTE      mode
      020001BAH   SYMBOL    XDATA    BYTE      color
      0100B3A7H   BLOCK     CODE     NEAR LAB  LVL=1
      0100B3A7H   LINE      ---      ---       #1455
      0100B3A9H   LINE      ---      ---       #1564
      0100B3C6H   LINE      ---      ---       #1569
      0100B3CAH   LINE      ---      ---       #1570
      0100B3CCH   LINE      ---      ---       #1571
      0100B3CCH   LINE      ---      ---       #1572
      0100B3D2H   LINE      ---      ---       #1573
      0100B3D2H   LINE      ---      ---       #1574
      0100B3E9H   LINE      ---      ---       #1575
      0100B3E9H   LINE      ---      ---       #1576
      0100B3EFH   LINE      ---      ---       #1577
      0100B3EFH   LINE      ---      ---       #1578
      0100B3F0H   LINE      ---      ---       #1579
      0100B3F2H   LINE      ---      ---       #1581
      0100B3F2H   LINE      ---      ---       #1582
      0100B3F5H   LINE      ---      ---       #1583
      0100B3F5H   LINE      ---      ---       #1584
      0100B3F7H   LINE      ---      ---       #1586
      0100B3F7H   LINE      ---      ---       #1587
      0100B3FDH   LINE      ---      ---       #1588
      0100B3FDH   LINE      ---      ---       #1589
      0100B405H   LINE      ---      ---       #1590
      0100B405H   LINE      ---      ---       #1591
      0100B405H   LINE      ---      ---       #1592
      0100B40AH   LINE      ---      ---       #1595
      0100B410H   LINE      ---      ---       #1596
      0100B410H   LINE      ---      ---       #1597
      0100B427H   LINE      ---      ---       #1598
      0100B427H   LINE      ---      ---       #1599
      0100B42DH   LINE      ---      ---       #1600
      0100B42DH   LINE      ---      ---       #1601
      0100B42EH   LINE      ---      ---       #1602
      0100B430H   LINE      ---      ---       #1604
      0100B430H   LINE      ---      ---       #1605
      0100B433H   LINE      ---      ---       #1606
      0100B433H   LINE      ---      ---       #1607
      0100B435H   LINE      ---      ---       #1609
      0100B435H   LINE      ---      ---       #1610
      0100B43BH   LINE      ---      ---       #1611
      0100B43BH   LINE      ---      ---       #1612
      0100B443H   LINE      ---      ---       #1613
      0100B443H   LINE      ---      ---       #1614
LX51 LINKER/LOCATER V4.66.93.0                                                        04/19/2019  09:16:48  PAGE 121


      0100B443H   LINE      ---      ---       #1615
      0100B448H   LINE      ---      ---       #1617
      0100B44EH   LINE      ---      ---       #1618
      0100B465H   LINE      ---      ---       #1620
      020001BBH   SYMBOL    XDATA    WORD      w
      020001BDH   SYMBOL    XDATA    WORD      j
      020001BFH   SYMBOL    XDATA    WORD      F_x
      020001C1H   SYMBOL    XDATA    WORD      F_y
      00000001H   SYMBOL    DATA     BYTE      num
      01004D4FH   SYMBOL    CONST    ---       asc2_1608
      ---         BLOCKEND  CODE     ---       LVL=1
      ---         BLOCKEND  CODE     ---       LVL=0

      0100B254H   BLOCK     CODE     ---       LVL=0
      0100B254H   LINE      ---      ---       #1629
      0100B25AH   LINE      ---      ---       #1630
      020001B4H   SYMBOL    XDATA    WORD      X
      020001B6H   SYMBOL    XDATA    WORD      Y
      00000003H   SYMBOL    DATA     BYTE      NUM
      020001B9H   SYMBOL    XDATA    BYTE      mode
      020001BAH   SYMBOL    XDATA    BYTE      color
      0100B25AH   BLOCK     CODE     NEAR LAB  LVL=1
      0100B25AH   LINE      ---      ---       #1633
      0100B25FH   LINE      ---      ---       #2024
      0100B281H   LINE      ---      ---       #2029
      0100B288H   LINE      ---      ---       #2030
      0100B28AH   LINE      ---      ---       #2031
      0100B28AH   LINE      ---      ---       #2032
      0100B28CH   LINE      ---      ---       #2033
      0100B28CH   LINE      ---      ---       #2034
      0100B2BCH   LINE      ---      ---       #2035
      0100B2BCH   LINE      ---      ---       #2036
      0100B2C2H   LINE      ---      ---       #2037
      0100B2C2H   LINE      ---      ---       #2038
      0100B2C3H   LINE      ---      ---       #2039
      0100B2C5H   LINE      ---      ---       #2041
      0100B2C5H   LINE      ---      ---       #2042
      0100B2D8H   LINE      ---      ---       #2043
      0100B2D8H   LINE      ---      ---       #2044
      0100B2DAH   LINE      ---      ---       #2046
      0100B2DAH   LINE      ---      ---       #2047
      0100B2E0H   LINE      ---      ---       #2048
      0100B2E0H   LINE      ---      ---       #2049
      0100B2E8H   LINE      ---      ---       #2050
      0100B2E8H   LINE      ---      ---       #2051
      0100B2E8H   LINE      ---      ---       #2052
      0100B2EFH   LINE      ---      ---       #2055
      0100B2F1H   LINE      ---      ---       #2056
      0100B2F1H   LINE      ---      ---       #2057
      0100B312H   LINE      ---      ---       #2058
      0100B312H   LINE      ---      ---       #2059
      0100B318H   LINE      ---      ---       #2060
      0100B318H   LINE      ---      ---       #2061
      0100B319H   LINE      ---      ---       #2062
      0100B31BH   LINE      ---      ---       #2064
      0100B31BH   LINE      ---      ---       #2065
      0100B31EH   LINE      ---      ---       #2066
      0100B31EH   LINE      ---      ---       #2067
      0100B320H   LINE      ---      ---       #2069
      0100B320H   LINE      ---      ---       #2070
      0100B326H   LINE      ---      ---       #2071
      0100B326H   LINE      ---      ---       #2072
      0100B32EH   LINE      ---      ---       #2073
      0100B32EH   LINE      ---      ---       #2074
      0100B32EH   LINE      ---      ---       #2075
LX51 LINKER/LOCATER V4.66.93.0                                                        04/19/2019  09:16:48  PAGE 122


      0100B335H   LINE      ---      ---       #2077
      0100B337H   LINE      ---      ---       #2078
      0100B337H   LINE      ---      ---       #2079
      0100B358H   LINE      ---      ---       #2080
      0100B358H   LINE      ---      ---       #2081
      0100B35EH   LINE      ---      ---       #2082
      0100B35EH   LINE      ---      ---       #2083
      0100B35FH   LINE      ---      ---       #2084
      0100B361H   LINE      ---      ---       #2086
      0100B361H   LINE      ---      ---       #2087
      0100B364H   LINE      ---      ---       #2088
      0100B364H   LINE      ---      ---       #2089
      0100B366H   LINE      ---      ---       #2091
      0100B366H   LINE      ---      ---       #2092
      0100B36CH   LINE      ---      ---       #2093
      0100B36CH   LINE      ---      ---       #2094
      0100B374H   LINE      ---      ---       #2095
      0100B374H   LINE      ---      ---       #2096
      0100B374H   LINE      ---      ---       #2097
      0100B37BH   LINE      ---      ---       #2099
      0100B381H   LINE      ---      ---       #2100
      0100B398H   LINE      ---      ---       #2102
      020001BBH   SYMBOL    XDATA    WORD      w
      020001BDH   SYMBOL    XDATA    WORD      j
      020001BFH   SYMBOL    XDATA    WORD      F_x
      020001C1H   SYMBOL    XDATA    WORD      F_y
      020001C3H   SYMBOL    XDATA    BYTE      num
      0100533FH   SYMBOL    CONST    ---       asc2_2412
      ---         BLOCKEND  CODE     ---       LVL=1
      ---         BLOCKEND  CODE     ---       LVL=0

      0100B4C8H   BLOCK     CODE     ---       LVL=0
      0100B4C8H   LINE      ---      ---       #2110
      0100B4D6H   LINE      ---      ---       #2111
      0100B4D6H   LINE      ---      ---       #2114
      0100B4D9H   LINE      ---      ---       #2115
      0100B4D9H   LINE      ---      ---       #2116
      0100B4E2H   LINE      ---      ---       #2117
      0100B4E2H   LINE      ---      ---       #2118
      0100B4E9H   LINE      ---      ---       #2119
      0100B4E9H   LINE      ---      ---       #2120
      0100B4F2H   LINE      ---      ---       #2121
      0100B4F2H   LINE      ---      ---       #2123
      0100B4F2H   LINE      ---      ---       #2125
      0100B4F2H   LINE      ---      ---       #2126
      020001ACH   SYMBOL    XDATA    WORD      x
      020001AEH   SYMBOL    XDATA    WORD      y
      020001B0H   SYMBOL    XDATA    BYTE      size
      020001B1H   SYMBOL    XDATA    BYTE      num
      020001B2H   SYMBOL    XDATA    BYTE      mode
      020001B3H   SYMBOL    XDATA    BYTE      color
      ---         BLOCKEND  ---      ---       LVL=0

      01007FE4H   BLOCK     CODE     ---       LVL=0
      01007FEEH   LINE      ---      ---       #2136
      01007FF6H   LINE      ---      ---       #2137
      01007FE4H   SYMBOL    CODE     NEAR LAB  ?L?COM0115
      02000197H   SYMBOL    XDATA    WORD      x
      00000004H   SYMBOL    DATA     WORD      y
      00000002H   SYMBOL    DATA     WORD      height_x
      0200019DH   SYMBOL    XDATA    WORD      width_y
      0200019FH   SYMBOL    XDATA    ---       p
      020001A2H   SYMBOL    XDATA    BYTE      mode
      020001A3H   SYMBOL    XDATA    BYTE      color
      01007FF6H   BLOCK     CODE     NEAR LAB  LVL=1
LX51 LINKER/LOCATER V4.66.93.0                                                        04/19/2019  09:16:48  PAGE 123


      01007FF6H   LINE      ---      ---       #2144
      01007FFBH   LINE      ---      ---       #2146
      01008001H   LINE      ---      ---       #2147
      01008010H   LINE      ---      ---       #2148
      0100801FH   LINE      ---      ---       #2153
      01008024H   LINE      ---      ---       #2155
      0100802CH   LINE      ---      ---       #2156
      0100803AH   LINE      ---      ---       #2157
      0100803AH   LINE      ---      ---       #2158
      0100805FH   LINE      ---      ---       #2160
      0100808DH   LINE      ---      ---       #2162
      01008099H   LINE      ---      ---       #2163
      010080A3H   LINE      ---      ---       #2164
      010080A5H   LINE      ---      ---       #2183
      020001A4H   SYMBOL    XDATA    BYTE      size
      020001A5H   SYMBOL    XDATA    BYTE      y0
      020001A6H   SYMBOL    XDATA    WORD      Y1
      020001A8H   SYMBOL    XDATA    WORD      X1
      020001AAH   SYMBOL    XDATA    WORD      WIDTH_Y
      ---         BLOCKEND  CODE     ---       LVL=1
      ---         BLOCKEND  CODE     ---       LVL=0

      0100C04FH   BLOCK     CODE     ---       LVL=0
      0100C04FH   LINE      ---      ---       #2187
      0100C057H   LINE      ---      ---       #2188
      02000157H   SYMBOL    XDATA    BYTE      m
      02000158H   SYMBOL    XDATA    BYTE      n
      0100C057H   BLOCK     CODE     NEAR LAB  LVL=1
      0100C057H   LINE      ---      ---       #2189
      0100C05FH   LINE      ---      ---       #2190
      0100C06CH   LINE      ---      ---       #2191
      0100C06CH   LINE      ---      ---       #2192
      0100C07FH   LINE      ---      ---       #2193
      0100C081H   LINE      ---      ---       #2194
      02000159H   SYMBOL    XDATA    DWORD     result
      ---         BLOCKEND  CODE     ---       LVL=1
      ---         BLOCKEND  CODE     ---       LVL=0

      01008AC9H   BLOCK     CODE     ---       LVL=0
      01008ACFH   LINE      ---      ---       #2208
      01008ADCH   LINE      ---      ---       #2209
      01008AC9H   SYMBOL    CODE     NEAR LAB  ?L?COM014E
      02000148H   SYMBOL    XDATA    WORD      x
      0200014AH   SYMBOL    XDATA    WORD      y
      0200014CH   SYMBOL    XDATA    BYTE      size
      0200014DH   SYMBOL    XDATA    BYTE      len
      0200014EH   SYMBOL    XDATA    DWORD     num
      02000152H   SYMBOL    XDATA    BYTE      mode
      02000153H   SYMBOL    XDATA    BYTE      color
      01008ADCH   BLOCK     CODE     NEAR LAB  LVL=1
      01008ADCH   LINE      ---      ---       #2211
      01008AE1H   LINE      ---      ---       #2212
      01008AF5H   LINE      ---      ---       #2213
      01008AF5H   LINE      ---      ---       #2214
      01008B16H   LINE      ---      ---       #2215
      01008B29H   LINE      ---      ---       #2216
      01008B29H   LINE      ---      ---       #2217
      01008B2DH   LINE      ---      ---       #2218
      01008B2DH   LINE      ---      ---       #2219
      01008B38H   LINE      ---      ---       #2220
      01008B38H   LINE      ---      ---       #2221
      01008B4FH   LINE      ---      ---       #2222
      01008B51H   LINE      ---      ---       #2224
      01008B51H   LINE      ---      ---       #2225
      01008B60H   LINE      ---      ---       #2226
LX51 LINKER/LOCATER V4.66.93.0                                                        04/19/2019  09:16:48  PAGE 124


      01008B60H   LINE      ---      ---       #2227
      01008B62H   LINE      ---      ---       #2228
      01008B62H   LINE      ---      ---       #2230
      01008B62H   LINE      ---      ---       #2231
      01008B68H   LINE      ---      ---       #2232
      01008B68H   LINE      ---      ---       #2233
      01008B68H   LINE      ---      ---       #2234
      01008B98H   LINE      ---      ---       #2235
      01008BA0H   LINE      ---      ---       #2236
      02000154H   SYMBOL    XDATA    BYTE      t
      02000155H   SYMBOL    XDATA    BYTE      temp
      02000156H   SYMBOL    XDATA    BYTE      enshow
      ---         BLOCKEND  CODE     ---       LVL=1
      ---         BLOCKEND  CODE     ---       LVL=0

      01008986H   BLOCK     CODE     ---       LVL=0
      0100898AH   LINE      ---      ---       #2241
      0100898FH   LINE      ---      ---       #2242
      01008986H   SYMBOL    CODE     NEAR LAB  ?L?COM01D0
      02000196H   SYMBOL    XDATA    WORD      x0
      02000198H   SYMBOL    XDATA    WORD      y0
      00000003H   SYMBOL    DATA     BYTE      r
      0200019BH   SYMBOL    XDATA    BYTE      color
      0100898FH   BLOCK     CODE     NEAR LAB  LVL=1
      0100898FH   LINE      ---      ---       #2246
      0100899AH   LINE      ---      ---       #2248
      010089A4H   LINE      ---      ---       #2249
      010089A4H   LINE      ---      ---       #2250
      010089C8H   LINE      ---      ---       #2253
      01008A0FH   LINE      ---      ---       #2258
      01008A15H   LINE      ---      ---       #2265
      01008A15H   LINE      ---      ---       #2267
      01008A1AH   LINE      ---      ---       #2268
      01008A1AH   LINE      ---      ---       #2269
      01008A1CH   LINE      ---      ---       #2270
      0200019CH   SYMBOL    XDATA    WORD      a
      0200019EH   SYMBOL    XDATA    WORD      b
      ---         BLOCKEND  CODE     ---       LVL=1
      ---         BLOCKEND  CODE     ---       LVL=0

      0100BF43H   BLOCK     CODE     ---       LVL=0
      0100BF43H   LINE      ---      ---       #2272
      0100BF43H   LINE      ---      ---       #2273
      0100BF43H   LINE      ---      ---       #2274
      0100BF46H   LINE      ---      ---       #2275
      0100BF4CH   LINE      ---      ---       #2276
      0100BF4CH   LINE      ---      ---       #2277
      0100BF55H   LINE      ---      ---       #2278
      0100BF5CH   LINE      ---      ---       #2279
      0100BF5CH   LINE      ---      ---       #2280
      0100BF66H   LINE      ---      ---       #2281
      0100BF66H   LINE      ---      ---       #2282
      0100BF66H   LINE      ---      ---       #2284
      0100BF66H   LINE      ---      ---       #2285
      ---         BLOCKEND  ---      ---       LVL=0

      01006631H   BLOCK     CODE     ---       LVL=0
      01006631H   LINE      ---      ---       #2292
      01006631H   LINE      ---      ---       #2293
      01006631H   LINE      ---      ---       #2294
      01006633H   LINE      ---      ---       #2296
      01006638H   LINE      ---      ---       #2298
      0100663CH   LINE      ---      ---       #2299
      01006647H   LINE      ---      ---       #2302
      0100664AH   LINE      ---      ---       #2303
LX51 LINKER/LOCATER V4.66.93.0                                                        04/19/2019  09:16:48  PAGE 125


      0100664CH   LINE      ---      ---       #2304
      0100665BH   LINE      ---      ---       #2305
      01006660H   LINE      ---      ---       #2306
      0100666AH   LINE      ---      ---       #2308
      01006672H   LINE      ---      ---       #2310
      01006677H   LINE      ---      ---       #2313
      01006683H   LINE      ---      ---       #2314
      01006689H   LINE      ---      ---       #2315
      01006689H   LINE      ---      ---       #2316
      01006698H   LINE      ---      ---       #2318
      0100669AH   LINE      ---      ---       #2319
      010066A1H   LINE      ---      ---       #2320
      010066A1H   LINE      ---      ---       #2321
      010066B0H   LINE      ---      ---       #2323
      010066B2H   LINE      ---      ---       #2324
      010066B9H   LINE      ---      ---       #2325
      010066B9H   LINE      ---      ---       #2326
      010066C8H   LINE      ---      ---       #2328
      010066CAH   LINE      ---      ---       #2329
      010066D1H   LINE      ---      ---       #2330
      010066D1H   LINE      ---      ---       #2331
      010066E5H   LINE      ---      ---       #2333
      010066E5H   LINE      ---      ---       #2335
      010066E5H   LINE      ---      ---       #2337
      010066E5H   LINE      ---      ---       #2339
      010066F1H   LINE      ---      ---       #2340
      010066FAH   LINE      ---      ---       #2341
      01006703H   LINE      ---      ---       #2344
      0100673AH   LINE      ---      ---       #2350
      01006748H   LINE      ---      ---       #2351
      01006755H   LINE      ---      ---       #2353
      ---         BLOCKEND  ---      ---       LVL=0

      01007F59H   BLOCK     CODE     ---       LVL=0
      01007F59H   LINE      ---      ---       #2366
      01007F59H   LINE      ---      ---       #2367
      01007F59H   LINE      ---      ---       #2368
      ---         BLOCKEND  ---      ---       LVL=0

      ---         MODULE    ---      ---       W25X
      0100A207H   PUBLIC    CODE     ---       _SPI_Erase_Sector
      0100C09BH   PUBLIC    CODE     ---       SPI_Get_Byte
      0100A1E9H   PUBLIC    CODE     ---       _SPI_Send_Byte
      0100C091H   PUBLIC    CODE     ---       SPI_init
      02000119H   PUBLIC    XDATA    BYTE      ?_SPI_Write_nBytes?BYTE
      0100A222H   PUBLIC    CODE     ---       _SPI_Write_nBytes
      02000119H   PUBLIC    XDATA    BYTE      ?_SPI_Read_nBytes?BYTE
      0100A1B1H   PUBLIC    CODE     ---       _SPI_Read_nBytes
      0100C087H   PUBLIC    CODE     ---       SPI_Write_Disable
      0100A7ABH   PUBLIC    CODE     ---       SPI_Write_Enable
      000000E0H   SFRSYM    DATA     BYTE      ACC
      000000F0H   SFRSYM    DATA     BYTE      B
      000000D0H   SFRSYM    DATA     BYTE      PSW
      000000D0H.7 SFRSYM    DATA     BIT       CY
      000000D0H.6 SFRSYM    DATA     BIT       AC
      000000D0H.5 SFRSYM    DATA     BIT       F0
      000000D0H.4 SFRSYM    DATA     BIT       RS1
      000000D0H.3 SFRSYM    DATA     BIT       RS0
      000000D0H.2 SFRSYM    DATA     BIT       OV
      000000D0H.0 SFRSYM    DATA     BIT       P
      00000081H   SFRSYM    DATA     BYTE      SP
      00000082H   SFRSYM    DATA     BYTE      DPL
      00000083H   SFRSYM    DATA     BYTE      DPH
      00000087H   SFRSYM    DATA     BYTE      PCON
      0000008EH   SFRSYM    DATA     BYTE      AUXR
LX51 LINKER/LOCATER V4.66.93.0                                                        04/19/2019  09:16:48  PAGE 126


      000000A2H   SFRSYM    DATA     BYTE      AUXR1
      0000008FH   SFRSYM    DATA     BYTE      WAKE_CLKO
      00000097H   SFRSYM    DATA     BYTE      CLK_DIV
      000000A1H   SFRSYM    DATA     BYTE      BUS_SPEED
      000000A8H   SFRSYM    DATA     BYTE      IE
      000000A8H.7 SFRSYM    DATA     BIT       EA
      000000A8H.6 SFRSYM    DATA     BIT       ELVD
      000000A8H.5 SFRSYM    DATA     BIT       EADC
      000000A8H.4 SFRSYM    DATA     BIT       ES
      000000A8H.3 SFRSYM    DATA     BIT       ET1
      000000A8H.2 SFRSYM    DATA     BIT       EX1
      000000A8H.1 SFRSYM    DATA     BIT       ET0
      000000A8H.0 SFRSYM    DATA     BIT       EX0
      000000AFH   SFRSYM    DATA     BYTE      IE2
      000000B8H   SFRSYM    DATA     BYTE      IP
      000000B8H.7 SFRSYM    DATA     BIT       PPCA
      000000B8H.6 SFRSYM    DATA     BIT       PLVD
      000000B8H.5 SFRSYM    DATA     BIT       PADC
      000000B8H.4 SFRSYM    DATA     BIT       PS
      000000B8H.3 SFRSYM    DATA     BIT       PT1
      000000B8H.2 SFRSYM    DATA     BIT       PX1
      000000B8H.1 SFRSYM    DATA     BIT       PT0
      000000B8H.0 SFRSYM    DATA     BIT       PX0
      000000B7H   SFRSYM    DATA     BYTE      IPH
      000000B5H   SFRSYM    DATA     BYTE      IP2
      000000B6H   SFRSYM    DATA     BYTE      IPH2
      00000080H   SFRSYM    DATA     BYTE      P0
      00000080H.0 SFRSYM    DATA     BIT       P00
      00000080H.1 SFRSYM    DATA     BIT       P01
      00000080H.2 SFRSYM    DATA     BIT       P02
      00000080H.3 SFRSYM    DATA     BIT       P03
      00000080H.4 SFRSYM    DATA     BIT       P04
      00000080H.5 SFRSYM    DATA     BIT       P05
      00000080H.6 SFRSYM    DATA     BIT       P06
      00000080H.7 SFRSYM    DATA     BIT       P07
      00000094H   SFRSYM    DATA     BYTE      P0M0
      00000093H   SFRSYM    DATA     BYTE      P0M1
      00000090H   SFRSYM    DATA     BYTE      P1
      00000090H.0 SFRSYM    DATA     BIT       P10
      00000090H.1 SFRSYM    DATA     BIT       P11
      00000090H.2 SFRSYM    DATA     BIT       P12
      00000090H.3 SFRSYM    DATA     BIT       P13
      00000090H.4 SFRSYM    DATA     BIT       P14
      00000090H.5 SFRSYM    DATA     BIT       P15
      00000090H.6 SFRSYM    DATA     BIT       P16
      00000090H.7 SFRSYM    DATA     BIT       P17
      00000092H   SFRSYM    DATA     BYTE      P1M0
      00000091H   SFRSYM    DATA     BYTE      P1M1
      0000009DH   SFRSYM    DATA     BYTE      P1ASF
      000000A0H   SFRSYM    DATA     BYTE      P2
      000000A0H.0 SFRSYM    DATA     BIT       P20
      000000A0H.1 SFRSYM    DATA     BIT       P21
      000000A0H.2 SFRSYM    DATA     BIT       P22
      000000A0H.3 SFRSYM    DATA     BIT       P23
      000000A0H.4 SFRSYM    DATA     BIT       P24
      000000A0H.5 SFRSYM    DATA     BIT       P25
      000000A0H.6 SFRSYM    DATA     BIT       P26
      000000A0H.7 SFRSYM    DATA     BIT       P27
      00000096H   SFRSYM    DATA     BYTE      P2M0
      00000095H   SFRSYM    DATA     BYTE      P2M1
      000000B0H   SFRSYM    DATA     BYTE      P3
      000000B0H.0 SFRSYM    DATA     BIT       P30
      000000B0H.1 SFRSYM    DATA     BIT       P31
      000000B0H.2 SFRSYM    DATA     BIT       P32
      000000B0H.3 SFRSYM    DATA     BIT       P33
LX51 LINKER/LOCATER V4.66.93.0                                                        04/19/2019  09:16:48  PAGE 127


      000000B0H.4 SFRSYM    DATA     BIT       P34
      000000B0H.5 SFRSYM    DATA     BIT       P35
      000000B0H.6 SFRSYM    DATA     BIT       P36
      000000B0H.7 SFRSYM    DATA     BIT       P37
      000000B2H   SFRSYM    DATA     BYTE      P3M0
      000000B1H   SFRSYM    DATA     BYTE      P3M1
      000000C0H   SFRSYM    DATA     BYTE      P4
      000000C0H.0 SFRSYM    DATA     BIT       P40
      000000C0H.1 SFRSYM    DATA     BIT       P41
      000000C0H.2 SFRSYM    DATA     BIT       P42
      000000C0H.3 SFRSYM    DATA     BIT       P43
      000000C0H.4 SFRSYM    DATA     BIT       P44
      000000C0H.5 SFRSYM    DATA     BIT       P45
      000000C0H.6 SFRSYM    DATA     BIT       P46
      000000C0H.7 SFRSYM    DATA     BIT       P47
      000000B4H   SFRSYM    DATA     BYTE      P4M0
      000000B3H   SFRSYM    DATA     BYTE      P4M1
      000000BBH   SFRSYM    DATA     BYTE      P4SW
      000000C8H   SFRSYM    DATA     BYTE      P5
      000000CAH   SFRSYM    DATA     BYTE      P5M0
      000000C9H   SFRSYM    DATA     BYTE      P5M1
      00000088H   SFRSYM    DATA     BYTE      TCON
      00000088H.7 SFRSYM    DATA     BIT       TF1
      00000088H.6 SFRSYM    DATA     BIT       TR1
      00000088H.5 SFRSYM    DATA     BIT       TF0
      00000088H.4 SFRSYM    DATA     BIT       TR0
      00000088H.3 SFRSYM    DATA     BIT       IE1
      00000088H.2 SFRSYM    DATA     BIT       IT1
      00000088H.1 SFRSYM    DATA     BIT       IE0
      00000088H.0 SFRSYM    DATA     BIT       IT0
      00000089H   SFRSYM    DATA     BYTE      TMOD
      0000008AH   SFRSYM    DATA     BYTE      TL0
      0000008CH   SFRSYM    DATA     BYTE      TH0
      0000008BH   SFRSYM    DATA     BYTE      TL1
      0000008DH   SFRSYM    DATA     BYTE      TH1
      00000098H   SFRSYM    DATA     BYTE      SCON
      00000098H.7 SFRSYM    DATA     BIT       SM0
      00000098H.6 SFRSYM    DATA     BIT       SM1
      00000098H.5 SFRSYM    DATA     BIT       SM2
      00000098H.4 SFRSYM    DATA     BIT       REN
      00000098H.3 SFRSYM    DATA     BIT       TB8
      00000098H.2 SFRSYM    DATA     BIT       RB8
      00000098H.1 SFRSYM    DATA     BIT       TI
      00000098H.0 SFRSYM    DATA     BIT       RI
      00000099H   SFRSYM    DATA     BYTE      SBUF
      000000B9H   SFRSYM    DATA     BYTE      SADEN
      000000A9H   SFRSYM    DATA     BYTE      SADDR
      0000009AH   SFRSYM    DATA     BYTE      S2CON
      0000009BH   SFRSYM    DATA     BYTE      S2BUF
      0000009CH   SFRSYM    DATA     BYTE      BRT
      000000C1H   SFRSYM    DATA     BYTE      WDT_CONTR
      000000D8H   SFRSYM    DATA     BYTE      CCON
      000000D8H.7 SFRSYM    DATA     BIT       CF
      000000D8H.6 SFRSYM    DATA     BIT       CR
      000000D8H.1 SFRSYM    DATA     BIT       CCF1
      000000D8H.0 SFRSYM    DATA     BIT       CCF0
      000000D9H   SFRSYM    DATA     BYTE      CMOD
      000000E9H   SFRSYM    DATA     BYTE      CL
      000000F9H   SFRSYM    DATA     BYTE      CH
      000000DAH   SFRSYM    DATA     BYTE      CCAPM0
      000000DBH   SFRSYM    DATA     BYTE      CCAPM1
      000000EAH   SFRSYM    DATA     BYTE      CCAP0L
      000000FAH   SFRSYM    DATA     BYTE      CCAP0H
      000000EBH   SFRSYM    DATA     BYTE      CCAP1L
      000000FBH   SFRSYM    DATA     BYTE      CCAP1H
LX51 LINKER/LOCATER V4.66.93.0                                                        04/19/2019  09:16:48  PAGE 128


      000000F2H   SFRSYM    DATA     BYTE      PCA_PWM0
      000000F3H   SFRSYM    DATA     BYTE      PCA_PWM1
      000000BCH   SFRSYM    DATA     BYTE      ADC_CONTR
      000000BDH   SFRSYM    DATA     BYTE      ADC_RES
      000000BEH   SFRSYM    DATA     BYTE      ADC_RESL
      000000CEH   SFRSYM    DATA     BYTE      SPCTL
      000000CDH   SFRSYM    DATA     BYTE      SPSTAT
      000000CFH   SFRSYM    DATA     BYTE      SPDAT
      000000C2H   SFRSYM    DATA     BYTE      IAP_DATA
      000000C3H   SFRSYM    DATA     BYTE      IAP_ADDRH
      000000C4H   SFRSYM    DATA     BYTE      IAP_ADDRL
      000000C5H   SFRSYM    DATA     BYTE      IAP_CMD
      000000C6H   SFRSYM    DATA     BYTE      IAP_TRIG
      000000C7H   SFRSYM    DATA     BYTE      IAP_CONTR

      0100A7ABH   BLOCK     CODE     ---       LVL=0
      0100A7ABH   LINE      ---      ---       #42
      0100A7ABH   LINE      ---      ---       #43
      0100A7ADH   LINE      ---      ---       #44
      0100A7B1H   LINE      ---      ---       #45
      0100A7B3H   LINE      ---      ---       #46
      ---         BLOCKEND  ---      ---       LVL=0

      0100C087H   BLOCK     CODE     ---       LVL=0
      0100C087H   LINE      ---      ---       #47
      0100C087H   LINE      ---      ---       #48
      0100C087H   LINE      ---      ---       #49
      0100C089H   LINE      ---      ---       #50
      0100C08EH   LINE      ---      ---       #51
      0100C090H   LINE      ---      ---       #52
      ---         BLOCKEND  ---      ---       LVL=0

      0100A1ADH   BLOCK     CODE     ---       LVL=0
      0100A1B1H   LINE      ---      ---       #63
      0100A1B7H   LINE      ---      ---       #64
      0100A1ADH   SYMBOL    CODE     NEAR LAB  ?L?COM0190
      02000119H   SYMBOL    XDATA    DWORD     Dst_Addr
      0200011DH   SYMBOL    XDATA    BYTE      nBytes_128
      0200011EH   SYMBOL    XDATA    ---       Read_Adr
      0100A1B7H   BLOCK     CODE     NEAR LAB  LVL=1
      0100A1B7H   LINE      ---      ---       #65
      0100A1BCH   LINE      ---      ---       #66
      0100A1BEH   LINE      ---      ---       #67
      0100A1C0H   LINE      ---      ---       #68
      0100A1C6H   LINE      ---      ---       #73
      0100A1CDH   LINE      ---      ---       #74
      0100A1CDH   LINE      ---      ---       #75
      0100A1DCH   LINE      ---      ---       #76
      0100A1E4H   LINE      ---      ---       #78
      0100A1E6H   LINE      ---      ---       #79
      0100A1E8H   LINE      ---      ---       #80
      02000121H   SYMBOL    XDATA    BYTE      i
      ---         BLOCKEND  CODE     ---       LVL=1
      ---         BLOCKEND  CODE     ---       LVL=0

      0100A222H   BLOCK     CODE     ---       LVL=0
      0100A222H   LINE      ---      ---       #86
      02000119H   SYMBOL    XDATA    DWORD     Dst_Addr
      0200011DH   SYMBOL    XDATA    BYTE      nBytes_128
      0200011EH   SYMBOL    XDATA    ---       Data_Adr
      0100A225H   BLOCK     CODE     NEAR LAB  LVL=1
      0100A227H   LINE      ---      ---       #92
      0100A22DH   LINE      ---      ---       #96
      0100A23AH   LINE      ---      ---       #97
      0100A23AH   LINE      ---      ---       #99
LX51 LINKER/LOCATER V4.66.93.0                                                        04/19/2019  09:16:48  PAGE 129


      0100A245H   LINE      ---      ---       #100
      0100A247H   LINE      ---      ---       #101
      0100A24FH   LINE      ---      ---       #102
      0100A251H   LINE      ---      ---       #103
      02000121H   SYMBOL    XDATA    BYTE      i
      02000122H   SYMBOL    XDATA    BYTE      byte
      ---         BLOCKEND  CODE     ---       LVL=1
      ---         BLOCKEND  CODE     ---       LVL=0

      0100C091H   BLOCK     CODE     ---       LVL=0
      0100C091H   LINE      ---      ---       #106
      0100C091H   LINE      ---      ---       #107
      0100C091H   LINE      ---      ---       #108
      0100C093H   LINE      ---      ---       #109
      0100C095H   LINE      ---      ---       #110
      0100C099H   LINE      ---      ---       #111
      ---         BLOCKEND  ---      ---       LVL=0

      0100A1E9H   BLOCK     CODE     ---       LVL=0
      0100A1E9H   LINE      ---      ---       #115
      0100A1E9H   LINE      ---      ---       #116
      00000007H   SYMBOL    DATA     BYTE      out
      0100A1E9H   BLOCK     CODE     NEAR LAB  LVL=1
      0100A1E9H   LINE      ---      ---       #117
      0100A1EBH   LINE      ---      ---       #118
      0100A1EBH   LINE      ---      ---       #119
      0100A1EBH   LINE      ---      ---       #120
      0100A1EBH   LINE      ---      ---       #121
      0100A1EFH   LINE      ---      ---       #122
      0100A1EFH   LINE      ---      ---       #123
      0100A1F1H   LINE      ---      ---       #124
      0100A1F3H   LINE      ---      ---       #126
      0100A1F3H   LINE      ---      ---       #127
      0100A1F5H   LINE      ---      ---       #128
      0100A1F5H   LINE      ---      ---       #131
      0100A1F7H   LINE      ---      ---       #132
      0100A1FBH   LINE      ---      ---       #133
      0100A1FFH   LINE      ---      ---       #134
      0100A201H   LINE      ---      ---       #135
      0100A206H   LINE      ---      ---       #136
      00000006H   SYMBOL    DATA     BYTE      i
      00000007H   SYMBOL    DATA     BYTE      OUT
      ---         BLOCKEND  CODE     ---       LVL=1
      ---         BLOCKEND  CODE     ---       LVL=0

      0100C09BH   BLOCK     CODE     ---       LVL=0
      0100C09BH   LINE      ---      ---       #139
      0100C09BH   LINE      ---      ---       #140
      0100C09BH   BLOCK     CODE     NEAR LAB  LVL=1
      0100C09BH   LINE      ---      ---       #141
      0100C09EH   LINE      ---      ---       #143
      0100C09EH   LINE      ---      ---       #144
      0100C09EH   LINE      ---      ---       #145
      0100C0A2H   LINE      ---      ---       #147
      0100C0A5H   LINE      ---      ---       #148
      0100C0A5H   LINE      ---      ---       #149
      0100C0A7H   LINE      ---      ---       #150
      0100C0A9H   LINE      ---      ---       #152
      0100C0A9H   LINE      ---      ---       #153
      0100C0ABH   LINE      ---      ---       #154
      0100C0ABH   LINE      ---      ---       #155
      0100C0ADH   LINE      ---      ---       #156
      0100C0AEH   LINE      ---      ---       #157
      0100C0B2H   LINE      ---      ---       #158
      0100C0B2H   LINE      ---      ---       #159
LX51 LINKER/LOCATER V4.66.93.0                                                        04/19/2019  09:16:48  PAGE 130


      0100C0B6H   LINE      ---      ---       #160
      0100C0B6H   LINE      ---      ---       #162
      0100C0B7H   LINE      ---      ---       #163
      0100C0B8H   LINE      ---      ---       #164
      0100C0B9H   LINE      ---      ---       #165
      0100C0BAH   LINE      ---      ---       #166
      0100C0BCH   LINE      ---      ---       #167
      0100C0C1H   LINE      ---      ---       #168
      0100C0C3H   LINE      ---      ---       #169
      00000006H   SYMBOL    DATA     BYTE      i
      00000005H   SYMBOL    DATA     BYTE      in
      00000007H   SYMBOL    DATA     BYTE      temp
      ---         BLOCKEND  CODE     ---       LVL=1
      ---         BLOCKEND  CODE     ---       LVL=0

      0100A207H   BLOCK     CODE     ---       LVL=0
      0100A207H   LINE      ---      ---       #172
      0100A20CH   LINE      ---      ---       #177
      0100A21FH   LINE      ---      ---       #181
      0100A221H   LINE      ---      ---       #182
      02000118H   SYMBOL    XDATA    DWORD     Dst_Addr
      ---         BLOCKEND  ---      ---       LVL=0

      ---         MODULE    ---      ---       SHT21
      0100C0C4H   PUBLIC    CODE     ---       SHT21_ReadData
      0100745CH   PUBLIC    CODE     ---       SHT21_WriteRH
      01007424H   PUBLIC    CODE     ---       SHT21_WriteTemp
      000000E0H   SFRSYM    DATA     BYTE      ACC
      000000F0H   SFRSYM    DATA     BYTE      B
      000000D0H   SFRSYM    DATA     BYTE      PSW
      000000D0H.7 SFRSYM    DATA     BIT       CY
      000000D0H.6 SFRSYM    DATA     BIT       AC
      000000D0H.5 SFRSYM    DATA     BIT       F0
      000000D0H.4 SFRSYM    DATA     BIT       RS1
      000000D0H.3 SFRSYM    DATA     BIT       RS0
      000000D0H.2 SFRSYM    DATA     BIT       OV
      000000D0H.0 SFRSYM    DATA     BIT       P
      00000081H   SFRSYM    DATA     BYTE      SP
      00000082H   SFRSYM    DATA     BYTE      DPL
      00000083H   SFRSYM    DATA     BYTE      DPH
      00000087H   SFRSYM    DATA     BYTE      PCON
      0000008EH   SFRSYM    DATA     BYTE      AUXR
      000000A2H   SFRSYM    DATA     BYTE      AUXR1
      0000008FH   SFRSYM    DATA     BYTE      WAKE_CLKO
      00000097H   SFRSYM    DATA     BYTE      CLK_DIV
      000000A1H   SFRSYM    DATA     BYTE      BUS_SPEED
      000000A8H   SFRSYM    DATA     BYTE      IE
      000000A8H.7 SFRSYM    DATA     BIT       EA
      000000A8H.6 SFRSYM    DATA     BIT       ELVD
      000000A8H.5 SFRSYM    DATA     BIT       EADC
      000000A8H.4 SFRSYM    DATA     BIT       ES
      000000A8H.3 SFRSYM    DATA     BIT       ET1
      000000A8H.2 SFRSYM    DATA     BIT       EX1
      000000A8H.1 SFRSYM    DATA     BIT       ET0
      000000A8H.0 SFRSYM    DATA     BIT       EX0
      000000AFH   SFRSYM    DATA     BYTE      IE2
      000000B8H   SFRSYM    DATA     BYTE      IP
      000000B8H.7 SFRSYM    DATA     BIT       PPCA
      000000B8H.6 SFRSYM    DATA     BIT       PLVD
      000000B8H.5 SFRSYM    DATA     BIT       PADC
      000000B8H.4 SFRSYM    DATA     BIT       PS
      000000B8H.3 SFRSYM    DATA     BIT       PT1
      000000B8H.2 SFRSYM    DATA     BIT       PX1
      000000B8H.1 SFRSYM    DATA     BIT       PT0
      000000B8H.0 SFRSYM    DATA     BIT       PX0
LX51 LINKER/LOCATER V4.66.93.0                                                        04/19/2019  09:16:48  PAGE 131


      000000B7H   SFRSYM    DATA     BYTE      IPH
      000000B5H   SFRSYM    DATA     BYTE      IP2
      000000B6H   SFRSYM    DATA     BYTE      IPH2
      00000080H   SFRSYM    DATA     BYTE      P0
      00000080H.0 SFRSYM    DATA     BIT       P00
      00000080H.1 SFRSYM    DATA     BIT       P01
      00000080H.2 SFRSYM    DATA     BIT       P02
      00000080H.3 SFRSYM    DATA     BIT       P03
      00000080H.4 SFRSYM    DATA     BIT       P04
      00000080H.5 SFRSYM    DATA     BIT       P05
      00000080H.6 SFRSYM    DATA     BIT       P06
      00000080H.7 SFRSYM    DATA     BIT       P07
      00000094H   SFRSYM    DATA     BYTE      P0M0
      00000093H   SFRSYM    DATA     BYTE      P0M1
      00000090H   SFRSYM    DATA     BYTE      P1
      00000090H.0 SFRSYM    DATA     BIT       P10
      00000090H.1 SFRSYM    DATA     BIT       P11
      00000090H.2 SFRSYM    DATA     BIT       P12
      00000090H.3 SFRSYM    DATA     BIT       P13
      00000090H.4 SFRSYM    DATA     BIT       P14
      00000090H.5 SFRSYM    DATA     BIT       P15
      00000090H.6 SFRSYM    DATA     BIT       P16
      00000090H.7 SFRSYM    DATA     BIT       P17
      00000092H   SFRSYM    DATA     BYTE      P1M0
      00000091H   SFRSYM    DATA     BYTE      P1M1
      0000009DH   SFRSYM    DATA     BYTE      P1ASF
      000000A0H   SFRSYM    DATA     BYTE      P2
      000000A0H.0 SFRSYM    DATA     BIT       P20
      000000A0H.1 SFRSYM    DATA     BIT       P21
      000000A0H.2 SFRSYM    DATA     BIT       P22
      000000A0H.3 SFRSYM    DATA     BIT       P23
      000000A0H.4 SFRSYM    DATA     BIT       P24
      000000A0H.5 SFRSYM    DATA     BIT       P25
      000000A0H.6 SFRSYM    DATA     BIT       P26
      000000A0H.7 SFRSYM    DATA     BIT       P27
      00000096H   SFRSYM    DATA     BYTE      P2M0
      00000095H   SFRSYM    DATA     BYTE      P2M1
      000000B0H   SFRSYM    DATA     BYTE      P3
      000000B0H.0 SFRSYM    DATA     BIT       P30
      000000B0H.1 SFRSYM    DATA     BIT       P31
      000000B0H.2 SFRSYM    DATA     BIT       P32
      000000B0H.3 SFRSYM    DATA     BIT       P33
      000000B0H.4 SFRSYM    DATA     BIT       P34
      000000B0H.5 SFRSYM    DATA     BIT       P35
      000000B0H.6 SFRSYM    DATA     BIT       P36
      000000B0H.7 SFRSYM    DATA     BIT       P37
      000000B2H   SFRSYM    DATA     BYTE      P3M0
      000000B1H   SFRSYM    DATA     BYTE      P3M1
      000000C0H   SFRSYM    DATA     BYTE      P4
      000000C0H.0 SFRSYM    DATA     BIT       P40
      000000C0H.1 SFRSYM    DATA     BIT       P41
      000000C0H.2 SFRSYM    DATA     BIT       P42
      000000C0H.3 SFRSYM    DATA     BIT       P43
      000000C0H.4 SFRSYM    DATA     BIT       P44
      000000C0H.5 SFRSYM    DATA     BIT       P45
      000000C0H.6 SFRSYM    DATA     BIT       P46
      000000C0H.7 SFRSYM    DATA     BIT       P47
      000000B4H   SFRSYM    DATA     BYTE      P4M0
      000000B3H   SFRSYM    DATA     BYTE      P4M1
      000000BBH   SFRSYM    DATA     BYTE      P4SW
      000000C8H   SFRSYM    DATA     BYTE      P5
      000000CAH   SFRSYM    DATA     BYTE      P5M0
      000000C9H   SFRSYM    DATA     BYTE      P5M1
      00000088H   SFRSYM    DATA     BYTE      TCON
      00000088H.7 SFRSYM    DATA     BIT       TF1
LX51 LINKER/LOCATER V4.66.93.0                                                        04/19/2019  09:16:48  PAGE 132


      00000088H.6 SFRSYM    DATA     BIT       TR1
      00000088H.5 SFRSYM    DATA     BIT       TF0
      00000088H.4 SFRSYM    DATA     BIT       TR0
      00000088H.3 SFRSYM    DATA     BIT       IE1
      00000088H.2 SFRSYM    DATA     BIT       IT1
      00000088H.1 SFRSYM    DATA     BIT       IE0
      00000088H.0 SFRSYM    DATA     BIT       IT0
      00000089H   SFRSYM    DATA     BYTE      TMOD
      0000008AH   SFRSYM    DATA     BYTE      TL0
      0000008CH   SFRSYM    DATA     BYTE      TH0
      0000008BH   SFRSYM    DATA     BYTE      TL1
      0000008DH   SFRSYM    DATA     BYTE      TH1
      00000098H   SFRSYM    DATA     BYTE      SCON
      00000098H.7 SFRSYM    DATA     BIT       SM0
      00000098H.6 SFRSYM    DATA     BIT       SM1
      00000098H.5 SFRSYM    DATA     BIT       SM2
      00000098H.4 SFRSYM    DATA     BIT       REN
      00000098H.3 SFRSYM    DATA     BIT       TB8
      00000098H.2 SFRSYM    DATA     BIT       RB8
      00000098H.1 SFRSYM    DATA     BIT       TI
      00000098H.0 SFRSYM    DATA     BIT       RI
      00000099H   SFRSYM    DATA     BYTE      SBUF
      000000B9H   SFRSYM    DATA     BYTE      SADEN
      000000A9H   SFRSYM    DATA     BYTE      SADDR
      0000009AH   SFRSYM    DATA     BYTE      S2CON
      0000009BH   SFRSYM    DATA     BYTE      S2BUF
      0000009CH   SFRSYM    DATA     BYTE      BRT
      000000C1H   SFRSYM    DATA     BYTE      WDT_CONTR
      000000D8H   SFRSYM    DATA     BYTE      CCON
      000000D8H.7 SFRSYM    DATA     BIT       CF
      000000D8H.6 SFRSYM    DATA     BIT       CR
      000000D8H.1 SFRSYM    DATA     BIT       CCF1
      000000D8H.0 SFRSYM    DATA     BIT       CCF0
      000000D9H   SFRSYM    DATA     BYTE      CMOD
      000000E9H   SFRSYM    DATA     BYTE      CL
      000000F9H   SFRSYM    DATA     BYTE      CH
      000000DAH   SFRSYM    DATA     BYTE      CCAPM0
      000000DBH   SFRSYM    DATA     BYTE      CCAPM1
      000000EAH   SFRSYM    DATA     BYTE      CCAP0L
      000000FAH   SFRSYM    DATA     BYTE      CCAP0H
      000000EBH   SFRSYM    DATA     BYTE      CCAP1L
      000000FBH   SFRSYM    DATA     BYTE      CCAP1H
      000000F2H   SFRSYM    DATA     BYTE      PCA_PWM0
      000000F3H   SFRSYM    DATA     BYTE      PCA_PWM1
      000000BCH   SFRSYM    DATA     BYTE      ADC_CONTR
      000000BDH   SFRSYM    DATA     BYTE      ADC_RES
      000000BEH   SFRSYM    DATA     BYTE      ADC_RESL
      000000CEH   SFRSYM    DATA     BYTE      SPCTL
      000000CDH   SFRSYM    DATA     BYTE      SPSTAT
      000000CFH   SFRSYM    DATA     BYTE      SPDAT
      000000C2H   SFRSYM    DATA     BYTE      IAP_DATA
      000000C3H   SFRSYM    DATA     BYTE      IAP_ADDRH
      000000C4H   SFRSYM    DATA     BYTE      IAP_ADDRL
      000000C5H   SFRSYM    DATA     BYTE      IAP_CMD
      000000C6H   SFRSYM    DATA     BYTE      IAP_TRIG
      000000C7H   SFRSYM    DATA     BYTE      IAP_CONTR
      01007418H   SYMBOL    CODE     ---       SHT21_Start
      0100749BH   SYMBOL    CODE     ---       SHT21_Stop
      0100C1C2H   SYMBOL    CODE     ---       _SHT2x_CheckCrc
      01007372H   SYMBOL    CODE     ---       _SHT21_Write8Bit
      01007317H   SYMBOL    CODE     ---       _SHT21_Read8Bit
      010073F7H   SYMBOL    CODE     ---       SCL_INPUT_HIGH
      010073FEH   SYMBOL    CODE     ---       SDA_INPUT_HIGH
      010073EEH   SYMBOL    CODE     ---       SCL_OUTPUT_LOW
      010074A9H   SYMBOL    CODE     ---       SDA_OUTPUT_LOW
LX51 LINKER/LOCATER V4.66.93.0                                                        04/19/2019  09:16:48  PAGE 133



      010073F7H   BLOCK     CODE     ---       LVL=0
      010073F7H   LINE      ---      ---       #46
      010073F7H   LINE      ---      ---       #47
      010073F7H   LINE      ---      ---       #48
      010073FAH   LINE      ---      ---       #49
      010073FDH   LINE      ---      ---       #50
      ---         BLOCKEND  ---      ---       LVL=0

      010073FEH   BLOCK     CODE     ---       LVL=0
      010073FEH   LINE      ---      ---       #52
      010073FEH   LINE      ---      ---       #53
      010073FEH   LINE      ---      ---       #54
      01007401H   LINE      ---      ---       #55
      01007404H   LINE      ---      ---       #56
      ---         BLOCKEND  ---      ---       LVL=0

      010073EEH   BLOCK     CODE     ---       LVL=0
      010073EEH   LINE      ---      ---       #57
      010073EEH   LINE      ---      ---       #58
      010073EEH   LINE      ---      ---       #59
      010073F1H   LINE      ---      ---       #60
      010073F4H   LINE      ---      ---       #61
      010073F6H   LINE      ---      ---       #62
      ---         BLOCKEND  ---      ---       LVL=0

      010074A9H   BLOCK     CODE     ---       LVL=0
      010074A9H   LINE      ---      ---       #63
      010074A9H   LINE      ---      ---       #64
      010074A9H   LINE      ---      ---       #65
      010074ACH   LINE      ---      ---       #66
      010074AFH   LINE      ---      ---       #67
      010074B1H   LINE      ---      ---       #68
      ---         BLOCKEND  ---      ---       LVL=0

      01007418H   BLOCK     CODE     ---       LVL=0
      01007418H   LINE      ---      ---       #70
      01007418H   LINE      ---      ---       #71
      01007418H   LINE      ---      ---       #72
      0100741AH   LINE      ---      ---       #73
      0100741CH   LINE      ---      ---       #74
      0100741EH   LINE      ---      ---       #75
      01007420H   LINE      ---      ---       #76
      01007422H   LINE      ---      ---       #77
      ---         BLOCKEND  ---      ---       LVL=0

      0100749BH   BLOCK     CODE     ---       LVL=0
      0100749BH   LINE      ---      ---       #81
      0100749BH   LINE      ---      ---       #82
      0100749BH   LINE      ---      ---       #83
      0100749DH   LINE      ---      ---       #84
      0100749FH   LINE      ---      ---       #85
      010074A1H   LINE      ---      ---       #87
      010074A3H   LINE      ---      ---       #88
      ---         BLOCKEND  ---      ---       LVL=0

      01007372H   BLOCK     CODE     ---       LVL=0
      01007372H   LINE      ---      ---       #94
      01007377H   LINE      ---      ---       #95
      02000119H   SYMBOL    XDATA    BYTE      i_input
      01007377H   BLOCK     CODE     NEAR LAB  LVL=1
      01007377H   LINE      ---      ---       #97
      0100737CH   LINE      ---      ---       #99
      01007393H   LINE      ---      ---       #100
      01007393H   LINE      ---      ---       #101
LX51 LINKER/LOCATER V4.66.93.0                                                        04/19/2019  09:16:48  PAGE 134


      01007395H   LINE      ---      ---       #102
      010073A0H   LINE      ---      ---       #103
      010073A0H   LINE      ---      ---       #104
      010073A2H   LINE      ---      ---       #105
      010073A4H   LINE      ---      ---       #107
      010073A4H   LINE      ---      ---       #108
      010073A6H   LINE      ---      ---       #109
      010073A6H   LINE      ---      ---       #111
      010073A9H   LINE      ---      ---       #114
      010073B6H   LINE      ---      ---       #115
      010073B8H   LINE      ---      ---       #116
      010073BAH   LINE      ---      ---       #117
      010073BCH   LINE      ---      ---       #119
      010073BEH   LINE      ---      ---       #122
      010073C5H   LINE      ---      ---       #123
      010073C8H   LINE      ---      ---       #124
      010073C8H   LINE      ---      ---       #125
      010073E0H   LINE      ---      ---       #126
      010073E0H   LINE      ---      ---       #129
      010073E6H   LINE      ---      ---       #130
      010073E6H   LINE      ---      ---       #131
      010073E8H   LINE      ---      ---       #132
      010073E8H   LINE      ---      ---       #134
      010073EDH   LINE      ---      ---       #135
      0200011AH   SYMBOL    XDATA    WORD      i
      0200011CH   SYMBOL    XDATA    BYTE      ret
      ---         BLOCKEND  CODE     ---       LVL=1
      ---         BLOCKEND  CODE     ---       LVL=0

      01007317H   BLOCK     CODE     ---       LVL=0
      01007317H   LINE      ---      ---       #138
      0100731CH   LINE      ---      ---       #139
      02000124H   SYMBOL    XDATA    BYTE      ask
      0100731CH   BLOCK     CODE     NEAR LAB  LVL=1
      0100731CH   LINE      ---      ---       #140
      01007321H   LINE      ---      ---       #142
      01007323H   LINE      ---      ---       #144
      01007332H   LINE      ---      ---       #145
      01007332H   LINE      ---      ---       #146
      01007334H   LINE      ---      ---       #148
      01007337H   LINE      ---      ---       #149
      01007337H   LINE      ---      ---       #150
      01007345H   LINE      ---      ---       #151
      01007345H   LINE      ---      ---       #152
      01007347H   LINE      ---      ---       #153
      01007349H   LINE      ---      ---       #154
      01007353H   LINE      ---      ---       #155
      01007359H   LINE      ---      ---       #156
      01007359H   LINE      ---      ---       #157
      0100735BH   LINE      ---      ---       #158
      0100735DH   LINE      ---      ---       #160
      0100735DH   LINE      ---      ---       #161
      0100735FH   LINE      ---      ---       #162
      0100735FH   LINE      ---      ---       #163
      01007362H   LINE      ---      ---       #166
      01007364H   LINE      ---      ---       #167
      01007366H   LINE      ---      ---       #168
      01007368H   LINE      ---      ---       #169
      0100736AH   LINE      ---      ---       #170
      0100736CH   LINE      ---      ---       #171
      01007371H   LINE      ---      ---       #172
      02000125H   SYMBOL    XDATA    BYTE      mask
      02000126H   SYMBOL    XDATA    BYTE      rxByte
      ---         BLOCKEND  CODE     ---       LVL=1
      ---         BLOCKEND  CODE     ---       LVL=0
LX51 LINKER/LOCATER V4.66.93.0                                                        04/19/2019  09:16:48  PAGE 135



      01007424H   BLOCK     CODE     ---       LVL=0
      01007424H   LINE      ---      ---       #177
      01007424H   LINE      ---      ---       #178
      01007424H   BLOCK     CODE     NEAR LAB  LVL=1
      01007424H   LINE      ---      ---       #180
      01007426H   LINE      ---      ---       #183
      0100742DH   LINE      ---      ---       #184
      0100742DH   LINE      ---      ---       #185
      0100742FH   LINE      ---      ---       #186
      01007431H   LINE      ---      ---       #188
      01007431H   LINE      ---      ---       #189
      01007436H   LINE      ---      ---       #190
      01007436H   LINE      ---      ---       #191
      0100743DH   LINE      ---      ---       #192
      0100743DH   LINE      ---      ---       #193
      0100743FH   LINE      ---      ---       #194
      01007441H   LINE      ---      ---       #196
      01007441H   LINE      ---      ---       #197
      01007446H   LINE      ---      ---       #198
      01007446H   LINE      ---      ---       #199
      01007448H   LINE      ---      ---       #201
      0100744FH   LINE      ---      ---       #202
      0100744FH   LINE      ---      ---       #203
      01007451H   LINE      ---      ---       #204
      01007453H   LINE      ---      ---       #206
      01007453H   LINE      ---      ---       #207
      01007458H   LINE      ---      ---       #208
      01007458H   LINE      ---      ---       #209
      0100745BH   LINE      ---      ---       #212
      02000118H   SYMBOL    XDATA    BYTE      Read_SHT21_Err
      ---         BLOCKEND  CODE     ---       LVL=1
      ---         BLOCKEND  CODE     ---       LVL=0

      0100745CH   BLOCK     CODE     ---       LVL=0
      0100745CH   LINE      ---      ---       #214
      0100745CH   LINE      ---      ---       #215
      0100745CH   BLOCK     CODE     NEAR LAB  LVL=1
      0100745CH   LINE      ---      ---       #217
      0100745EH   LINE      ---      ---       #220
      01007465H   LINE      ---      ---       #221
      01007465H   LINE      ---      ---       #222
      01007467H   LINE      ---      ---       #223
      01007469H   LINE      ---      ---       #225
      01007469H   LINE      ---      ---       #226
      0100746EH   LINE      ---      ---       #227
      0100746EH   LINE      ---      ---       #228
      01007475H   LINE      ---      ---       #229
      01007475H   LINE      ---      ---       #230
      01007477H   LINE      ---      ---       #231
      01007479H   LINE      ---      ---       #233
      01007479H   LINE      ---      ---       #234
      0100747EH   LINE      ---      ---       #235
      0100747EH   LINE      ---      ---       #236
      01007480H   LINE      ---      ---       #238
      01007487H   LINE      ---      ---       #239
      01007487H   LINE      ---      ---       #240
      01007489H   LINE      ---      ---       #241
      0100748BH   LINE      ---      ---       #243
      0100748BH   LINE      ---      ---       #244
      01007490H   LINE      ---      ---       #245
      01007490H   LINE      ---      ---       #246
      01007493H   LINE      ---      ---       #250
      02000118H   SYMBOL    XDATA    BYTE      Read_SHT21_Err
      ---         BLOCKEND  CODE     ---       LVL=1
LX51 LINKER/LOCATER V4.66.93.0                                                        04/19/2019  09:16:48  PAGE 136


      ---         BLOCKEND  CODE     ---       LVL=0

      0100C0C4H   BLOCK     CODE     ---       LVL=0
      0100C0C4H   LINE      ---      ---       #285
      0100C0C4H   LINE      ---      ---       #286
      0100C0C4H   BLOCK     CODE     NEAR LAB  LVL=1
      0100C0C4H   LINE      ---      ---       #292
      0100C0C9H   LINE      ---      ---       #293
      0100C0CDH   LINE      ---      ---       #295
      0100C0D6H   LINE      ---      ---       #297
      0100C0E0H   LINE      ---      ---       #299
      0100C0EAH   LINE      ---      ---       #301
      0100C0EDH   LINE      ---      ---       #303
      0100C0F5H   LINE      ---      ---       #304
      0100C0FDH   LINE      ---      ---       #305
      0100C10FH   LINE      ---      ---       #306
      0100C113H   LINE      ---      ---       #307
      0100C113H   LINE      ---      ---       #309
      0100C113H   LINE      ---      ---       #310
      0100C115H   LINE      ---      ---       #312
      0100C115H   LINE      ---      ---       #313
      0100C128H   LINE      ---      ---       #316
      0100C132H   LINE      ---      ---       #317
      0100C147H   LINE      ---      ---       #320
      0100C147H   LINE      ---      ---       #324
      0100C147H   LINE      ---      ---       #327
      0100C158H   LINE      ---      ---       #328
      0100C158H   LINE      ---      ---       #330
      0100C160H   LINE      ---      ---       #331
      0100C162H   LINE      ---      ---       #333
      0100C162H   LINE      ---      ---       #334
      0100C169H   LINE      ---      ---       #335
      0100C169H   LINE      ---      ---       #336
      0100C17CH   LINE      ---      ---       #340
      0100C17CH   LINE      ---      ---       #342
      0100C17EH   LINE      ---      ---       #344
      0100C17EH   LINE      ---      ---       #345
      0100C1A0H   LINE      ---      ---       #352
      0100C1A0H   LINE      ---      ---       #353
      0100C1A0H   LINE      ---      ---       #354
      0100C1A0H   LINE      ---      ---       #355
      0100C1A8H   LINE      ---      ---       #356
      02000118H   SYMBOL    XDATA    BYTE      TempH
      02000119H   SYMBOL    XDATA    BYTE      TempL
      0200011AH   SYMBOL    XDATA    DWORD     TempLong
      0200011EH   SYMBOL    XDATA    BYTE      checksum
      0200011FH   SYMBOL    XDATA    ---       Cdata
      00000007H   SYMBOL    DATA     BYTE      CRC8_error
      02000121H   SYMBOL    XDATA    BYTE      tmp
      02000122H   SYMBOL    XDATA    WORD      ret
      ---         BLOCKEND  CODE     ---       LVL=1
      ---         BLOCKEND  CODE     ---       LVL=0

      0100C1C2H   BLOCK     CODE     ---       LVL=0
      0100C1C2H   LINE      ---      ---       #358
      0100C1CDH   LINE      ---      ---       #360
      02000124H   SYMBOL    XDATA    ---       Cdata
      02000127H   SYMBOL    XDATA    BYTE      nbrOfBytes
      02000128H   SYMBOL    XDATA    BYTE      checksum
      0100C1CDH   BLOCK     CODE     NEAR LAB  LVL=1
      0100C1CDH   LINE      ---      ---       #361
      0100C1D4H   LINE      ---      ---       #367
      0100C1DFH   LINE      ---      ---       #368
      0100C1DFH   LINE      ---      ---       #369
      0100C1F6H   LINE      ---      ---       #370
LX51 LINKER/LOCATER V4.66.93.0                                                        04/19/2019  09:16:48  PAGE 137


      0100C1F8H   LINE      ---      ---       #371
      0100C1F8H   LINE      ---      ---       #374
      0100C200H   LINE      ---      ---       #375
      0100C200H   LINE      ---      ---       #377
      0100C203H   LINE      ---      ---       #378
      0100C211H   LINE      ---      ---       #379
      0100C215H   LINE      ---      ---       #380
      0100C217H   LINE      ---      ---       #382
      0100C217H   LINE      ---      ---       #383
      0100C21FH   LINE      ---      ---       #384
      0100C21FH   LINE      ---      ---       #385
      0100C221H   LINE      ---      ---       #386
      0100C224H   LINE      ---      ---       #387
      0100C22EH   LINE      ---      ---       #388
      0100C22EH   LINE      ---      ---       #389
      0100C234H   LINE      ---      ---       #390
      0100C236H   LINE      ---      ---       #392
      0100C236H   LINE      ---      ---       #393
      0100C23BH   LINE      ---      ---       #394
      0100C23BH   LINE      ---      ---       #395
      0100C240H   LINE      ---      ---       #396
      02000129H   SYMBOL    XDATA    BYTE      crc
      00000004H   SYMBOL    DATA     BYTE      byteCtr
      00000007H   SYMBOL    DATA     BYTE      bit8
      0200012AH   SYMBOL    XDATA    WORD      tmp
      0200012CH   SYMBOL    XDATA    BYTE      res
      ---         BLOCKEND  CODE     ---       LVL=1
      ---         BLOCKEND  CODE     ---       LVL=0

      ---         MODULE    ---      ---       RX8010
      010096ABH   PUBLIC    CODE     ---       _RX8010_GetTime
      0100C3A3H   PUBLIC    CODE     ---       _RX8010_SetTime
      0100B156H   PUBLIC    CODE     ---       RX8010_Initialize
      0100C2FFH   PUBLIC    CODE     ---       _readEEone
      000000E0H   SFRSYM    DATA     BYTE      ACC
      000000F0H   SFRSYM    DATA     BYTE      B
      000000D0H   SFRSYM    DATA     BYTE      PSW
      000000D0H.7 SFRSYM    DATA     BIT       CY
      000000D0H.6 SFRSYM    DATA     BIT       AC
      000000D0H.5 SFRSYM    DATA     BIT       F0
      000000D0H.4 SFRSYM    DATA     BIT       RS1
      000000D0H.3 SFRSYM    DATA     BIT       RS0
      000000D0H.2 SFRSYM    DATA     BIT       OV
      000000D0H.0 SFRSYM    DATA     BIT       P
      00000081H   SFRSYM    DATA     BYTE      SP
      00000082H   SFRSYM    DATA     BYTE      DPL
      00000083H   SFRSYM    DATA     BYTE      DPH
      00000087H   SFRSYM    DATA     BYTE      PCON
      0000008EH   SFRSYM    DATA     BYTE      AUXR
      000000A2H   SFRSYM    DATA     BYTE      AUXR1
      0000008FH   SFRSYM    DATA     BYTE      WAKE_CLKO
      00000097H   SFRSYM    DATA     BYTE      CLK_DIV
      000000A1H   SFRSYM    DATA     BYTE      BUS_SPEED
      000000A8H   SFRSYM    DATA     BYTE      IE
      000000A8H.7 SFRSYM    DATA     BIT       EA
      000000A8H.6 SFRSYM    DATA     BIT       ELVD
      000000A8H.5 SFRSYM    DATA     BIT       EADC
      000000A8H.4 SFRSYM    DATA     BIT       ES
      000000A8H.3 SFRSYM    DATA     BIT       ET1
      000000A8H.2 SFRSYM    DATA     BIT       EX1
      000000A8H.1 SFRSYM    DATA     BIT       ET0
      000000A8H.0 SFRSYM    DATA     BIT       EX0
      000000AFH   SFRSYM    DATA     BYTE      IE2
      000000B8H   SFRSYM    DATA     BYTE      IP
      000000B8H.7 SFRSYM    DATA     BIT       PPCA
LX51 LINKER/LOCATER V4.66.93.0                                                        04/19/2019  09:16:48  PAGE 138


      000000B8H.6 SFRSYM    DATA     BIT       PLVD
      000000B8H.5 SFRSYM    DATA     BIT       PADC
      000000B8H.4 SFRSYM    DATA     BIT       PS
      000000B8H.3 SFRSYM    DATA     BIT       PT1
      000000B8H.2 SFRSYM    DATA     BIT       PX1
      000000B8H.1 SFRSYM    DATA     BIT       PT0
      000000B8H.0 SFRSYM    DATA     BIT       PX0
      000000B7H   SFRSYM    DATA     BYTE      IPH
      000000B5H   SFRSYM    DATA     BYTE      IP2
      000000B6H   SFRSYM    DATA     BYTE      IPH2
      00000080H   SFRSYM    DATA     BYTE      P0
      00000080H.0 SFRSYM    DATA     BIT       P00
      00000080H.1 SFRSYM    DATA     BIT       P01
      00000080H.2 SFRSYM    DATA     BIT       P02
      00000080H.3 SFRSYM    DATA     BIT       P03
      00000080H.4 SFRSYM    DATA     BIT       P04
      00000080H.5 SFRSYM    DATA     BIT       P05
      00000080H.6 SFRSYM    DATA     BIT       P06
      00000080H.7 SFRSYM    DATA     BIT       P07
      00000094H   SFRSYM    DATA     BYTE      P0M0
      00000093H   SFRSYM    DATA     BYTE      P0M1
      00000090H   SFRSYM    DATA     BYTE      P1
      00000090H.0 SFRSYM    DATA     BIT       P10
      00000090H.1 SFRSYM    DATA     BIT       P11
      00000090H.2 SFRSYM    DATA     BIT       P12
      00000090H.3 SFRSYM    DATA     BIT       P13
      00000090H.4 SFRSYM    DATA     BIT       P14
      00000090H.5 SFRSYM    DATA     BIT       P15
      00000090H.6 SFRSYM    DATA     BIT       P16
      00000090H.7 SFRSYM    DATA     BIT       P17
      00000092H   SFRSYM    DATA     BYTE      P1M0
      00000091H   SFRSYM    DATA     BYTE      P1M1
      0000009DH   SFRSYM    DATA     BYTE      P1ASF
      000000A0H   SFRSYM    DATA     BYTE      P2
      000000A0H.0 SFRSYM    DATA     BIT       P20
      000000A0H.1 SFRSYM    DATA     BIT       P21
      000000A0H.2 SFRSYM    DATA     BIT       P22
      000000A0H.3 SFRSYM    DATA     BIT       P23
      000000A0H.4 SFRSYM    DATA     BIT       P24
      000000A0H.5 SFRSYM    DATA     BIT       P25
      000000A0H.6 SFRSYM    DATA     BIT       P26
      000000A0H.7 SFRSYM    DATA     BIT       P27
      00000096H   SFRSYM    DATA     BYTE      P2M0
      00000095H   SFRSYM    DATA     BYTE      P2M1
      000000B0H   SFRSYM    DATA     BYTE      P3
      000000B0H.0 SFRSYM    DATA     BIT       P30
      000000B0H.1 SFRSYM    DATA     BIT       P31
      000000B0H.2 SFRSYM    DATA     BIT       P32
      000000B0H.3 SFRSYM    DATA     BIT       P33
      000000B0H.4 SFRSYM    DATA     BIT       P34
      000000B0H.5 SFRSYM    DATA     BIT       P35
      000000B0H.6 SFRSYM    DATA     BIT       P36
      000000B0H.7 SFRSYM    DATA     BIT       P37
      000000B2H   SFRSYM    DATA     BYTE      P3M0
      000000B1H   SFRSYM    DATA     BYTE      P3M1
      000000C0H   SFRSYM    DATA     BYTE      P4
      000000C0H.0 SFRSYM    DATA     BIT       P40
      000000C0H.1 SFRSYM    DATA     BIT       P41
      000000C0H.2 SFRSYM    DATA     BIT       P42
      000000C0H.3 SFRSYM    DATA     BIT       P43
      000000C0H.4 SFRSYM    DATA     BIT       P44
      000000C0H.5 SFRSYM    DATA     BIT       P45
      000000C0H.6 SFRSYM    DATA     BIT       P46
      000000C0H.7 SFRSYM    DATA     BIT       P47
      000000B4H   SFRSYM    DATA     BYTE      P4M0
LX51 LINKER/LOCATER V4.66.93.0                                                        04/19/2019  09:16:48  PAGE 139


      000000B3H   SFRSYM    DATA     BYTE      P4M1
      000000BBH   SFRSYM    DATA     BYTE      P4SW
      000000C8H   SFRSYM    DATA     BYTE      P5
      000000CAH   SFRSYM    DATA     BYTE      P5M0
      000000C9H   SFRSYM    DATA     BYTE      P5M1
      00000088H   SFRSYM    DATA     BYTE      TCON
      00000088H.7 SFRSYM    DATA     BIT       TF1
      00000088H.6 SFRSYM    DATA     BIT       TR1
      00000088H.5 SFRSYM    DATA     BIT       TF0
      00000088H.4 SFRSYM    DATA     BIT       TR0
      00000088H.3 SFRSYM    DATA     BIT       IE1
      00000088H.2 SFRSYM    DATA     BIT       IT1
      00000088H.1 SFRSYM    DATA     BIT       IE0
      00000088H.0 SFRSYM    DATA     BIT       IT0
      00000089H   SFRSYM    DATA     BYTE      TMOD
      0000008AH   SFRSYM    DATA     BYTE      TL0
      0000008CH   SFRSYM    DATA     BYTE      TH0
      0000008BH   SFRSYM    DATA     BYTE      TL1
      0000008DH   SFRSYM    DATA     BYTE      TH1
      00000098H   SFRSYM    DATA     BYTE      SCON
      00000098H.7 SFRSYM    DATA     BIT       SM0
      00000098H.6 SFRSYM    DATA     BIT       SM1
      00000098H.5 SFRSYM    DATA     BIT       SM2
      00000098H.4 SFRSYM    DATA     BIT       REN
      00000098H.3 SFRSYM    DATA     BIT       TB8
      00000098H.2 SFRSYM    DATA     BIT       RB8
      00000098H.1 SFRSYM    DATA     BIT       TI
      00000098H.0 SFRSYM    DATA     BIT       RI
      00000099H   SFRSYM    DATA     BYTE      SBUF
      000000B9H   SFRSYM    DATA     BYTE      SADEN
      000000A9H   SFRSYM    DATA     BYTE      SADDR
      0000009AH   SFRSYM    DATA     BYTE      S2CON
      0000009BH   SFRSYM    DATA     BYTE      S2BUF
      0000009CH   SFRSYM    DATA     BYTE      BRT
      000000C1H   SFRSYM    DATA     BYTE      WDT_CONTR
      000000D8H   SFRSYM    DATA     BYTE      CCON
      000000D8H.7 SFRSYM    DATA     BIT       CF
      000000D8H.6 SFRSYM    DATA     BIT       CR
      000000D8H.1 SFRSYM    DATA     BIT       CCF1
      000000D8H.0 SFRSYM    DATA     BIT       CCF0
      000000D9H   SFRSYM    DATA     BYTE      CMOD
      000000E9H   SFRSYM    DATA     BYTE      CL
      000000F9H   SFRSYM    DATA     BYTE      CH
      000000DAH   SFRSYM    DATA     BYTE      CCAPM0
      000000DBH   SFRSYM    DATA     BYTE      CCAPM1
      000000EAH   SFRSYM    DATA     BYTE      CCAP0L
      000000FAH   SFRSYM    DATA     BYTE      CCAP0H
      000000EBH   SFRSYM    DATA     BYTE      CCAP1L
      000000FBH   SFRSYM    DATA     BYTE      CCAP1H
      000000F2H   SFRSYM    DATA     BYTE      PCA_PWM0
      000000F3H   SFRSYM    DATA     BYTE      PCA_PWM1
      000000BCH   SFRSYM    DATA     BYTE      ADC_CONTR
      000000BDH   SFRSYM    DATA     BYTE      ADC_RES
      000000BEH   SFRSYM    DATA     BYTE      ADC_RESL
      000000CEH   SFRSYM    DATA     BYTE      SPCTL
      000000CDH   SFRSYM    DATA     BYTE      SPSTAT
      000000CFH   SFRSYM    DATA     BYTE      SPDAT
      000000C2H   SFRSYM    DATA     BYTE      IAP_DATA
      000000C3H   SFRSYM    DATA     BYTE      IAP_ADDRH
      000000C4H   SFRSYM    DATA     BYTE      IAP_ADDRL
      000000C5H   SFRSYM    DATA     BYTE      IAP_CMD
      000000C6H   SFRSYM    DATA     BYTE      IAP_TRIG
      000000C7H   SFRSYM    DATA     BYTE      IAP_CONTR
      0100C2F8H   SYMBOL    CODE     ---       SCL_DIR_OUTPUT
      010077D7H   SYMBOL    CODE     ---       SDA_DIR_INPUT
LX51 LINKER/LOCATER V4.66.93.0                                                        04/19/2019  09:16:48  PAGE 140


      01007783H   SYMBOL    CODE     ---       SDA_DIR_OUTPUT
      01007794H   SYMBOL    CODE     ---       IC_start
      0100768AH   SYMBOL    CODE     ---       IC_stop
      010076E4H   SYMBOL    CODE     ---       _IC_WriteByte
      0100774AH   SYMBOL    CODE     ---       IC_ReadByte
      0100769AH   SYMBOL    CODE     ---       _writeEEone

      0100C2F8H   BLOCK     CODE     ---       LVL=0
      0100C2F8H   LINE      ---      ---       #30
      0100C2F8H   LINE      ---      ---       #31
      0100C2F8H   LINE      ---      ---       #32
      0100C2FBH   LINE      ---      ---       #33
      0100C2FEH   LINE      ---      ---       #34
      ---         BLOCKEND  ---      ---       LVL=0

      010077D7H   BLOCK     CODE     ---       LVL=0
      010077D7H   LINE      ---      ---       #36
      010077D7H   LINE      ---      ---       #37
      010077D7H   LINE      ---      ---       #38
      010077DAH   LINE      ---      ---       #39
      010077DDH   LINE      ---      ---       #40
      ---         BLOCKEND  ---      ---       LVL=0

      01007783H   BLOCK     CODE     ---       LVL=0
      01007783H   LINE      ---      ---       #41
      01007783H   LINE      ---      ---       #42
      01007783H   LINE      ---      ---       #43
      01007786H   LINE      ---      ---       #44
      01007789H   LINE      ---      ---       #45
      ---         BLOCKEND  ---      ---       LVL=0

      01007794H   BLOCK     CODE     ---       LVL=0
      01007794H   LINE      ---      ---       #51
      01007794H   LINE      ---      ---       #52
      01007794H   LINE      ---      ---       #53
      01007797H   LINE      ---      ---       #54
      01007799H   LINE      ---      ---       #55
      0100779BH   LINE      ---      ---       #56
      0100779DH   LINE      ---      ---       #57
      0100779FH   LINE      ---      ---       #58
      010077A1H   LINE      ---      ---       #59
      010077A3H   LINE      ---      ---       #60
      010077A5H   LINE      ---      ---       #61
      ---         BLOCKEND  ---      ---       LVL=0

      0100768AH   BLOCK     CODE     ---       LVL=0
      0100768AH   LINE      ---      ---       #67
      0100768AH   LINE      ---      ---       #68
      0100768AH   LINE      ---      ---       #69
      0100768CH   LINE      ---      ---       #72
      0100768EH   LINE      ---      ---       #73
      01007690H   LINE      ---      ---       #74
      01007692H   LINE      ---      ---       #75
      01007694H   LINE      ---      ---       #76
      ---         BLOCKEND  ---      ---       LVL=0

      010076E4H   BLOCK     CODE     ---       LVL=0
      010076E4H   LINE      ---      ---       #85
      010076E9H   LINE      ---      ---       #86
      020001A8H   SYMBOL    XDATA    BYTE      wdata
      010076E9H   BLOCK     CODE     NEAR LAB  LVL=1
      010076E9H   LINE      ---      ---       #88
      010076EFH   LINE      ---      ---       #89
      010076F1H   LINE      ---      ---       #90
      010076F6H   LINE      ---      ---       #91
LX51 LINKER/LOCATER V4.66.93.0                                                        04/19/2019  09:16:48  PAGE 141


      010076F6H   LINE      ---      ---       #92
      010076F8H   LINE      ---      ---       #93
      010076FAH   LINE      ---      ---       #94
      01007701H   LINE      ---      ---       #95
      01007701H   LINE      ---      ---       #96
      01007703H   LINE      ---      ---       #97
      01007705H   LINE      ---      ---       #99
      01007705H   LINE      ---      ---       #100
      01007707H   LINE      ---      ---       #101
      01007707H   LINE      ---      ---       #102
      01007709H   LINE      ---      ---       #103
      0100770BH   LINE      ---      ---       #104
      0100770DH   LINE      ---      ---       #105
      01007717H   LINE      ---      ---       #107
      01007719H   LINE      ---      ---       #109
      0100771BH   LINE      ---      ---       #110
      0100771DH   LINE      ---      ---       #111
      0100771FH   LINE      ---      ---       #112
      01007724H   LINE      ---      ---       #113
      01007727H   LINE      ---      ---       #114
      01007727H   LINE      ---      ---       #115
      01007737H   LINE      ---      ---       #116
      01007737H   LINE      ---      ---       #117
      0100773FH   LINE      ---      ---       #118
      0100773FH   LINE      ---      ---       #119
      01007741H   LINE      ---      ---       #120
      01007741H   LINE      ---      ---       #121
      01007741H   LINE      ---      ---       #122
      020001A9H   SYMBOL    XDATA    BYTE      i
      020001AAH   SYMBOL    XDATA    BYTE      ret
      ---         BLOCKEND  CODE     ---       LVL=1
      ---         BLOCKEND  CODE     ---       LVL=0

      0100774AH   BLOCK     CODE     ---       LVL=0
      0100774AH   LINE      ---      ---       #129
      0100774AH   LINE      ---      ---       #130
      0100774AH   BLOCK     CODE     NEAR LAB  LVL=1
      0100774AH   LINE      ---      ---       #132
      0100774FH   LINE      ---      ---       #133
      01007751H   LINE      ---      ---       #134
      01007753H   LINE      ---      ---       #135
      01007755H   LINE      ---      ---       #136
      01007757H   LINE      ---      ---       #137
      0100775BH   LINE      ---      ---       #138
      0100775BH   LINE      ---      ---       #139
      0100775DH   LINE      ---      ---       #140
      0100775FH   LINE      ---      ---       #141
      01007766H   LINE      ---      ---       #144
      01007769H   LINE      ---      ---       #145
      01007769H   LINE      ---      ---       #146
      0100776CH   LINE      ---      ---       #147
      0100776CH   LINE      ---      ---       #149
      0100776EH   LINE      ---      ---       #150
      01007770H   LINE      ---      ---       #151
      01007772H   LINE      ---      ---       #153
      01007779H   LINE      ---      ---       #154
      0100777BH   LINE      ---      ---       #155
      0100777DH   LINE      ---      ---       #158
      01007782H   LINE      ---      ---       #159
      020001A8H   SYMBOL    XDATA    BYTE      i
      020001A9H   SYMBOL    XDATA    BYTE      IC_data
      ---         BLOCKEND  CODE     ---       LVL=1
      ---         BLOCKEND  CODE     ---       LVL=0

      0100C2FFH   BLOCK     CODE     ---       LVL=0
LX51 LINKER/LOCATER V4.66.93.0                                                        04/19/2019  09:16:48  PAGE 142


      0100C2FFH   LINE      ---      ---       #166
      0100C304H   LINE      ---      ---       #167
      020001A1H   SYMBOL    XDATA    BYTE      addr
      020001A2H   SYMBOL    XDATA    BYTE      num
      020001A3H   SYMBOL    XDATA    ---       Data
      0100C304H   BLOCK     CODE     NEAR LAB  LVL=1
      0100C304H   LINE      ---      ---       #200
      0100C30AH   LINE      ---      ---       #201
      0100C30FH   LINE      ---      ---       #203
      0100C30FH   LINE      ---      ---       #204
      0100C30FH   LINE      ---      ---       #205
      0100C311H   LINE      ---      ---       #206
      0100C31CH   LINE      ---      ---       #207
      0100C31CH   LINE      ---      ---       #208
      0100C31CH   LINE      ---      ---       #209
      0100C31EH   LINE      ---      ---       #211
      0100C31EH   LINE      ---      ---       #212
      0100C321H   LINE      ---      ---       #213
      0100C329H   LINE      ---      ---       #214
      0100C329H   LINE      ---      ---       #216
      0100C331H   LINE      ---      ---       #217
      0100C333H   LINE      ---      ---       #219
      0100C333H   LINE      ---      ---       #220
      0100C346H   LINE      ---      ---       #221
      0100C346H   LINE      ---      ---       #222
      0100C354H   LINE      ---      ---       #223
      0100C357H   LINE      ---      ---       #224
      0100C359H   LINE      ---      ---       #225
      0100C35BH   LINE      ---      ---       #226
      0100C363H   LINE      ---      ---       #227
      0100C37DH   LINE      ---      ---       #228
      0100C380H   LINE      ---      ---       #229
      0100C382H   LINE      ---      ---       #230
      0100C385H   LINE      ---      ---       #231
      0100C387H   LINE      ---      ---       #232
      0100C38AH   LINE      ---      ---       #233
      0100C38AH   LINE      ---      ---       #234
      0100C38AH   LINE      ---      ---       #235
      0100C38FH   LINE      ---      ---       #236
      020001A6H   SYMBOL    XDATA    BYTE      i
      020001A7H   SYMBOL    XDATA    BYTE      ret
      ---         BLOCKEND  CODE     ---       LVL=1
      ---         BLOCKEND  CODE     ---       LVL=0

      0100769AH   BLOCK     CODE     ---       LVL=0
      0100769AH   LINE      ---      ---       #245
      010076A0H   LINE      ---      ---       #246
      0200011AH   SYMBOL    XDATA    BYTE      addr
      0200011BH   SYMBOL    XDATA    BYTE      num
      0200011CH   SYMBOL    XDATA    ---       Data
      010076A0H   BLOCK     CODE     NEAR LAB  LVL=1
      010076A0H   LINE      ---      ---       #249
      010076A4H   LINE      ---      ---       #251
      010076A4H   LINE      ---      ---       #253
      010076A6H   LINE      ---      ---       #254
      010076A6H   LINE      ---      ---       #255
      010076B0H   LINE      ---      ---       #256
      010076B0H   LINE      ---      ---       #258
      010076B2H   LINE      ---      ---       #259
      010076B2H   LINE      ---      ---       #260
      010076C5H   LINE      ---      ---       #261
      010076C5H   LINE      ---      ---       #262
      010076D1H   LINE      ---      ---       #263
      010076D1H   LINE      ---      ---       #265
      010076D3H   LINE      ---      ---       #266
LX51 LINKER/LOCATER V4.66.93.0                                                        04/19/2019  09:16:48  PAGE 143


      010076D3H   LINE      ---      ---       #267
      010076DBH   LINE      ---      ---       #268
      010076DDH   LINE      ---      ---       #269
      010076DFH   LINE      ---      ---       #270
      010076E1H   LINE      ---      ---       #271
      010076E3H   LINE      ---      ---       #274
      0200011FH   SYMBOL    XDATA    BYTE      i
      ---         BLOCKEND  CODE     ---       LVL=1
      ---         BLOCKEND  CODE     ---       LVL=0

      0100B156H   BLOCK     CODE     ---       LVL=0
      0100B156H   LINE      ---      ---       #278
      0100B156H   LINE      ---      ---       #279
      0100B156H   BLOCK     CODE     NEAR LAB  LVL=1
      0100B156H   LINE      ---      ---       #284
      0100B158H   LINE      ---      ---       #285
      0100B15DH   LINE      ---      ---       #287
      0100B161H   LINE      ---      ---       #288
      0100B165H   LINE      ---      ---       #289
      0100B165H   LINE      ---      ---       #290
      0100B171H   LINE      ---      ---       #291
      0100B171H   LINE      ---      ---       #292
      0100B176H   LINE      ---      ---       #293
      0100B178H   LINE      ---      ---       #294
      0100B178H   LINE      ---      ---       #295
      0100B17FH   LINE      ---      ---       #296
      0100B182H   LINE      ---      ---       #297
      0100B188H   LINE      ---      ---       #298
      0100B190H   LINE      ---      ---       #300
      0100B196H   LINE      ---      ---       #301
      0100B196H   LINE      ---      ---       #302
      0100B1A2H   LINE      ---      ---       #303
      0100B1A2H   LINE      ---      ---       #304
      0100B1A8H   LINE      ---      ---       #305
      0100B1B6H   LINE      ---      ---       #308
      0100B1BAH   LINE      ---      ---       #309
      0100B1C4H   LINE      ---      ---       #311
      0100B1CAH   LINE      ---      ---       #312
      0100B1CDH   LINE      ---      ---       #313
      0100B1D9H   LINE      ---      ---       #317
      0100B1DBH   LINE      ---      ---       #318
      0100B1DDH   LINE      ---      ---       #319
      0100B1E1H   LINE      ---      ---       #320
      0100B1E5H   LINE      ---      ---       #321
      0100B1E7H   LINE      ---      ---       #322
      0100B1F3H   LINE      ---      ---       #326
      0100B20DH   LINE      ---      ---       #336
      0100B20DH   LINE      ---      ---       #337
      0100B20DH   LINE      ---      ---       #338
      0100B20FH   LINE      ---      ---       #339
      0100B214H   LINE      ---      ---       #340
      02000111H   SYMBOL    XDATA    ---       Rdata
      02000118H   SYMBOL    XDATA    BYTE      i
      02000119H   SYMBOL    XDATA    BYTE      Init_State
      ---         BLOCKEND  CODE     ---       LVL=1
      ---         BLOCKEND  CODE     ---       LVL=0

      0100C3A3H   BLOCK     CODE     ---       LVL=0
      0100C3A3H   LINE      ---      ---       #344
      02000110H   SYMBOL    XDATA    ---       p
      0100C3A3H   BLOCK     CODE     NEAR LAB  LVL=1
      0100C3ACH   LINE      ---      ---       #351
      0100C3B6H   LINE      ---      ---       #355
      0100C3C0H   LINE      ---      ---       #356
      0100C3C7H   LINE      ---      ---       #357
LX51 LINKER/LOCATER V4.66.93.0                                                        04/19/2019  09:16:48  PAGE 144


      0100C3D1H   LINE      ---      ---       #365
      0100C3DBH   LINE      ---      ---       #366
      0100C3E5H   LINE      ---      ---       #367
      0100C3EFH   LINE      ---      ---       #368
      0100C3FCH   LINE      ---      ---       #370
      02000113H   SYMBOL    XDATA    ---       Rdata
      ---         BLOCKEND  CODE     ---       LVL=1
      ---         BLOCKEND  CODE     ---       LVL=0

      010096ABH   BLOCK     CODE     ---       LVL=0
      010096ABH   LINE      ---      ---       #376
      010096B1H   LINE      ---      ---       #377
      02000197H   SYMBOL    XDATA    ---       p
      010096B1H   BLOCK     CODE     NEAR LAB  LVL=1
      010096B1H   LINE      ---      ---       #381
      010096C3H   LINE      ---      ---       #382
      010096C3H   LINE      ---      ---       #383
      010096D2H   LINE      ---      ---       #387
      010096E4H   LINE      ---      ---       #388
      010096EEH   LINE      ---      ---       #389
      010096F8H   LINE      ---      ---       #409
      01009702H   LINE      ---      ---       #410
      0100970CH   LINE      ---      ---       #411
      01009716H   LINE      ---      ---       #412
      01009716H   LINE      ---      ---       #413
      0200019AH   SYMBOL    XDATA    ---       Rdata
      ---         BLOCKEND  CODE     ---       LVL=1
      ---         BLOCKEND  CODE     ---       LVL=0

      ---         MODULE    ---      ---       DS18B20
      0200035FH   PUBLIC    XDATA    BYTE      Read_18B20_Value2
      0200035EH   PUBLIC    XDATA    BYTE      Read_18B20_Value
      02000121H   PUBLIC    XDATA    BYTE      ?_DS18B20_CheckCrc?BYTE
      0100C275H   PUBLIC    CODE     ---       _DS18B20_CheckCrc
      010072E5H   PUBLIC    CODE     ---       _DS18B20_WriteByte
      0100726CH   PUBLIC    CODE     ---       DS18B20_ReadByte
      000000E0H   SFRSYM    DATA     BYTE      ACC
      000000F0H   SFRSYM    DATA     BYTE      B
      000000D0H   SFRSYM    DATA     BYTE      PSW
      000000D0H.7 SFRSYM    DATA     BIT       CY
      000000D0H.6 SFRSYM    DATA     BIT       AC
      000000D0H.5 SFRSYM    DATA     BIT       F0
      000000D0H.4 SFRSYM    DATA     BIT       RS1
      000000D0H.3 SFRSYM    DATA     BIT       RS0
      000000D0H.2 SFRSYM    DATA     BIT       OV
      000000D0H.0 SFRSYM    DATA     BIT       P
      00000081H   SFRSYM    DATA     BYTE      SP
      00000082H   SFRSYM    DATA     BYTE      DPL
      00000083H   SFRSYM    DATA     BYTE      DPH
      00000087H   SFRSYM    DATA     BYTE      PCON
      0000008EH   SFRSYM    DATA     BYTE      AUXR
      000000A2H   SFRSYM    DATA     BYTE      AUXR1
      0000008FH   SFRSYM    DATA     BYTE      WAKE_CLKO
      00000097H   SFRSYM    DATA     BYTE      CLK_DIV
      000000A1H   SFRSYM    DATA     BYTE      BUS_SPEED
      000000A8H   SFRSYM    DATA     BYTE      IE
      000000A8H.7 SFRSYM    DATA     BIT       EA
      000000A8H.6 SFRSYM    DATA     BIT       ELVD
      000000A8H.5 SFRSYM    DATA     BIT       EADC
      000000A8H.4 SFRSYM    DATA     BIT       ES
      000000A8H.3 SFRSYM    DATA     BIT       ET1
      000000A8H.2 SFRSYM    DATA     BIT       EX1
      000000A8H.1 SFRSYM    DATA     BIT       ET0
      000000A8H.0 SFRSYM    DATA     BIT       EX0
      000000AFH   SFRSYM    DATA     BYTE      IE2
LX51 LINKER/LOCATER V4.66.93.0                                                        04/19/2019  09:16:48  PAGE 145


      000000B8H   SFRSYM    DATA     BYTE      IP
      000000B8H.7 SFRSYM    DATA     BIT       PPCA
      000000B8H.6 SFRSYM    DATA     BIT       PLVD
      000000B8H.5 SFRSYM    DATA     BIT       PADC
      000000B8H.4 SFRSYM    DATA     BIT       PS
      000000B8H.3 SFRSYM    DATA     BIT       PT1
      000000B8H.2 SFRSYM    DATA     BIT       PX1
      000000B8H.1 SFRSYM    DATA     BIT       PT0
      000000B8H.0 SFRSYM    DATA     BIT       PX0
      000000B7H   SFRSYM    DATA     BYTE      IPH
      000000B5H   SFRSYM    DATA     BYTE      IP2
      000000B6H   SFRSYM    DATA     BYTE      IPH2
      00000080H   SFRSYM    DATA     BYTE      P0
      00000080H.0 SFRSYM    DATA     BIT       P00
      00000080H.1 SFRSYM    DATA     BIT       P01
      00000080H.2 SFRSYM    DATA     BIT       P02
      00000080H.3 SFRSYM    DATA     BIT       P03
      00000080H.4 SFRSYM    DATA     BIT       P04
      00000080H.5 SFRSYM    DATA     BIT       P05
      00000080H.6 SFRSYM    DATA     BIT       P06
      00000080H.7 SFRSYM    DATA     BIT       P07
      00000094H   SFRSYM    DATA     BYTE      P0M0
      00000093H   SFRSYM    DATA     BYTE      P0M1
      00000090H   SFRSYM    DATA     BYTE      P1
      00000090H.0 SFRSYM    DATA     BIT       P10
      00000090H.1 SFRSYM    DATA     BIT       P11
      00000090H.2 SFRSYM    DATA     BIT       P12
      00000090H.3 SFRSYM    DATA     BIT       P13
      00000090H.4 SFRSYM    DATA     BIT       P14
      00000090H.5 SFRSYM    DATA     BIT       P15
      00000090H.6 SFRSYM    DATA     BIT       P16
      00000090H.7 SFRSYM    DATA     BIT       P17
      00000092H   SFRSYM    DATA     BYTE      P1M0
      00000091H   SFRSYM    DATA     BYTE      P1M1
      0000009DH   SFRSYM    DATA     BYTE      P1ASF
      000000A0H   SFRSYM    DATA     BYTE      P2
      000000A0H.0 SFRSYM    DATA     BIT       P20
      000000A0H.1 SFRSYM    DATA     BIT       P21
      000000A0H.2 SFRSYM    DATA     BIT       P22
      000000A0H.3 SFRSYM    DATA     BIT       P23
      000000A0H.4 SFRSYM    DATA     BIT       P24
      000000A0H.5 SFRSYM    DATA     BIT       P25
      000000A0H.6 SFRSYM    DATA     BIT       P26
      000000A0H.7 SFRSYM    DATA     BIT       P27
      00000096H   SFRSYM    DATA     BYTE      P2M0
      00000095H   SFRSYM    DATA     BYTE      P2M1
      000000B0H   SFRSYM    DATA     BYTE      P3
      000000B0H.0 SFRSYM    DATA     BIT       P30
      000000B0H.1 SFRSYM    DATA     BIT       P31
      000000B0H.2 SFRSYM    DATA     BIT       P32
      000000B0H.3 SFRSYM    DATA     BIT       P33
      000000B0H.4 SFRSYM    DATA     BIT       P34
      000000B0H.5 SFRSYM    DATA     BIT       P35
      000000B0H.6 SFRSYM    DATA     BIT       P36
      000000B0H.7 SFRSYM    DATA     BIT       P37
      000000B2H   SFRSYM    DATA     BYTE      P3M0
      000000B1H   SFRSYM    DATA     BYTE      P3M1
      000000C0H   SFRSYM    DATA     BYTE      P4
      000000C0H.0 SFRSYM    DATA     BIT       P40
      000000C0H.1 SFRSYM    DATA     BIT       P41
      000000C0H.2 SFRSYM    DATA     BIT       P42
      000000C0H.3 SFRSYM    DATA     BIT       P43
      000000C0H.4 SFRSYM    DATA     BIT       P44
      000000C0H.5 SFRSYM    DATA     BIT       P45
      000000C0H.6 SFRSYM    DATA     BIT       P46
LX51 LINKER/LOCATER V4.66.93.0                                                        04/19/2019  09:16:48  PAGE 146


      000000C0H.7 SFRSYM    DATA     BIT       P47
      000000B4H   SFRSYM    DATA     BYTE      P4M0
      000000B3H   SFRSYM    DATA     BYTE      P4M1
      000000BBH   SFRSYM    DATA     BYTE      P4SW
      000000C8H   SFRSYM    DATA     BYTE      P5
      000000CAH   SFRSYM    DATA     BYTE      P5M0
      000000C9H   SFRSYM    DATA     BYTE      P5M1
      00000088H   SFRSYM    DATA     BYTE      TCON
      00000088H.7 SFRSYM    DATA     BIT       TF1
      00000088H.6 SFRSYM    DATA     BIT       TR1
      00000088H.5 SFRSYM    DATA     BIT       TF0
      00000088H.4 SFRSYM    DATA     BIT       TR0
      00000088H.3 SFRSYM    DATA     BIT       IE1
      00000088H.2 SFRSYM    DATA     BIT       IT1
      00000088H.1 SFRSYM    DATA     BIT       IE0
      00000088H.0 SFRSYM    DATA     BIT       IT0
      00000089H   SFRSYM    DATA     BYTE      TMOD
      0000008AH   SFRSYM    DATA     BYTE      TL0
      0000008CH   SFRSYM    DATA     BYTE      TH0
      0000008BH   SFRSYM    DATA     BYTE      TL1
      0000008DH   SFRSYM    DATA     BYTE      TH1
      00000098H   SFRSYM    DATA     BYTE      SCON
      00000098H.7 SFRSYM    DATA     BIT       SM0
      00000098H.6 SFRSYM    DATA     BIT       SM1
      00000098H.5 SFRSYM    DATA     BIT       SM2
      00000098H.4 SFRSYM    DATA     BIT       REN
      00000098H.3 SFRSYM    DATA     BIT       TB8
      00000098H.2 SFRSYM    DATA     BIT       RB8
      00000098H.1 SFRSYM    DATA     BIT       TI
      00000098H.0 SFRSYM    DATA     BIT       RI
      00000099H   SFRSYM    DATA     BYTE      SBUF
      000000B9H   SFRSYM    DATA     BYTE      SADEN
      000000A9H   SFRSYM    DATA     BYTE      SADDR
      0000009AH   SFRSYM    DATA     BYTE      S2CON
      0000009BH   SFRSYM    DATA     BYTE      S2BUF
      0000009CH   SFRSYM    DATA     BYTE      BRT
      000000C1H   SFRSYM    DATA     BYTE      WDT_CONTR
      000000D8H   SFRSYM    DATA     BYTE      CCON
      000000D8H.7 SFRSYM    DATA     BIT       CF
      000000D8H.6 SFRSYM    DATA     BIT       CR
      000000D8H.1 SFRSYM    DATA     BIT       CCF1
      000000D8H.0 SFRSYM    DATA     BIT       CCF0
      000000D9H   SFRSYM    DATA     BYTE      CMOD
      000000E9H   SFRSYM    DATA     BYTE      CL
      000000F9H   SFRSYM    DATA     BYTE      CH
      000000DAH   SFRSYM    DATA     BYTE      CCAPM0
      000000DBH   SFRSYM    DATA     BYTE      CCAPM1
      000000EAH   SFRSYM    DATA     BYTE      CCAP0L
      000000FAH   SFRSYM    DATA     BYTE      CCAP0H
      000000EBH   SFRSYM    DATA     BYTE      CCAP1L
      000000FBH   SFRSYM    DATA     BYTE      CCAP1H
      000000F2H   SFRSYM    DATA     BYTE      PCA_PWM0
      000000F3H   SFRSYM    DATA     BYTE      PCA_PWM1
      000000BCH   SFRSYM    DATA     BYTE      ADC_CONTR
      000000BDH   SFRSYM    DATA     BYTE      ADC_RES
      000000BEH   SFRSYM    DATA     BYTE      ADC_RESL
      000000CEH   SFRSYM    DATA     BYTE      SPCTL
      000000CDH   SFRSYM    DATA     BYTE      SPSTAT
      000000CFH   SFRSYM    DATA     BYTE      SPDAT
      000000C2H   SFRSYM    DATA     BYTE      IAP_DATA
      000000C3H   SFRSYM    DATA     BYTE      IAP_ADDRH
      000000C4H   SFRSYM    DATA     BYTE      IAP_ADDRL
      000000C5H   SFRSYM    DATA     BYTE      IAP_CMD
      000000C6H   SFRSYM    DATA     BYTE      IAP_TRIG
      000000C7H   SFRSYM    DATA     BYTE      IAP_CONTR
LX51 LINKER/LOCATER V4.66.93.0                                                        04/19/2019  09:16:48  PAGE 147



      0100726CH   BLOCK     CODE     ---       LVL=0
      0100726CH   LINE      ---      ---       #16
      0100726CH   LINE      ---      ---       #17
      0100726CH   BLOCK     CODE     NEAR LAB  LVL=1
      0100726CH   LINE      ---      ---       #21
      01007271H   LINE      ---      ---       #22
      01007273H   LINE      ---      ---       #24
      01007277H   LINE      ---      ---       #25
      01007277H   LINE      ---      ---       #26
      0100727EH   LINE      ---      ---       #27
      01007283H   LINE      ---      ---       #28
      01007285H   LINE      ---      ---       #31
      01007287H   LINE      ---      ---       #32
      01007289H   LINE      ---      ---       #33
      0100728BH   LINE      ---      ---       #35
      0100728EH   LINE      ---      ---       #36
      0100728EH   LINE      ---      ---       #37
      01007294H   LINE      ---      ---       #38
      01007296H   LINE      ---      ---       #40
      01007296H   LINE      ---      ---       #41
      0100729BH   LINE      ---      ---       #42
      0100729BH   LINE      ---      ---       #44
      0100729EH   LINE      ---      ---       #45
      0100729EH   LINE      ---      ---       #46
      010072A4H   LINE      ---      ---       #47
      010072A6H   LINE      ---      ---       #49
      010072A6H   LINE      ---      ---       #50
      010072ABH   LINE      ---      ---       #51
      010072ABH   LINE      ---      ---       #52
      010072B2H   LINE      ---      ---       #53
      010072B2H   LINE      ---      ---       #54
      010072B9H   LINE      ---      ---       #55
      010072B9H   LINE      ---      ---       #56
      010072C0H   LINE      ---      ---       #57
      010072C0H   LINE      ---      ---       #58
      010072C7H   LINE      ---      ---       #59
      010072C7H   LINE      ---      ---       #60
      010072CDH   LINE      ---      ---       #61
      010072D4H   LINE      ---      ---       #63
      02000121H   SYMBOL    XDATA    BYTE      i
      02000122H   SYMBOL    XDATA    BYTE      Wei
      02000123H   SYMBOL    XDATA    BYTE      Wei2
      ---         BLOCKEND  CODE     ---       LVL=1
      ---         BLOCKEND  CODE     ---       LVL=0

      010072DDH   BLOCK     CODE     ---       LVL=0
      010072E5H   LINE      ---      ---       #65
      010072EAH   LINE      ---      ---       #66
      010072DDH   SYMBOL    CODE     NEAR LAB  ?L?COM0172
      02000121H   SYMBOL    XDATA    BYTE      dat
      010072EAH   BLOCK     CODE     NEAR LAB  LVL=1
      010072EAH   LINE      ---      ---       #69
      010072EDH   LINE      ---      ---       #70
      010072EDH   LINE      ---      ---       #71
      010072EFH   LINE      ---      ---       #74
      010072F6H   LINE      ---      ---       #75
      010072F6H   LINE      ---      ---       #76
      010072F8H   LINE      ---      ---       #77
      010072FAH   LINE      ---      ---       #78
      010072FCH   LINE      ---      ---       #80
      010072FCH   LINE      ---      ---       #81
      010072FEH   LINE      ---      ---       #82
      01007300H   LINE      ---      ---       #83
      01007300H   LINE      ---      ---       #84
LX51 LINKER/LOCATER V4.66.93.0                                                        04/19/2019  09:16:48  PAGE 148


      01007306H   LINE      ---      ---       #85
      01007308H   LINE      ---      ---       #86
      0100730AH   LINE      ---      ---       #87
      0100730CH   LINE      ---      ---       #88
      01007316H   LINE      ---      ---       #91
      02000122H   SYMBOL    XDATA    BYTE      i
      ---         BLOCKEND  CODE     ---       LVL=1
      ---         BLOCKEND  CODE     ---       LVL=0

      0100C275H   BLOCK     CODE     ---       LVL=0
      0100C275H   LINE      ---      ---       #93
      0100C280H   LINE      ---      ---       #95
      02000121H   SYMBOL    XDATA    ---       Cdata
      02000124H   SYMBOL    XDATA    BYTE      nbrOfBytes
      02000125H   SYMBOL    XDATA    BYTE      checksum
      0100C280H   BLOCK     CODE     NEAR LAB  LVL=1
      0100C280H   LINE      ---      ---       #96
      0100C285H   LINE      ---      ---       #99
      0100C287H   LINE      ---      ---       #100
      0100C289H   LINE      ---      ---       #103
      0100C294H   LINE      ---      ---       #104
      0100C294H   LINE      ---      ---       #105
      0100C2AAH   LINE      ---      ---       #107
      0100C2ACH   LINE      ---      ---       #108
      0100C2ACH   LINE      ---      ---       #109
      0100C2B8H   LINE      ---      ---       #110
      0100C2B8H   LINE      ---      ---       #111
      0100C2BCH   LINE      ---      ---       #112
      0100C2C0H   LINE      ---      ---       #113
      0100C2C3H   LINE      ---      ---       #114
      0100C2C5H   LINE      ---      ---       #116
      0100C2C5H   LINE      ---      ---       #117
      0100C2CCH   LINE      ---      ---       #118
      0100C2CCH   LINE      ---      ---       #119
      0100C2D3H   LINE      ---      ---       #120
      0100C2D8H   LINE      ---      ---       #122
      0100C2DBH   LINE      ---      ---       #123
      0100C2E7H   LINE      ---      ---       #124
      0100C2E7H   LINE      ---      ---       #125
      0100C2EBH   LINE      ---      ---       #126
      0100C2EDH   LINE      ---      ---       #128
      0100C2EDH   LINE      ---      ---       #129
      0100C2F2H   LINE      ---      ---       #130
      0100C2F2H   LINE      ---      ---       #131
      0100C2F7H   LINE      ---      ---       #132
      02000126H   SYMBOL    XDATA    BYTE      crc
      00000005H   SYMBOL    DATA     BYTE      byteCtr
      00000007H   SYMBOL    DATA     BYTE      bit8
      02000127H   SYMBOL    XDATA    BYTE      crc_1byte
      02000128H   SYMBOL    XDATA    BYTE      ret
      ---         BLOCKEND  CODE     ---       LVL=1
      ---         BLOCKEND  CODE     ---       LVL=0

      ---         MODULE    ---      ---       KEY_DATAS
      02000354H   PUBLIC    XDATA    BYTE      Key_State_Present
      02000353H   PUBLIC    XDATA    BYTE      Key_Mute_Tik
      02000352H   PUBLIC    XDATA    BYTE      Key_OK_Tik
      02000351H   PUBLIC    XDATA    BYTE      Key_Down_Tik
      02000350H   PUBLIC    XDATA    BYTE      Key_UP_Tik
      0100C495H   PUBLIC    CODE     ---       KeyMutePressLongRepeatAction
      0100C48EH   PUBLIC    CODE     ---       KeyMutePressLongFirstAction
      0100BECDH   PUBLIC    CODE     ---       KeyMutePressShortAction
      0100C481H   PUBLIC    CODE     ---       Key_Mute_TikFunc
      0100C47AH   PUBLIC    CODE     ---       KeyOKPressLongRepeatAction
      0100C473H   PUBLIC    CODE     ---       KeyOKPressLongFirstAction
LX51 LINKER/LOCATER V4.66.93.0                                                        04/19/2019  09:16:48  PAGE 149


      0100C46CH   PUBLIC    CODE     ---       KeyOKPressShortAction
      0100C45FH   PUBLIC    CODE     ---       Key_OK_TikFunc
      0100C458H   PUBLIC    CODE     ---       KeyDownPressLongRepeatAction
      0100C451H   PUBLIC    CODE     ---       KeyDownPressLongFirstAction
      0100C44AH   PUBLIC    CODE     ---       KeyDownPressShortAction
      0100C43DH   PUBLIC    CODE     ---       Key_Down_TikFunc
      0100C436H   PUBLIC    CODE     ---       KeyUpPressLongRepeatAction
      0100C42FH   PUBLIC    CODE     ---       KeyUpPressLongFirstAction
      0100C428H   PUBLIC    CODE     ---       KeyUpPressShortAction
      0100C41BH   PUBLIC    CODE     ---       Key_UP_TikFunc
      000000E0H   SFRSYM    DATA     BYTE      ACC
      000000F0H   SFRSYM    DATA     BYTE      B
      000000D0H   SFRSYM    DATA     BYTE      PSW
      000000D0H.7 SFRSYM    DATA     BIT       CY
      000000D0H.6 SFRSYM    DATA     BIT       AC
      000000D0H.5 SFRSYM    DATA     BIT       F0
      000000D0H.4 SFRSYM    DATA     BIT       RS1
      000000D0H.3 SFRSYM    DATA     BIT       RS0
      000000D0H.2 SFRSYM    DATA     BIT       OV
      000000D0H.0 SFRSYM    DATA     BIT       P
      00000081H   SFRSYM    DATA     BYTE      SP
      00000082H   SFRSYM    DATA     BYTE      DPL
      00000083H   SFRSYM    DATA     BYTE      DPH
      00000087H   SFRSYM    DATA     BYTE      PCON
      0000008EH   SFRSYM    DATA     BYTE      AUXR
      000000A2H   SFRSYM    DATA     BYTE      AUXR1
      0000008FH   SFRSYM    DATA     BYTE      WAKE_CLKO
      00000097H   SFRSYM    DATA     BYTE      CLK_DIV
      000000A1H   SFRSYM    DATA     BYTE      BUS_SPEED
      000000A8H   SFRSYM    DATA     BYTE      IE
      000000A8H.7 SFRSYM    DATA     BIT       EA
      000000A8H.6 SFRSYM    DATA     BIT       ELVD
      000000A8H.5 SFRSYM    DATA     BIT       EADC
      000000A8H.4 SFRSYM    DATA     BIT       ES
      000000A8H.3 SFRSYM    DATA     BIT       ET1
      000000A8H.2 SFRSYM    DATA     BIT       EX1
      000000A8H.1 SFRSYM    DATA     BIT       ET0
      000000A8H.0 SFRSYM    DATA     BIT       EX0
      000000AFH   SFRSYM    DATA     BYTE      IE2
      000000B8H   SFRSYM    DATA     BYTE      IP
      000000B8H.7 SFRSYM    DATA     BIT       PPCA
      000000B8H.6 SFRSYM    DATA     BIT       PLVD
      000000B8H.5 SFRSYM    DATA     BIT       PADC
      000000B8H.4 SFRSYM    DATA     BIT       PS
      000000B8H.3 SFRSYM    DATA     BIT       PT1
      000000B8H.2 SFRSYM    DATA     BIT       PX1
      000000B8H.1 SFRSYM    DATA     BIT       PT0
      000000B8H.0 SFRSYM    DATA     BIT       PX0
      000000B7H   SFRSYM    DATA     BYTE      IPH
      000000B5H   SFRSYM    DATA     BYTE      IP2
      000000B6H   SFRSYM    DATA     BYTE      IPH2
      00000080H   SFRSYM    DATA     BYTE      P0
      00000080H.0 SFRSYM    DATA     BIT       P00
      00000080H.1 SFRSYM    DATA     BIT       P01
      00000080H.2 SFRSYM    DATA     BIT       P02
      00000080H.3 SFRSYM    DATA     BIT       P03
      00000080H.4 SFRSYM    DATA     BIT       P04
      00000080H.5 SFRSYM    DATA     BIT       P05
      00000080H.6 SFRSYM    DATA     BIT       P06
      00000080H.7 SFRSYM    DATA     BIT       P07
      00000094H   SFRSYM    DATA     BYTE      P0M0
      00000093H   SFRSYM    DATA     BYTE      P0M1
      00000090H   SFRSYM    DATA     BYTE      P1
      00000090H.0 SFRSYM    DATA     BIT       P10
      00000090H.1 SFRSYM    DATA     BIT       P11
LX51 LINKER/LOCATER V4.66.93.0                                                        04/19/2019  09:16:48  PAGE 150


      00000090H.2 SFRSYM    DATA     BIT       P12
      00000090H.3 SFRSYM    DATA     BIT       P13
      00000090H.4 SFRSYM    DATA     BIT       P14
      00000090H.5 SFRSYM    DATA     BIT       P15
      00000090H.6 SFRSYM    DATA     BIT       P16
      00000090H.7 SFRSYM    DATA     BIT       P17
      00000092H   SFRSYM    DATA     BYTE      P1M0
      00000091H   SFRSYM    DATA     BYTE      P1M1
      0000009DH   SFRSYM    DATA     BYTE      P1ASF
      000000A0H   SFRSYM    DATA     BYTE      P2
      000000A0H.0 SFRSYM    DATA     BIT       P20
      000000A0H.1 SFRSYM    DATA     BIT       P21
      000000A0H.2 SFRSYM    DATA     BIT       P22
      000000A0H.3 SFRSYM    DATA     BIT       P23
      000000A0H.4 SFRSYM    DATA     BIT       P24
      000000A0H.5 SFRSYM    DATA     BIT       P25
      000000A0H.6 SFRSYM    DATA     BIT       P26
      000000A0H.7 SFRSYM    DATA     BIT       P27
      00000096H   SFRSYM    DATA     BYTE      P2M0
      00000095H   SFRSYM    DATA     BYTE      P2M1
      000000B0H   SFRSYM    DATA     BYTE      P3
      000000B0H.0 SFRSYM    DATA     BIT       P30
      000000B0H.1 SFRSYM    DATA     BIT       P31
      000000B0H.2 SFRSYM    DATA     BIT       P32
      000000B0H.3 SFRSYM    DATA     BIT       P33
      000000B0H.4 SFRSYM    DATA     BIT       P34
      000000B0H.5 SFRSYM    DATA     BIT       P35
      000000B0H.6 SFRSYM    DATA     BIT       P36
      000000B0H.7 SFRSYM    DATA     BIT       P37
      000000B2H   SFRSYM    DATA     BYTE      P3M0
      000000B1H   SFRSYM    DATA     BYTE      P3M1
      000000C0H   SFRSYM    DATA     BYTE      P4
      000000C0H.0 SFRSYM    DATA     BIT       P40
      000000C0H.1 SFRSYM    DATA     BIT       P41
      000000C0H.2 SFRSYM    DATA     BIT       P42
      000000C0H.3 SFRSYM    DATA     BIT       P43
      000000C0H.4 SFRSYM    DATA     BIT       P44
      000000C0H.5 SFRSYM    DATA     BIT       P45
      000000C0H.6 SFRSYM    DATA     BIT       P46
      000000C0H.7 SFRSYM    DATA     BIT       P47
      000000B4H   SFRSYM    DATA     BYTE      P4M0
      000000B3H   SFRSYM    DATA     BYTE      P4M1
      000000BBH   SFRSYM    DATA     BYTE      P4SW
      000000C8H   SFRSYM    DATA     BYTE      P5
      000000CAH   SFRSYM    DATA     BYTE      P5M0
      000000C9H   SFRSYM    DATA     BYTE      P5M1
      00000088H   SFRSYM    DATA     BYTE      TCON
      00000088H.7 SFRSYM    DATA     BIT       TF1
      00000088H.6 SFRSYM    DATA     BIT       TR1
      00000088H.5 SFRSYM    DATA     BIT       TF0
      00000088H.4 SFRSYM    DATA     BIT       TR0
      00000088H.3 SFRSYM    DATA     BIT       IE1
      00000088H.2 SFRSYM    DATA     BIT       IT1
      00000088H.1 SFRSYM    DATA     BIT       IE0
      00000088H.0 SFRSYM    DATA     BIT       IT0
      00000089H   SFRSYM    DATA     BYTE      TMOD
      0000008AH   SFRSYM    DATA     BYTE      TL0
      0000008CH   SFRSYM    DATA     BYTE      TH0
      0000008BH   SFRSYM    DATA     BYTE      TL1
      0000008DH   SFRSYM    DATA     BYTE      TH1
      00000098H   SFRSYM    DATA     BYTE      SCON
      00000098H.7 SFRSYM    DATA     BIT       SM0
      00000098H.6 SFRSYM    DATA     BIT       SM1
      00000098H.5 SFRSYM    DATA     BIT       SM2
      00000098H.4 SFRSYM    DATA     BIT       REN
LX51 LINKER/LOCATER V4.66.93.0                                                        04/19/2019  09:16:48  PAGE 151


      00000098H.3 SFRSYM    DATA     BIT       TB8
      00000098H.2 SFRSYM    DATA     BIT       RB8
      00000098H.1 SFRSYM    DATA     BIT       TI
      00000098H.0 SFRSYM    DATA     BIT       RI
      00000099H   SFRSYM    DATA     BYTE      SBUF
      000000B9H   SFRSYM    DATA     BYTE      SADEN
      000000A9H   SFRSYM    DATA     BYTE      SADDR
      0000009AH   SFRSYM    DATA     BYTE      S2CON
      0000009BH   SFRSYM    DATA     BYTE      S2BUF
      0000009CH   SFRSYM    DATA     BYTE      BRT
      000000C1H   SFRSYM    DATA     BYTE      WDT_CONTR
      000000D8H   SFRSYM    DATA     BYTE      CCON
      000000D8H.7 SFRSYM    DATA     BIT       CF
      000000D8H.6 SFRSYM    DATA     BIT       CR
      000000D8H.1 SFRSYM    DATA     BIT       CCF1
      000000D8H.0 SFRSYM    DATA     BIT       CCF0
      000000D9H   SFRSYM    DATA     BYTE      CMOD
      000000E9H   SFRSYM    DATA     BYTE      CL
      000000F9H   SFRSYM    DATA     BYTE      CH
      000000DAH   SFRSYM    DATA     BYTE      CCAPM0
      000000DBH   SFRSYM    DATA     BYTE      CCAPM1
      000000EAH   SFRSYM    DATA     BYTE      CCAP0L
      000000FAH   SFRSYM    DATA     BYTE      CCAP0H
      000000EBH   SFRSYM    DATA     BYTE      CCAP1L
      000000FBH   SFRSYM    DATA     BYTE      CCAP1H
      000000F2H   SFRSYM    DATA     BYTE      PCA_PWM0
      000000F3H   SFRSYM    DATA     BYTE      PCA_PWM1
      000000BCH   SFRSYM    DATA     BYTE      ADC_CONTR
      000000BDH   SFRSYM    DATA     BYTE      ADC_RES
      000000BEH   SFRSYM    DATA     BYTE      ADC_RESL
      000000CEH   SFRSYM    DATA     BYTE      SPCTL
      000000CDH   SFRSYM    DATA     BYTE      SPSTAT
      000000CFH   SFRSYM    DATA     BYTE      SPDAT
      000000C2H   SFRSYM    DATA     BYTE      IAP_DATA
      000000C3H   SFRSYM    DATA     BYTE      IAP_ADDRH
      000000C4H   SFRSYM    DATA     BYTE      IAP_ADDRL
      000000C5H   SFRSYM    DATA     BYTE      IAP_CMD
      000000C6H   SFRSYM    DATA     BYTE      IAP_TRIG
      000000C7H   SFRSYM    DATA     BYTE      IAP_CONTR

      0100C41BH   BLOCK     CODE     ---       LVL=0
      0100C41BH   LINE      ---      ---       #35
      0100C41BH   LINE      ---      ---       #36
      0100C41BH   LINE      ---      ---       #37
      0100C424H   LINE      ---      ---       #38
      0100C424H   LINE      ---      ---       #39
      0100C427H   LINE      ---      ---       #40
      0100C427H   LINE      ---      ---       #41
      ---         BLOCKEND  ---      ---       LVL=0

      0100C428H   BLOCK     CODE     ---       LVL=0
      0100C428H   LINE      ---      ---       #43
      0100C428H   LINE      ---      ---       #44
      0100C428H   LINE      ---      ---       #45
      0100C42EH   LINE      ---      ---       #46
      ---         BLOCKEND  ---      ---       LVL=0

      0100C42FH   BLOCK     CODE     ---       LVL=0
      0100C42FH   LINE      ---      ---       #48
      0100C42FH   LINE      ---      ---       #49
      0100C42FH   LINE      ---      ---       #50
      0100C435H   LINE      ---      ---       #51
      ---         BLOCKEND  ---      ---       LVL=0

      0100C436H   BLOCK     CODE     ---       LVL=0
LX51 LINKER/LOCATER V4.66.93.0                                                        04/19/2019  09:16:48  PAGE 152


      0100C436H   LINE      ---      ---       #53
      0100C436H   LINE      ---      ---       #54
      0100C436H   LINE      ---      ---       #55
      0100C43CH   LINE      ---      ---       #56
      ---         BLOCKEND  ---      ---       LVL=0

      0100C43DH   BLOCK     CODE     ---       LVL=0
      0100C43DH   LINE      ---      ---       #86
      0100C43DH   LINE      ---      ---       #87
      0100C43DH   LINE      ---      ---       #88
      0100C446H   LINE      ---      ---       #89
      0100C446H   LINE      ---      ---       #90
      0100C449H   LINE      ---      ---       #91
      0100C449H   LINE      ---      ---       #92
      ---         BLOCKEND  ---      ---       LVL=0

      0100C44AH   BLOCK     CODE     ---       LVL=0
      0100C44AH   LINE      ---      ---       #95
      0100C44AH   LINE      ---      ---       #96
      0100C44AH   LINE      ---      ---       #97
      0100C450H   LINE      ---      ---       #98
      ---         BLOCKEND  ---      ---       LVL=0

      0100C451H   BLOCK     CODE     ---       LVL=0
      0100C451H   LINE      ---      ---       #100
      0100C451H   LINE      ---      ---       #101
      0100C451H   LINE      ---      ---       #102
      0100C457H   LINE      ---      ---       #103
      ---         BLOCKEND  ---      ---       LVL=0

      0100C458H   BLOCK     CODE     ---       LVL=0
      0100C458H   LINE      ---      ---       #105
      0100C458H   LINE      ---      ---       #106
      0100C458H   LINE      ---      ---       #107
      0100C45EH   LINE      ---      ---       #108
      ---         BLOCKEND  ---      ---       LVL=0

      0100C45FH   BLOCK     CODE     ---       LVL=0
      0100C45FH   LINE      ---      ---       #138
      0100C45FH   LINE      ---      ---       #139
      0100C45FH   LINE      ---      ---       #140
      0100C468H   LINE      ---      ---       #141
      0100C468H   LINE      ---      ---       #142
      0100C46BH   LINE      ---      ---       #143
      0100C46BH   LINE      ---      ---       #144
      ---         BLOCKEND  ---      ---       LVL=0

      0100C46CH   BLOCK     CODE     ---       LVL=0
      0100C46CH   LINE      ---      ---       #147
      0100C46CH   LINE      ---      ---       #148
      0100C46CH   LINE      ---      ---       #149
      0100C472H   LINE      ---      ---       #150
      ---         BLOCKEND  ---      ---       LVL=0

      0100C473H   BLOCK     CODE     ---       LVL=0
      0100C473H   LINE      ---      ---       #152
      0100C473H   LINE      ---      ---       #153
      0100C473H   LINE      ---      ---       #154
      0100C479H   LINE      ---      ---       #155
      ---         BLOCKEND  ---      ---       LVL=0

      0100C47AH   BLOCK     CODE     ---       LVL=0
      0100C47AH   LINE      ---      ---       #157
      0100C47AH   LINE      ---      ---       #158
      0100C47AH   LINE      ---      ---       #159
LX51 LINKER/LOCATER V4.66.93.0                                                        04/19/2019  09:16:48  PAGE 153


      0100C480H   LINE      ---      ---       #160
      ---         BLOCKEND  ---      ---       LVL=0

      0100C481H   BLOCK     CODE     ---       LVL=0
      0100C481H   LINE      ---      ---       #191
      0100C481H   LINE      ---      ---       #192
      0100C481H   LINE      ---      ---       #193
      0100C48AH   LINE      ---      ---       #194
      0100C48AH   LINE      ---      ---       #195
      0100C48DH   LINE      ---      ---       #196
      0100C48DH   LINE      ---      ---       #197
      ---         BLOCKEND  ---      ---       LVL=0

      0100BECDH   BLOCK     CODE     ---       LVL=0
      0100BECDH   LINE      ---      ---       #200
      0100BECDH   LINE      ---      ---       #201
      0100BECDH   LINE      ---      ---       #202
      0100BED3H   LINE      ---      ---       #204
      0100BED9H   LINE      ---      ---       #205
      0100BED9H   LINE      ---      ---       #206
      0100BEDFH   LINE      ---      ---       #207
      0100BEDFH   LINE      ---      ---       #208
      0100BEE1H   LINE      ---      ---       #209
      0100BEE3H   LINE      ---      ---       #210
      0100BEE3H   LINE      ---      ---       #212
      0100BEE3H   LINE      ---      ---       #213
      0100BEE8H   LINE      ---      ---       #214
      0100BEEAH   LINE      ---      ---       #215
      0100BEEAH   LINE      ---      ---       #216
      0100BEEAH   LINE      ---      ---       #217
      ---         BLOCKEND  ---      ---       LVL=0

      0100C48EH   BLOCK     CODE     ---       LVL=0
      0100C48EH   LINE      ---      ---       #219
      0100C48EH   LINE      ---      ---       #220
      0100C48EH   LINE      ---      ---       #221
      0100C494H   LINE      ---      ---       #222
      ---         BLOCKEND  ---      ---       LVL=0

      0100C495H   BLOCK     CODE     ---       LVL=0
      0100C495H   LINE      ---      ---       #224
      0100C495H   LINE      ---      ---       #225
      0100C495H   LINE      ---      ---       #226
      0100C49BH   LINE      ---      ---       #227
      ---         BLOCKEND  ---      ---       LVL=0

      ---         MODULE    ---      ---       KEY_MULTIFUN
      02000110H   PUBLIC    XDATA    BYTE      ?Key_Multifun?BYTE
      010090C0H   PUBLIC    CODE     ---       Key_Multifun
      000000E0H   SFRSYM    DATA     BYTE      ACC
      000000F0H   SFRSYM    DATA     BYTE      B
      000000D0H   SFRSYM    DATA     BYTE      PSW
      000000D0H.7 SFRSYM    DATA     BIT       CY
      000000D0H.6 SFRSYM    DATA     BIT       AC
      000000D0H.5 SFRSYM    DATA     BIT       F0
      000000D0H.4 SFRSYM    DATA     BIT       RS1
      000000D0H.3 SFRSYM    DATA     BIT       RS0
      000000D0H.2 SFRSYM    DATA     BIT       OV
      000000D0H.0 SFRSYM    DATA     BIT       P
      00000081H   SFRSYM    DATA     BYTE      SP
      00000082H   SFRSYM    DATA     BYTE      DPL
      00000083H   SFRSYM    DATA     BYTE      DPH
      00000087H   SFRSYM    DATA     BYTE      PCON
      0000008EH   SFRSYM    DATA     BYTE      AUXR
      000000A2H   SFRSYM    DATA     BYTE      AUXR1
LX51 LINKER/LOCATER V4.66.93.0                                                        04/19/2019  09:16:48  PAGE 154


      0000008FH   SFRSYM    DATA     BYTE      WAKE_CLKO
      00000097H   SFRSYM    DATA     BYTE      CLK_DIV
      000000A1H   SFRSYM    DATA     BYTE      BUS_SPEED
      000000A8H   SFRSYM    DATA     BYTE      IE
      000000A8H.7 SFRSYM    DATA     BIT       EA
      000000A8H.6 SFRSYM    DATA     BIT       ELVD
      000000A8H.5 SFRSYM    DATA     BIT       EADC
      000000A8H.4 SFRSYM    DATA     BIT       ES
      000000A8H.3 SFRSYM    DATA     BIT       ET1
      000000A8H.2 SFRSYM    DATA     BIT       EX1
      000000A8H.1 SFRSYM    DATA     BIT       ET0
      000000A8H.0 SFRSYM    DATA     BIT       EX0
      000000AFH   SFRSYM    DATA     BYTE      IE2
      000000B8H   SFRSYM    DATA     BYTE      IP
      000000B8H.7 SFRSYM    DATA     BIT       PPCA
      000000B8H.6 SFRSYM    DATA     BIT       PLVD
      000000B8H.5 SFRSYM    DATA     BIT       PADC
      000000B8H.4 SFRSYM    DATA     BIT       PS
      000000B8H.3 SFRSYM    DATA     BIT       PT1
      000000B8H.2 SFRSYM    DATA     BIT       PX1
      000000B8H.1 SFRSYM    DATA     BIT       PT0
      000000B8H.0 SFRSYM    DATA     BIT       PX0
      000000B7H   SFRSYM    DATA     BYTE      IPH
      000000B5H   SFRSYM    DATA     BYTE      IP2
      000000B6H   SFRSYM    DATA     BYTE      IPH2
      00000080H   SFRSYM    DATA     BYTE      P0
      00000080H.0 SFRSYM    DATA     BIT       P00
      00000080H.1 SFRSYM    DATA     BIT       P01
      00000080H.2 SFRSYM    DATA     BIT       P02
      00000080H.3 SFRSYM    DATA     BIT       P03
      00000080H.4 SFRSYM    DATA     BIT       P04
      00000080H.5 SFRSYM    DATA     BIT       P05
      00000080H.6 SFRSYM    DATA     BIT       P06
      00000080H.7 SFRSYM    DATA     BIT       P07
      00000094H   SFRSYM    DATA     BYTE      P0M0
      00000093H   SFRSYM    DATA     BYTE      P0M1
      00000090H   SFRSYM    DATA     BYTE      P1
      00000090H.0 SFRSYM    DATA     BIT       P10
      00000090H.1 SFRSYM    DATA     BIT       P11
      00000090H.2 SFRSYM    DATA     BIT       P12
      00000090H.3 SFRSYM    DATA     BIT       P13
      00000090H.4 SFRSYM    DATA     BIT       P14
      00000090H.5 SFRSYM    DATA     BIT       P15
      00000090H.6 SFRSYM    DATA     BIT       P16
      00000090H.7 SFRSYM    DATA     BIT       P17
      00000092H   SFRSYM    DATA     BYTE      P1M0
      00000091H   SFRSYM    DATA     BYTE      P1M1
      0000009DH   SFRSYM    DATA     BYTE      P1ASF
      000000A0H   SFRSYM    DATA     BYTE      P2
      000000A0H.0 SFRSYM    DATA     BIT       P20
      000000A0H.1 SFRSYM    DATA     BIT       P21
      000000A0H.2 SFRSYM    DATA     BIT       P22
      000000A0H.3 SFRSYM    DATA     BIT       P23
      000000A0H.4 SFRSYM    DATA     BIT       P24
      000000A0H.5 SFRSYM    DATA     BIT       P25
      000000A0H.6 SFRSYM    DATA     BIT       P26
      000000A0H.7 SFRSYM    DATA     BIT       P27
      00000096H   SFRSYM    DATA     BYTE      P2M0
      00000095H   SFRSYM    DATA     BYTE      P2M1
      000000B0H   SFRSYM    DATA     BYTE      P3
      000000B0H.0 SFRSYM    DATA     BIT       P30
      000000B0H.1 SFRSYM    DATA     BIT       P31
      000000B0H.2 SFRSYM    DATA     BIT       P32
      000000B0H.3 SFRSYM    DATA     BIT       P33
      000000B0H.4 SFRSYM    DATA     BIT       P34
LX51 LINKER/LOCATER V4.66.93.0                                                        04/19/2019  09:16:48  PAGE 155


      000000B0H.5 SFRSYM    DATA     BIT       P35
      000000B0H.6 SFRSYM    DATA     BIT       P36
      000000B0H.7 SFRSYM    DATA     BIT       P37
      000000B2H   SFRSYM    DATA     BYTE      P3M0
      000000B1H   SFRSYM    DATA     BYTE      P3M1
      000000C0H   SFRSYM    DATA     BYTE      P4
      000000C0H.0 SFRSYM    DATA     BIT       P40
      000000C0H.1 SFRSYM    DATA     BIT       P41
      000000C0H.2 SFRSYM    DATA     BIT       P42
      000000C0H.3 SFRSYM    DATA     BIT       P43
      000000C0H.4 SFRSYM    DATA     BIT       P44
      000000C0H.5 SFRSYM    DATA     BIT       P45
      000000C0H.6 SFRSYM    DATA     BIT       P46
      000000C0H.7 SFRSYM    DATA     BIT       P47
      000000B4H   SFRSYM    DATA     BYTE      P4M0
      000000B3H   SFRSYM    DATA     BYTE      P4M1
      000000BBH   SFRSYM    DATA     BYTE      P4SW
      000000C8H   SFRSYM    DATA     BYTE      P5
      000000CAH   SFRSYM    DATA     BYTE      P5M0
      000000C9H   SFRSYM    DATA     BYTE      P5M1
      00000088H   SFRSYM    DATA     BYTE      TCON
      00000088H.7 SFRSYM    DATA     BIT       TF1
      00000088H.6 SFRSYM    DATA     BIT       TR1
      00000088H.5 SFRSYM    DATA     BIT       TF0
      00000088H.4 SFRSYM    DATA     BIT       TR0
      00000088H.3 SFRSYM    DATA     BIT       IE1
      00000088H.2 SFRSYM    DATA     BIT       IT1
      00000088H.1 SFRSYM    DATA     BIT       IE0
      00000088H.0 SFRSYM    DATA     BIT       IT0
      00000089H   SFRSYM    DATA     BYTE      TMOD
      0000008AH   SFRSYM    DATA     BYTE      TL0
      0000008CH   SFRSYM    DATA     BYTE      TH0
      0000008BH   SFRSYM    DATA     BYTE      TL1
      0000008DH   SFRSYM    DATA     BYTE      TH1
      00000098H   SFRSYM    DATA     BYTE      SCON
      00000098H.7 SFRSYM    DATA     BIT       SM0
      00000098H.6 SFRSYM    DATA     BIT       SM1
      00000098H.5 SFRSYM    DATA     BIT       SM2
      00000098H.4 SFRSYM    DATA     BIT       REN
      00000098H.3 SFRSYM    DATA     BIT       TB8
      00000098H.2 SFRSYM    DATA     BIT       RB8
      00000098H.1 SFRSYM    DATA     BIT       TI
      00000098H.0 SFRSYM    DATA     BIT       RI
      00000099H   SFRSYM    DATA     BYTE      SBUF
      000000B9H   SFRSYM    DATA     BYTE      SADEN
      000000A9H   SFRSYM    DATA     BYTE      SADDR
      0000009AH   SFRSYM    DATA     BYTE      S2CON
      0000009BH   SFRSYM    DATA     BYTE      S2BUF
      0000009CH   SFRSYM    DATA     BYTE      BRT
      000000C1H   SFRSYM    DATA     BYTE      WDT_CONTR
      000000D8H   SFRSYM    DATA     BYTE      CCON
      000000D8H.7 SFRSYM    DATA     BIT       CF
      000000D8H.6 SFRSYM    DATA     BIT       CR
      000000D8H.1 SFRSYM    DATA     BIT       CCF1
      000000D8H.0 SFRSYM    DATA     BIT       CCF0
      000000D9H   SFRSYM    DATA     BYTE      CMOD
      000000E9H   SFRSYM    DATA     BYTE      CL
      000000F9H   SFRSYM    DATA     BYTE      CH
      000000DAH   SFRSYM    DATA     BYTE      CCAPM0
      000000DBH   SFRSYM    DATA     BYTE      CCAPM1
      000000EAH   SFRSYM    DATA     BYTE      CCAP0L
      000000FAH   SFRSYM    DATA     BYTE      CCAP0H
      000000EBH   SFRSYM    DATA     BYTE      CCAP1L
      000000FBH   SFRSYM    DATA     BYTE      CCAP1H
      000000F2H   SFRSYM    DATA     BYTE      PCA_PWM0
LX51 LINKER/LOCATER V4.66.93.0                                                        04/19/2019  09:16:48  PAGE 156


      000000F3H   SFRSYM    DATA     BYTE      PCA_PWM1
      000000BCH   SFRSYM    DATA     BYTE      ADC_CONTR
      000000BDH   SFRSYM    DATA     BYTE      ADC_RES
      000000BEH   SFRSYM    DATA     BYTE      ADC_RESL
      000000CEH   SFRSYM    DATA     BYTE      SPCTL
      000000CDH   SFRSYM    DATA     BYTE      SPSTAT
      000000CFH   SFRSYM    DATA     BYTE      SPDAT
      000000C2H   SFRSYM    DATA     BYTE      IAP_DATA
      000000C3H   SFRSYM    DATA     BYTE      IAP_ADDRH
      000000C4H   SFRSYM    DATA     BYTE      IAP_ADDRL
      000000C5H   SFRSYM    DATA     BYTE      IAP_CMD
      000000C6H   SFRSYM    DATA     BYTE      IAP_TRIG
      000000C7H   SFRSYM    DATA     BYTE      IAP_CONTR

      010090BAH   BLOCK     CODE     ---       LVL=0
      010090C0H   LINE      ---      ---       #6
      010090C0H   LINE      ---      ---       #7
      010090BAH   SYMBOL    CODE     NEAR LAB  ?L?COM010F
      02000110H   SYMBOL    XDATA    ---       Element
      0200011EH   SYMBOL    XDATA    ---       Variate
      010090C0H   BLOCK     CODE     NEAR LAB  LVL=1
      010090C0H   LINE      ---      ---       #9
      010090D2H   LINE      ---      ---       #10
      010090D2H   LINE      ---      ---       #12
      010090D2H   LINE      ---      ---       #13
      010090DEH   LINE      ---      ---       #14
      010090DEH   LINE      ---      ---       #15
      010090E2H   LINE      ---      ---       #16
      010090E2H   LINE      ---      ---       #17
      010090E4H   LINE      ---      ---       #19
      010090E4H   LINE      ---      ---       #20
      010090EEH   LINE      ---      ---       #22
      010090EEH   LINE      ---      ---       #23
      010090EEH   LINE      ---      ---       #24
      010090EEH   LINE      ---      ---       #25
      010090F7H   LINE      ---      ---       #26
      010090F7H   LINE      ---      ---       #27
      01009101H   LINE      ---      ---       #29
      01009104H   LINE      ---      ---       #30
      01009106H   LINE      ---      ---       #31
      0100910FH   LINE      ---      ---       #32
      0100910FH   LINE      ---      ---       #33
      01009128H   LINE      ---      ---       #34
      01009128H   LINE      ---      ---       #35
      01009130H   LINE      ---      ---       #37
      01009133H   LINE      ---      ---       #38
      01009135H   LINE      ---      ---       #40
      01009135H   LINE      ---      ---       #41
      01009139H   LINE      ---      ---       #42
      01009139H   LINE      ---      ---       #43
      0100913BH   LINE      ---      ---       #45
      0100913BH   LINE      ---      ---       #46
      0100913FH   LINE      ---      ---       #47
      0100913FH   LINE      ---      ---       #48
      01009141H   LINE      ---      ---       #49
      01009141H   LINE      ---      ---       #50
      0100914AH   LINE      ---      ---       #51
      0100914AH   LINE      ---      ---       #52
      01009154H   LINE      ---      ---       #54
      01009158H   LINE      ---      ---       #55
      01009159H   LINE      ---      ---       #56
      01009160H   LINE      ---      ---       #57
      01009160H   LINE      ---      ---       #58
      0100917AH   LINE      ---      ---       #62
      0100917AH   LINE      ---      ---       #64
LX51 LINKER/LOCATER V4.66.93.0                                                        04/19/2019  09:16:48  PAGE 157


      01009187H   LINE      ---      ---       #65
      0100918BH   LINE      ---      ---       #68
      01009194H   LINE      ---      ---       #69
      01009194H   LINE      ---      ---       #70
      01009194H   LINE      ---      ---       #73
      01009194H   LINE      ---      ---       #74
      0100919BH   LINE      ---      ---       #75
      0100919BH   LINE      ---      ---       #76
      0100919BH   LINE      ---      ---       #77
      0100919BH   LINE      ---      ---       #79
      0100919BH   LINE      ---      ---       #80
      0100919BH   LINE      ---      ---       #81
      02000361H   SYMBOL    XDATA    BYTE      step_step_times
      ---         BLOCKEND  CODE     ---       LVL=1
      ---         BLOCKEND  CODE     ---       LVL=0

      ---         MODULE    ---      ---       GUI
      0200033CH   PUBLIC    XDATA    BYTE      Display_Temp_Kind
      01008E12H   PUBLIC    CODE     ---       HmiScreenSaverModeFunc
      0100893FH   PUBLIC    CODE     ---       HmiScreenSaverMode_Tik_Cnt
      0100C51DH   PUBLIC    CODE     ---       HmiSetInExpFunc
      01009229H   PUBLIC    CODE     ---       HmiSetTimeFunc
      0100ABF6H   PUBLIC    CODE     ---       HmiSetTempChamberFunc
      0100AA4AH   PUBLIC    CODE     ---       HmiSetTempPatientFunc
      0100AD87H   PUBLIC    CODE     ---       HmiRunningFunc
      0100689EH   PUBLIC    CODE     ---       HmiNon_InvasiveSelFunc
      0100C641H   PUBLIC    CODE     ---       HmiNon_InvasiveSel_Tik_Cnt
      01006BF7H   PUBLIC    CODE     ---       HmiFactoryDefaultFunc
      0100C628H   PUBLIC    CODE     ---       HmiFactoryDefault_Tik_Cnt
      01007DA9H   PUBLIC    CODE     ---       HmiPostFunc
      0100C61BH   PUBLIC    CODE     ---       HmiPostFunc_Tik_Cnt
      01007A98H   PUBLIC    CODE     ---       HmiServiceModeFunc
      01006427H   PUBLIC    CODE     ---       _HmiEnterToWorkStateFunc
      0100941AH   PUBLIC    CODE     ---       _DisPlayTime
      000000E0H   SFRSYM    DATA     BYTE      ACC
      000000F0H   SFRSYM    DATA     BYTE      B
      000000D0H   SFRSYM    DATA     BYTE      PSW
      000000D0H.7 SFRSYM    DATA     BIT       CY
      000000D0H.6 SFRSYM    DATA     BIT       AC
      000000D0H.5 SFRSYM    DATA     BIT       F0
      000000D0H.4 SFRSYM    DATA     BIT       RS1
      000000D0H.3 SFRSYM    DATA     BIT       RS0
      000000D0H.2 SFRSYM    DATA     BIT       OV
      000000D0H.0 SFRSYM    DATA     BIT       P
      00000081H   SFRSYM    DATA     BYTE      SP
      00000082H   SFRSYM    DATA     BYTE      DPL
      00000083H   SFRSYM    DATA     BYTE      DPH
      00000087H   SFRSYM    DATA     BYTE      PCON
      0000008EH   SFRSYM    DATA     BYTE      AUXR
      000000A2H   SFRSYM    DATA     BYTE      AUXR1
      0000008FH   SFRSYM    DATA     BYTE      WAKE_CLKO
      00000097H   SFRSYM    DATA     BYTE      CLK_DIV
      000000A1H   SFRSYM    DATA     BYTE      BUS_SPEED
      000000A8H   SFRSYM    DATA     BYTE      IE
      000000A8H.7 SFRSYM    DATA     BIT       EA
      000000A8H.6 SFRSYM    DATA     BIT       ELVD
      000000A8H.5 SFRSYM    DATA     BIT       EADC
      000000A8H.4 SFRSYM    DATA     BIT       ES
      000000A8H.3 SFRSYM    DATA     BIT       ET1
      000000A8H.2 SFRSYM    DATA     BIT       EX1
      000000A8H.1 SFRSYM    DATA     BIT       ET0
      000000A8H.0 SFRSYM    DATA     BIT       EX0
      000000AFH   SFRSYM    DATA     BYTE      IE2
      000000B8H   SFRSYM    DATA     BYTE      IP
      000000B8H.7 SFRSYM    DATA     BIT       PPCA
LX51 LINKER/LOCATER V4.66.93.0                                                        04/19/2019  09:16:48  PAGE 158


      000000B8H.6 SFRSYM    DATA     BIT       PLVD
      000000B8H.5 SFRSYM    DATA     BIT       PADC
      000000B8H.4 SFRSYM    DATA     BIT       PS
      000000B8H.3 SFRSYM    DATA     BIT       PT1
      000000B8H.2 SFRSYM    DATA     BIT       PX1
      000000B8H.1 SFRSYM    DATA     BIT       PT0
      000000B8H.0 SFRSYM    DATA     BIT       PX0
      000000B7H   SFRSYM    DATA     BYTE      IPH
      000000B5H   SFRSYM    DATA     BYTE      IP2
      000000B6H   SFRSYM    DATA     BYTE      IPH2
      00000080H   SFRSYM    DATA     BYTE      P0
      00000080H.0 SFRSYM    DATA     BIT       P00
      00000080H.1 SFRSYM    DATA     BIT       P01
      00000080H.2 SFRSYM    DATA     BIT       P02
      00000080H.3 SFRSYM    DATA     BIT       P03
      00000080H.4 SFRSYM    DATA     BIT       P04
      00000080H.5 SFRSYM    DATA     BIT       P05
      00000080H.6 SFRSYM    DATA     BIT       P06
      00000080H.7 SFRSYM    DATA     BIT       P07
      00000094H   SFRSYM    DATA     BYTE      P0M0
      00000093H   SFRSYM    DATA     BYTE      P0M1
      00000090H   SFRSYM    DATA     BYTE      P1
      00000090H.0 SFRSYM    DATA     BIT       P10
      00000090H.1 SFRSYM    DATA     BIT       P11
      00000090H.2 SFRSYM    DATA     BIT       P12
      00000090H.3 SFRSYM    DATA     BIT       P13
      00000090H.4 SFRSYM    DATA     BIT       P14
      00000090H.5 SFRSYM    DATA     BIT       P15
      00000090H.6 SFRSYM    DATA     BIT       P16
      00000090H.7 SFRSYM    DATA     BIT       P17
      00000092H   SFRSYM    DATA     BYTE      P1M0
      00000091H   SFRSYM    DATA     BYTE      P1M1
      0000009DH   SFRSYM    DATA     BYTE      P1ASF
      000000A0H   SFRSYM    DATA     BYTE      P2
      000000A0H.0 SFRSYM    DATA     BIT       P20
      000000A0H.1 SFRSYM    DATA     BIT       P21
      000000A0H.2 SFRSYM    DATA     BIT       P22
      000000A0H.3 SFRSYM    DATA     BIT       P23
      000000A0H.4 SFRSYM    DATA     BIT       P24
      000000A0H.5 SFRSYM    DATA     BIT       P25
      000000A0H.6 SFRSYM    DATA     BIT       P26
      000000A0H.7 SFRSYM    DATA     BIT       P27
      00000096H   SFRSYM    DATA     BYTE      P2M0
      00000095H   SFRSYM    DATA     BYTE      P2M1
      000000B0H   SFRSYM    DATA     BYTE      P3
      000000B0H.0 SFRSYM    DATA     BIT       P30
      000000B0H.1 SFRSYM    DATA     BIT       P31
      000000B0H.2 SFRSYM    DATA     BIT       P32
      000000B0H.3 SFRSYM    DATA     BIT       P33
      000000B0H.4 SFRSYM    DATA     BIT       P34
      000000B0H.5 SFRSYM    DATA     BIT       P35
      000000B0H.6 SFRSYM    DATA     BIT       P36
      000000B0H.7 SFRSYM    DATA     BIT       P37
      000000B2H   SFRSYM    DATA     BYTE      P3M0
      000000B1H   SFRSYM    DATA     BYTE      P3M1
      000000C0H   SFRSYM    DATA     BYTE      P4
      000000C0H.0 SFRSYM    DATA     BIT       P40
      000000C0H.1 SFRSYM    DATA     BIT       P41
      000000C0H.2 SFRSYM    DATA     BIT       P42
      000000C0H.3 SFRSYM    DATA     BIT       P43
      000000C0H.4 SFRSYM    DATA     BIT       P44
      000000C0H.5 SFRSYM    DATA     BIT       P45
      000000C0H.6 SFRSYM    DATA     BIT       P46
      000000C0H.7 SFRSYM    DATA     BIT       P47
      000000B4H   SFRSYM    DATA     BYTE      P4M0
LX51 LINKER/LOCATER V4.66.93.0                                                        04/19/2019  09:16:48  PAGE 159


      000000B3H   SFRSYM    DATA     BYTE      P4M1
      000000BBH   SFRSYM    DATA     BYTE      P4SW
      000000C8H   SFRSYM    DATA     BYTE      P5
      000000CAH   SFRSYM    DATA     BYTE      P5M0
      000000C9H   SFRSYM    DATA     BYTE      P5M1
      00000088H   SFRSYM    DATA     BYTE      TCON
      00000088H.7 SFRSYM    DATA     BIT       TF1
      00000088H.6 SFRSYM    DATA     BIT       TR1
      00000088H.5 SFRSYM    DATA     BIT       TF0
      00000088H.4 SFRSYM    DATA     BIT       TR0
      00000088H.3 SFRSYM    DATA     BIT       IE1
      00000088H.2 SFRSYM    DATA     BIT       IT1
      00000088H.1 SFRSYM    DATA     BIT       IE0
      00000088H.0 SFRSYM    DATA     BIT       IT0
      00000089H   SFRSYM    DATA     BYTE      TMOD
      0000008AH   SFRSYM    DATA     BYTE      TL0
      0000008CH   SFRSYM    DATA     BYTE      TH0
      0000008BH   SFRSYM    DATA     BYTE      TL1
      0000008DH   SFRSYM    DATA     BYTE      TH1
      00000098H   SFRSYM    DATA     BYTE      SCON
      00000098H.7 SFRSYM    DATA     BIT       SM0
      00000098H.6 SFRSYM    DATA     BIT       SM1
      00000098H.5 SFRSYM    DATA     BIT       SM2
      00000098H.4 SFRSYM    DATA     BIT       REN
      00000098H.3 SFRSYM    DATA     BIT       TB8
      00000098H.2 SFRSYM    DATA     BIT       RB8
      00000098H.1 SFRSYM    DATA     BIT       TI
      00000098H.0 SFRSYM    DATA     BIT       RI
      00000099H   SFRSYM    DATA     BYTE      SBUF
      000000B9H   SFRSYM    DATA     BYTE      SADEN
      000000A9H   SFRSYM    DATA     BYTE      SADDR
      0000009AH   SFRSYM    DATA     BYTE      S2CON
      0000009BH   SFRSYM    DATA     BYTE      S2BUF
      0000009CH   SFRSYM    DATA     BYTE      BRT
      000000C1H   SFRSYM    DATA     BYTE      WDT_CONTR
      000000D8H   SFRSYM    DATA     BYTE      CCON
      000000D8H.7 SFRSYM    DATA     BIT       CF
      000000D8H.6 SFRSYM    DATA     BIT       CR
      000000D8H.1 SFRSYM    DATA     BIT       CCF1
      000000D8H.0 SFRSYM    DATA     BIT       CCF0
      000000D9H   SFRSYM    DATA     BYTE      CMOD
      000000E9H   SFRSYM    DATA     BYTE      CL
      000000F9H   SFRSYM    DATA     BYTE      CH
      000000DAH   SFRSYM    DATA     BYTE      CCAPM0
      000000DBH   SFRSYM    DATA     BYTE      CCAPM1
      000000EAH   SFRSYM    DATA     BYTE      CCAP0L
      000000FAH   SFRSYM    DATA     BYTE      CCAP0H
      000000EBH   SFRSYM    DATA     BYTE      CCAP1L
      000000FBH   SFRSYM    DATA     BYTE      CCAP1H
      000000F2H   SFRSYM    DATA     BYTE      PCA_PWM0
      000000F3H   SFRSYM    DATA     BYTE      PCA_PWM1
      000000BCH   SFRSYM    DATA     BYTE      ADC_CONTR
      000000BDH   SFRSYM    DATA     BYTE      ADC_RES
      000000BEH   SFRSYM    DATA     BYTE      ADC_RESL
      000000CEH   SFRSYM    DATA     BYTE      SPCTL
      000000CDH   SFRSYM    DATA     BYTE      SPSTAT
      000000CFH   SFRSYM    DATA     BYTE      SPDAT
      000000C2H   SFRSYM    DATA     BYTE      IAP_DATA
      000000C3H   SFRSYM    DATA     BYTE      IAP_ADDRH
      000000C4H   SFRSYM    DATA     BYTE      IAP_ADDRL
      000000C5H   SFRSYM    DATA     BYTE      IAP_CMD
      000000C6H   SFRSYM    DATA     BYTE      IAP_TRIG
      000000C7H   SFRSYM    DATA     BYTE      IAP_CONTR
      0200033DH   SYMBOL    XDATA    BYTE      Tik_POST_Tick_100mS
      0200033EH   SYMBOL    XDATA    BYTE      Tik_HmiFac_Tick_100mS_10S
LX51 LINKER/LOCATER V4.66.93.0                                                        04/19/2019  09:16:48  PAGE 160


      0200033FH   SYMBOL    XDATA    BYTE      OK_not_Pressed_flag
      02000340H   SYMBOL    XDATA    BYTE      HmiFac_Mode_Changed
      02000341H   SYMBOL    XDATA    BYTE      Tik_HmiNon_InvasiveSel_Tick_100mS
      02000342H   SYMBOL    XDATA    WORD      Tik_ScreenSaver_Tick_100mS
      02000344H   SYMBOL    XDATA    WORD      Remeber_Temp_Value
      0100AD34H   SYMBOL    CODE     ---       _Display_SET_Temp
      0100C64EH   SYMBOL    CODE     ---       EnterSetTime
      0100C60EH   SYMBOL    CODE     ---       EnterSetInExp
      0100C65AH   SYMBOL    CODE     ---       Date_Is_Correct
      0100C49CH   SYMBOL    CODE     ---       _Display_In_Exp_Ratio
      010062A6H   SYMBOL    CONST    ---       _?ix1000
      010062B8H   SYMBOL    CONST    ---       _?ix1001
      010062C9H   SYMBOL    CONST    ---       _?ix1002
      010062D0H   SYMBOL    CONST    ---       _?ix1003
      010062D6H   SYMBOL    CONST    ---       _?ix1004
      010062E5H   SYMBOL    CONST    ---       _?ix1005
      02000346H   SYMBOL    XDATA    BYTE      Tik_HmiFac_Tick_100mS_OK_flash
      010062F4H   SYMBOL    CONST    ---       _?ix1006
      0100630BH   SYMBOL    CONST    ---       _?ix1007
      01006322H   SYMBOL    CONST    ---       _?ix1008
      01006334H   SYMBOL    CONST    ---       _?ix1009
      01006343H   SYMBOL    CONST    ---       _?ix1010
      02000347H   SYMBOL    XDATA    BYTE      SetTimeKind
      02000348H   SYMBOL    XDATA    ---       TempTime
      0200034FH   SYMBOL    XDATA    BYTE      In_Exp_Ratio_temp

      0100C49CH   BLOCK     CODE     ---       LVL=0
      0100C49CH   LINE      ---      ---       #27
      0100C4A1H   LINE      ---      ---       #28
      0100C4A1H   LINE      ---      ---       #29
      0100C4A4H   LINE      ---      ---       #30
      0100C4A4H   LINE      ---      ---       #31
      0100C4B3H   LINE      ---      ---       #33
      0100C4B9H   LINE      ---      ---       #34
      0100C4BDH   LINE      ---      ---       #35
      0100C4C1H   LINE      ---      ---       #36
      0100C4CEH   LINE      ---      ---       #37
      0100C4CEH   LINE      ---      ---       #38
      0100C4D1H   LINE      ---      ---       #39
      0100C4D3H   LINE      ---      ---       #40
      0100C4D5H   LINE      ---      ---       #42
      0100C4D5H   LINE      ---      ---       #43
      0100C4D8H   LINE      ---      ---       #44
      0100C4DDH   LINE      ---      ---       #45
      0100C4DDH   LINE      ---      ---       #46
      0100C4E2H   LINE      ---      ---       #47
      0100C4EEH   LINE      ---      ---       #48
      0100C4F0H   LINE      ---      ---       #50
      0100C4F0H   LINE      ---      ---       #51
      02000196H   SYMBOL    XDATA    BYTE      Dis
      00000005H   SYMBOL    DATA     BYTE      Dp_en
      ---         BLOCKEND  ---      ---       LVL=0

      0100941AH   BLOCK     CODE     ---       LVL=0
      0100941AH   LINE      ---      ---       #57
      0100941FH   LINE      ---      ---       #58
      02000110H   SYMBOL    XDATA    ---       TempTime
      02000113H   SYMBOL    XDATA    BYTE      TimeKind
      0100941FH   BLOCK     CODE     NEAR LAB  LVL=1
      0100941FH   LINE      ---      ---       #63
      01009425H   LINE      ---      ---       #64
      0100942AH   LINE      ---      ---       #65
      0100942AH   LINE      ---      ---       #66
      01009439H   LINE      ---      ---       #67
      01009453H   LINE      ---      ---       #70
LX51 LINKER/LOCATER V4.66.93.0                                                        04/19/2019  09:16:48  PAGE 161


      01009455H   LINE      ---      ---       #71
      0100945DH   LINE      ---      ---       #72
      0100945DH   LINE      ---      ---       #73
      01009480H   LINE      ---      ---       #77
      01009482H   LINE      ---      ---       #78
      0100948AH   LINE      ---      ---       #79
      0100948AH   LINE      ---      ---       #80
      010094A3H   LINE      ---      ---       #82
      010094A5H   LINE      ---      ---       #83
      010094ADH   LINE      ---      ---       #84
      010094ADH   LINE      ---      ---       #85
      010094CEH   LINE      ---      ---       #89
      010094D0H   LINE      ---      ---       #90
      010094D8H   LINE      ---      ---       #91
      010094D8H   LINE      ---      ---       #92
      010094F9H   LINE      ---      ---       #96
      010094FBH   LINE      ---      ---       #97
      01009503H   LINE      ---      ---       #98
      01009503H   LINE      ---      ---       #99
      01009523H   LINE      ---      ---       #103
      01009523H   LINE      ---      ---       #105
      01009523H   LINE      ---      ---       #107
      01009523H   LINE      ---      ---       #108
      02000114H   SYMBOL    XDATA    BYTE      i
      02000115H   SYMBOL    XDATA    BYTE      color
      ---         BLOCKEND  CODE     ---       LVL=1
      ---         BLOCKEND  CODE     ---       LVL=0

      0100AD34H   BLOCK     CODE     ---       LVL=0
      0100AD34H   LINE      ---      ---       #111
      0100AD36H   LINE      ---      ---       #112
      0100AD36H   LINE      ---      ---       #113
      0100AD39H   LINE      ---      ---       #115
      0100AD5BH   LINE      ---      ---       #118
      02000196H   SYMBOL    XDATA    WORD      Temp
      ---         BLOCKEND  ---      ---       LVL=0

      01006423H   BLOCK     CODE     ---       LVL=0
      01006427H   LINE      ---      ---       #123
      01006427H   LINE      ---      ---       #124
      01006427H   LINE      ---      ---       #125
      0100644AH   LINE      ---      ---       #126
      0100644AH   LINE      ---      ---       #127
      0100644AH   LINE      ---      ---       #128
      0100644AH   LINE      ---      ---       #129
      0100644AH   LINE      ---      ---       #130
      0100644AH   LINE      ---      ---       #131
      0100644AH   LINE      ---      ---       #133
      0100644CH   LINE      ---      ---       #134
      0100644CH   LINE      ---      ---       #135
      0100644CH   LINE      ---      ---       #136
      0100644CH   LINE      ---      ---       #137
      01006451H   LINE      ---      ---       #138
      01006453H   LINE      ---      ---       #139
      01006455H   LINE      ---      ---       #140
      0100645EH   LINE      ---      ---       #141
      0100645EH   LINE      ---      ---       #142
      0100645EH   LINE      ---      ---       #143
      0100645EH   LINE      ---      ---       #144
      0100645EH   LINE      ---      ---       #145
      01006463H   LINE      ---      ---       #146
      01006465H   LINE      ---      ---       #149
      01006465H   LINE      ---      ---       #150
      01006467H   LINE      ---      ---       #152
      0100646CH   LINE      ---      ---       #153
LX51 LINKER/LOCATER V4.66.93.0                                                        04/19/2019  09:16:48  PAGE 162


      01006471H   LINE      ---      ---       #155
      01006473H   LINE      ---      ---       #156
      01006488H   LINE      ---      ---       #157
      0100648DH   LINE      ---      ---       #160
      01006423H   SYMBOL    CODE     NEAR LAB  ?L?COM01D3
      00000007H   SYMBOL    DATA     BYTE      State
      0100648DH   BLOCK     CODE     NEAR LAB  LVL=1
      0100648DH   LINE      ---      ---       #161
      0100649CH   LINE      ---      ---       #162
      010064AFH   LINE      ---      ---       #163
      010064C2H   LINE      ---      ---       #164
      010064D5H   LINE      ---      ---       #165
      010064E4H   LINE      ---      ---       #166
      010064F3H   LINE      ---      ---       #168
      0100650AH   LINE      ---      ---       #170
      01006521H   LINE      ---      ---       #172
      01006532H   LINE      ---      ---       #174
      01006543H   LINE      ---      ---       #177
      01006545H   LINE      ---      ---       #178
      01006568H   LINE      ---      ---       #185
      0100657DH   LINE      ---      ---       #186
      02000148H   SYMBOL    XDATA    ---       str_previousSetting
      0200015AH   SYMBOL    XDATA    ---       str_defaultSetting
      0200016BH   SYMBOL    XDATA    ---       str_select
      02000172H   SYMBOL    XDATA    ---       str_enter
      02000178H   SYMBOL    XDATA    ---       str_Patient39C
      02000187H   SYMBOL    XDATA    ---       str_chamber36C
      ---         BLOCKEND  CODE     ---       LVL=1
      0100658BH   LINE      ---      ---       #190
      010065A8H   LINE      ---      ---       #193
      010065A8H   LINE      ---      ---       #194
      010065A8H   LINE      ---      ---       #195
      010065A8H   LINE      ---      ---       #197
      010065A8H   LINE      ---      ---       #198
      010065A8H   LINE      ---      ---       #199
      010065B1H   LINE      ---      ---       #203
      010065B6H   LINE      ---      ---       #204
      010065C1H   LINE      ---      ---       #207
      010065C3H   LINE      ---      ---       #208
      010065C4H   LINE      ---      ---       #209
      010065C4H   LINE      ---      ---       #211
      010065C4H   LINE      ---      ---       #212
      010065C4H   LINE      ---      ---       #214
      010065C6H   LINE      ---      ---       #215
      010065C8H   LINE      ---      ---       #216
      010065CDH   LINE      ---      ---       #217
      010065D2H   LINE      ---      ---       #218
      010065D4H   LINE      ---      ---       #219
      010065DBH   LINE      ---      ---       #220
      010065DCH   LINE      ---      ---       #221
      010065DCH   LINE      ---      ---       #223
      010065DCH   LINE      ---      ---       #224
      010065DCH   LINE      ---      ---       #225
      010065DFH   LINE      ---      ---       #226
      010065DFH   LINE      ---      ---       #227
      010065DFH   LINE      ---      ---       #229
      010065E1H   LINE      ---      ---       #230
      010065E1H   LINE      ---      ---       #232
      010065E1H   LINE      ---      ---       #233
      010065E1H   LINE      ---      ---       #234
      010065E7H   LINE      ---      ---       #235
      010065ECH   LINE      ---      ---       #236
      010065F2H   LINE      ---      ---       #237
      010065F2H   LINE      ---      ---       #238
      010065F2H   LINE      ---      ---       #240
LX51 LINKER/LOCATER V4.66.93.0                                                        04/19/2019  09:16:48  PAGE 163


      010065F2H   LINE      ---      ---       #241
      010065F2H   LINE      ---      ---       #242
      010065F5H   LINE      ---      ---       #243
      010065F5H   LINE      ---      ---       #244
      010065F5H   LINE      ---      ---       #246
      010065F5H   LINE      ---      ---       #247
      010065F5H   LINE      ---      ---       #249
      010065F8H   LINE      ---      ---       #250
      010065F8H   LINE      ---      ---       #251
      010065F8H   LINE      ---      ---       #252
      010065F8H   LINE      ---      ---       #253
      010065F8H   LINE      ---      ---       #254
      010065F8H   LINE      ---      ---       #255
      010065F8H   LINE      ---      ---       #256
      010065F8H   LINE      ---      ---       #257
      010065F8H   LINE      ---      ---       #258
      010065F8H   LINE      ---      ---       #260
      010065F8H   LINE      ---      ---       #261
      010065F8H   LINE      ---      ---       #262
      010065F8H   LINE      CODE     ---       #262

      01007A98H   BLOCK     CODE     ---       LVL=0
      01007A98H   LINE      ---      ---       #265
      01007A98H   LINE      ---      ---       #266
      01007A98H   BLOCK     CODE     NEAR LAB  LVL=1
      01007A98H   LINE      ---      ---       #270
      01007AA2H   LINE      ---      ---       #271
      01007AA2H   LINE      ---      ---       #272
      01007AA9H   LINE      ---      ---       #273
      01007ABCH   LINE      ---      ---       #274
      01007AC1H   LINE      ---      ---       #275
      01007ADFH   LINE      ---      ---       #277
      01007AE1H   LINE      ---      ---       #278
      01007AE3H   LINE      ---      ---       #279
      01007AEFH   LINE      ---      ---       #280
      01007AEFH   LINE      ---      ---       #281
      01007AF6H   LINE      ---      ---       #282
      01007AF6H   LINE      ---      ---       #283
      01007AFEH   LINE      ---      ---       #284
      01007B0FH   LINE      ---      ---       #285
      01007B15H   LINE      ---      ---       #286
      01007B29H   LINE      ---      ---       #288
      01007B29H   LINE      ---      ---       #289
      01007B2BH   LINE      ---      ---       #290
      01007B37H   LINE      ---      ---       #291
      01007B37H   LINE      ---      ---       #292
      01007B41H   LINE      ---      ---       #293
      01007B41H   LINE      ---      ---       #294
      01007B49H   LINE      ---      ---       #295
      01007B56H   LINE      ---      ---       #296
      01007B5CH   LINE      ---      ---       #297
      01007B70H   LINE      ---      ---       #299
      01007B70H   LINE      ---      ---       #300
      01007B72H   LINE      ---      ---       #301
      01007B7EH   LINE      ---      ---       #302
      01007B7EH   LINE      ---      ---       #303
      01007B85H   LINE      ---      ---       #304
      01007B85H   LINE      ---      ---       #305
      01007B8DH   LINE      ---      ---       #306
      01007B9AH   LINE      ---      ---       #307
      01007BA0H   LINE      ---      ---       #308
      01007BBCH   LINE      ---      ---       #310
      01007BBCH   LINE      ---      ---       #311
      01007BBEH   LINE      ---      ---       #312
      01007BCAH   LINE      ---      ---       #313
LX51 LINKER/LOCATER V4.66.93.0                                                        04/19/2019  09:16:48  PAGE 164


      01007BCAH   LINE      ---      ---       #314
      01007BD1H   LINE      ---      ---       #315
      0200032FH   SYMBOL    XDATA    INT       ServiceMode_Step
      01007BD1H   BLOCK     CODE     NEAR LAB  LVL=2
      01007BD1H   LINE      ---      ---       #316
      01007BD6H   LINE      ---      ---       #318
      01007BDFH   LINE      ---      ---       #319
      01007BE4H   LINE      ---      ---       #321
      01007BFEH   LINE      ---      ---       #325
      01007C04H   LINE      ---      ---       #326
      01007C07H   LINE      ---      ---       #327
      01007C0EH   LINE      ---      ---       #328
      01007C1CH   LINE      ---      ---       #338
      01007C1CH   LINE      ---      ---       #339
      01007C28H   LINE      ---      ---       #340
      01007C2AH   LINE      ---      ---       #342
      01007C2AH   LINE      ---      ---       #343
      01007C36H   LINE      ---      ---       #344
      01007C3CH   LINE      ---      ---       #345
      01007C3CH   LINE      ---      ---       #346
      01007C3FH   LINE      ---      ---       #347
      01007C41H   LINE      ---      ---       #348
      01007C41H   LINE      ---      ---       #350
      01007C43H   LINE      ---      ---       #351
      02000110H   SYMBOL    XDATA    BYTE      TRUE
      ---         BLOCKEND  CODE     ---       LVL=2
      01007C43H   LINE      ---      ---       #352
      01007C45H   LINE      ---      ---       #353
      01007C53H   LINE      ---      ---       #354
      01007C53H   LINE      ---      ---       #355
      01007C59H   LINE      ---      ---       #356
      01007C59H   LINE      ---      ---       #358
      01007C6DH   LINE      ---      ---       #359
      01007C6FH   LINE      ---      ---       #360
      01007C76H   LINE      ---      ---       #361
      01007C76H   LINE      ---      ---       #362
      01007C7EH   LINE      ---      ---       #364
      01007C80H   LINE      ---      ---       #365
      01007C83H   LINE      ---      ---       #366
      01007C8AH   LINE      ---      ---       #367
      01007C9BH   LINE      ---      ---       #369
      01007CA8H   LINE      ---      ---       #370
      01007CB5H   LINE      ---      ---       #371
      01007CBBH   LINE      ---      ---       #372
      01007CC7H   LINE      ---      ---       #373
      01007CE7H   LINE      ---      ---       #376
      01007CF4H   LINE      ---      ---       #377
      01007CFFH   LINE      ---      ---       #378
      01007D0CH   LINE      ---      ---       #379
      01007D0EH   LINE      ---      ---       #380
      01007D10H   LINE      ---      ---       #382
      01007D10H   LINE      ---      ---       #384
      01007D10H   LINE      ---      ---       #385
      01007D10H   LINE      ---      ---       #386
      01007D1CH   LINE      ---      ---       #387
      01007D1CH   LINE      ---      ---       #388
      01007D1FH   LINE      ---      ---       #390
      01007D22H   LINE      ---      ---       #391
      01007D22H   LINE      ---      ---       #392
      01007D30H   LINE      ---      ---       #393
      01007D30H   LINE      ---      ---       #394
      01007D36H   LINE      ---      ---       #395
      01007D38H   LINE      ---      ---       #397
      01007D38H   LINE      ---      ---       #398
      01007D3DH   LINE      ---      ---       #399
LX51 LINKER/LOCATER V4.66.93.0                                                        04/19/2019  09:16:48  PAGE 165


      01007D3DH   LINE      ---      ---       #400
      01007D4BH   LINE      ---      ---       #401
      01007D4BH   LINE      ---      ---       #402
      01007D54H   LINE      ---      ---       #403
      01007D5DH   LINE      ---      ---       #404
      01007D5FH   LINE      ---      ---       #406
      01007D5FH   LINE      ---      ---       #407
      01007D60H   LINE      ---      ---       #408
      01007D60H   LINE      ---      ---       #409
      01007D60H   LINE      ---      ---       #410
      01007D62H   LINE      ---      ---       #412
      01007D62H   LINE      ---      ---       #413
      01007D67H   LINE      ---      ---       #414
      01007D6DH   LINE      ---      ---       #415
      01007D73H   LINE      ---      ---       #416
      01007D73H   LINE      ---      ---       #418
      01007D79H   LINE      ---      ---       #419
      01007D79H   LINE      ---      ---       #420
      01007D7FH   LINE      ---      ---       #421
      01007D84H   LINE      ---      ---       #422
      01007D88H   LINE      ---      ---       #423
      01007D88H   LINE      ---      ---       #424
      01007D88H   LINE      ---      ---       #426
      01007D88H   LINE      ---      ---       #428
      01007D88H   LINE      ---      ---       #429
      01007D8DH   LINE      ---      ---       #430
      01007D8DH   LINE      CODE     ---       #430
      ---         BLOCKEND  CODE     ---       LVL=0

      0100C61BH   BLOCK     CODE     ---       LVL=0
      0100C61BH   LINE      ---      ---       #433
      0100C61BH   LINE      ---      ---       #434
      0100C61BH   LINE      ---      ---       #435
      0100C624H   LINE      ---      ---       #436
      0100C624H   LINE      ---      ---       #437
      0100C627H   LINE      ---      ---       #438
      0100C627H   LINE      ---      ---       #439
      ---         BLOCKEND  ---      ---       LVL=0

      01007DA9H   BLOCK     CODE     ---       LVL=0
      01007DA9H   LINE      ---      ---       #441
      01007DA9H   LINE      ---      ---       #442
      01007DA9H   BLOCK     CODE     NEAR LAB  LVL=1
      01007DA9H   LINE      ---      ---       #447
      01007DB1H   LINE      ---      ---       #448
      01007DB1H   LINE      ---      ---       #450
      01007DB9H   LINE      ---      ---       #451
      01007DBDH   LINE      ---      ---       #452
      01007DBDH   LINE      ---      ---       #453
      01007DC3H   LINE      ---      ---       #454
      01007DC5H   LINE      ---      ---       #455
      01007DCCH   LINE      ---      ---       #456
      01007DFDH   LINE      ---      ---       #459
      01007E00H   LINE      ---      ---       #460
      01007E02H   LINE      ---      ---       #461
      01007E03H   LINE      ---      ---       #462
      01007E0EH   LINE      ---      ---       #463
      01007E0EH   LINE      ---      ---       #464
      01007E10H   LINE      ---      ---       #465
      01007E1CH   LINE      ---      ---       #468
      01007E2CH   LINE      ---      ---       #469
      01007E2EH   LINE      ---      ---       #470
      01007E35H   LINE      ---      ---       #471
      01007E35H   LINE      ---      ---       #477
      01007E3DH   LINE      ---      ---       #478
LX51 LINKER/LOCATER V4.66.93.0                                                        04/19/2019  09:16:48  PAGE 166


      01007E3DH   LINE      ---      ---       #480
      01007E48H   LINE      ---      ---       #481
      01007E48H   LINE      ---      ---       #482
      01007E4EH   LINE      ---      ---       #483
      01007E4EH   LINE      ---      ---       #484
      01007E4FH   LINE      ---      ---       #485
      01007E54H   LINE      ---      ---       #486
      01007E54H   LINE      ---      ---       #488
      01007E62H   LINE      ---      ---       #490
      01007E62H   LINE      ---      ---       #491
      01007E62H   LINE      ---      ---       #492
      01007E64H   LINE      ---      ---       #494
      01007E64H   LINE      ---      ---       #495
      01007E6AH   LINE      ---      ---       #496
      01007E70H   LINE      ---      ---       #497
      01007E70H   LINE      ---      ---       #498
      01007E70H   LINE      ---      ---       #499
      01007E78H   LINE      ---      ---       #500
      01007E78H   LINE      ---      ---       #502
      01007E86H   LINE      ---      ---       #511
      01007E86H   LINE      ---      ---       #512
      01007E8CH   LINE      ---      ---       #513
      01007E8DH   LINE      ---      ---       #515
      01007E8DH   LINE      ---      ---       #516
      01007E93H   LINE      ---      ---       #517
      01007E99H   LINE      ---      ---       #518
      01007E99H   LINE      ---      ---       #519
      01007E99H   LINE      ---      ---       #520
      01007E99H   LINE      ---      ---       #521
      01007E9BH   LINE      ---      ---       #522
      01007EA3H   LINE      ---      ---       #523
      01007EA3H   LINE      ---      ---       #525
      01007EA8H   LINE      ---      ---       #526
      01007EAEH   LINE      ---      ---       #527
      01007EAFH   LINE      ---      ---       #528
      01007EB3H   LINE      ---      ---       #529
      01007EB3H   LINE      ---      ---       #532
      01007EBEH   LINE      ---      ---       #533
      01007EBEH   LINE      ---      ---       #534
      01007ECAH   LINE      ---      ---       #535
      01007ECAH   LINE      ---      ---       #536
      01007ECDH   LINE      ---      ---       #537
      01007ED2H   LINE      ---      ---       #538
      01007ED3H   LINE      ---      ---       #545
      01007EDBH   LINE      ---      ---       #546
      01007EDBH   LINE      ---      ---       #549
      01007EE4H   LINE      ---      ---       #550
      01007EE4H   LINE      ---      ---       #551
      01007EF0H   LINE      ---      ---       #552
      01007EF0H   LINE      ---      ---       #553
      01007EF3H   LINE      ---      ---       #554
      01007F24H   LINE      ---      ---       #557
      01007F24H   LINE      ---      ---       #559
      01007F24H   LINE      ---      ---       #560
      01007F27H   LINE      ---      ---       #561
      01007F27H   LINE      ---      ---       #562
      01007F27H   LINE      ---      ---       #563
      01007F28H   LINE      ---      ---       #564
      01007F2FH   LINE      ---      ---       #565
      01007F2FH   LINE      ---      ---       #567
      01007F35H   LINE      ---      ---       #568
      01007F39H   LINE      ---      ---       #569
      01007F39H   LINE      ---      ---       #570
      01007F40H   LINE      ---      ---       #571
      01007F40H   LINE      ---      ---       #572
LX51 LINKER/LOCATER V4.66.93.0                                                        04/19/2019  09:16:48  PAGE 167


      01007F42H   LINE      ---      ---       #573
      01007F42H   LINE      ---      ---       #575
      01007F42H   LINE      ---      ---       #577
      01007F42H   LINE      ---      ---       #578
      02000331H   SYMBOL    XDATA    BYTE      Post_Step
      02000110H   SYMBOL    XDATA    BYTE      i
      ---         BLOCKEND  CODE     ---       LVL=1
      ---         BLOCKEND  CODE     ---       LVL=0

      0100C628H   BLOCK     CODE     ---       LVL=0
      0100C628H   LINE      ---      ---       #583
      0100C628H   LINE      ---      ---       #584
      0100C628H   LINE      ---      ---       #585
      0100C631H   LINE      ---      ---       #586
      0100C631H   LINE      ---      ---       #587
      0100C634H   LINE      ---      ---       #588
      0100C634H   LINE      ---      ---       #589
      0100C63DH   LINE      ---      ---       #590
      0100C63DH   LINE      ---      ---       #591
      0100C640H   LINE      ---      ---       #592
      0100C640H   LINE      ---      ---       #593
      ---         BLOCKEND  ---      ---       LVL=0

      01006BF7H   BLOCK     CODE     ---       LVL=0
      01006BF7H   LINE      ---      ---       #595
      01006BF7H   LINE      ---      ---       #596
      01006BF7H   BLOCK     CODE     NEAR LAB  LVL=1
      01006BF7H   LINE      ---      ---       #602
      01006C00H   LINE      ---      ---       #603
      01006C00H   LINE      ---      ---       #604
      01006C04H   LINE      ---      ---       #605
      01006C04H   LINE      ---      ---       #607
      01006C0AH   LINE      ---      ---       #608
      01006C0AH   LINE      ---      ---       #609
      01006C13H   LINE      ---      ---       #610
      01006C13H   LINE      ---      ---       #612
      01006C13H   LINE      ---      ---       #613
      01006C18H   LINE      ---      ---       #614
      01006C18H   LINE      ---      ---       #616
      01006C18H   LINE      ---      ---       #617
      01006C1CH   LINE      ---      ---       #618
      01006C1CH   LINE      ---      ---       #619
      01006C1FH   LINE      ---      ---       #620
      01006C2EH   LINE      ---      ---       #621
      01006C31H   LINE      ---      ---       #622
      01006C33H   LINE      ---      ---       #623
      01006C3CH   LINE      ---      ---       #624
      01006C3CH   LINE      ---      ---       #625
      01006C3EH   LINE      ---      ---       #626
      01006C41H   LINE      ---      ---       #627
      01006C50H   LINE      ---      ---       #628
      01006C53H   LINE      ---      ---       #629
      01006C56H   LINE      ---      ---       #630
      01006C56H   LINE      ---      ---       #632
      01006C56H   LINE      ---      ---       #634
      01006C56H   LINE      ---      ---       #635
      01006C56H   LINE      ---      ---       #638
      01006C60H   LINE      ---      ---       #641
      01006C60H   LINE      ---      ---       #642
      01006C66H   LINE      ---      ---       #643
      01006C66H   LINE      ---      ---       #644
      01006C6BH   LINE      ---      ---       #645
      01006C6BH   LINE      ---      ---       #646
      01006C6BH   LINE      ---      ---       #647
      01006C6DH   LINE      ---      ---       #648
LX51 LINKER/LOCATER V4.66.93.0                                                        04/19/2019  09:16:48  PAGE 168


      01006C76H   LINE      ---      ---       #650
      01006C76H   LINE      ---      ---       #651
      01006C7EH   LINE      ---      ---       #652
      01006C7EH   LINE      ---      ---       #653
      01006C83H   LINE      ---      ---       #654
      01006C88H   LINE      ---      ---       #655
      01006C88H   LINE      ---      ---       #656
      01006C8AH   LINE      ---      ---       #657
      01006C93H   LINE      ---      ---       #659
      01006C93H   LINE      ---      ---       #660
      01006C96H   LINE      ---      ---       #661
      01006C9BH   LINE      ---      ---       #662
      01006C9DH   LINE      ---      ---       #663
      01006CA7H   LINE      ---      ---       #664
      01006CA7H   LINE      ---      ---       #665
      01006CA9H   LINE      ---      ---       #666
      01006CA9H   LINE      ---      ---       #667
      01006CABH   LINE      ---      ---       #669
      01006CABH   LINE      ---      ---       #670
      01006CAEH   LINE      ---      ---       #671
      01006CB2H   LINE      ---      ---       #672
      01006CB2H   LINE      ---      ---       #673
      01006CB2H   LINE      ---      ---       #675
      01006CB2H   LINE      ---      ---       #677
      01006CB2H   LINE      ---      ---       #679
      01006CBAH   LINE      ---      ---       #680
      01006CBAH   LINE      ---      ---       #681
      01006CBCH   LINE      ---      ---       #683
      01006CC0H   LINE      ---      ---       #686
      01006CC6H   LINE      ---      ---       #687
      01006CC6H   LINE      ---      ---       #688
      01006CCAH   LINE      ---      ---       #691
      01006CCDH   LINE      ---      ---       #692
      01006CCDH   LINE      ---      ---       #693
      01006CCFH   LINE      ---      ---       #695
      01006CCFH   LINE      ---      ---       #696
      01006CD5H   LINE      ---      ---       #699
      01006CEDH   LINE      ---      ---       #701
      01006CEDH   LINE      ---      ---       #703
      01006CF5H   LINE      ---      ---       #704
      01006CF5H   LINE      ---      ---       #705
      01006D08H   LINE      ---      ---       #708
      01006D4BH   LINE      ---      ---       #714
      01006D51H   LINE      ---      ---       #715
      02000110H   SYMBOL    XDATA    WORD      Pre_Disp_Deg_10
      02000112H   SYMBOL    XDATA    WORD      Pre_Disp_Deg_1
      02000114H   SYMBOL    XDATA    WORD      Pre_Disp_Deg_CQK_10
      02000116H   SYMBOL    XDATA    WORD      Pre_Disp_Deg_CQK_1
      01006D51H   BLOCK     CODE     NEAR LAB  LVL=2
      01006D51H   LINE      ---      ---       #716
      01006D5BH   LINE      ---      ---       #717
      01006D5BH   LINE      ---      ---       #718
      01006D5BH   LINE      ---      ---       #719
      02000118H   SYMBOL    XDATA    ---       str_modeNoinvasive
      02000118H   SYMBOL    XDATA    ---       str_modeInvasive
      ---         BLOCKEND  CODE     ---       LVL=2
      01006D5BH   BLOCK     CODE     NEAR LAB  LVL=2
      01006D5DH   LINE      ---      ---       #721
      02000118H   SYMBOL    XDATA    ---       str_modeInvasive
      ---         BLOCKEND  CODE     ---       LVL=2
      01006D5DH   BLOCK     CODE     NEAR LAB  LVL=2
      01006D5DH   LINE      ---      ---       #722
      01006D6AH   LINE      ---      ---       #723
      01006D75H   LINE      ---      ---       #725
      02000118H   SYMBOL    XDATA    ---       str_invasive
LX51 LINKER/LOCATER V4.66.93.0                                                        04/19/2019  09:16:48  PAGE 169


      0200012AH   SYMBOL    XDATA    ---       str_patient39C
      02000139H   SYMBOL    XDATA    ---       str_chamber36C
      ---         BLOCKEND  CODE     ---       LVL=2
      01006D75H   LINE      ---      ---       #727
      01006D86H   LINE      ---      ---       #728
      01006D93H   LINE      ---      ---       #729
      01006D93H   LINE      ---      ---       #730
      01006DA7H   LINE      ---      ---       #732
      01006DA9H   LINE      ---      ---       #734
      01006DA9H   LINE      ---      ---       #735
      01006DBAH   LINE      ---      ---       #736
      01006DD2H   LINE      ---      ---       #738
      01006DD2H   LINE      ---      ---       #740
      01006DE3H   LINE      ---      ---       #741
      01006DF0H   LINE      ---      ---       #742
      01006DF0H   LINE      ---      ---       #743
      01006E07H   LINE      ---      ---       #745
      01006E09H   LINE      ---      ---       #747
      01006E09H   LINE      ---      ---       #748
      01006E1AH   LINE      ---      ---       #749
      01006E34H   LINE      ---      ---       #751
      01006E34H   LINE      ---      ---       #753
      01006E3EH   LINE      ---      ---       #754
      01006E3EH   LINE      ---      ---       #755
      01006E44H   LINE      ---      ---       #756
      01006E46H   LINE      ---      ---       #758
      01006E46H   LINE      ---      ---       #759
      01006E57H   LINE      ---      ---       #760
      01006E80H   LINE      ---      ---       #761
      01006E80H   LINE      ---      ---       #762
      01006E82H   LINE      ---      ---       #764
      01006E82H   LINE      CODE     ---       #764
      ---         BLOCKEND  CODE     ---       LVL=0

      0100C641H   BLOCK     CODE     ---       LVL=0
      0100C641H   LINE      ---      ---       #795
      0100C641H   LINE      ---      ---       #796
      0100C641H   LINE      ---      ---       #797
      0100C64AH   LINE      ---      ---       #798
      0100C64AH   LINE      ---      ---       #799
      0100C64DH   LINE      ---      ---       #800
      0100C64DH   LINE      ---      ---       #801
      ---         BLOCKEND  ---      ---       LVL=0

      0100689EH   BLOCK     CODE     ---       LVL=0
      0100689EH   LINE      ---      ---       #803
      0100689EH   LINE      ---      ---       #804
      0100689EH   LINE      ---      ---       #805
      010068A1H   LINE      ---      ---       #806
      010068A1H   LINE      ---      ---       #807
      010068AAH   LINE      ---      ---       #809
      010068AAH   LINE      ---      ---       #811
      010068B0H   LINE      ---      ---       #812
      010068B0H   LINE      ---      ---       #813
      010068B2H   LINE      ---      ---       #814
      010068B4H   LINE      ---      ---       #816
      010068B4H   LINE      ---      ---       #817
      010068B9H   LINE      ---      ---       #818
      010068B9H   LINE      ---      ---       #820
      010068C2H   LINE      ---      ---       #821
      010068C2H   LINE      ---      ---       #822
      010068CFH   LINE      ---      ---       #824
      010068D1H   LINE      ---      ---       #825
      010068D1H   LINE      ---      ---       #826
      010068D8H   LINE      ---      ---       #828
LX51 LINKER/LOCATER V4.66.93.0                                                        04/19/2019  09:16:48  PAGE 170


      010068D8H   LINE      ---      ---       #830
      010068DAH   LINE      ---      ---       #833
      010068ECH   LINE      ---      ---       #835
      010068ECH   LINE      ---      ---       #836
      010068EEH   LINE      ---      ---       #837
      010068F1H   LINE      ---      ---       #838
      010068F5H   LINE      ---      ---       #839
      010068F5H   LINE      ---      ---       #841
      010068F5H   LINE      ---      ---       #843
      010068F5H   LINE      ---      ---       #844
      010068F5H   LINE      ---      ---       #845
      010068FBH   LINE      ---      ---       #849
      01006900H   LINE      ---      ---       #850
      ---         BLOCKEND  ---      ---       LVL=0

      0100AD87H   BLOCK     CODE     ---       LVL=0
      0100AD87H   LINE      ---      ---       #856
      0100AD87H   LINE      ---      ---       #857
      0100AD87H   BLOCK     CODE     NEAR LAB  LVL=1
      0100AD87H   LINE      ---      ---       #859
      0100AD91H   LINE      ---      ---       #861
      0100AD91H   LINE      ---      ---       #862
      0100AD96H   LINE      ---      ---       #863
      0100AD9CH   LINE      ---      ---       #864
      0100AD9CH   LINE      ---      ---       #865
      0100AD9EH   LINE      ---      ---       #866
      0100ADA7H   LINE      ---      ---       #868
      0100ADA9H   LINE      ---      ---       #870
      0100ADA9H   LINE      ---      ---       #871
      0100ADAEH   LINE      ---      ---       #872
      0100ADB8H   LINE      ---      ---       #874
      0100ADB8H   LINE      ---      ---       #875
      0100ADBCH   LINE      ---      ---       #876
      0100ADBEH   LINE      ---      ---       #877
      0100ADC8H   LINE      ---      ---       #878
      0100ADC8H   LINE      ---      ---       #879
      0100ADCBH   LINE      ---      ---       #880
      0100ADCDH   LINE      ---      ---       #881
      0100ADD2H   LINE      ---      ---       #882
      0100ADDCH   LINE      ---      ---       #883
      0100ADE6H   LINE      ---      ---       #884
      0100ADF0H   LINE      ---      ---       #886
      0100ADF5H   LINE      ---      ---       #887
      0100ADF9H   LINE      ---      ---       #889
      0100AE00H   LINE      ---      ---       #890
      0100AE00H   LINE      ---      ---       #891
      0100AE02H   LINE      ---      ---       #892
      0100AE07H   LINE      ---      ---       #893
      0100AE0AH   LINE      ---      ---       #894
      0100AE0CH   LINE      ---      ---       #896
      0100AE0CH   LINE      ---      ---       #897
      0100AE12H   LINE      ---      ---       #898
      0100AE14H   LINE      ---      ---       #899
      0100AE1AH   LINE      ---      ---       #900
      0100AE1AH   LINE      ---      ---       #901
      0100AE24H   LINE      ---      ---       #902
      0100AE2EH   LINE      ---      ---       #903
      0100AE38H   LINE      ---      ---       #904
      0100AE45H   LINE      ---      ---       #907
      0100AE48H   LINE      ---      ---       #908
      0100AE4AH   LINE      ---      ---       #909
      0100AE52H   LINE      ---      ---       #910
      0100AE52H   LINE      ---      ---       #911
      0100AE59H   LINE      ---      ---       #913
      0100AE59H   LINE      ---      ---       #914
LX51 LINKER/LOCATER V4.66.93.0                                                        04/19/2019  09:16:48  PAGE 171


      0100AE5CH   LINE      ---      ---       #916
      0100AE5FH   LINE      ---      ---       #917
      0100AE61H   LINE      ---      ---       #919
      0100AE61H   LINE      ---      ---       #920
      0100AE64H   LINE      ---      ---       #921
      0100AE68H   LINE      ---      ---       #922
      0100AE6DH   LINE      ---      ---       #923
      0100AE6DH   LINE      ---      ---       #924
      0100AE6FH   LINE      ---      ---       #925
      0100AE77H   LINE      ---      ---       #926
      0100AE77H   LINE      ---      ---       #927
      0100AE7BH   LINE      ---      ---       #929
      0100AE7BH   LINE      ---      ---       #930
      0100AE81H   LINE      ---      ---       #931
      0100AE85H   LINE      ---      ---       #933
      0100AE85H   LINE      ---      ---       #934
      0100AE87H   LINE      ---      ---       #935
      0100AE8CH   LINE      ---      ---       #936
      0100AE8CH   LINE      ---      ---       #937
      0100AE9DH   LINE      ---      ---       #938
      0100AEA0H   LINE      ---      ---       #939
      0100AEA0H   LINE      ---      ---       #941
      0100AEA0H   LINE      ---      ---       #943
      0100AEA0H   LINE      ---      ---       #946
      0100AEA6H   LINE      ---      ---       #947
      0100AEA6H   LINE      ---      ---       #948
      0100AEABH   LINE      ---      ---       #949
      0100AEABH   LINE      ---      ---       #950
      0100AEB4H   LINE      ---      ---       #951
      0100AEB4H   LINE      ---      ---       #952
      0100AEB7H   LINE      ---      ---       #953
      0100AEB9H   LINE      ---      ---       #955
      0100AEB9H   LINE      ---      ---       #956
      0100AEC1H   LINE      ---      ---       #957
      0100AEC1H   LINE      ---      ---       #958
      0100AEC4H   LINE      ---      ---       #959
      0100AEC9H   LINE      ---      ---       #960
      0100AED3H   LINE      ---      ---       #962
      0100AED3H   LINE      ---      ---       #963
      0100AED3H   LINE      ---      ---       #964
      0100AED8H   LINE      ---      ---       #965
      02000332H   SYMBOL    XDATA    BYTE      Display_Return_Cnt
      ---         BLOCKEND  CODE     ---       LVL=1
      ---         BLOCKEND  CODE     ---       LVL=0

      0100AA4AH   BLOCK     CODE     ---       LVL=0
      0100AA4AH   LINE      ---      ---       #969
      0100AA4AH   LINE      ---      ---       #970
      0100AA4AH   BLOCK     CODE     NEAR LAB  LVL=1
      0100AA4AH   LINE      ---      ---       #973
      0100AA51H   LINE      ---      ---       #975
      0100AA51H   LINE      ---      ---       #976
      0100AA53H   LINE      ---      ---       #977
      0100AA53H   LINE      ---      ---       #978
      0100AA56H   LINE      ---      ---       #979
      0100AA5CH   LINE      ---      ---       #980
      0100AA5CH   LINE      ---      ---       #981
      0100AA61H   LINE      ---      ---       #982
      0100AA63H   LINE      ---      ---       #983
      0100AA6AH   LINE      ---      ---       #984
      0100AA6AH   LINE      ---      ---       #985
      0100AA6FH   LINE      ---      ---       #986
      0100AA6FH   LINE      ---      ---       #988
      0100AA6FH   LINE      ---      ---       #990
      0100AA6FH   LINE      ---      ---       #993
LX51 LINKER/LOCATER V4.66.93.0                                                        04/19/2019  09:16:48  PAGE 172


      0100AA7EH   LINE      ---      ---       #996
      0100AA7EH   LINE      ---      ---       #997
      0100AA84H   LINE      ---      ---       #998
      0100AA84H   LINE      ---      ---       #999
      0100AA8FH   LINE      ---      ---       #1000
      0100AA8FH   LINE      ---      ---       #1001
      0100AA8FH   LINE      ---      ---       #1002
      0100AA8FH   LINE      ---      ---       #1003
      0100AA91H   LINE      ---      ---       #1005
      0100AA91H   LINE      ---      ---       #1006
      0100AA9CH   LINE      ---      ---       #1007
      0100AA9CH   LINE      ---      ---       #1008
      0100AA9EH   LINE      ---      ---       #1009
      0100AA9EH   LINE      ---      ---       #1010
      0100AA9EH   LINE      ---      ---       #1011
      0100AA9EH   LINE      ---      ---       #1012
      0100AAA0H   LINE      ---      ---       #1013
      0100AAAEH   LINE      ---      ---       #1016
      0100AAAEH   LINE      ---      ---       #1017
      0100AAB4H   LINE      ---      ---       #1018
      0100AAB4H   LINE      ---      ---       #1019
      0100AAB8H   LINE      ---      ---       #1020
      0100AAB8H   LINE      ---      ---       #1021
      0100AAB8H   LINE      ---      ---       #1022
      0100AAB8H   LINE      ---      ---       #1023
      0100AABAH   LINE      ---      ---       #1025
      0100AABAH   LINE      ---      ---       #1026
      0100AAC5H   LINE      ---      ---       #1027
      0100AAC5H   LINE      ---      ---       #1028
      0100AACDH   LINE      ---      ---       #1029
      0100AACDH   LINE      ---      ---       #1030
      0100AACDH   LINE      ---      ---       #1031
      0100AAD1H   LINE      ---      ---       #1032
      0100AAD3H   LINE      ---      ---       #1033
      0100AAD7H   LINE      ---      ---       #1034
      0100AAD7H   LINE      ---      ---       #1035
      0100AADDH   LINE      ---      ---       #1036
      0100AAE1H   LINE      ---      ---       #1037
      0100AAE7H   LINE      ---      ---       #1038
      0100AAEBH   LINE      ---      ---       #1039
      0100AAF0H   LINE      ---      ---       #1040
      0100AAF2H   LINE      ---      ---       #1041
      0100AAF9H   LINE      ---      ---       #1042
      0100AAF9H   LINE      ---      ---       #1043
      0100AB09H   LINE      ---      ---       #1045
      0100AB09H   LINE      ---      ---       #1046
      0100AB0CH   LINE      ---      ---       #1047
      0100AB13H   LINE      ---      ---       #1049
      0100AB13H   LINE      ---      ---       #1050
      0100AB1DH   LINE      ---      ---       #1051
      0100AB27H   LINE      ---      ---       #1053
      0100AB35H   LINE      ---      ---       #1054
      0100AB35H   LINE      ---      ---       #1055
      0100AB3AH   LINE      ---      ---       #1056
      0100AB3CH   LINE      ---      ---       #1058
      0100AB3CH   LINE      ---      ---       #1059
      0100AB41H   LINE      ---      ---       #1060
      0100AB41H   LINE      ---      ---       #1061
      0100AB4BH   LINE      ---      ---       #1062
      0100AB55H   LINE      ---      ---       #1063
      0100AB57H   LINE      ---      ---       #1065
      0100AB57H   LINE      ---      ---       #1066
      0100AB61H   LINE      ---      ---       #1067
      0100AB6BH   LINE      ---      ---       #1069
      0100AB74H   LINE      ---      ---       #1070
LX51 LINKER/LOCATER V4.66.93.0                                                        04/19/2019  09:16:48  PAGE 173


      0100AB74H   LINE      ---      ---       #1071
      0100AB88H   LINE      ---      ---       #1072
      0100AB8AH   LINE      ---      ---       #1074
      0100AB8AH   LINE      ---      ---       #1075
      0100AB8FH   LINE      ---      ---       #1076
      0100AB8FH   LINE      ---      ---       #1077
      0100AB99H   LINE      ---      ---       #1078
      0100ABA1H   LINE      ---      ---       #1079
      0100ABA1H   LINE      ---      ---       #1080
      0100ABA1H   LINE      ---      ---       #1082
      0100ABA4H   LINE      ---      ---       #1083
      0100ABABH   LINE      ---      ---       #1086
      0100ABAFH   LINE      ---      ---       #1087
      0100ABAFH   LINE      ---      ---       #1089
      0100ABAFH   LINE      ---      ---       #1091
      0100ABAFH   LINE      ---      ---       #1095
      0100ABB5H   LINE      ---      ---       #1096
      0100ABB5H   LINE      ---      ---       #1097
      0100ABBAH   LINE      ---      ---       #1098
      0100ABBAH   LINE      ---      ---       #1099
      0100ABC3H   LINE      ---      ---       #1100
      0100ABC3H   LINE      ---      ---       #1101
      0100ABC6H   LINE      ---      ---       #1102
      0100ABC8H   LINE      ---      ---       #1104
      0100ABC8H   LINE      ---      ---       #1105
      0100ABCFH   LINE      ---      ---       #1108
      0100ABD3H   LINE      ---      ---       #1109
      0100ABD3H   LINE      ---      ---       #1110
      0100ABD8H   LINE      ---      ---       #1111
      02000333H   SYMBOL    XDATA    BYTE      Set_Temp_Cnt
      02000334H   SYMBOL    XDATA    BYTE      Display_Return_Cnt
      ---         BLOCKEND  CODE     ---       LVL=1
      ---         BLOCKEND  CODE     ---       LVL=0

      0100ABF6H   BLOCK     CODE     ---       LVL=0
      0100ABF6H   LINE      ---      ---       #1114
      0100ABF6H   LINE      ---      ---       #1115
      0100ABF6H   BLOCK     CODE     NEAR LAB  LVL=1
      0100ABF6H   LINE      ---      ---       #1118
      0100ABFDH   LINE      ---      ---       #1120
      0100ABFDH   LINE      ---      ---       #1121
      0100ABFFH   LINE      ---      ---       #1122
      0100ABFFH   LINE      ---      ---       #1123
      0100AC02H   LINE      ---      ---       #1124
      0100AC08H   LINE      ---      ---       #1125
      0100AC08H   LINE      ---      ---       #1126
      0100AC0DH   LINE      ---      ---       #1127
      0100AC0FH   LINE      ---      ---       #1128
      0100AC16H   LINE      ---      ---       #1129
      0100AC16H   LINE      ---      ---       #1130
      0100AC1BH   LINE      ---      ---       #1131
      0100AC1BH   LINE      ---      ---       #1133
      0100AC1BH   LINE      ---      ---       #1135
      0100AC1BH   LINE      ---      ---       #1138
      0100AC2AH   LINE      ---      ---       #1141
      0100AC2AH   LINE      ---      ---       #1142
      0100AC31H   LINE      ---      ---       #1143
      0100AC31H   LINE      ---      ---       #1144
      0100AC3CH   LINE      ---      ---       #1145
      0100AC3CH   LINE      ---      ---       #1146
      0100AC3CH   LINE      ---      ---       #1147
      0100AC3CH   LINE      ---      ---       #1148
      0100AC3EH   LINE      ---      ---       #1149
      0100AC42H   LINE      ---      ---       #1150
      0100AC42H   LINE      ---      ---       #1151
LX51 LINKER/LOCATER V4.66.93.0                                                        04/19/2019  09:16:48  PAGE 174


      0100AC5EH   LINE      ---      ---       #1152
      0100AC5EH   LINE      ---      ---       #1153
      0100AC63H   LINE      ---      ---       #1154
      0100AC63H   LINE      ---      ---       #1155
      0100AC63H   LINE      ---      ---       #1157
      0100AC63H   LINE      ---      ---       #1159
      0100AC63H   LINE      ---      ---       #1160
      0100AC63H   LINE      ---      ---       #1161
      0100AC65H   LINE      ---      ---       #1162
      0100AC73H   LINE      ---      ---       #1165
      0100AC73H   LINE      ---      ---       #1166
      0100AC7AH   LINE      ---      ---       #1167
      0100AC7AH   LINE      ---      ---       #1168
      0100AC7EH   LINE      ---      ---       #1169
      0100AC7EH   LINE      ---      ---       #1170
      0100AC7EH   LINE      ---      ---       #1171
      0100AC7EH   LINE      ---      ---       #1172
      0100AC80H   LINE      ---      ---       #1173
      0100AC84H   LINE      ---      ---       #1174
      0100AC84H   LINE      ---      ---       #1175
      0100AC9EH   LINE      ---      ---       #1176
      0100AC9EH   LINE      ---      ---       #1177
      0100ACA9H   LINE      ---      ---       #1178
      0100ACA9H   LINE      ---      ---       #1179
      0100ACA9H   LINE      ---      ---       #1181
      0100ACA9H   LINE      ---      ---       #1183
      0100ACA9H   LINE      ---      ---       #1184
      0100ACADH   LINE      ---      ---       #1185
      0100ACAFH   LINE      ---      ---       #1186
      0100ACB4H   LINE      ---      ---       #1187
      0100ACB4H   LINE      ---      ---       #1188
      0100ACC2H   LINE      ---      ---       #1190
      0100ACC2H   LINE      ---      ---       #1191
      0100ACC5H   LINE      ---      ---       #1192
      0100ACCFH   LINE      ---      ---       #1194
      0100ACCFH   LINE      ---      ---       #1195
      0100ACDCH   LINE      ---      ---       #1196
      0100ACE3H   LINE      ---      ---       #1197
      0100ACE5H   LINE      ---      ---       #1199
      0100ACE5H   LINE      ---      ---       #1200
      0100ACF2H   LINE      ---      ---       #1201
      0100ACF9H   LINE      ---      ---       #1202
      0100ACF9H   LINE      ---      ---       #1204
      0100ACFCH   LINE      ---      ---       #1207
      0100AD00H   LINE      ---      ---       #1208
      0100AD00H   LINE      ---      ---       #1209
      0100AD00H   LINE      ---      ---       #1211
      0100AD00H   LINE      ---      ---       #1213
      0100AD00H   LINE      ---      ---       #1215
      0100AD03H   LINE      ---      ---       #1218
      0100AD09H   LINE      ---      ---       #1219
      0100AD09H   LINE      ---      ---       #1220
      0100AD0EH   LINE      ---      ---       #1221
      0100AD0EH   LINE      ---      ---       #1222
      0100AD17H   LINE      ---      ---       #1223
      0100AD17H   LINE      ---      ---       #1224
      0100AD1AH   LINE      ---      ---       #1225
      0100AD1CH   LINE      ---      ---       #1227
      0100AD1CH   LINE      ---      ---       #1228
      0100AD1FH   LINE      ---      ---       #1231
      0100AD23H   LINE      ---      ---       #1232
      0100AD23H   LINE      ---      ---       #1233
      0100AD28H   LINE      ---      ---       #1234
      02000335H   SYMBOL    XDATA    BYTE      Set_Temp_Cnt
      02000336H   SYMBOL    XDATA    BYTE      Display_Return_Cnt
LX51 LINKER/LOCATER V4.66.93.0                                                        04/19/2019  09:16:48  PAGE 175


      ---         BLOCKEND  CODE     ---       LVL=1
      ---         BLOCKEND  CODE     ---       LVL=0

      0100C64EH   BLOCK     CODE     ---       LVL=0
      0100C64EH   LINE      ---      ---       #1240
      0100C64EH   LINE      ---      ---       #1241
      0100C64EH   LINE      ---      ---       #1242
      0100C654H   LINE      ---      ---       #1243
      ---         BLOCKEND  ---      ---       LVL=0

      0100C65AH   BLOCK     CODE     ---       LVL=0
      0100C65AH   LINE      ---      ---       #1247
      0100C65AH   LINE      ---      ---       #1248
      0100C65AH   BLOCK     CODE     NEAR LAB  LVL=1
      0100C65AH   LINE      ---      ---       #1252
      0100C65FH   LINE      ---      ---       #1253
      0100C68AH   LINE      ---      ---       #1255
      0100C68FH   LINE      ---      ---       #1256
      0100C68FH   LINE      ---      ---       #1257
      0100C694H   LINE      ---      ---       #1258
      0100C694H   LINE      ---      ---       #1259
      0100C6ABH   LINE      ---      ---       #1260
      0100C6ABH   LINE      ---      ---       #1261
      0100C6B4H   LINE      ---      ---       #1262
      0100C6B4H   LINE      ---      ---       #1263
      0100C6B7H   LINE      ---      ---       #1264
      0100C6B7H   LINE      ---      ---       #1265
      0100C6B7H   LINE      ---      ---       #1266
      0100C6BDH   LINE      ---      ---       #1267
      0100C6BDH   LINE      ---      ---       #1268
      0100C6C4H   LINE      ---      ---       #1269
      0100C6C4H   LINE      ---      ---       #1270
      0100C6CDH   LINE      ---      ---       #1271
      0100C6CDH   LINE      ---      ---       #1272
      0100C6D0H   LINE      ---      ---       #1273
      0100C6D0H   LINE      ---      ---       #1274
      0100C6D0H   LINE      ---      ---       #1275
      0100C6D1H   LINE      ---      ---       #1276
      0100C6D1H   LINE      ---      ---       #1277
      0100C6D8H   LINE      ---      ---       #1278
      0100C6D8H   LINE      ---      ---       #1279
      0100C6E1H   LINE      ---      ---       #1280
      0100C6E1H   LINE      ---      ---       #1281
      0100C6E4H   LINE      ---      ---       #1282
      0100C6E4H   LINE      ---      ---       #1283
      0100C6E4H   LINE      ---      ---       #1284
      0100C6E4H   LINE      ---      ---       #1285
      00000006H   SYMBOL    DATA     WORD      temp1
      02000110H   SYMBOL    XDATA    BYTE      Temp_Bit1
      ---         BLOCKEND  CODE     ---       LVL=1
      ---         BLOCKEND  CODE     ---       LVL=0

      01009229H   BLOCK     CODE     ---       LVL=0
      01009229H   LINE      ---      ---       #1288
      01009229H   LINE      ---      ---       #1289
      01009229H   BLOCK     CODE     NEAR LAB  LVL=1
      01009229H   LINE      ---      ---       #1295
      01009231H   LINE      ---      ---       #1297
      01009231H   LINE      ---      ---       #1298
      01009233H   LINE      ---      ---       #1299
      01009233H   LINE      ---      ---       #1301
      01009238H   LINE      ---      ---       #1302
      01009238H   LINE      ---      ---       #1303
      0100923EH   LINE      ---      ---       #1305
      01009241H   LINE      ---      ---       #1307
LX51 LINKER/LOCATER V4.66.93.0                                                        04/19/2019  09:16:48  PAGE 176


      0100925BH   LINE      ---      ---       #1314
      01009266H   LINE      ---      ---       #1315
      01009266H   LINE      ---      ---       #1316
      01009268H   LINE      ---      ---       #1317
      01009268H   LINE      ---      ---       #1318
      01009268H   LINE      ---      ---       #1319
      0100926AH   LINE      ---      ---       #1320
      0100927BH   LINE      ---      ---       #1323
      0100927BH   LINE      ---      ---       #1324
      01009281H   LINE      ---      ---       #1326
      01009281H   LINE      ---      ---       #1327
      01009288H   LINE      ---      ---       #1329
      01009288H   LINE      ---      ---       #1330
      0100928AH   LINE      ---      ---       #1331
      0100928AH   LINE      ---      ---       #1332
      01009295H   LINE      ---      ---       #1333
      01009295H   LINE      ---      ---       #1334
      01009298H   LINE      ---      ---       #1335
      01009298H   LINE      ---      ---       #1336
      01009298H   LINE      ---      ---       #1338
      0100929FH   LINE      ---      ---       #1339
      0100929FH   LINE      ---      ---       #1340
      010092A6H   LINE      ---      ---       #1342
      010092A6H   LINE      ---      ---       #1343
      010092A8H   LINE      ---      ---       #1344
      010092A8H   LINE      ---      ---       #1345
      010092B1H   LINE      ---      ---       #1346
      010092B1H   LINE      ---      ---       #1347
      010092B4H   LINE      ---      ---       #1348
      010092B4H   LINE      ---      ---       #1349
      010092B4H   LINE      ---      ---       #1350
      010092BBH   LINE      ---      ---       #1351
      010092BBH   LINE      ---      ---       #1352
      010092C2H   LINE      ---      ---       #1354
      010092C2H   LINE      ---      ---       #1355
      010092C4H   LINE      ---      ---       #1356
      010092C4H   LINE      ---      ---       #1357
      010092CDH   LINE      ---      ---       #1358
      010092CDH   LINE      ---      ---       #1359
      010092D0H   LINE      ---      ---       #1360
      010092D0H   LINE      ---      ---       #1361
      010092D0H   LINE      ---      ---       #1362
      010092D6H   LINE      ---      ---       #1363
      010092D6H   LINE      ---      ---       #1364
      010092D6H   LINE      ---      ---       #1365
      010092DDH   LINE      ---      ---       #1367
      010092DDH   LINE      ---      ---       #1368
      010092DFH   LINE      ---      ---       #1369
      010092DFH   LINE      ---      ---       #1370
      010092EAH   LINE      ---      ---       #1371
      010092EAH   LINE      ---      ---       #1372
      010092EDH   LINE      ---      ---       #1373
      010092EDH   LINE      ---      ---       #1374
      010092EDH   LINE      ---      ---       #1375
      010092F3H   LINE      ---      ---       #1376
      010092F3H   LINE      ---      ---       #1377
      010092FAH   LINE      ---      ---       #1379
      010092FAH   LINE      ---      ---       #1380
      010092FCH   LINE      ---      ---       #1381
      010092FCH   LINE      ---      ---       #1382
      01009307H   LINE      ---      ---       #1383
      01009307H   LINE      ---      ---       #1384
      01009307H   LINE      ---      ---       #1385
      01009307H   LINE      ---      ---       #1386
      01009310H   LINE      ---      ---       #1387
LX51 LINKER/LOCATER V4.66.93.0                                                        04/19/2019  09:16:48  PAGE 177


      01009310H   LINE      ---      ---       #1388
      01009317H   LINE      ---      ---       #1390
      01009317H   LINE      ---      ---       #1391
      01009319H   LINE      ---      ---       #1392
      01009319H   LINE      ---      ---       #1393
      01009324H   LINE      ---      ---       #1394
      01009324H   LINE      ---      ---       #1395
      01009327H   LINE      ---      ---       #1396
      01009327H   LINE      ---      ---       #1397
      01009329H   LINE      ---      ---       #1399
      01009329H   LINE      ---      ---       #1401
      01009329H   LINE      ---      ---       #1402
      01009329H   LINE      ---      ---       #1403
      0100933AH   LINE      ---      ---       #1406
      0100933AH   LINE      ---      ---       #1407
      01009348H   LINE      ---      ---       #1409
      01009348H   LINE      ---      ---       #1410
      0100934CH   LINE      ---      ---       #1412
      0100934CH   LINE      ---      ---       #1413
      01009350H   LINE      ---      ---       #1414
      01009350H   LINE      ---      ---       #1415
      01009350H   LINE      ---      ---       #1416
      0100935FH   LINE      ---      ---       #1417
      0100935FH   LINE      ---      ---       #1418
      01009363H   LINE      ---      ---       #1420
      01009363H   LINE      ---      ---       #1421
      01009367H   LINE      ---      ---       #1422
      01009367H   LINE      ---      ---       #1423
      0100936AH   LINE      ---      ---       #1424
      01009379H   LINE      ---      ---       #1425
      01009379H   LINE      ---      ---       #1426
      0100937DH   LINE      ---      ---       #1428
      0100937DH   LINE      ---      ---       #1429
      0100937DH   LINE      ---      ---       #1430
      0100937DH   LINE      ---      ---       #1431
      0100938CH   LINE      ---      ---       #1432
      0100938CH   LINE      ---      ---       #1433
      0100938CH   LINE      ---      ---       #1434
      01009390H   LINE      ---      ---       #1436
      01009390H   LINE      ---      ---       #1437
      01009390H   LINE      ---      ---       #1438
      01009390H   LINE      ---      ---       #1439
      01009390H   LINE      ---      ---       #1440
      0100939FH   LINE      ---      ---       #1441
      0100939FH   LINE      ---      ---       #1442
      010093A3H   LINE      ---      ---       #1444
      010093A3H   LINE      ---      ---       #1445
      010093A3H   LINE      ---      ---       #1446
      010093A3H   LINE      ---      ---       #1447
      010093B3H   LINE      ---      ---       #1448
      010093B3H   LINE      ---      ---       #1449
      010093B7H   LINE      ---      ---       #1451
      010093B7H   LINE      ---      ---       #1452
      010093BBH   LINE      ---      ---       #1453
      010093BBH   LINE      ---      ---       #1454
      010093BDH   LINE      ---      ---       #1456
      010093BDH   LINE      ---      ---       #1458
      010093BDH   LINE      ---      ---       #1459
      010093BDH   LINE      ---      ---       #1460
      010093C1H   LINE      ---      ---       #1461
      010093C1H   LINE      ---      ---       #1462
      010093C4H   LINE      ---      ---       #1463
      010093C9H   LINE      ---      ---       #1464
      010093CEH   LINE      ---      ---       #1465
      010093D0H   LINE      ---      ---       #1466
LX51 LINKER/LOCATER V4.66.93.0                                                        04/19/2019  09:16:48  PAGE 178


      010093D0H   LINE      ---      ---       #1468
      010093D0H   LINE      ---      ---       #1470
      010093D0H   LINE      ---      ---       #1473
      010093D7H   LINE      ---      ---       #1474
      010093D7H   LINE      ---      ---       #1475
      010093DCH   LINE      ---      ---       #1476
      010093DEH   LINE      ---      ---       #1477
      010093E2H   LINE      ---      ---       #1478
      010093E2H   LINE      ---      ---       #1479
      010093E5H   LINE      ---      ---       #1480
      010093E5H   LINE      ---      ---       #1482
      010093E5H   LINE      ---      ---       #1484
      010093E5H   LINE      ---      ---       #1487
      010093EBH   LINE      ---      ---       #1488
      010093EBH   LINE      ---      ---       #1489
      010093F4H   LINE      ---      ---       #1490
      010093F4H   LINE      ---      ---       #1493
      010093FAH   LINE      ---      ---       #1494
      010093FAH   LINE      ---      ---       #1495
      010093FFH   LINE      ---      ---       #1496
      010093FFH   LINE      ---      ---       #1497
      01009408H   LINE      ---      ---       #1498
      01009408H   LINE      ---      ---       #1499
      0100940BH   LINE      ---      ---       #1500
      0100940DH   LINE      ---      ---       #1502
      0100940DH   LINE      ---      ---       #1503
      01009412H   LINE      ---      ---       #1504
      01009414H   LINE      ---      ---       #1507
      01009414H   LINE      ---      ---       #1510
      01009419H   LINE      ---      ---       #1511
      02000337H   SYMBOL    XDATA    BYTE      Display_Return_Cnt
      02000338H   SYMBOL    XDATA    BYTE      Set_Time_Cnt
      ---         BLOCKEND  CODE     ---       LVL=1
      ---         BLOCKEND  CODE     ---       LVL=0

      0100C60EH   BLOCK     CODE     ---       LVL=0
      0100C60EH   LINE      ---      ---       #1516
      0100C60EH   LINE      ---      ---       #1517
      0100C60EH   LINE      ---      ---       #1518
      0100C617H   LINE      ---      ---       #1519
      ---         BLOCKEND  ---      ---       LVL=0

      0100C51DH   BLOCK     CODE     ---       LVL=0
      0100C51DH   LINE      ---      ---       #1522
      0100C51DH   LINE      ---      ---       #1523
      0100C51DH   BLOCK     CODE     NEAR LAB  LVL=1
      0100C51DH   LINE      ---      ---       #1527
      0100C524H   LINE      ---      ---       #1529
      0100C524H   LINE      ---      ---       #1530
      0100C526H   LINE      ---      ---       #1531
      0100C526H   LINE      ---      ---       #1532
      0100C529H   LINE      ---      ---       #1533
      0100C52FH   LINE      ---      ---       #1534
      0100C52FH   LINE      ---      ---       #1535
      0100C53EH   LINE      ---      ---       #1536
      0100C540H   LINE      ---      ---       #1537
      0100C547H   LINE      ---      ---       #1538
      0100C547H   LINE      ---      ---       #1539
      0100C559H   LINE      ---      ---       #1540
      0100C559H   LINE      ---      ---       #1542
      0100C559H   LINE      ---      ---       #1544
      0100C559H   LINE      ---      ---       #1547
      0100C55EH   LINE      ---      ---       #1548
      0100C55EH   LINE      ---      ---       #1549
      0100C564H   LINE      ---      ---       #1551
LX51 LINKER/LOCATER V4.66.93.0                                                        04/19/2019  09:16:48  PAGE 179


      0100C56BH   LINE      ---      ---       #1552
      0100C56DH   LINE      ---      ---       #1553
      0100C571H   LINE      ---      ---       #1554
      0100C571H   LINE      ---      ---       #1555
      0100C57AH   LINE      ---      ---       #1556
      0100C57AH   LINE      ---      ---       #1557
      0100C57DH   LINE      ---      ---       #1558
      0100C57DH   LINE      ---      ---       #1559
      0100C57FH   LINE      ---      ---       #1560
      0100C581H   LINE      ---      ---       #1561
      0100C589H   LINE      ---      ---       #1562
      0100C589H   LINE      ---      ---       #1563
      0100C592H   LINE      ---      ---       #1564
      0100C592H   LINE      ---      ---       #1565
      0100C595H   LINE      ---      ---       #1566
      0100C595H   LINE      ---      ---       #1567
      0100C599H   LINE      ---      ---       #1568
      0100C59BH   LINE      ---      ---       #1569
      0100C5A0H   LINE      ---      ---       #1570
      0100C5A0H   LINE      ---      ---       #1571
      0100C5A3H   LINE      ---      ---       #1572
      0100C5ACH   LINE      ---      ---       #1573
      0100C5AFH   LINE      ---      ---       #1574
      0100C5B3H   LINE      ---      ---       #1575
      0100C5BBH   LINE      ---      ---       #1576
      0100C5BEH   LINE      ---      ---       #1577
      0100C5BEH   LINE      ---      ---       #1579
      0100C5BEH   LINE      ---      ---       #1581
      0100C5BEH   LINE      ---      ---       #1585
      0100C5C4H   LINE      ---      ---       #1586
      0100C5C4H   LINE      ---      ---       #1587
      0100C5C9H   LINE      ---      ---       #1588
      0100C5C9H   LINE      ---      ---       #1589
      0100C5D2H   LINE      ---      ---       #1590
      0100C5D2H   LINE      ---      ---       #1591
      0100C5D5H   LINE      ---      ---       #1592
      0100C5D7H   LINE      ---      ---       #1594
      0100C5D7H   LINE      ---      ---       #1595
      0100C5DCH   LINE      ---      ---       #1596
      0100C5DFH   LINE      ---      ---       #1597
      0100C5E8H   LINE      ---      ---       #1598
      0100C5E8H   LINE      ---      ---       #1600
      0100C5EDH   LINE      ---      ---       #1601
      02000339H   SYMBOL    XDATA    BYTE      Display_Return_Cnt
      0200033AH   SYMBOL    XDATA    BYTE      Set_InExp_Cnt
      ---         BLOCKEND  CODE     ---       LVL=1
      ---         BLOCKEND  CODE     ---       LVL=0

      0100893FH   BLOCK     CODE     ---       LVL=0
      0100893FH   LINE      ---      ---       #1606
      0100893FH   LINE      ---      ---       #1607
      0100893FH   LINE      ---      ---       #1608
      0100894EH   LINE      ---      ---       #1609
      0100894EH   LINE      ---      ---       #1610
      01008951H   LINE      ---      ---       #1611
      01008951H   LINE      ---      ---       #1612
      ---         BLOCKEND  ---      ---       LVL=0

      01008E12H   BLOCK     CODE     ---       LVL=0
      01008E12H   LINE      ---      ---       #1614
      01008E12H   LINE      ---      ---       #1615
      01008E12H   BLOCK     CODE     NEAR LAB  LVL=1
      01008E12H   LINE      ---      ---       #1616
      01008E15H   LINE      ---      ---       #1617
      01008E17H   LINE      ---      ---       #1621
LX51 LINKER/LOCATER V4.66.93.0                                                        04/19/2019  09:16:48  PAGE 180


      01008E1FH   LINE      ---      ---       #1623
      01008E1FH   LINE      ---      ---       #1624
      01008E25H   LINE      ---      ---       #1626
      01008E25H   LINE      ---      ---       #1627
      01008E2AH   LINE      ---      ---       #1628
      01008E2AH   LINE      ---      ---       #1629
      01008E2AH   LINE      ---      ---       #1631
      01008E2FH   LINE      ---      ---       #1632
      01008E2FH   LINE      ---      ---       #1633
      01008E3EH   LINE      ---      ---       #1634
      01008E3EH   LINE      ---      ---       #1635
      01008E44H   LINE      ---      ---       #1636
      01008E46H   LINE      ---      ---       #1637
      01008E55H   LINE      ---      ---       #1638
      01008E5BH   LINE      ---      ---       #1639
      01008E5BH   LINE      ---      ---       #1640
      01008E5BH   LINE      ---      ---       #1642
      01008E5BH   LINE      ---      ---       #1644
      01008E5BH   LINE      ---      ---       #1650
      01008E75H   LINE      ---      ---       #1651
      01008E75H   LINE      ---      ---       #1652
      01008E7AH   LINE      ---      ---       #1653
      01008E80H   LINE      ---      ---       #1654
      01008E88H   LINE      ---      ---       #1657
      01008E88H   LINE      ---      ---       #1658
      01008E8BH   LINE      ---      ---       #1659
      01008E8FH   LINE      ---      ---       #1660
      01008E92H   LINE      ---      ---       #1661
      01008E92H   LINE      ---      ---       #1662
      01008E92H   LINE      ---      ---       #1664
      01008E98H   LINE      ---      ---       #1665
      01008E98H   LINE      ---      ---       #1667
      01008E9EH   LINE      ---      ---       #1668
      01008EA9H   LINE      ---      ---       #1669
      01008EB6H   LINE      ---      ---       #1670
      01008EB6H   LINE      ---      ---       #1671
      01008EBAH   LINE      ---      ---       #1672
      01008EC7H   LINE      ---      ---       #1673
      01008EDAH   LINE      ---      ---       #1675
      01008EDAH   LINE      ---      ---       #1676
      01008EDCH   LINE      ---      ---       #1678
      01008EDCH   LINE      ---      ---       #1679
      01008EE2H   LINE      ---      ---       #1680
      01008EEDH   LINE      ---      ---       #1681
      01008F01H   LINE      ---      ---       #1683
      01008F12H   LINE      ---      ---       #1684
      01008F12H   LINE      ---      ---       #1685
      01008F14H   LINE      ---      ---       #1686
      01008F14H   LINE      ---      ---       #1687
      02000110H   SYMBOL    XDATA    WORD      i
      02000112H   SYMBOL    XDATA    BYTE      DispEnable
      0200033BH   SYMBOL    XDATA    BYTE      ReCnt
      ---         BLOCKEND  CODE     ---       LVL=1
      ---         BLOCKEND  CODE     ---       LVL=0
      01006E82H   LINE      ---      ---       #765
      01006E8BH   LINE      ---      ---       #766
      01006E99H   LINE      ---      ---       #767
      01006EA7H   LINE      ---      ---       #770
      01006EB5H   LINE      ---      ---       #773
      01006EE8H   LINE      ---      ---       #778
      01006EF3H   LINE      ---      ---       #780
      01006F18H   LINE      ---      ---       #787
      01006F18H   LINE      ---      ---       #788
      01006F1AH   LINE      ---      ---       #789
      01006F1AH   LINE      ---      ---       #790
LX51 LINKER/LOCATER V4.66.93.0                                                        04/19/2019  09:16:48  PAGE 181


      01006F1FH   LINE      ---      ---       #791

      ---         MODULE    ---      ---       UART_FUN
      0200024FH   PUBLIC    XDATA    BYTE      eusartRxCount
      0100A055H   PUBLIC    CODE     ---       EUSART_Receive_ISR
      0100A078H   PUBLIC    CODE     ---       EUSART_Transmit_ISR
      0100C24CH   PUBLIC    CODE     ---       _EUSART_Write_Str
      0100C265H   PUBLIC    CODE     ---       _EUSART_Write
      0100A08BH   PUBLIC    CODE     ---       EUSART_Read
      0100C6E5H   PUBLIC    CODE     ---       EUSART_Initialize
      000000E0H   SFRSYM    DATA     BYTE      ACC
      000000F0H   SFRSYM    DATA     BYTE      B
      000000D0H   SFRSYM    DATA     BYTE      PSW
      000000D0H.7 SFRSYM    DATA     BIT       CY
      000000D0H.6 SFRSYM    DATA     BIT       AC
      000000D0H.5 SFRSYM    DATA     BIT       F0
      000000D0H.4 SFRSYM    DATA     BIT       RS1
      000000D0H.3 SFRSYM    DATA     BIT       RS0
      000000D0H.2 SFRSYM    DATA     BIT       OV
      000000D0H.0 SFRSYM    DATA     BIT       P
      00000081H   SFRSYM    DATA     BYTE      SP
      00000082H   SFRSYM    DATA     BYTE      DPL
      00000083H   SFRSYM    DATA     BYTE      DPH
      00000087H   SFRSYM    DATA     BYTE      PCON
      0000008EH   SFRSYM    DATA     BYTE      AUXR
      000000A2H   SFRSYM    DATA     BYTE      AUXR1
      0000008FH   SFRSYM    DATA     BYTE      WAKE_CLKO
      00000097H   SFRSYM    DATA     BYTE      CLK_DIV
      000000A1H   SFRSYM    DATA     BYTE      BUS_SPEED
      000000A8H   SFRSYM    DATA     BYTE      IE
      000000A8H.7 SFRSYM    DATA     BIT       EA
      000000A8H.6 SFRSYM    DATA     BIT       ELVD
      000000A8H.5 SFRSYM    DATA     BIT       EADC
      000000A8H.4 SFRSYM    DATA     BIT       ES
      000000A8H.3 SFRSYM    DATA     BIT       ET1
      000000A8H.2 SFRSYM    DATA     BIT       EX1
      000000A8H.1 SFRSYM    DATA     BIT       ET0
      000000A8H.0 SFRSYM    DATA     BIT       EX0
      000000AFH   SFRSYM    DATA     BYTE      IE2
      000000B8H   SFRSYM    DATA     BYTE      IP
      000000B8H.7 SFRSYM    DATA     BIT       PPCA
      000000B8H.6 SFRSYM    DATA     BIT       PLVD
      000000B8H.5 SFRSYM    DATA     BIT       PADC
      000000B8H.4 SFRSYM    DATA     BIT       PS
      000000B8H.3 SFRSYM    DATA     BIT       PT1
      000000B8H.2 SFRSYM    DATA     BIT       PX1
      000000B8H.1 SFRSYM    DATA     BIT       PT0
      000000B8H.0 SFRSYM    DATA     BIT       PX0
      000000B7H   SFRSYM    DATA     BYTE      IPH
      000000B5H   SFRSYM    DATA     BYTE      IP2
      000000B6H   SFRSYM    DATA     BYTE      IPH2
      00000080H   SFRSYM    DATA     BYTE      P0
      00000080H.0 SFRSYM    DATA     BIT       P00
      00000080H.1 SFRSYM    DATA     BIT       P01
      00000080H.2 SFRSYM    DATA     BIT       P02
      00000080H.3 SFRSYM    DATA     BIT       P03
      00000080H.4 SFRSYM    DATA     BIT       P04
      00000080H.5 SFRSYM    DATA     BIT       P05
      00000080H.6 SFRSYM    DATA     BIT       P06
      00000080H.7 SFRSYM    DATA     BIT       P07
      00000094H   SFRSYM    DATA     BYTE      P0M0
      00000093H   SFRSYM    DATA     BYTE      P0M1
      00000090H   SFRSYM    DATA     BYTE      P1
      00000090H.0 SFRSYM    DATA     BIT       P10
      00000090H.1 SFRSYM    DATA     BIT       P11
LX51 LINKER/LOCATER V4.66.93.0                                                        04/19/2019  09:16:48  PAGE 182


      00000090H.2 SFRSYM    DATA     BIT       P12
      00000090H.3 SFRSYM    DATA     BIT       P13
      00000090H.4 SFRSYM    DATA     BIT       P14
      00000090H.5 SFRSYM    DATA     BIT       P15
      00000090H.6 SFRSYM    DATA     BIT       P16
      00000090H.7 SFRSYM    DATA     BIT       P17
      00000092H   SFRSYM    DATA     BYTE      P1M0
      00000091H   SFRSYM    DATA     BYTE      P1M1
      0000009DH   SFRSYM    DATA     BYTE      P1ASF
      000000A0H   SFRSYM    DATA     BYTE      P2
      000000A0H.0 SFRSYM    DATA     BIT       P20
      000000A0H.1 SFRSYM    DATA     BIT       P21
      000000A0H.2 SFRSYM    DATA     BIT       P22
      000000A0H.3 SFRSYM    DATA     BIT       P23
      000000A0H.4 SFRSYM    DATA     BIT       P24
      000000A0H.5 SFRSYM    DATA     BIT       P25
      000000A0H.6 SFRSYM    DATA     BIT       P26
      000000A0H.7 SFRSYM    DATA     BIT       P27
      00000096H   SFRSYM    DATA     BYTE      P2M0
      00000095H   SFRSYM    DATA     BYTE      P2M1
      000000B0H   SFRSYM    DATA     BYTE      P3
      000000B0H.0 SFRSYM    DATA     BIT       P30
      000000B0H.1 SFRSYM    DATA     BIT       P31
      000000B0H.2 SFRSYM    DATA     BIT       P32
      000000B0H.3 SFRSYM    DATA     BIT       P33
      000000B0H.4 SFRSYM    DATA     BIT       P34
      000000B0H.5 SFRSYM    DATA     BIT       P35
      000000B0H.6 SFRSYM    DATA     BIT       P36
      000000B0H.7 SFRSYM    DATA     BIT       P37
      000000B2H   SFRSYM    DATA     BYTE      P3M0
      000000B1H   SFRSYM    DATA     BYTE      P3M1
      000000C0H   SFRSYM    DATA     BYTE      P4
      000000C0H.0 SFRSYM    DATA     BIT       P40
      000000C0H.1 SFRSYM    DATA     BIT       P41
      000000C0H.2 SFRSYM    DATA     BIT       P42
      000000C0H.3 SFRSYM    DATA     BIT       P43
      000000C0H.4 SFRSYM    DATA     BIT       P44
      000000C0H.5 SFRSYM    DATA     BIT       P45
      000000C0H.6 SFRSYM    DATA     BIT       P46
      000000C0H.7 SFRSYM    DATA     BIT       P47
      000000B4H   SFRSYM    DATA     BYTE      P4M0
      000000B3H   SFRSYM    DATA     BYTE      P4M1
      000000BBH   SFRSYM    DATA     BYTE      P4SW
      000000C8H   SFRSYM    DATA     BYTE      P5
      000000CAH   SFRSYM    DATA     BYTE      P5M0
      000000C9H   SFRSYM    DATA     BYTE      P5M1
      00000088H   SFRSYM    DATA     BYTE      TCON
      00000088H.7 SFRSYM    DATA     BIT       TF1
      00000088H.6 SFRSYM    DATA     BIT       TR1
      00000088H.5 SFRSYM    DATA     BIT       TF0
      00000088H.4 SFRSYM    DATA     BIT       TR0
      00000088H.3 SFRSYM    DATA     BIT       IE1
      00000088H.2 SFRSYM    DATA     BIT       IT1
      00000088H.1 SFRSYM    DATA     BIT       IE0
      00000088H.0 SFRSYM    DATA     BIT       IT0
      00000089H   SFRSYM    DATA     BYTE      TMOD
      0000008AH   SFRSYM    DATA     BYTE      TL0
      0000008CH   SFRSYM    DATA     BYTE      TH0
      0000008BH   SFRSYM    DATA     BYTE      TL1
      0000008DH   SFRSYM    DATA     BYTE      TH1
      00000098H   SFRSYM    DATA     BYTE      SCON
      00000098H.7 SFRSYM    DATA     BIT       SM0
      00000098H.6 SFRSYM    DATA     BIT       SM1
      00000098H.5 SFRSYM    DATA     BIT       SM2
      00000098H.4 SFRSYM    DATA     BIT       REN
LX51 LINKER/LOCATER V4.66.93.0                                                        04/19/2019  09:16:48  PAGE 183


      00000098H.3 SFRSYM    DATA     BIT       TB8
      00000098H.2 SFRSYM    DATA     BIT       RB8
      00000098H.1 SFRSYM    DATA     BIT       TI
      00000098H.0 SFRSYM    DATA     BIT       RI
      00000099H   SFRSYM    DATA     BYTE      SBUF
      000000B9H   SFRSYM    DATA     BYTE      SADEN
      000000A9H   SFRSYM    DATA     BYTE      SADDR
      0000009AH   SFRSYM    DATA     BYTE      S2CON
      0000009BH   SFRSYM    DATA     BYTE      S2BUF
      0000009CH   SFRSYM    DATA     BYTE      BRT
      000000C1H   SFRSYM    DATA     BYTE      WDT_CONTR
      000000D8H   SFRSYM    DATA     BYTE      CCON
      000000D8H.7 SFRSYM    DATA     BIT       CF
      000000D8H.6 SFRSYM    DATA     BIT       CR
      000000D8H.1 SFRSYM    DATA     BIT       CCF1
      000000D8H.0 SFRSYM    DATA     BIT       CCF0
      000000D9H   SFRSYM    DATA     BYTE      CMOD
      000000E9H   SFRSYM    DATA     BYTE      CL
      000000F9H   SFRSYM    DATA     BYTE      CH
      000000DAH   SFRSYM    DATA     BYTE      CCAPM0
      000000DBH   SFRSYM    DATA     BYTE      CCAPM1
      000000EAH   SFRSYM    DATA     BYTE      CCAP0L
      000000FAH   SFRSYM    DATA     BYTE      CCAP0H
      000000EBH   SFRSYM    DATA     BYTE      CCAP1L
      000000FBH   SFRSYM    DATA     BYTE      CCAP1H
      000000F2H   SFRSYM    DATA     BYTE      PCA_PWM0
      000000F3H   SFRSYM    DATA     BYTE      PCA_PWM1
      000000BCH   SFRSYM    DATA     BYTE      ADC_CONTR
      000000BDH   SFRSYM    DATA     BYTE      ADC_RES
      000000BEH   SFRSYM    DATA     BYTE      ADC_RESL
      000000CEH   SFRSYM    DATA     BYTE      SPCTL
      000000CDH   SFRSYM    DATA     BYTE      SPSTAT
      000000CFH   SFRSYM    DATA     BYTE      SPDAT
      000000C2H   SFRSYM    DATA     BYTE      IAP_DATA
      000000C3H   SFRSYM    DATA     BYTE      IAP_ADDRH
      000000C4H   SFRSYM    DATA     BYTE      IAP_ADDRL
      000000C5H   SFRSYM    DATA     BYTE      IAP_CMD
      000000C6H   SFRSYM    DATA     BYTE      IAP_TRIG
      000000C7H   SFRSYM    DATA     BYTE      IAP_CONTR
      02000250H   SYMBOL    XDATA    BYTE      eusartRxHead
      02000251H   SYMBOL    XDATA    BYTE      eusartRxTail
      02000252H   SYMBOL    XDATA    ---       eusartRxBuffer
      020002D2H   SYMBOL    XDATA    BYTE      Send_uart_busy
      0100C26BH   SYMBOL    CODE     ---       _send_char_com

      0100C6E5H   BLOCK     CODE     ---       LVL=0
      0100C6E5H   LINE      ---      ---       #42
      0100C6E5H   LINE      ---      ---       #43
      0100C6E5H   LINE      ---      ---       #44
      0100C6E8H   LINE      ---      ---       #45
      0100C6EBH   LINE      ---      ---       #46
      0100C6EEH   LINE      ---      ---       #47
      0100C6F1H   LINE      ---      ---       #48
      0100C6F4H   LINE      ---      ---       #49
      0100C6F6H   LINE      ---      ---       #51
      0100C6FBH   LINE      ---      ---       #52
      0100C6FDH   LINE      ---      ---       #53
      0100C701H   LINE      ---      ---       #54
      ---         BLOCKEND  ---      ---       LVL=0

      0100A08BH   BLOCK     CODE     ---       LVL=0
      0100A08BH   LINE      ---      ---       #57
      0100A08BH   LINE      ---      ---       #58
      0100A08BH   BLOCK     CODE     NEAR LAB  LVL=1
      0100A08BH   LINE      ---      ---       #61
LX51 LINKER/LOCATER V4.66.93.0                                                        04/19/2019  09:16:48  PAGE 184


      0100A092H   LINE      ---      ---       #62
      0100A098H   LINE      ---      ---       #63
      0100A0A4H   LINE      ---      ---       #64
      0100A0A4H   LINE      ---      ---       #65
      0100A0A6H   LINE      ---      ---       #66
      0100A0A6H   LINE      ---      ---       #67
      0100A0ACH   LINE      ---      ---       #68
      0100A0ACH   LINE      ---      ---       #69
      00000007H   SYMBOL    DATA     BYTE      readValue
      ---         BLOCKEND  CODE     ---       LVL=1
      ---         BLOCKEND  CODE     ---       LVL=0

      0100C26BH   BLOCK     CODE     ---       LVL=0
      0100C26BH   LINE      ---      ---       #72
      0100C26BH   LINE      ---      ---       #73
      0100C26BH   LINE      ---      ---       #74
      0100C26CH   LINE      ---      ---       #75
      0100C26EH   LINE      ---      ---       #76
      0100C274H   LINE      ---      ---       #77
      00000007H   SYMBOL    DATA     BYTE      Send_ch
      ---         BLOCKEND  ---      ---       LVL=0

      0100C265H   BLOCK     CODE     ---       LVL=0
      0100C265H   LINE      ---      ---       #80
      0100C265H   LINE      ---      ---       #81
      0100C265H   LINE      ---      ---       #82
      00000007H   SYMBOL    DATA     BYTE      txData
      ---         BLOCKEND  ---      ---       LVL=0

      0100C24CH   BLOCK     CODE     ---       LVL=0
      0100C24CH   LINE      ---      ---       #87
      0100C252H   LINE      ---      ---       #88
      02000115H   SYMBOL    XDATA    ---       stra
      00000005H   SYMBOL    DATA     BYTE      cnt
      0100C252H   BLOCK     CODE     NEAR LAB  LVL=1
      0100C252H   LINE      ---      ---       #90
      0100C259H   LINE      ---      ---       #91
      0100C259H   LINE      ---      ---       #92
      0100C261H   LINE      ---      ---       #93
      0100C264H   LINE      ---      ---       #94
      00000006H   SYMBOL    DATA     BYTE      i
      ---         BLOCKEND  CODE     ---       LVL=1
      ---         BLOCKEND  CODE     ---       LVL=0

      0100A078H   BLOCK     CODE     ---       LVL=0
      0100A078H   LINE      ---      ---       #96
      0100A078H   LINE      ---      ---       #97
      0100A078H   LINE      ---      ---       #98
      0100A07AH   LINE      ---      ---       #99
      0100A07FH   LINE      ---      ---       #100
      ---         BLOCKEND  ---      ---       LVL=0

      0100A055H   BLOCK     CODE     ---       LVL=0
      0100A055H   LINE      ---      ---       #103
      0100A055H   LINE      ---      ---       #104
      0100A055H   LINE      ---      ---       #106
      0100A05DH   LINE      ---      ---       #107
      0100A063H   LINE      ---      ---       #109
      0100A06FH   LINE      ---      ---       #110
      0100A06FH   LINE      ---      ---       #111
      0100A071H   LINE      ---      ---       #112
      0100A071H   LINE      ---      ---       #113
      0100A077H   LINE      ---      ---       #114
      ---         BLOCKEND  ---      ---       LVL=0

LX51 LINKER/LOCATER V4.66.93.0                                                        04/19/2019  09:16:48  PAGE 185


      ---         MODULE    ---      ---       ?C_STARTUP
      01000000H   PUBLIC    CODE     ---       ?C_STARTUP

      ---         MODULE    ---      ---       ?C?COPY
      010000F6H   PUBLIC    CODE     ---       ?C?COPY

      ---         MODULE    ---      ---       ?C?CLDPTR
      0100011CH   PUBLIC    CODE     ---       ?C?CLDPTR

      ---         MODULE    ---      ---       ?C?CLDOPTR
      01000135H   PUBLIC    CODE     ---       ?C?CLDOPTR

      ---         MODULE    ---      ---       ?C?CSTPTR
      01000162H   PUBLIC    CODE     ---       ?C?CSTPTR

      ---         MODULE    ---      ---       ?C?CSTOPTR
      01000174H   PUBLIC    CODE     ---       ?C?CSTOPTR

      ---         MODULE    ---      ---       ?C?IMUL
      01000196H   PUBLIC    CODE     ---       ?C?IMUL

      ---         MODULE    ---      ---       ?C?UIDIV
      010001A8H   PUBLIC    CODE     ---       ?C?UIDIV

      ---         MODULE    ---      ---       ?C?SIDIV
      010001FDH   PUBLIC    CODE     ---       ?C?SIDIV

      ---         MODULE    ---      ---       ?C?IILDX
      01000233H   PUBLIC    CODE     ---       ?C?IILDX

      ---         MODULE    ---      ---       ?C?LADD
      01000249H   PUBLIC    CODE     ---       ?C?LADD

      ---         MODULE    ---      ---       ?C?LSUB
      01000256H   PUBLIC    CODE     ---       ?C?LSUB

      ---         MODULE    ---      ---       ?C?LMUL
      01000264H   PUBLIC    CODE     ---       ?C?LMUL

      ---         MODULE    ---      ---       ?C?ULDIV
      010002EFH   PUBLIC    CODE     ---       ?C?ULDIV

      ---         MODULE    ---      ---       ?C?SLDIV
      010009ECH   PUBLIC    CODE     ---       ?C?SLDIV

      ---         MODULE    ---      ---       ?C?LAND
      01000381H   PUBLIC    CODE     ---       ?C?LAND

      ---         MODULE    ---      ---       ?C?LOR
      0100038EH   PUBLIC    CODE     ---       ?C?LOR

      ---         MODULE    ---      ---       ?C?LNOT
      0100039BH   PUBLIC    CODE     ---       ?C?LNOT

      ---         MODULE    ---      ---       ?C?SLCMP
      010003A8H   PUBLIC    CODE     ---       ?C?SLCMP

      ---         MODULE    ---      ---       ?C?ULCMP
      010003BEH   PUBLIC    CODE     ---       ?C?ULCMP

      ---         MODULE    ---      ---       ?C?ULSHR
      010003CFH   PUBLIC    CODE     ---       ?C?ULSHR

      ---         MODULE    ---      ---       ?C?LSHL
      010003E2H   PUBLIC    CODE     ---       ?C?LSHL
LX51 LINKER/LOCATER V4.66.93.0                                                        04/19/2019  09:16:48  PAGE 186



      ---         MODULE    ---      ---       ?C?LLDXDATA
      010003F5H   PUBLIC    CODE     ---       ?C?LLDXDATA

      ---         MODULE    ---      ---       ?C?LLDXDATA0
      01000401H   PUBLIC    CODE     ---       ?C?LLDXDATA0

      ---         MODULE    ---      ---       ?C?LSTXDATA
      0100040DH   PUBLIC    CODE     ---       ?C?LSTXDATA

      ---         MODULE    ---      ---       ?C?LSTKXDATA
      01000419H   PUBLIC    CODE     ---       ?C?LSTKXDATA

      ---         MODULE    ---      ---       ?C?OFFXADD
      0100044AH   PUBLIC    CODE     ---       ?C?OFFXADD

      ---         MODULE    ---      ---       ?C?PLDXDATA
      01000456H   PUBLIC    CODE     ---       ?C?PLDXDATA

      ---         MODULE    ---      ---       ?C?PSTXDATA
      0100045FH   PUBLIC    CODE     ---       ?C?PSTXDATA

      ---         MODULE    ---      ---       ?C?PLDPTR
      01000468H   PUBLIC    CODE     ---       ?C?PLDPTR

      ---         MODULE    ---      ---       ?C?PLDOPTR
      01000488H   PUBLIC    CODE     ---       ?C?PLDOPTR

      ---         MODULE    ---      ---       ?C?CCASE
      010004B8H   PUBLIC    CODE     ---       ?C?CCASE

      ---         MODULE    ---      ---       ?C?ICALL
      010004DEH   PUBLIC    CODE     ---       ?C?ICALL
      010004E2H   PUBLIC    CODE     ---       ?C?ICALL2

      ---         MODULE    ---      ---       ABS
      01000016H   PUBLIC    CODE     ---       _ABS

      ---         MODULE    ---      ---       ?C?STRCPY
      010005B0H   PUBLIC    CODE     ---       ?C?STRCPY

      ---         MODULE    ---      ---       ?C_INIT
      010009A7H   PUBLIC    CODE     ---       ?C_START

      ---         MODULE    ---      ---       ?C?PLDIDATA
      010005CDH   PUBLIC    CODE     ---       ?C?PLDIDATA

      ---         MODULE    ---      ---       ?C?PLDPDATA
      010005D6H   PUBLIC    CODE     ---       ?C?PLDPDATA

      ---         MODULE    ---      ---       ?C?PLDCODE
      010005DFH   PUBLIC    CODE     ---       ?C?PLDCODE

      ---         MODULE    ---      ---       ?L?COMMON
      01008695H   SYMBOL    CODE     NEAR LAB  ?L?COM0001
      010065F9H   SYMBOL    CODE     NEAR LAB  ?L?COM0005
      01008D98H   SYMBOL    CODE     NEAR LAB  ?L?COM0009
      010067A9H   SYMBOL    CODE     NEAR LAB  ?L?COM0010
      010074B2H   SYMBOL    CODE     NEAR LAB  ?L?COM0014
      01007D8EH   SYMBOL    CODE     NEAR LAB  ?L?COM0017
      01007A78H   SYMBOL    CODE     NEAR LAB  ?L?COM001C
      0100C702H   SYMBOL    CODE     NEAR LAB  ?L?COM0020
      01008DC4H   SYMBOL    CODE     NEAR LAB  ?L?COM0023
      010067DDH   SYMBOL    CODE     NEAR LAB  ?L?COM0027
      010086B0H   SYMBOL    CODE     NEAR LAB  ?L?COM002A
LX51 LINKER/LOCATER V4.66.93.0                                                        04/19/2019  09:16:48  PAGE 187


      01008F9FH   SYMBOL    CODE     NEAR LAB  ?L?COM002E
      01006F20H   SYMBOL    CODE     NEAR LAB  ?L?COM0032
      01006625H   SYMBOL    CODE     NEAR LAB  ?L?COM0036
      01008A9DH   SYMBOL    CODE     NEAR LAB  ?L?COM0039
      0100BF67H   SYMBOL    CODE     NEAR LAB  ?L?COM0040
      01009539H   SYMBOL    CODE     NEAR LAB  ?L?COM0043
      01008FB9H   SYMBOL    CODE     NEAR LAB  ?L?COM0046
      0100A3ACH   SYMBOL    CODE     NEAR LAB  ?L?COM0048
      01008A5EH   SYMBOL    CODE     NEAR LAB  ?L?COM004B
      01008A1DH   SYMBOL    CODE     NEAR LAB  ?L?COM004D
      010086DBH   SYMBOL    CODE     NEAR LAB  ?L?COM0052
      0100A775H   SYMBOL    CODE     NEAR LAB  ?L?COM0054
      01008DFCH   SYMBOL    CODE     NEAR LAB  ?L?COM0055
      01008750H   SYMBOL    CODE     NEAR LAB  ?L?COM0058
      01007F4BH   SYMBOL    CODE     NEAR LAB  ?L?COM005E
      010091D4H   SYMBOL    CODE     NEAR LAB  ?L?COM0060
      01008742H   SYMBOL    CODE     NEAR LAB  ?L?COM0063
      01009524H   SYMBOL    CODE     NEAR LAB  ?L?COM0064
      01007674H   SYMBOL    CODE     NEAR LAB  ?L?COM0068
      01009E36H   SYMBOL    CODE     NEAR LAB  ?L?COM006B
      0100BB03H   SYMBOL    CODE     NEAR LAB  ?L?COM006D
      0100B234H   SYMBOL    CODE     NEAR LAB  ?L?COM0070
      010086C2H   SYMBOL    CODE     NEAR LAB  ?L?COM0074
      01000003H   SYMBOL    CODE     NEAR LAB  ?L?COM0076
      0100740EH   SYMBOL    CODE     NEAR LAB  ?L?COM0077
      0100A731H   SYMBOL    CODE     NEAR LAB  ?L?COM0079
      0100A758H   SYMBOL    CODE     NEAR LAB  ?L?COM007D
      01009E1EH   SYMBOL    CODE     NEAR LAB  ?L?COM0080
      0100919CH   SYMBOL    CODE     NEAR LAB  ?L?COM0083
      0100C74FH   SYMBOL    CODE     NEAR LAB  ?L?COM0085
      0100C768H   SYMBOL    CODE     NEAR LAB  ?L?COM0088
      0100BAF5H   SYMBOL    CODE     NEAR LAB  ?L?COM008A
      0100AA3DH   SYMBOL    CODE     NEAR LAB  ?L?COM008C
      0100B4FBH   SYMBOL    CODE     NEAR LAB  ?L?COM008E
      0100ABE7H   SYMBOL    CODE     NEAR LAB  ?L?COM0090
      0100966CH   SYMBOL    CODE     NEAR LAB  ?L?COM0092
      01006FBDH   SYMBOL    CODE     NEAR LAB  ?L?COM0094
      01009ED5H   SYMBOL    CODE     NEAR LAB  ?L?COM0097
      0100C788H   SYMBOL    CODE     NEAR LAB  ?L?COM009A
      01009530H   SYMBOL    CODE     NEAR LAB  ?L?COM009C
      010086FEH   SYMBOL    CODE     NEAR LAB  ?L?COM009E
      0100BF0EH   SYMBOL    CODE     NEAR LAB  ?L?COM009F
      01009E2CH   SYMBOL    CODE     NEAR LAB  ?L?COM00A0
      0100C7A2H   SYMBOL    CODE     NEAR LAB  ?L?COM00A1
      01009681H   SYMBOL    CODE     NEAR LAB  ?L?COM00A3
      0100968CH   SYMBOL    CODE     NEAR LAB  ?L?COM00A4
      0100AD7BH   SYMBOL    CODE     NEAR LAB  ?L?COM00A5
      0100B600H   SYMBOL    CODE     NEAR LAB  ?L?COM00A7
      010086CEH   SYMBOL    CODE     NEAR LAB  ?L?COM00A8
      0100C7B3H   SYMBOL    CODE     NEAR LAB  ?L?COM00AA
      0100C7CAH   SYMBOL    CODE     NEAR LAB  ?L?COM00AC
      010095B7H   SYMBOL    CODE     NEAR LAB  ?L?COM00AE
      0100C7E1H   SYMBOL    CODE     NEAR LAB  ?L?COM00B0
      01008F81H   SYMBOL    CODE     NEAR LAB  ?L?COM00B1
      0100AF34H   SYMBOL    CODE     NEAR LAB  ?L?COM00B3
      0100B215H   SYMBOL    CODE     NEAR LAB  ?L?COM00B5
      0100C7F5H   SYMBOL    CODE     NEAR LAB  ?L?COM00B9
      010080AFH   SYMBOL    CODE     NEAR LAB  ?L?COM00BA
      010072D5H   SYMBOL    CODE     NEAR LAB  ?L?COM00BC
      010091A6H   SYMBOL    CODE     NEAR LAB  ?L?COM00BD
      0100AD29H   SYMBOL    CODE     NEAR LAB  ?L?COM00C0
      01007F43H   SYMBOL    CODE     NEAR LAB  ?L?COM00C2
      0100A7CAH   SYMBOL    CODE     NEAR LAB  ?L?COM00C3
      0100AF44H   SYMBOL    CODE     NEAR LAB  ?L?COM00C5
      01007742H   SYMBOL    CODE     NEAR LAB  ?L?COM00C9
LX51 LINKER/LOCATER V4.66.93.0                                                        04/19/2019  09:16:48  PAGE 188


      01006824H   SYMBOL    CODE     NEAR LAB  ?L?COM00CB
      010087E8H   SYMBOL    CODE     NEAR LAB  ?L?COM00CC
      0100A73DH   SYMBOL    CODE     NEAR LAB  ?L?COM00CE
      01008A44H   SYMBOL    CODE     NEAR LAB  ?L?COM00D0
      01007FA2H   SYMBOL    CODE     NEAR LAB  ?L?COM00D2
      01008705H   SYMBOL    CODE     NEAR LAB  ?L?COM00D5
      010091C6H   SYMBOL    CODE     NEAR LAB  ?L?COM00D6
      0100AFD5H   SYMBOL    CODE     NEAR LAB  ?L?COM00D8
      0100C817H   SYMBOL    CODE     NEAR LAB  ?L?COM00D9
      01006FC9H   SYMBOL    CODE     NEAR LAB  ?L?COM00DB
      0100C82FH   SYMBOL    CODE     NEAR LAB  ?L?COM00DC
      0100BD43H   SYMBOL    CODE     NEAR LAB  ?L?COM00DE
      0100C241H   SYMBOL    CODE     NEAR LAB  ?L?COM00E3
      0100ABD9H   SYMBOL    CODE     NEAR LAB  ?L?COM00E5
      01009F01H   SYMBOL    CODE     NEAR LAB  ?L?COM00E7
      0100BD27H   SYMBOL    CODE     NEAR LAB  ?L?COM00E9
      0100BD7AH   SYMBOL    CODE     NEAR LAB  ?L?COM00EB
      010087A7H   SYMBOL    CODE     NEAR LAB  ?L?COM00ED
      01008F8CH   SYMBOL    CODE     NEAR LAB  ?L?COM00EF
      010091BBH   SYMBOL    CODE     NEAR LAB  ?L?COM00F1
      01008714H   SYMBOL    CODE     NEAR LAB  ?L?COM00F2
      01009EF9H   SYMBOL    CODE     NEAR LAB  ?L?COM00F4
      0100B47EH   SYMBOL    CODE     NEAR LAB  ?L?COM00F6
      01008F53H   SYMBOL    CODE     NEAR LAB  ?L?COM00F7
      01006FEFH   SYMBOL    CODE     NEAR LAB  ?L?COM00F8
      0100A7D8H   SYMBOL    CODE     NEAR LAB  ?L?COM00FB
      0100C83FH   SYMBOL    CODE     NEAR LAB  ?L?COM00FC
      0100AEE6H   SYMBOL    CODE     NEAR LAB  ?L?COM00FE
      0100B48CH   SYMBOL    CODE     NEAR LAB  ?L?COM0100
      01006FD4H   SYMBOL    CODE     NEAR LAB  ?L?COM0102
      0100798CH   SYMBOL    CODE     NEAR LAB  ?L?COM0104
      010077A6H   SYMBOL    CODE     NEAR LAB  ?L?COM0106
      0100A1A1H   SYMBOL    CODE     NEAR LAB  ?L?COM0107
      0100871CH   SYMBOL    CODE     NEAR LAB  ?L?COM0108
      0100AFA7H   SYMBOL    CODE     NEAR LAB  ?L?COM010A
      01008A51H   SYMBOL    CODE     NEAR LAB  ?L?COM010C
      0100C1A9H   SYMBOL    CODE     NEAR LAB  ?L?COM010E
      010091B1H   SYMBOL    CODE     NEAR LAB  ?L?COM0110
      0100B6FDH   SYMBOL    CODE     NEAR LAB  ?L?COM0111
      0100C850H   SYMBOL    CODE     NEAR LAB  ?L?COM0113
      0100B50EH   SYMBOL    CODE     NEAR LAB  ?L?COM0114
      0100B21FH   SYMBOL    CODE     NEAR LAB  ?L?COM0117
      0100B399H   SYMBOL    CODE     NEAR LAB  ?L?COM0118
      01007405H   SYMBOL    CODE     NEAR LAB  ?L?COM0119
      01008727H   SYMBOL    CODE     NEAR LAB  ?L?COM011A
      01009FE2H   SYMBOL    CODE     NEAR LAB  ?L?COM011C
      0100C865H   SYMBOL    CODE     NEAR LAB  ?L?COM011E
      0100879EH   SYMBOL    CODE     NEAR LAB  ?L?COM011F
      0100A79EH   SYMBOL    CODE     NEAR LAB  ?L?COM0120
      0100C5FDH   SYMBOL    CODE     NEAR LAB  ?L?COM0122
      010097EBH   SYMBOL    CODE     NEAR LAB  ?L?COM0123
      0100967AH   SYMBOL    CODE     NEAR LAB  ?L?COM0124
      01007494H   SYMBOL    CODE     NEAR LAB  ?L?COM0125
      0100A74DH   SYMBOL    CODE     NEAR LAB  ?L?COM0126
      010087F0H   SYMBOL    CODE     NEAR LAB  ?L?COM0128
      0100A7BEH   SYMBOL    CODE     NEAR LAB  ?L?COM0129
      01006FE0H   SYMBOL    CODE     NEAR LAB  ?L?COM012B
      0100AF2AH   SYMBOL    CODE     NEAR LAB  ?L?COM012D
      0100778AH   SYMBOL    CODE     NEAR LAB  ?L?COM0130
      0100B4B6H   SYMBOL    CODE     NEAR LAB  ?L?COM0132
      010087B1H   SYMBOL    CODE     NEAR LAB  ?L?COM0133
      0100969EH   SYMBOL    CODE     NEAR LAB  ?L?COM0134
      01006FB0H   SYMBOL    CODE     NEAR LAB  ?L?COM0136
      01008F5BH   SYMBOL    CODE     NEAR LAB  ?L?COM0138
      01008A8CH   SYMBOL    CODE     NEAR LAB  ?L?COM013A
LX51 LINKER/LOCATER V4.66.93.0                                                        04/19/2019  09:16:48  PAGE 189


      01006FB5H   SYMBOL    CODE     NEAR LAB  ?L?COM013B
      0100C878H   SYMBOL    CODE     NEAR LAB  ?L?COM013D
      0100BB1BH   SYMBOL    CODE     NEAR LAB  ?L?COM013E
      0100B046H   SYMBOL    CODE     NEAR LAB  ?L?COM0140
      010087C9H   SYMBOL    CODE     NEAR LAB  ?L?COM0142
      01008734H   SYMBOL    CODE     NEAR LAB  ?L?COM0143
      01008760H   SYMBOL    CODE     NEAR LAB  ?L?COM0144
      01009F2DH   SYMBOL    CODE     NEAR LAB  ?L?COM0145
      010097D9H   SYMBOL    CODE     NEAR LAB  ?L?COM0147
      0100AD72H   SYMBOL    CODE     NEAR LAB  ?L?COM0148
      0100AF5FH   SYMBOL    CODE     NEAR LAB  ?L?COM0149
      0100C889H   SYMBOL    CODE     NEAR LAB  ?L?COM014A
      0100C890H   SYMBOL    CODE     NEAR LAB  ?L?COM014B
      01008F77H   SYMBOL    CODE     NEAR LAB  ?L?COM014C
      0100873BH   SYMBOL    CODE     NEAR LAB  ?L?COM014D
      0100C899H   SYMBOL    CODE     NEAR LAB  ?L?COM014F
      0100C8A1H   SYMBOL    CODE     NEAR LAB  ?L?COM0151
      0100B4A7H   SYMBOL    CODE     NEAR LAB  ?L?COM0152
      0100BD6BH   SYMBOL    CODE     NEAR LAB  ?L?COM0153
      0100C8B0H   SYMBOL    CODE     NEAR LAB  ?L?COM0154
      010077E5H   SYMBOL    CODE     NEAR LAB  ?L?COM0155
      0100AF98H   SYMBOL    CODE     NEAR LAB  ?L?COM0157
      0100BD3AH   SYMBOL    CODE     NEAR LAB  ?L?COM0158
      0100C8BFH   SYMBOL    CODE     NEAR LAB  ?L?COM0159
      0100B7DAH   SYMBOL    CODE     NEAR LAB  ?L?COM015A
      0100C01EH   SYMBOL    CODE     NEAR LAB  ?L?COM015B
      0100AF8FH   SYMBOL    CODE     NEAR LAB  ?L?COM015C
      0100C8CCH   SYMBOL    CODE     NEAR LAB  ?L?COM015D
      0100876EH   SYMBOL    CODE     NEAR LAB  ?L?COM015E
      0100C8D5H   SYMBOL    CODE     NEAR LAB  ?L?COM015F
      0100C8E3H   SYMBOL    CODE     NEAR LAB  ?L?COM0160
      0100C8F1H   SYMBOL    CODE     NEAR LAB  ?L?COM0161
      0100C8FFH   SYMBOL    CODE     NEAR LAB  ?L?COM0162
      01009ECEH   SYMBOL    CODE     NEAR LAB  ?L?COM0163
      0100AFB7H   SYMBOL    CODE     NEAR LAB  ?L?COM0164
      0100AFDFH   SYMBOL    CODE     NEAR LAB  ?L?COM0165
      0100BE6DH   SYMBOL    CODE     NEAR LAB  ?L?COM0166
      0100C90DH   SYMBOL    CODE     NEAR LAB  ?L?COM0167
      0100C1B5H   SYMBOL    CODE     NEAR LAB  ?L?COM0168
      0100C919H   SYMBOL    CODE     NEAR LAB  ?L?COM0169
      0100BE7AH   SYMBOL    CODE     NEAR LAB  ?L?COM016A
      0100BE81H   SYMBOL    CODE     NEAR LAB  ?L?COM016B
      010077DEH   SYMBOL    CODE     NEAR LAB  ?L?COM016C
      0100C925H   SYMBOL    CODE     NEAR LAB  ?L?COM016D
      0100C932H   SYMBOL    CODE     NEAR LAB  ?L?COM016E
      0100B227H   SYMBOL    CODE     NEAR LAB  ?L?COM016F
      0100870DH   SYMBOL    CODE     NEAR LAB  ?L?COM0170
      010087BCH   SYMBOL    CODE     NEAR LAB  ?L?COM0171
      0100BE0FH   SYMBOL    CODE     NEAR LAB  ?L?COM0173
      0100C93FH   SYMBOL    CODE     NEAR LAB  ?L?COM0174
      01008F66H   SYMBOL    CODE     NEAR LAB  ?L?COM0176
      0100C948H   SYMBOL    CODE     NEAR LAB  ?L?COM0178
      0100C950H   SYMBOL    CODE     NEAR LAB  ?L?COM0179
      0100C95CH   SYMBOL    CODE     NEAR LAB  ?L?COM017A
      0100AF67H   SYMBOL    CODE     NEAR LAB  ?L?COM017B
      0100AF58H   SYMBOL    CODE     NEAR LAB  ?L?COM017C
      0100AF6FH   SYMBOL    CODE     NEAR LAB  ?L?COM017D
      0100AF77H   SYMBOL    CODE     NEAR LAB  ?L?COM017E
      0100C964H   SYMBOL    CODE     NEAR LAB  ?L?COM017F
      0100971DH   SYMBOL    CODE     NEAR LAB  ?L?COM0180
      0100C405H   SYMBOL    CODE     NEAR LAB  ?L?COM0181
      0100B49FH   SYMBOL    CODE     NEAR LAB  ?L?COM0182
      0100B466H   SYMBOL    CODE     NEAR LAB  ?L?COM0183
      0100B46EH   SYMBOL    CODE     NEAR LAB  ?L?COM0184
      0100B476H   SYMBOL    CODE     NEAR LAB  ?L?COM0185
LX51 LINKER/LOCATER V4.66.93.0                                                        04/19/2019  09:16:48  PAGE 190


      0100C970H   SYMBOL    CODE     NEAR LAB  ?L?COM0186
      01006FE8H   SYMBOL    CODE     NEAR LAB  ?L?COM0187
      0100C97CH   SYMBOL    CODE     NEAR LAB  ?L?COM0188
      0100BB29H   SYMBOL    CODE     NEAR LAB  ?L?COM0189
      0100A7EDH   SYMBOL    CODE     NEAR LAB  ?L?COM018A
      0100B7D2H   SYMBOL    CODE     NEAR LAB  ?L?COM018B
      01009FA3H   SYMBOL    CODE     NEAR LAB  ?L?COM018C
      01008776H   SYMBOL    CODE     NEAR LAB  ?L?COM018D
      01009F1DH   SYMBOL    CODE     NEAR LAB  ?L?COM018E
      01009FB2H   SYMBOL    CODE     NEAR LAB  ?L?COM018F
      0100AD6AH   SYMBOL    CODE     NEAR LAB  ?L?COM0191
      0100C988H   SYMBOL    CODE     NEAR LAB  ?L?COM0194
      0100A080H   SYMBOL    CODE     NEAR LAB  ?L?COM0195
      010097E0H   SYMBOL    CODE     NEAR LAB  ?L?COM0196
      0100C399H   SYMBOL    CODE     NEAR LAB  ?L?COM0197
      0100A7B4H   SYMBOL    CODE     NEAR LAB  ?L?COM0198
      01008FDFH   SYMBOL    CODE     NEAR LAB  ?L?COM0199
      0100BF38H   SYMBOL    CODE     NEAR LAB  ?L?COM019A
      01006A4CH   SYMBOL    CODE     NEAR LAB  ?L?COM019B
      0100877EH   SYMBOL    CODE     NEAR LAB  ?L?COM019C
      0100C992H   SYMBOL    CODE     NEAR LAB  ?L?COM019E
      0100C99DH   SYMBOL    CODE     NEAR LAB  ?L?COM019F
      0100C411H   SYMBOL    CODE     NEAR LAB  ?L?COM01A0
      01008F6FH   SYMBOL    CODE     NEAR LAB  ?L?COM01A2
      0100C9A4H   SYMBOL    CODE     NEAR LAB  ?L?COM01A3
      01008767H   SYMBOL    CODE     NEAR LAB  ?L?COM01A4
      01009717H   SYMBOL    CODE     NEAR LAB  ?L?COM01A5
      010080A6H   SYMBOL    CODE     NEAR LAB  ?L?COM01A6
      0100AFBEH   SYMBOL    CODE     NEAR LAB  ?L?COM01A7
      0100C9AEH   SYMBOL    CODE     NEAR LAB  ?L?COM01A8
      0100681DH   SYMBOL    CODE     NEAR LAB  ?L?COM01A9
      0100C9B5H   SYMBOL    CODE     NEAR LAB  ?L?COM01AA
      0100C5F6H   SYMBOL    CODE     NEAR LAB  ?L?COM01AB
      0100C9BEH   SYMBOL    CODE     NEAR LAB  ?L?COM01AC
      0100C9C7H   SYMBOL    CODE     NEAR LAB  ?L?COM01AD
      010087DAH   SYMBOL    CODE     NEAR LAB  ?L?COM01AE
      0100C9D0H   SYMBOL    CODE     NEAR LAB  ?L?COM01B0
      0100B14FH   SYMBOL    CODE     NEAR LAB  ?L?COM01B1
      010077CFH   SYMBOL    CODE     NEAR LAB  ?L?COM01B2
      0100C390H   SYMBOL    CODE     NEAR LAB  ?L?COM01B3
      0100C9D9H   SYMBOL    CODE     NEAR LAB  ?L?COM01B4
      01008FD5H   SYMBOL    CODE     NEAR LAB  ?L?COM01B7
      0100BD1EH   SYMBOL    CODE     NEAR LAB  ?L?COM01B8
      010087E1H   SYMBOL    CODE     NEAR LAB  ?L?COM01B9
      0100C9E3H   SYMBOL    CODE     NEAR LAB  ?L?COM01BA
      0100BAD6H   SYMBOL    CODE     NEAR LAB  ?L?COM01BB
      01009F0FH   SYMBOL    CODE     NEAR LAB  ?L?COM01BC
      01009F16H   SYMBOL    CODE     NEAR LAB  ?L?COM01BE
      01009FABH   SYMBOL    CODE     NEAR LAB  ?L?COM01BF
      0100C9EDH   SYMBOL    CODE     NEAR LAB  ?L?COM01C0
      010077EDH   SYMBOL    CODE     NEAR LAB  ?L?COM01C1
      01009697H   SYMBOL    CODE     NEAR LAB  ?L?COM01C2
      0100AD63H   SYMBOL    CODE     NEAR LAB  ?L?COM01C3
      0100C9F7H   SYMBOL    CODE     NEAR LAB  ?L?COM01C4
      0100CA01H   SYMBOL    CODE     NEAR LAB  ?L?COM01C5
      0100CA0BH   SYMBOL    CODE     NEAR LAB  ?L?COM01C6
      0100AF7FH   SYMBOL    CODE     NEAR LAB  ?L?COM01C7
      01009FBAH   SYMBOL    CODE     NEAR LAB  ?L?COM01C8
      0100BADDH   SYMBOL    CODE     NEAR LAB  ?L?COM01C9
      01008786H   SYMBOL    CODE     NEAR LAB  ?L?COM01CB
      0100CA13H   SYMBOL    CODE     NEAR LAB  ?L?COM01CC
      0100CA1BH   SYMBOL    CODE     NEAR LAB  ?L?COM01CD
      0100CA23H   SYMBOL    CODE     NEAR LAB  ?L?COM01CE
      0100BD53H   SYMBOL    CODE     NEAR LAB  ?L?COM01CF
      0100CA2AH   SYMBOL    CODE     NEAR LAB  ?L?COM01D1
LX51 LINKER/LOCATER V4.66.93.0                                                        04/19/2019  09:16:48  PAGE 191


      0100C5EEH   SYMBOL    CODE     NEAR LAB  ?L?COM01D2
      0100C606H   SYMBOL    CODE     NEAR LAB  ?L?COM01D4
      0100AF1BH   SYMBOL    CODE     NEAR LAB  ?L?COM01D5
      0100AF87H   SYMBOL    CODE     NEAR LAB  ?L?COM01D6
      01009FECH   SYMBOL    CODE     NEAR LAB  ?L?COM01D7
      0100AF23H   SYMBOL    CODE     NEAR LAB  ?L?COM01D8
      01006FF7H   SYMBOL    CODE     NEAR LAB  ?L?COM01D9
      0100CA32H   SYMBOL    CODE     NEAR LAB  ?L?COM01DA
      010077BAH   SYMBOL    CODE     NEAR LAB  ?L?COM01DB
      010077C1H   SYMBOL    CODE     NEAR LAB  ?L?COM01DC
      0100CA39H   SYMBOL    CODE     NEAR LAB  ?L?COM01DD
      0100897FH   SYMBOL    CODE     NEAR LAB  ?L?COM01DF
      0100CA41H   SYMBOL    CODE     NEAR LAB  ?L?COM01E0
      0100CA49H   SYMBOL    CODE     NEAR LAB  ?L?COM01E1
      0100B4F3H   SYMBOL    CODE     NEAR LAB  ?L?COM01E2
      0100B7E3H   SYMBOL    CODE     NEAR LAB  ?L?COM01E3
      0100B7EBH   SYMBOL    CODE     NEAR LAB  ?L?COM01E4
      01009F25H   SYMBOL    CODE     NEAR LAB  ?L?COM01E5
      0100CA51H   SYMBOL    CODE     NEAR LAB  ?L?COM01E6
      0100CA59H   SYMBOL    CODE     NEAR LAB  ?L?COM01E7
      0100BD5BH   SYMBOL    CODE     NEAR LAB  ?L?COM01E8
      0100BD63H   SYMBOL    CODE     NEAR LAB  ?L?COM01E9
      0100B6F5H   SYMBOL    CODE     NEAR LAB  ?L?COM01EA
      0100CA61H   SYMBOL    CODE     NEAR LAB  ?L?COM01EB
      0100CA69H   SYMBOL    CODE     NEAR LAB  ?L?COM01EC
      0100CA71H   SYMBOL    CODE     NEAR LAB  ?L?COM01ED
      0100CA79H   SYMBOL    CODE     NEAR LAB  ?L?COM01EE
      0100BAE5H   SYMBOL    CODE     NEAR LAB  ?L?COM01EF
      0100BAEDH   SYMBOL    CODE     NEAR LAB  ?L?COM01F0
      01009FC2H   SYMBOL    CODE     NEAR LAB  ?L?COM01F1
      01009FCAH   SYMBOL    CODE     NEAR LAB  ?L?COM01F2
      01009FD2H   SYMBOL    CODE     NEAR LAB  ?L?COM01F3
      0100AFC5H   SYMBOL    CODE     NEAR LAB  ?L?COM01F4
      01009FDAH   SYMBOL    CODE     NEAR LAB  ?L?COM01F5
      0100AFCDH   SYMBOL    CODE     NEAR LAB  ?L?COM01F6
      0100878EH   SYMBOL    CODE     NEAR LAB  ?L?COM01F7
      01008796H   SYMBOL    CODE     NEAR LAB  ?L?COM01F8
      010077C8H   SYMBOL    CODE     NEAR LAB  ?L?COM01F9
      0100CA81H   SYMBOL    CODE     NEAR LAB  ?L?COM01FA
      0100A7E6H   SYMBOL    CODE     NEAR LAB  ?L?COM01FB
      01008FEAH   SYMBOL    CODE     NEAR LAB  ?L?COM01FC

Program Size: data=25.1 xdata=866 const=22818 code=29030
LX51 RUN COMPLETE.  0 WARNING(S),  0 ERROR(S)
